00000000 a CR0_LT
00000000 A _vx_offset_COPROC_DESC_next
00000000 A _vx_offset_COPROC_TBL_ENTRY_pCtx
00000000 A _vx_offset_DL_LIST_head
00000000 A _vx_offset_DL_NODE_next
00000000 A _vx_offset_DRV_ENTRY_de_create
00000000 A _vx_offset_HANDLE_context
00000000 A _vx_offset_KERNEL_RTP_CMN_ctxCnt
00000000 A _vx_offset_MEM_PART_STATS_numBytesFree
00000000 A _vx_offset_MSG_Q_HEAD_list
00000000 A _vx_offset_OBJ_CLASS_handle
00000000 A _vx_offset_PAGE_MGR_OBJ_virtPgPoolId
00000000 A _vx_offset_POSIX_MSG_Q_ATTR_mq_maxmsg
00000000 A _vx_offset_POSIX_MSG_Q_DES_f_flag
00000000 A _vx_offset_PSEMAPHORE_objCore
00000000 A _vx_offset_RBUFF_INFO_TYPE_srcPart
00000000 A _vx_offset_RBUFF_TYPE_buffDesc
00000000 A _vx_offset_SEGMENT_segmentNode
00000000 A _vx_offset_SL_LIST_head
00000000 A _vx_offset_SL_NODE_next
00000000 A _vx_offset_SM_SEMAPHORE_verify
00000000 A _vx_offset_SYSCALL_ENTRY_STATE_args
00000000 A _vx_offset_TRIGGER_objCore
00000000 A _vx_offset_UNCOMPCB_node
00000000 A _vx_offset_WIND_ISR_objCore
00000000 A _vx_offset_WIND_OBJ_handle
00000000 A _vx_offset_WIND_SD_objCore
00000000 A _vx_offset_WIND_TCB_objCore
00000000 A _vx_offset_syscallEntryBaseOffset
00000000 A _wrs_kernel_tls_data_size
00000000 A _wrs_kernel_tls_vars_size
00000000 a msw
00000000 a msw
00000000 a msw
00000000 a msw
00000000 a r0
00000000 A sysAbsSymPhysMemBottom
00000000 A wrs_kernel_tls_data_size
00000000 A wrs_kernel_tls_vars_size
00000001 a CR0_GT
00000001 a SP
00000001 A _VX_DATA_ALIGN
00000001 a f_default
00000001 a f_default
00000001 a f_default_atan
00000001 a f_default_atan2
00000001 a f_default_exp
00000001 a f_default_log
00000001 a f_default_pow
00000002 a CR0_EQ
00000002 a RTOC
00000003 a r3
00000004 a BO_IF_NOT
00000004 a CR1_FX
00000004 A _vx_offset_COPROC_DESC_mask
00000004 A _vx_offset_COPROC_TBL_ENTRY_pDescriptor
00000004 A _vx_offset_DRV_ENTRY_de_delete
00000004 A _vx_offset_HANDLE_magic
00000004 A _vx_offset_KERNEL_RTP_CMN_vmContextId
00000004 A _vx_offset_MEM_PART_STATS_numBlocksFree
00000004 A _vx_offset_MEM_SECTION_HDR_size
00000004 A _vx_offset_MSG_NODE_msgLength
00000004 A _vx_offset_PAGE_MGR_OBJ_physPgPoolId
00000004 A _vx_offset_POSIX_MSG_Q_ATTR_mq_msgsize
00000004 A _vx_offset_POSIX_MSG_Q_DES_f_data
00000004 A _vx_offset_RBUFF_INFO_TYPE_options
00000004 A _vx_offset_REG_SET_sp
00000004 A _vx_offset_SM_BLOCK_HDR_nWords
00000004 A _vx_offset_SM_OBJ_objType
00000004 A _vx_offset_SM_SEMAPHORE_objType
00000004 A _vx_offset_SYMBOL_name
00000004 A _vx_offset_WIND_SOCKET_so_type
00000004 a lsw
00000004 a lsw
00000004 a lsw
00000004 a lsw
00000004 a r4
00000005 a CR1_FEX
00000005 a r5
00000006 a CR1_VX
00000006 A _vx_offset_ESFPPC_vecOffset
00000006 A _vx_offset_WIND_SOCKET_so_options
00000006 a r6
00000007 a r7
00000008 a LR
00000008 a P0
00000008 A _vx_offset_COPROC_DESC_ctxSize
00000008 A _vx_offset_COPROC_TBL_ENTRY_pTask
00000008 A _vx_offset_DEV_HDR_drvNum
00000008 A _vx_offset_DRV_ENTRY_de_open
00000008 A _vx_offset_HANDLE_attributes
00000008 A _vx_offset_KERNEL_RTP_CMN_pgMgrId
00000008 A _vx_offset_MEM_PART_STATS_maxBlockSizeFree
00000008 A _vx_offset_MSG_Q_HEAD_count
00000008 A _vx_offset_POSIX_MSG_Q_ATTR_mq_flags
00000008 A _vx_offset_Q_FIFO_G_HEAD_pFifoQ
00000008 A _vx_offset_RBUFF_INFO_TYPE_buffSize
00000008 A _vx_offset_SEGMENT_address
00000008 A _vx_offset_SL_LIST_size
00000008 A _vx_offset_SM_MSG_NODE_msgLength
00000008 A _vx_offset_SM_MSG_Q_msgQSem
00000008 A _vx_offset_SM_OBJ_TCB_localTcb
00000008 A _vx_offset_SM_PARTITION_freeList
00000008 A _vx_offset_SM_SEMAPHORE_lock
00000008 A _vx_offset_SYMBOL_value
00000008 A _vx_offset_UNCOMPCB_pSelfSocket
00000008 A _vx_offset_WIND_SOCKET_so_linger
00000008 a r8
00000009 a r9
0000000a A _vx_offset_HANDLE_type
0000000a A _vx_offset_WIND_SOCKET_so_state
0000000a a r10
0000000b A _vx_offset_HANDLE_contextType
0000000b a r11
0000000c a BO_IF
0000000c A _vx_offset_COPROC_DESC_ctxAlign
0000000c A _vx_offset_COPROC_TBL_ENTRY_size
0000000c A _vx_offset_DEV_HDR_name
0000000c A _vx_offset_DRV_ENTRY_de_close
0000000c A _vx_offset_ESFPPC_dar
0000000c A _vx_offset_HANDLE_objSize
0000000c A _vx_offset_HASH_TBL_elements
0000000c A _vx_offset_KERNEL_RTP_CMN_sharedDataList
0000000c A _vx_offset_MEM_PART_STATS_numBytesAlloc
0000000c A _vx_offset_MODLIST_DESC_moduleList
0000000c A _vx_offset_MSG_NODE_message
0000000c A _vx_offset_MSG_Q_HEAD_pendQ
0000000c A _vx_offset_OBJ_CLASS_objSize
0000000c A _vx_offset_PAGE_MGR_OBJ_vmContextId
0000000c A _vx_offset_POSIX_MSG_Q_ATTR_mq_curmsgs
0000000c A _vx_offset_RBUFF_INFO_TYPE_currBuffs
0000000c A _vx_offset_SECTION_DESC_sectionNode
0000000c A _vx_offset_SEGMENT_size
0000000c A _vx_offset_SM_MSG_NODE_message
0000000c A _vx_offset_SM_OBJ_MEM_HDR_smTcbPart
0000000c A _vx_offset_SM_OBJ_TCB_ownerCpu
0000000c A _vx_offset_SM_SEMAPHORE_smPendQ
0000000c A _vx_offset_SYMBOL_symRef
0000000c A _vx_offset_SYMTAB_nameHashId
0000000c A _vx_offset_UNCOMPCB_pPeerSocket
0000000c A _vx_offset_WIND_OBJ_ownerList
0000000c A _vx_offset_WIND_SOCKET_so_pcb
0000000c a r12
0000000d a r13
00000010 a BO_dCTR_NZERO
00000010 a P1
00000010 A _vx_offset_DRV_ENTRY_de_read
00000010 A _vx_offset_ESFPPC_dsisr
00000010 A _vx_offset_MEM_PART_STATS_numBlocksAlloc
00000010 A _vx_offset_OBJ_CLASS_altClassId
00000010 A _vx_offset_PAGE_MGR_OBJ_mmapList
00000010 A _vx_offset_RBUFF_INFO_TYPE_threshold
00000010 A _vx_offset_SEGMENT_type
00000010 A _vx_offset_SM_FREE_BLOCK_node
00000010 A _vx_offset_SYMBOL_group
00000010 A _vx_offset_UNCOMPCB_selfState
00000010 A _wrs_kernel_tls_data_align
00000010 A wrs_kernel_tls_data_align
00000012 a BO_dCTR_ZERO
00000012 A _vx_offset_SYMBOL_type
00000012 A _vx_offset_UNCOMPCB_selfName
00000014 a BO_ALWAYS
00000014 A _vx_offset_DRV_ENTRY_de_write
00000014 A _vx_offset_ESFPPC_fpcsr
00000014 A _vx_offset_KERNEL_RTP_CMN_pWdbInfo
00000014 A _vx_offset_MEM_PART_STATS_maxBytesAlloc
00000014 A _vx_offset_MODULE_nameWithPath
00000014 A _vx_offset_OBJ_CLASS_destroyRtn
00000014 A _vx_offset_RBUFF_INFO_TYPE_minBuffs
00000014 A _vx_offset_SECTION_DESC_name
00000014 A _vx_offset_SEGMENT_flags
00000014 A _vx_offset_SM_SEMAPHORE_count
00000014 A _vx_offset_SM_SEMAPHORE_flag
00000014 A _vx_offset_UNCOMPCB_pLastReg
00000014 A _vx_offset_WIND_OBJ_ownerNode
00000018 a P2
00000018 A _vx_offset_DRV_ENTRY_de_ioctl
00000018 A _vx_offset_ESFPPC_regSet
00000018 A _vx_offset_OBJ_CLASS_showRtn
00000018 A _vx_offset_PAGE_MGR_OBJ_options
00000018 A _vx_offset_RBUFF_INFO_TYPE_maxBuffs
00000018 A _vx_offset_SECTION_DESC_address
00000018 A _vx_offset_UNCOMPCB_pLastExp
0000001c A _vx_offset_HASH_TBL_pHashTbl
0000001c A _vx_offset_OBJ_CLASS_instRtn
0000001c A _vx_offset_RBUFF_INFO_TYPE_maxBuffsActual
0000001c A _vx_offset_SECTION_DESC_size
0000001c A _vx_offset_UNCOMPCB_pRecvPacket
0000001c A _vx_offset_WIND_OBJ_classNode
00000020 a P3
00000020 A _vx_offset_DRV_ENTRY_de_inuse
00000020 A _vx_offset_OBJ_CLASS_createRtn
00000020 A _vx_offset_RBUFF_INFO_TYPE_emptyBuffs
00000020 A _vx_offset_SECTION_DESC_type
00000020 A _vx_offset_SYSCALL_ENTRY_STATE_scn
00000020 A _vx_offset_UNCOMPCB_hiwatermark
00000020 a dp_x
00000020 a dp_x
00000020 a dp_x
00000020 a dp_x
00000020 a msw_x
00000020 a msw_x
00000020 a msw_x
00000020 a msw_x
00000022 A _vx_offset_UNCOMPCB_dropped
00000022 a aix_range_error
00000024 A _vx_offset_OBJ_CLASS_openRtn
00000024 A _vx_offset_RBUFF_INFO_TYPE_dataContent
00000024 A _vx_offset_SECTION_DESC_flags
00000024 A _vx_offset_SM_MSG_Q_msgQ
00000024 A _vx_offset_WIND_OBJ_ownerId
00000024 a lsw_x
00000024 a lsw_x
00000024 a lsw_x
00000024 a lsw_x
00000028 a P4
00000028 A _vx_offset_COPROC_DESC_pCtxGetRtn
00000028 A _vx_offset_OBJ_CLASS_objMemAllocRtn
00000028 A _vx_offset_RBUFF_INFO_TYPE_writesSinceReset
00000028 A _vx_offset_SM_PARTITION_totalWords
00000028 A _vx_offset_WIND_OBJ_ownerRtpId
00000028 a orig_fpscr
00000028 a orig_fpscr
00000028 a orig_fpscr
00000028 a sp_kc
00000028 a trampoline_size
0000002c A _vx_offset_OBJ_CLASS_objMemFreeRtn
0000002c A _vx_offset_RBUFF_INFO_TYPE_readsSinceReset
0000002c A _vx_offset_SECTION_DESC_checksum
0000002c A _vx_offset_SM_MSG_Q_freeQSem
0000002c A _vx_offset_SYSCALL_ENTRY_STATE_retAddrReg
0000002c A _vx_offset_WIND_OBJ_name
0000002c a fpscr_word
0000002c a fpscr_word
0000002c a orig_word
00000030 a P5
00000030 A _vx_offset_OBJ_CLASS_initRtn
00000030 A _vx_offset_RBUFF_INFO_TYPE_timesExtended
00000030 A _vx_offset_SM_OBJ_MEM_HDR_smSemPart
00000030 A _vx_offset_SYSCALL_ENTRY_STATE_pUStack
00000030 A _vx_offset_WIND_OBJ_pObjClass
00000030 A _vx_offset_WIND_SOCKET_so_qlen
00000030 a dp_y
00000030 a last_fpscr
00000030 a msw_reduction
00000030 a msw_y
00000030 a orig_x
00000030 a reduction
00000034 A _vx_offset_OBJ_CLASS_objPartId
00000034 A _vx_offset_RBUFF_INFO_TYPE_timesXThreshold
00000034 A _vx_offset_SM_PARTITION_curBlocksAllocated
00000034 A _vx_offset_WIND_OBJ_objHandleList
00000034 A _vx_offset_WIND_SOCKET_so_qlimit
00000034 a last_word
00000034 a lsw_reduction
00000034 a lsw_y
00000038 a P6
00000038 A _vx_offset_OBJ_CLASS_objClassType
00000038 A _vx_offset_RBUFF_INFO_TYPE_bytesWritten
00000038 A _vx_offset_SM_PARTITION_curWordsAllocated
00000038 A _vx_offset_SYSCALL_ENTRY_STATE_pc
00000038 a msw_scaled_x
00000038 a msw_y
00000038 a orig_y
00000038 a scaled_x
00000038 a spare
0000003c A _vx_offset_OBJ_CLASS_options
0000003c A _vx_offset_RBUFF_INFO_TYPE_bytesRead
0000003c A _vx_offset_SM_PARTITION_cumBlocksAllocated
0000003c A _vx_offset_WIND_OBJ_refCnt
0000003c a lsw_y
0000003e A _vx_offset_WIND_OBJ_accessCnt
00000040 a P7
00000040 A _vx_offset_FD_ENTRY_pDevHdr
00000040 A _vx_offset_MSG_Q_msgQ
00000040 A _vx_offset_OBJ_CLASS_objPrivList
00000040 A _vx_offset_PARTITION_avlSize
00000040 A _vx_offset_POSIX_MSG_Q_msgq_cond_read
00000040 A _vx_offset_PSEMAPHORE_wSemId
00000040 A _vx_offset_RBUFF_INFO_TYPE_bytesPeak
00000040 A _vx_offset_SEMAPHORE_semType
00000040 A _vx_offset_SM_PARTITION_cumWordsAllocated
00000040 A _vx_offset_TRIGGER_eventId
00000040 A _vx_offset_WIND_ISR_isrTag
00000040 A _vx_offset_WIND_RTP_kernelRtpCmn
00000040 A _vx_offset_WIND_SD_sem
00000040 A _vx_offset_WIND_TCB_qNode
00000040 a msw_scaled_y
00000040 a orig_fpscr
00000040 a scaled_y
00000040 a stack_size
00000040 a stack_size
00000041 A _vx_offset_SEMAPHORE_options
00000042 A _vx_offset_TRIGGER_status
00000044 A _vx_offset_FD_ENTRY_value
00000044 A _vx_offset_PSEMAPHORE_pSelf
00000044 A _vx_offset_SEMAPHORE_qHead
00000044 A _vx_offset_TRIGGER_disable
00000044 A _vx_offset_WIND_ISR_count
00000044 A _vx_offset_WIND_SOCKET_so_fd
00000044 a fpscr_word
00000048 a P8
00000048 A _vx_offset_COPROC_DESC_pLastEntry
00000048 A _vx_offset_OBJ_CLASS_objPubList
00000048 A _vx_offset_SM_MSG_Q_freeQ
00000048 A _vx_offset_TRIGGER_contextType
00000048 A _vx_offset_WDOG_timeout
00000048 A _vx_offset_WIND_ISR_serviceCount
00000048 a msw_ylogx
00000048 a saved_lr
00000048 a ylogx
0000004c A _vx_offset_FD_ENTRY_refCnt
0000004c A _vx_offset_PARTITION_freeSizeNodeNb
0000004c A _vx_offset_TRIGGER_contextId
0000004c a lsw_ylogx
00000050 a P9
00000050 A _vx_offset_OBJ_CLASS_pClassSem
00000050 A _vx_offset_PARTITION_sem
00000050 A _vx_offset_POSIX_MSG_Q_msgq_cond_data
00000050 A _vx_offset_SM_MSG_Q_options
00000050 A _vx_offset_TRIGGER_objId
00000050 A _vx_offset_WDOG_status
00000050 A _vx_offset_WIND_ISR_cpuTime
00000050 a stack_size
00000050 a stack_size
00000052 A _vx_offset_WDOG_deferStartCnt
00000054 A _vx_offset_SEMAPHORE_count
00000054 A _vx_offset_SM_MSG_Q_maxMsgs
00000054 A _vx_offset_TRIGGER_chain
00000054 A _vx_offset_WDOG_wdRoutine
00000058 A _vx_offset_SEMAPHORE_events
00000058 A _vx_offset_SM_MSG_Q_maxMsgLength
00000058 A _vx_offset_SYSCALL_ENTRY_STATE_size
00000058 A _vx_offset_TRIGGER_conditional
00000058 A _vx_offset_WDOG_wdParameter
00000058 A _vx_offset_WIND_ISR_options
00000058 A _vx_offset_WIND_RTP_rtpNode
00000058 A _vx_offset_WIND_TCB_timeout
0000005c A _vx_offset_MSG_Q_freeQ
0000005c A _vx_offset_SM_MSG_Q_sendTimeouts
0000005c A _vx_offset_TRIGGER_condType
0000005c A _vx_offset_WIND_ISR_handlerRtn
0000005c A _vx_offset_sizeof_FD_ENTRY
00000060 A _vx_offset_SM_MSG_Q_recvTimeouts
00000060 A _vx_offset_TRIGGER_condEx1
00000060 A _vx_offset_WIND_ISR_arg
00000060 A _vx_offset_WIND_RTP_semId
00000060 A _vx_offset_WIND_TCB_pExcStackBase
00000064 A _vx_offset_TRIGGER_condOp
00000064 A _vx_offset_WIND_RTP_status
00000064 A _vx_offset_WIND_TCB_pExcStackEnd
00000068 A _vx_offset_TRIGGER_condEx2
00000068 A _vx_offset_WIND_RTP_pPathName
0000006c A _vx_offset_TRIGGER_actionType
0000006c A _vx_offset_WIND_RTP_pArgv
0000006c A _vx_offset_WIND_TCB_excCnt
00000070 A _vx_offset_TRIGGER_actionFunc
00000070 A _vx_offset_WIND_RTP_pEnv
00000070 A _vx_offset_WIND_TCB_status
00000074 A _vx_offset_SM_OBJ_MEM_HDR_smNamePart
00000074 A _vx_offset_TRIGGER_actionArg
00000074 A _vx_offset_WIND_RTP_options
00000074 A _vx_offset_WIND_TCB_priority
00000078 A _vx_offset_MSG_Q_options
00000078 A _vx_offset_TRIGGER_actionDef
00000078 A _vx_offset_WIND_RTP_entrAddr
00000078 A _vx_offset_WIND_TCB_priNormal
0000007c A _vx_offset_MSG_Q_maxMsgs
0000007c A _vx_offset_TRIGGER_hitCnt
0000007c A _vx_offset_WIND_RTP_initTaskId
00000080 A _vx_offset_MSG_Q_maxMsgLength
00000080 A _vx_offset_REG_SET_msr
00000080 A _vx_offset_TRIGGER_initialState
00000080 A _vx_offset_WIND_TCB_priMutexCnt
00000084 A _vx_offset_MSG_Q_sendTimeouts
00000084 A _vx_offset_TRIGGER_pDataCollector
00000084 A _vx_offset_WIND_RTP_symTabId
00000084 A _vx_offset_WIND_TCB_priInheritCnt
00000088 A _vx_offset_MSG_Q_recvTimeouts
00000088 A _vx_offset_WIND_RTP_binaryInfo
00000088 A _vx_offset_WIND_TCB_priDrop
0000008c A _vx_offset_MSG_Q_events
0000008c A _vx_offset_REG_SET_pc
0000008c A _vx_offset_WIND_TCB_pPriMutex
00000090 A _vx_offset_REG_SET_cr
00000094 A _vx_offset_WIND_TCB_rtpId
00000098 A _vx_offset_WIND_TCB_options
0000009c A _vx_offset_WIND_TCB_pUTcb
000000a0 A _vx_offset_RBUFF_TYPE_buffRead
000000a4 A _vx_offset_RBUFF_TYPE_buffWrite
000000a4 A _vx_offset_REG_SET_size
000000a8 A _vx_offset_RBUFF_TYPE_dataRead
000000a8 A _vx_offset_WIND_SD_options
000000a8 A _vx_offset_WIND_TCB_pPendQ
000000ac A _vx_offset_RBUFF_TYPE_dataWrite
000000ac A _vx_offset_WIND_SD_attr
000000ac A _vx_offset_WIND_TCB_safeCnt
000000b0 A _vx_offset_WIND_SD_size
000000b4 A _vx_offset_WIND_RTP_taskCnt
000000b4 A _vx_offset_WIND_SD_clientCount
000000b8 A _vx_offset_PARTITION_totalWords
000000b8 A _vx_offset_SM_OBJ_MEM_HDR_smMsgQPart
000000b8 A _vx_offset_WIND_SD_physAdrs
000000bc A _vx_offset_PARTITION_options
000000c0 A _vx_offset_PARTITION_sectionHdrLst
000000c0 A _vx_offset_WIND_SD_virtAdrs
000000c0 A _vx_offset_WIND_TCB_entry
000000c4 A _vx_offset_WIND_TCB_pStackBase
000000c8 A _vx_offset_WIND_TCB_pStackEnd
000000cc A _vx_offset_WIND_RTP_fdTable
000000cc A _vx_offset_WIND_TCB_pEdrInfo
000000d0 A _vx_offset_WIND_RTP_fdTableSize
000000d0 A _vx_offset_WIND_TCB_errorStatus
000000d4 A _vx_offset_WIND_RTP_defPath
000000d8 A _vx_offset_WIND_RTP_defPathLen
000000dc A _vx_offset_PARTITION_curBlocksFreed
000000dc A _vx_offset_WIND_RTP_taskExitRtn
000000e0 A _vx_offset_PARTITION_curWordsFreed
000000e0 A _vx_offset_WIND_RTP_sigReturnRtn
000000e0 A _vx_offset_WIND_TCB_taskTicks
000000e4 A _vx_offset_PARTITION_curBlocksAllocated
000000e8 A _vx_offset_PARTITION_curWordsAllocated
000000e8 A _vx_offset_WIND_RTP_signalInfo
000000f0 A _vx_offset_PARTITION_cumBlocksAllocated
000000f0 A _vx_offset_WIND_TCB_pCoprocTbl
000000f8 A _vx_offset_PARTITION_cumWordsAllocated
000000fc A _vx_offset_SM_OBJ_MEM_HDR_smPartPart
00000100 A _vx_offset_PARTITION_maxWordsAllocated
00000104 A _vx_offset_PARTITION_curBlocksAllocatedInternal
00000108 A _vx_offset_PARTITION_curWordsAllocatedInternal
00000114 A _vx_offset_POSIX_MSG_Q_msgq_attr
00000120 A _vx_offset_WIND_TCB_pExcRegSet
00000124 A _vx_offset_WIND_TCB_events
00000140 A _vx_offset_SM_OBJ_MEM_HDR_smSysPart
00000160 A _vx_offset_WIND_TCB_cpuTimeInfo
00000170 A _vx_offset_WIND_TCB_pPwrMgmtPState
00000174 A _vx_offset_WIND_TCB_pSchedInfo
0000017c A _vx_offset_WIND_TCB_windSmpInfo
00000184 A _vx_offset_SM_OBJ_MEM_HDR_nameDtb
000001b0 A _vx_offset_SM_OBJ_MEM_HDR_objCpuTbl
000001b4 A _vx_offset_SM_OBJ_MEM_HDR_maxSems
000001b4 A _vx_offset_WIND_TCB_excInfo
000001b8 A _vx_offset_SM_OBJ_MEM_HDR_maxMsgQueues
000001bc A _vx_offset_SM_OBJ_MEM_HDR_maxTasks
000001c0 A _vx_offset_SM_OBJ_MEM_HDR_maxMemParts
000001c4 A _vx_offset_SM_OBJ_MEM_HDR_maxNames
000001c8 A _vx_offset_SM_OBJ_MEM_HDR_curNumSemB
000001cc A _vx_offset_SM_OBJ_MEM_HDR_curNumSemC
000001d0 A _vx_offset_SM_OBJ_MEM_HDR_curNumMsgQ
000001d4 A _vx_offset_SM_OBJ_MEM_HDR_curNumTask
000001d8 A _vx_offset_SM_OBJ_MEM_HDR_curNumPart
000001dc A _vx_offset_SM_OBJ_MEM_HDR_curNumName
000001e0 A _vx_offset_WIND_TCB_regs
0000028c A _vx_offset_WIND_TCB_pTlsDesc
00000518 A _vx_offset_MODULE_flags
0000051c A _vx_offset_MODULE_sectionList
00000524 A _vx_offset_MODULE_segmentList
0000052c A _vx_offset_MODULE_format
00000530 A _vx_offset_MODULE_group
00000534 A _vx_offset_MODULE_ctors
00000538 A _vx_offset_MODULE_dtors
0000053c A _vx_offset_MODULE_commTotalSize
00000540 A _vx_offset_MODULE_swapNeeded
00000544 A _vx_offset_MODULE_undefSymCount
00000920 A _vx_offset_WIND_RTP_pSigQFreeHead
00000924 A _vx_offset_WIND_RTP_sigwaitQ
00000934 A _vx_offset_WIND_RTP_parentRtpId
00000d54 A _vx_offset_WIND_RTP_lockTaskId
00000d70 A _vx_offset_WIND_RTP_cpuTimeInfo
00000d80 A _vx_offset_WIND_RTP_pSchedInfo
00200000 T _VX_START_TEXT
00200000 T _wrs_kernel_text_start
00200000 T usrEntry
00200000 T wrs_kernel_text_start
00200038 T _sysInit
0020012c t ifpdrValue
0020026c t sysALoop
002002c8 T sysMsrGet
002002d0 T sysInByte
002002d8 T sysInWord
002002e0 T sysInLong
002002e8 T sysOutByte
002002f4 T sysOutWord
00200300 T sysOutLong
0020030c T sysPciInByte
00200314 T sysPciInWord
0020031c T sysPciInLong
00200324 T sysPciOutByte
0020032c T sysPciOutWord
00200334 T sysPciOutLong
00200340 T vxHid2Get
00200348 T vxHid2Set
00200350 T vxSvrGet
00200358 T swapdw
00200368 t swloop
0020037c T swapdwsb
0020038c t swloopsb
002003a0 t out_uint32
002003d0 T viuIOInit
002004f4 T sysDB600IOCfgSet
00200aac T sysNvRamGet
00200adc T sysNvRamSet
00200b0c T sysFlashGet
00200bc0 T sysFlashDelay
00200c2c T sysFlashDataPoll
00200d44 T sysSectorErase
00200f78 T sysFlashErase
002012c8 T sysFlashWrite
00201890 T sysFlashTypeGet
00201958 T sysFlashSet
00201cc0 T TimeBaseUsGet
00201d6c T GetDevName
00201e0c T SetStartTime
00201ea4 T SetEndTime
00201f4c T GetDevInitTimeTable
00202064 T OpenDrvTimed
002020e4 T sysMacIndex2Dev
0020210c T sysMacIndex2Unit
00202134 T sysMacOffsetGet
002021ec T sysNetMacAddrGet
00202220 T sysNetMacAddrSet
00202330 T sysNetMacNVRamAddrGet
0020244c T sysFecEnetAddrGet
002024a4 t dmaCallback
002025bc t sdDmaStart
00202b10 t sdhc_start_clock
00202ce0 t sdhc_writel
00202d10 t sdhc_readl
00202d3c t sdhc_stop_clock
00202e18 t sdhc_start_cmd
00203448 t sdhc_end_cmd
00204920 t sdhc_irq
00204b24 t sdhc_irq_stop
00204b70 t sdhc_compute_clk_rate
00205058 t sdhc_set_ios
002050c8 t sdhc_init_hw
00205314 t sdhc_set_slewrate
002053b8 T sdhc_dumpregs
00205640 T sdhc_writereg
002057b4 T sdhc_readreg
00205940 t wait_ready
00205b04 t mmc_send_cmd
00205c4c t mmc_set_blocklen
00205cbc t mmc_write_block
002060cc t mmc_read_block
002065d0 t mmc_read_single_block
00206624 t mmc_go_idle
002066c0 t sd_send_op_cond
00206924 t sd_switch_force
00206a24 t sd_change_freq
00206cf8 t mmc_set_clock
00206d8c t mmc_startup
00207804 t mmc_send_if_cond
00207a84 t mmc_init
00207f8c t print_mmcinfo
00208260 t partNameHook
002084e0 T sdDevCreate
00208548 t sdDevCreateP
00208a7c t sdDevInitP
00208d88 t sdCardInit
00208fb0 t sdhcRegenerate
00209418 t sdIoctl
002094e4 t sdBlkRd
002098ac t sdBlkWrt
00209c74 t sdhcInfoSet
0020a1e8 t sdhc_postInit
0020a2c0 t sdhc_init
0020a3e4 T sdhcMount
0020a5f4 T sdhcShowMountStatus
0020a7ec T sdhcInfoGetBuf
0020a814 T mbrErase
0020ab00 T getCID
0020ab94 T printCID
0020ac48 T getSDPresent
0020ad14 T getSDBlkDevice
0020ad38 T isSD8GB
0020add4 T isSD16GB
0020ae70 T sdhcRemount
0020b024 T sdhcUnmount
0020b0d0 T sdhcPartCreateSz
0020bb84 T sdhcPartCreate
0020bf24 T sdhcChangePartParams4k
0020bf50 T sdhcChangePartParams8k
0020bf7c T sdhcChangePartParams16k
0020bfa8 T sdhcChangePartParams32k
0020bfd4 T sdhcChangePartParamsAuto
0020c000 T sdhcPartFormat
0020c238 T sdhcPartCheck
0020c4a4 T sdhcMBRReset
0020c744 t mmc_read_block_CMD56
0020caf8 t mmc_write_block_CMD56
0020ce70 T GetMIDRegister
0020cf30 t ToshibaFillCommand
0020d0ac t ToshibaGetResult
0020d314 t ToshibaRunCMD56
0020d5f8 t ToshibaPowerFailureSetting
0020d69c t ToshibaRefreshSetting
0020d740 t ToshibaRefreshExec
0020d7a4 t ToshibaBBlocksStatus
0020d808 t ToshibaErrorBitDisplay
0020d870 t ToshibaEraseDisplay
0020d8d4 t ToshibaConfirmedSettingDisplay
0020d938 T sdhcToshibaInit
0020da64 T nextStrPosSet
0020db3c T sdhcToshibaInfoAdd
0020dfa0 T sysMemDescInit
0020dfd4 T sysDbDescrGet
0020e034 T sysModel
0020e0b8 T sysBspRev
0020e0e0 T sysHwInit
0020e2a4 T sysHwInit2
0020e350 T sysPhysMemTop
0020e378 T sysMemTop
0020e3d0 T sysToMonitor
0020e448 T sysProcNumGet
0020e46c T sysProcNumSet
0020e494 T sysGetCsbClock
0020e530 T sysGetCoreClock
0020e59c T sysGetIpsClock
0020e604 T sysGetPciClock
0020e66c T sysGetMbxBusClock
0020e6a8 T sysGetMbxGpxClock
0020e710 T sysGetLpcClock
0020e778 T sysGetNfcClock
0020e7e0 T sysGetDiuClock
0020e844 T sysGetSDHCClock
0020e8a8 t sysSocClkEnable
0020eaf8 T sysUsDelay
0020ebe0 T sysMsDelay
0020ec20 T sysDelay
0020ec54 T bspSerialChanGet
0020ec7c T sysAxeInit
0020ed30 T sysAxeEncode
0020ee2c T sysAxeDecode
0020ef3c T sysRamHighAdrsGet
0020ef60 T sysRamLowAdrsGet
0020ef84 T sysLocalMemLocalAdrsGet
0020efa8 T sysOffShoreAdrsGet
0020efcc T sysLocalMemAddLocalAdrsGet
0020eff0 T sysLocalRamSizeGet
0020f018 T sysLocalFlashSizeGet
0020f040 T sysDBNameGet
0020f06c T sysLocalMemAddSizeGet
0020f090 T MemoryLayoutShow
0020f458 T ProtectMemory
0020f4cc T UnProtectMemory
0020f540 T UnProtectModule
0020f63c T UnProtectAllModule
0020f758 T ProtectVMFlash
0020f7c4 T UnProtectVMFlash
0020f830 T sysShowDBIdentifier
0020f8c8 T sysShowReset
0020fce0 T sysShowClock
0020fed4 T ReadTimeBase
0020ff88 T usrAppInit
00210020 T usrRtpAppInit
0021003c T fsl5121eUsbEndianProbe
0021013c T fsl5121eUsbInit
00210218 T fslUsbDrDeviceHwInit
00210248 T fslUsbDrHostHwInit
00210278 T fslUsbDrHostModeSet
0021035c T absSymbols_Bounds
00210380 T usrDsiPoolConfig
00210480 T usrDsiSocket
00210514 T usrUnInit
00210548 T usrUnCompInit
0021057c T edrStubInit
002106bc T edrErrorInjectStub
0021072c T edrKernelFatalPolicyHandler
00210a50 T edrRtpFatalPolicyHandler
00210a70 T edrInitFatalPolicyHandler
00210bc8 T edrInterruptFatalPolicyHandler
00210d08 T edrPolicyHandlerHookAdd
00210d68 T edrErrorPolicyHookRemove
00210db4 T edrPolicyHandlerHookGet
00210dd8 T vxbDrvVerCheck
00210e48 T usrI2CMasterInit
00210fac t ipcom_register_shell_commands
002110e0 T ipcom_configure
00211164 T ipcom_init_config_vars
002111e0 T ipcom_configure_reserved_cpus
00211208 T ipcom_forwarder_get_fwcache_util_level_limit
0021122c T ipcom_forwarder_get_ports_for_interface
00211254 T ipcom_forwarder_get_nonfw_stats
00211280 T ipcom_forwarder_get_tx_queue
002112a8 T ipcom_forwarder_get_tx_queue_cf
002112d0 T ipcom_forwarder_reset_statistics_cf
002112f0 T ipcom_forwarder_transmit_pkt_cf
0021131c T ipcom_forwarder_create_cf
00211340 T ipcom_forwarder_startup_delay
0021135c T ipcom_reserve_fw_cpu
00211380 T ipcom_allocate_fw_cache
002113b4 T ipcom_forwarder_config_fw_max
002113d8 T ipcom_forwarder_config_cache_size
002113fc T ipcom_forwarder_fw_per_port
00211420 T ipcom_vxworks_rtp_del_hook_add
00211444 T iptelnets_configure
00211488 T ipcrypto_configure
002114cc T ipdhcpc_configure
00211540 T ipdhcpc_option_callback
002115bc t ipdhcpc_option_default_callback
002115f0 T ipdhcpc_reply_callback
0021164c T ipdnsc_configure
002116d0 T ipfirewall_configure
00211770 t ipnet_register_shell_commands
002118e4 T ipnet_configure
0021196c T ipppp_configure
002119ec t ipppp_example_action_work
00211a40 t ipppp_work
00211ab0 t ipppp_work_init
00211b24 t ipppp_work_alloc
00211bd0 t ipppp_work_schedule
00211c74 T ipppp_example_action_cb
00211cd4 T ipradius_configure
00211d44 T ipssl_configure
00211eac T iptcp_configure
00211ef0 t ftpTransientFatal
00211f60 T usrFtpInit
00211fc0 T usrGetaddrinfoInit
00211fe4 t usrNetHostTblSetup
0021206c T usrBootLineInit
002120c0 T usrBootLineCrack
00212144 T usrBootLineParse
00212440 T usrBootLineGet
00212464 T usrNetApplUtilInit
00212500 T usrNetmaskGet
00212550 T usrNetDevNameGet
00212838 T usrNetBoot
002128a4 T ipcomNetTask
00212914 T usrNetDaemonInit
002129a8 T usrNetEndLibInit
00212b20 T usrCciLoadProvider
00212d58 T usrCciInit
00212de8 T usrDsiInit2
00212e24 T usrClock
00212e54 T sysClkInit
00212ea0 T usrAimMmuConfig
00212ec4 T usrBreakpointSet
0021303c T usrCacheEnable
00213080 T coprocsDiscover
002130dc T coprocDescriptorsInit
002131e0 T usrCplusLibInit
00213218 t dosFsInit
002132b8 t stringToArray
002134a4 T usrDosfsInit
00213568 T edrPmArena
002135a8 T edrPmRegion
002135f0 T usrEdrInit
0021378c T usrFlashFXComponentInitBackground
00213994 T usrFlashFXComponentInitTest
00213ac4 T usrFlashFXComponentInitSigDone
00213b10 T usrKernelInit
00213c54 T usrKernelIntStkProtect
00213d24 T memEdrInit
00213d74 T memEdrInit2
00213e2c T usrMmuInit
0021402c T usrNfsInit
00214288 T usrNfs2CacheInit
002142c8 T usrNfs3CacheInit
00214308 T usrPmInit
00214338 T pmDefaultArena
00214434 T usrRomfsConfig
002144f4 t itos
002145cc T usrSerialInit
00214714 T usrShell
002147a0 t usrShellConfigure
00214824 T usrStandaloneInit
002148f0 T sysStart
0021495c T usrSysSymTblInit
002149d4 T usrSysctlInit
00214a20 T usrTextProtect
00214ab4 T usrTipInit
00214b34 T usrUsb2EndInit
00214b98 T usrUsb2HelperInit
00214bdc T usrUsb2MscLookupQuirkyInfo
00214dd4 T usrUsb2MscFilesystemInterfaceGet
00214e68 T usrUsb2MscFilesystemInterfaceSet
00214ee0 T usrUsb2MscDirectAccessEnabled
00214f0c T usrUsb2MscDirectAccessEnabledSet
00214f54 T usrUsb2MscComplianceEnabled
00214f80 T usrUsb2MscComplianceEnabledSet
00214fc8 T usrUsb2MscMediumHotplugCheckEabled
00214ff4 T usrUsb2MscMediumHotplugCheckEabledSet
0021503c T usrUsb2MscStatusCheckEnabled
00215068 T usrUsb2MscStatusCheckEnabledSet
002150b0 T usrUsb2MscWriteProtectionCheckEnabled
002150dc T usrUsb2MscWriteProtectionCheckEnabledSet
00215124 T usrUsb2MscMediumHotplugCheckIntervalGet
00215150 T usrUsb2MscMediumHotplugCheckIntervalSet
0021518c T usrUsb2MscResetTimeoutGet
002151b8 T usrUsb2MscResetTimeoutSet
002151e8 T usrUsb2MscCommandTimeoutGet
00215214 T usrUsb2MscCommandTimeoutSet
00215244 T usrUsb2MscStatusTimeoutGet
00215270 T usrUsb2MscStatusTimeoutSet
002152a0 T usrUsb2MscMaxBlocksPerTransferGet
002152cc T usrUsb2MscMaxBlocksPerTransferSet
002152fc T usrUsb2MscServiceTaskPriorityGet
00215328 T usrUsb2MscServiceTaskPrioritySet
00215358 T usrUsb2MscServiceTaskOptionsGet
00215384 T usrUsb2MscServiceTaskOptionsSet
002153b4 T usrUsb2MscServiceTaskStackSizeGet
002153e0 T usrUsb2MscServiceTaskStackSizeSet
00215410 T usrUsb2MscNameInstall
00215670 T usrUsb2MscNameUninstall
00215798 T usrUsb2MscReserveDevice
00215850 T usrUsb2MscDevNumGet
002158e0 T usrUsb2MscUnreserveDevice
0021598c T usrUsb2MscDrvNameGet
002159d4 T usrUsb2MscServiceTaskNameGet
00215a20 T usrUsb2MscComplianceTestLogFileOpen
00215b60 T usrUsb2MscComplianceTestLogFileClose
00215bb0 T usrUsb2MscComplianceTestLogFileBaseNameSet
00215c04 T usrUsb2MscDefaultMediumChangeCallback
00215d90 T usrUsb2MscInit
00215e08 T usrUsb2MscUninit
00215e68 T usrUsb2MscDumpQuirkyDevices
00215fbc T userUsb2MscPrintBuffer
00216140 T usrUsb2MscTest
002163fc T usrUsb2MscDosFsAttachReNotify
00216544 t usrUsb2MscDosFsAttachNotify
00216618 T usrUsb2MscAttachNotify
002166e0 T usrUsb2MscDetachNotify
0021683c T usrUsb2MscFsCallbackArgsSet
00216904 T usrUsb2Serial3GInit
00216954 T usrUsbDataServicesInit
00216b04 T usbdTranslationInit
00216bcc T usrUsbHubInit
00216c4c T usbInit
00216cf0 T usbExit
00216db8 T usb2WindViewLog
00216ec4 T usbLogMsg
00216f2c T usbHubPollingIntervalGet
00216f50 T usbHubPollingIntervalSet
00216f78 t sysUsbLinksysWusb54EndLoad
002170c0 T usbLoadLinksysWusb54
0021719c T usbLinksysWusb54EndStart
002173b8 T usbLinksysWusb54AttachCallback
00217450 T linksyswusb54AttachCallbackInternal
002178ac T usrUsbLinksysWusb54EndInit
00217998 T usrUsbLinksysWusb54EndDown
00217a94 t sysDot11IntConnect
00217b08 t sysDot11IntDisconnect
00217b7c t sysDot11IntEnable
00217be8 t sysDot11IntDisable
00217c54 t sysDot11CacheInvalidate
00217cbc t sysDot11CacheFlush
00217d24 t sysDot11WbufFlush
00217d84 t sysDot11DmaMemFree
00217da4 t sysDot11BusToVirt
00217e08 t sysDot11VirtToBus
00217e6c T usbLinksysWusb54Dot11BspInfoInit
002181e8 T dbgUsbLinksysWusb54EndScan
00218480 T dbgUsbLinksysWusb54EndSsidSet
00218544 T dbgUsbLinksysWusb54EndCallbackFct
002186d4 T dbgUsbLinksysWusb54EndCallbackInstall
00218788 T dbgUsbLinksysWusb54MacGet
002188cc T dbgUsbLinksysWusb54Deauth
002189e0 T usrVxbTimerSysInit
00218a44 T sysClkConnect
00218a8c T sysClkDisable
00218abc T sysClkEnable
00218aec T sysClkRateGet
00218b24 T sysClkRateSet
00218b64 T sysAuxClkConnect
00218bac T sysAuxClkDisable
00218bdc T sysAuxClkEnable
00218c0c T sysAuxClkRateGet
00218c44 T sysAuxClkRateSet
00218c84 T sysTimestampConnect
00218ccc T sysTimestampDisable
00218d04 T sysTimestampEnable
00218d3c T sysTimestampPeriod
00218d74 T sysTimestampFreq
00218dac T sysTimestamp
00218de4 T sysTimestampLock
00218e1c T usrWdbBanner
00218f9c T usrWdbBp
00218ff0 T wdbConfig
0021909c t wdbTgtHasCoprocessor
0021918c t wdbRtInfoGet
002193d0 t wdbRtConnectInfoGet
00219438 t vxReboot
0021946c t vxExcHookWrapper
002199a0 t vxExcHookAdd
002199e8 t wdbRtIfInit
00219b80 t wdbCommIfInit
00219c60 T wdbDeferredStartCallback
00219cc0 T usrWdbGopherInit
00219d00 T windviewConfig
00219e08 T wvOn
0021a12c T wvOff
0021a238 T wvRBuffErrorHandler
0021a2c8 T wdbCommDevInit
0021a35c T usrInit
0021a3f8 T usrNetAppInit
0021a464 T usrNetHostInit
0021a4a0 T usrNetRemoteInit
0021a4d4 T usrNetworkInit
0021a584 T usrLoaderInit
0021a5c4 T usrWindviewInit
0021a648 T usrShowInit
0021a6b8 T usrSymTblInit
0021a6ec T usrShellCmdInit
0021a73c T usrShellInit
0021a79c T usrToolsInit
0021a81c T usrKernelCoreInit
0021a87c T usrKernelExtraInit
0021a8f0 T usrIosCoreInit
0021a968 T usrIosExtraInit
0021aa68 T usrMMComponentsInit
0021aab0 T usrRoot
0021abf0 T usrWdbInit
0021ac98 T usrDsiInit
0021acd4 T hardWareInterFaceBusInit
0021ad38 T hardWareInterFaceInit
0021ad98 T vxbDevInit
0021addc T vxbDevConnect
0021ae14 T usrFlashFXComponentInit
0021b0a0 T usrFlashFXComponentLibInit
0021b104 T usrFlashFXComponentStart
0021b304 T restoreHub
0021b36c T ConfigGpio
0021b958 t ConfigGpioUsb2
0021b9ec T ConfigGpioSDCard
0021ba8c T ConfigOVCGpio
0021bb98 T gpioIoctl
0021d084 T Vbatlowtsk
0021d19c T Gpiotsk
0021d334 T Setuserinputfunc
0021d51c T Unsetuserinputfunc
0021d750 T GpioHwInit
0021dbcc T IntVbatLow
0021dc3c T RDS1Intr
0021dcac T IntTmc
0021dd34 T IntGpioWkup
0021df3c t wrpwramp
0021e0cc t rdpwamdiagno
0021e280 T defvbattlowfunc
0021e310 T defvbattkofunc
0021e334 T defemergencyfunc
0021e358 T defradiords1func
0021e37c T defradiords2func
0021e3a0 T defclipaudiopwrfunc
0021e3c4 T defirqtmc
0021e3e8 T defusbovcfunc
0021e474 T enableFlashWrite
0021e490 T disableFlashWrite
0021e4ac T UsbOvcWdg
0021e59c T UsbOvcWdgRst
0021e63c T EnableLVDS
0021e810 T DisableLVDS
0021e9f4 T ReadLvdsStatus
0021ebe4 T PscSioInitFifo
0021eee8 T A2dpAlarmSet
0021ef4c T SetPwrAmpCmd_postponed
0021ef90 t Psc_SpiOpen
0021efc0 t Psc_SpiClose
0021f02c t Psc_SpiRemove
0021f120 T Psc_SpiRead
0021fbec T Psc_SpiWrite
00220500 T Psc_SpiIoctl
00220b30 T Psc_SpiDevInit
00220d98 t dmaDescSetup
00220dd8 T Psc_SpiDrv
00220f70 T Psc_SpiDevCreate
00221020 T Psc_SpiClockInit
002211ac T Psc_SpiFifoInit
00221290 T Psc_SpiBaudSet
00221340 T Psc_SpiOptsSet
002214e0 T Psc_SpiDisable
0022158c T Psc_SpiResERR
00221604 T Psc_SpiHwInit
00221c78 T Psc_SpiSetDma
00221d74 T StopBusMonitor
00221dd0 T WriteSpiLinear
00221e44 T ReadSpiLinear
00221eb8 T Psc_SpiDisResRX
00221eec T Psc_SpiDisResTX
00221f20 T Psc_SpiReset
00221f54 T Psc_FifoReset
00221fdc t memFileOpen
002220f8 t memFileClose
00222194 t memFileRead
002222c8 t memFileWrite
002225a4 t memFileIoctl
0022292c T memFileDrv
002229d0 T memFileDevCreate
00222a94 T GetMemoryFileDeviceName
00222abc t TestTgtSvrConnection
00222b3c t OpenTgtSvr
00222cbc T AsyncOpenTgtsvr
00222d2c T InitAsyncTgtSvr
00222e20 T EndAsyncTgtSvr
00222eac T GetHWDESCRStartAddr
00222ed4 T GetLoaderStartAddr
00222ef8 T GetLoaderStartAddrOffset
00222f20 T GetAddrBootromFlags
00222f44 T GetBootromStartAddr
00222f68 T GetBootromOffset
00222f8c T I2C_config_postponed
00222fc4 T I2CDrv
00223088 t I2CDelete
00223114 T I2CDevCreate
00223344 t I2CDevInit
002233b0 t I2COpen
00223408 t I2CClose
00223430 t I2CDrvRead
002234b8 t I2CDrvWrite
00223540 t I2CDrvIoctl
00223650 T print_I2C_cmd_pkt
00223754 T print_I2C_dev
0022393c T I2CMain
00223acc T reinstall_I2C
00223b58 T i2cWrite
00223db4 T i2cRead
00224014 T wait5us
0022405c T i2cAccessSemTake
002240a4 T i2cAccessSemGive
002240e4 T i2cMasterFlagsClr
00224124 T i2cMasterFlagsSet
00224160 T i2cMasterFlagsGet
0022418c T i2cMasterDevName
002241b8 T i2cSlaveAddrSet
002241e8 T i2cSlaveAddrGet
00224214 T i2cMasterFindByName
0022432c T i2cSlaveFindByName
00224444 T i2cLibInit
002244e4 T i2cMasterDevLoad
0022471c T i2cSlaveDevLoad
00224964 T i2cMasterObjInit
00224a7c T i2cSlaveObjInit
00224bc4 T i2cMasterObjFlagSet
00224c08 T m5121I2CReset
00224e40 T i2cWaitWhileBusy
0022512c T m5121I2CRead
0022560c T m5121I2CWrite
00225a04 T I2C2Intr
00226938 T I2C1Intr
0022786c T waitforus
00227890 t m5121I2CInitParse
002279c4 T m5121I2CDrvLoad
00227ca8 T timeWaitms
00227ce0 T searchConfigIndex
00227d70 T InitDmaBuffers
00227dcc T StopBM
00227f58 T memcpyNew
00228044 t WriteLinear
00228098 t WriteCircular
002281e0 t Writebufmultiple
00228368 t ReadLinear
00228448 t Readbufmultiple
0022849c t ReadCircular
002285e4 T I2SSetdma
002296c4 t psc_fifoc_txslice_init
00229770 t psc_fifoc_rxslice_init
0022981c T I2SSetMute
00229854 T writeI2SDma
0022b434 t dmaDescSetup
0022b474 T PSCReset
0022b4b4 T readI2SDma
0022c128 T DebugI2sIpod
0022c244 t i2sOpen
0022c274 t i2sClose
0022c380 t i2sWrite
0022c4ac t i2sRead
0022c5c8 T i2sIoctl
0022d7f8 T i2sDrv
0022d89c T i2sDevCreate
0022dc28 T Usri2sInit
0022de98 T dumpi2sparam
0022dfec T i2sdb
0022e554 T ossdb2
0022e7f8 T ossts
0022ea9c T changeFreq
0022eba8 T i2sdbr
0022ee70 T readMic
0022f0e8 T testIsout
0022f270 T psc_enable_irq_from_dma2
0022f2ac T I2S_PSC_init
0022f338 T I2S_init
0022f3c4 T TestMicEcho
0022f4dc T I2swrpioint
0022f688 t I2StimeoutISR
0022f6b4 t m5200I2SwdStart
0022f72c T readI2SPio
0022f960 T writeI2SPio
0022f988 T resetPSC
0022f9e8 T enablePSC
0022fa18 T disablePSC
0022fa58 T GetI2sFrequency
0022fb30 T initPSC
00230418 T Psc_I2SHwInit
00230474 T SetFreq
002304a4 T GetFreq
002304d0 T Set441KhzHigh
00230500 T Set441KhzLow
00230530 T Set48KhzHigh
00230560 T Set48KhzLow
00230590 T StartI2sLog
002305e8 T StopI2sLog
00230624 T RegisterCallbackBeforeFreqChange
00230658 T RegisterCallbackAfterFreqChange
0023068c T ManageCallbackBeforeFreqChange
002306f8 T ManageCallbackAfterFreqChange
00230764 T ossVersion
002307a0 T ossOpen
00230c44 T ossClose
00231174 T ossRead
002311a4 T ossWrite
00232080 T ossIoctl
00234b44 T ossDrv
00234bbc T ossDevCreate
002354e4 T ossStart
00235788 T cbBefore
002357d4 T cbAfter
00235820 T AttachCbs
002358e8 T TriggerCbs
00235998 T page_to_phys
00235a04 T __free_pages
00235a6c T __va
00235ad8 T mem_map_reserve
00235b3c T alloc_pages
00235bac T atan2f
00235c00 T sqrtf
00235c48 T ceilf
00235c90 T fmodf
00235ce4 T sinf
00235d2c T cosf
00235d74 T fabsf
00235dbc T powf
00235e10 T floorf
00235e58 t dmaCallback
00235ea8 T altDmaMemCopyLong
00235f1c t dmaCopyLong
002361a8 T qtDmaMemCopyLong
0023621c T altSysUsDelay
00236288 T profilingStart
00236308 T profilingEnd
002364b8 T profDump
00236624 T profErase
002366dc T FastChargeAvailable
002367d4 t usbIpodCheckVendorIdProductId
00236a84 T ipodNumConf
00236b2c T ipodChangeConf
00236d94 T ipodInfo
00237850 t usbIpodConfigFinder
002380c4 t findSioChan
00238180 t notifyAttach
00238254 t destroySioChan
002386fc t createSioChan
00238944 t initIPODIrp
00238e4c t configureSioChan2
002392b4 t configureSioChan
0023b450 T hidRep
0023b5b4 t usbDescrParseLocal
0023c00c t usbIpodAttachCallback
0023c678 t destroyAttachRequest
0023c6f4 t doShutdown
0023c818 T usbIpodDevInit
0023c9fc t usbIpodTxStartup
0023ca24 t usbIpodIoctl
0023ca54 t usbIpodCallbackInstall
0023cb7c t nextInChar
0023cc20 t usbIpodPollOutput
0023cc50 t usbIpodPollInput
0023cd14 t usbIpodIrpCallback
0023d1e0 T setIpodReport
0023d3d0 T SendIapReport
0023d8b8 t usbHidReportGet
0023d9c4 T setLedReport
0023dae0 t usrUsbIpodOpen
0023db14 T usrUsbIpodRead
0023dd88 t usrUsbIpodWrite
0023df5c t usrUsbIpodClose
0023df84 t usrUsbIpodIoctl
0023dfb4 t usrUsbIpodDevFind
0023dfe8 t usrUsbIpodDevDelete
0023e018 T usbIpodSioChanLock
0023e064 T usbIpodSioChanUnlock
0023e19c T usbIpodDynamicAttachRegister
0023e378 T usbIpodDevShutdown
0023e424 T usbIpodDynamicAttachUnRegister
0023e540 T usbIsochIpodDevCreate
0023e670 t usbIsochIpodDevDelete
0023e76c t usbIsochIpodDevFind
0023e874 t usbIsochIpodDrvAttachCallback
0023e9d0 T usbIsochIpodDrvUnInit
0023eafc t usbIsochIpodOpen
0023ebf8 t usbIsochIpodClose
0023ecfc t usbIsochIpodIoctl
0023edd4 t usbIsochIpodRead
0023eeb0 t usbIsochIpodWrite
0023ef1c T usrIsochIpodInit
0023f008 T usbIpodDevCreate
0023f254 t usbIpodDevDelete
0023f48c t usbIpodDevFind
0023f5a0 t usbIpodDrvAttachCallback
0023f7e0 T usbIpodDrvUnInit
0023f8e0 t usbIpodOpen
0023fa1c t usbIpodClose
0023fb18 t usbIpodIoctl
0023fbc4 t usbIpodRead
0023fc8c t usbIpodWrite
0023fd5c T usrUsbIpodInit
0023ffb0 t profilingStart
00240014 t profilingEnd
002401a8 t profGroupDump
00240350 T profilingDump
002403e0 t fileRW
0024059c t dirName
00240668 t fileName
00240788 T fsTest
00240e50 t dirNameWildcard
00240ecc t nameIsDir
00240f84 t dirListPattern
002411a4 t recursiveXDelete
002414e8 t usrFsPathQuery
0024158c t usrPathSplit
00241728 t lxdelete
00241878 T mapPrintAllMap
00241c38 T imapSearchMapAddr
00241d38 T imapSearchMapFile
00241efc T mmanLibInit
00242208 T mmanFdLibInit
00242240 T mmap
002422b4 T mmap64
00242f30 T munmap
002443f0 t dmaCallback
00244440 t dmaNFCBCopy
002445b8 T dmaCopyFromNFC
00244654 T dmaCopyToNFC
002446f0 T Initialize
0024486c T Reflect
0024491c T PartialCRC
002449bc T FileCRC
00244bbc T StreamCRC
00244da4 T StreamCRC_Ram
00244f90 T CalcCRC
0024500c T TakeMutexNANDAccess
002450e0 T GiveMutexNANDAccess
00245170 T ShowMutexNANDAccess
002451ec T ReadNandPage
002453ec T TestNandRaw
0024554c T WriteNandPage
00245670 T bbtBadBlockCountBetween
002457bc T SkipBadBlock
002459c4 T WriteNand_FileOffset
00245f7c T WriteNand_File
00246020 T ReadNand_File
00246498 T WriteNand_Addr_Safe
00246850 T WriteNand_Addr
002468d8 T WriteNandNoErase_Addr
00246960 T ReadNand_Addr_Safe
00246d88 T ReadNand_Addr
00246e04 T EraseNandBlk
00246ec4 T getUBootVersion
00247158 T UBootVersionShow
002471a0 T countBadBlocks
00247208 T ShowBbt
00247448 T GetBbtTable
002476e8 T TestBbt
00247844 T ShowUniqueId
00247994 T ReadNand_area
00247d70 t viuReset
00247e34 T viuReadBufGetNext
00248250 T viuStop
002484f4 t viuInt_Stop
00248554 t viuInt
002496f8 T viuStart
00249f38 t driverRequest
0024a000 T diuFbGet
0024a0d8 T AnalogVideoON
0024a264 T AnalogVideoOFF
0024a29c t ViuDiagnosticStart
0024a40c t SAF7115_Restart_DummyFunc
0024a464 T Set_SAF7115_Restart_Func
0024a4ec t ADV7180_Restart_DummyFunc
0024a540 T Set_ADV7180_Restart_Func
0024a5c8 t newDataWrapper
0024a698 t findDataWrapper
0024a7bc t releaseDataWrapper
0024a808 t attachWrapper
0024a880 t detachWrapper
0024a8f8 T usbBulkDynamicAttachRegister
0024a9e8 T usbBulkDynamicAttachUnregister
0024aaa0 T setUserUsbFunc
0024aacc T usrUsbBulkShow
0024ab2c T UsbWifiGetMacAdress
0024acc0 T UsbWifiDisconnect
0024ae04 T UsbWifiGetSSID
0024aefc T UsbWifiScanNetTas
0024afbc T UsbWifiLoadLinksys
0024b02c T UsbWifiConnect
0024b590 T UsbWifiScanNetworks
0024baf0 T support
0024bc34 T UsbWifiGetParameters
0024c23c T UsbWifiGetQualityParameter
0024c36c T UsbWifiGetSecurity
0024c5ec T UsbWifiSetSecurity
0024c870 T UsbWifiSetParameters
0024cc18 T UsbWifiScanAndCleanNetworkList
0024dca8 T dbgUsbLinksysWusb54SSIDSet
0024dd8c T usbGsmRoamingEnable
0024de20 T usbGsmRoamingDisable
0024deb4 t mtChecksum
0024df34 t tarWrtBlks
0024e168 t tarCreateHdr
0024e33c t tarGzArchDo
0024ea30 T tarGzArchive
0024ecc4 T WriteNANDBigQuick
0024ef0c T VerifyNANDBigQuick
0024f03c T FillStructExtraData
0024f158 T GetDbsAreaExtraDataStatus
0024f274 T writeParam
0024f514 T readParam
0024f730 T ShowStoredDbsExtraData
0024f8fc T FillStructHeaderHarmony
0024fb60 T WriteNANDHarmony
0025002c T WriteNANDHarmonyExtended
00250544 T GetHarmonyHeader
00250638 T GetHarmonyVersion
002506d0 T GetHarmonyGenerationVersion
00250768 T GetHarmonyName
00250800 T GetHarmonyUniversalNumber
002508a0 T GetHarmonyOffset
00250940 T GetHarmonyNumber
002509e0 T GetHarmonyAreaStatus
00250b64 T EraseNandHarmony
00250d48 T ShowNandHarmony
00250df0 T ShowNandHarmonies
00250e20 T FillStructHeaderLogo
00250ef0 T GetHeaderLogo
00250fc8 T WriteNANDLogo
002512fc T VerifyNANDLogo
00251458 T GetNANDCRC32Logo
002514c4 T GetLogoAreaStatus
00251638 t CheckCRCHeaderLogoAreaStatus
00251730 T ReadNand_Logo
0025178c T GetLogoSizes
00251870 t LoadInRamLogoAndAlertsFile
00251a4c t CheckSizeLogoAndAlertsFile
00251b4c t VerifyNANDLogoAndAlerts
00251c7c t CheckCRCLogoAndAlertsFile
00251e9c t FlashLogoAndAlertsFile
0025231c T GetLogoAndAlertsStatus
002524d4 T WriteNANDLogoAndAlerts
00252638 T GetLogoAndAlertsSizes
002527f0 T ReadNANDAlert
00252ab0 T LogoAndAlertsHeaderShow
00252da4 T LogoAndAlertsShowStatus
00252e14 T FlashNandBbtTestRawDataPage
00252fec T FlashNandBbtTestMapping
00253858 T FlashNandBbtTestFull
00253960 T initDisk
002539c0 T vstart
00253b00 T vstopFile
00253c6c T vstop
00253ce0 T prepareCommand
00253df0 T InitADV7180Dev
00254348 T initADVForAdv
00254398 T StatusADV7180Dev
002543e0 T WriteADV7180Dev
002545dc T ReadADV7180Dev
002547e4 T _ZN10EarlyAlert12GetLogBufferERPhRj
00254828 T _ZN10EarlyAlert10GetLogFileEv
002548a0 T _ZN10EarlyAlert12AddDataInSpyEPKcj
00254988 T _ZN10EarlyAlert10LogSpyDataEPciiiiii
00254aac T _ZN10EarlyAlert27EarlyAlert_ErrorMsgQReceiveEv
00254b04 T _ZN10EarlyAlert18IsInputDataChangedERN16C_BCM_FP_LIB_COM26t_bcm_fp_libcom_syst_stateER27t_bcm_fp_libcom_onoff_stateR31t_bcm_fp_libcom_cde_ptr_message
00254d20 T _ZN10EarlyAlert17DisplayPtrMessageEPcR31t_bcm_fp_libcom_cde_ptr_message
00254e34 T _ZN10EarlyAlert18DisplayAlertStatusEv
00254e80 T _ZN10EarlyAlert13DisplayConfigEv
00254ef4 T _ZN10EarlyAlertC1Ev
00255064 T _ZN10EarlyAlertC2Ev
002551d4 T _ZN10EarlyAlert14GetOnOffStatusER27t_bcm_fp_libcom_onoff_state
00255250 T _ZN10EarlyAlert13GetDiagConfigER27t_bcm_fp_libcom_diag_config
002552cc T _ZN10EarlyAlert10ReadConfigEv
0025540c T _ZN10EarlyAlert13GetAlertFrameER31t_bcm_fp_libcom_cde_ptr_message
00255488 T _ZN10EarlyAlert10ShowStatusEv
002556c4 T _ZN10EarlyAlert12GetInputDataERN16C_BCM_FP_LIB_COM26t_bcm_fp_libcom_syst_stateER27t_bcm_fp_libcom_onoff_stateR31t_bcm_fp_libcom_cde_ptr_message
0025588c T _ZN10EarlyAlert20WrapPeriodicWatchdogEPS_
002559b4 T _ZN10EarlyAlert6UnlockEv
00255a1c T _ZN10EarlyAlert4LockEv
00255a88 T _ZN10EarlyAlert29IsTransitionFromBSToClassicBSEv
00255b44 T _ZN10EarlyAlert29IsTransitionFromClassicBSToBSEv
00255c00 T _ZN10EarlyAlert19IsTransitionOnToOffEv
00255c94 T _ZN10EarlyAlert30IsTransitionFromClassicBSToOffEv
00255d1c T _ZN10EarlyAlert23IsTransitionFromBSToOffEv
00255da4 T _ZN10EarlyAlert19IsTransitionOffToOnEv
00255e38 T _ZN10EarlyAlert30IsTransitionFromOffToClassicBSEv
00255f28 T _ZN10EarlyAlert23IsTransitionFromOffToBSEv
00256020 T _ZN10EarlyAlert10IsNewAlertEv
002560b0 T _ZN10EarlyAlert17IsToggledNouvMessEv
00256138 T _ZN10EarlyAlert23ClassicBootScreenActionEv
002561b0 T _ZN10EarlyAlert18BootScreenActionOnEv
0025627c T _ZN10EarlyAlert19BootScreenActionOffEv
002562f4 T _ZN10EarlyAlert11ChangeStateE19t_early_alert_state
002563e4 T _ZN10EarlyAlert14TreatInputdataEv
00256540 T _ZN10EarlyAlert14IsAlertAllowedEv
002565b8 T _ZN10EarlyAlert12PeriodicTaskEv
002569c8 T _ZN10EarlyAlert19PeriodicTaskWrapperEPS_
00256a0c T _ZN10EarlyAlert19GetEarlyAlertStatusER20t_early_alert_status
00256acc T _ZN10EarlyAlert13FlushQmessageEv
00256be4 T _ZN10EarlyAlert5CloseEv
00256d34 T _ZN10EarlyAlert4InitEv
00256f90 T _ZN10EarlyAlert8InstanceEv
00257024 T _Z20EarlyAlertShowStatusv
00257060 T GetEarlyAlertStatus
002570c8 T EarlyAlert_Close
00257104 T EarlyAlert_Init
00257140 T _ZN10EarlyAlertD0Ev
00257198 T _ZN10EarlyAlertD1Ev
002571f0 T _ZN10EarlyAlertD2Ev
00257248 T BSP_SSM_Stop_DummyFunc
00257298 T Set_BSP_SSM_Stop_EventFunc
00257320 T tUsb2FsAppNotifierTask
002574a8 T usb2FsNotifierInit
00257608 T usb2FsNotifyPost
00257698 T BootRomInterruptBootTask
002577c0 T usb2FsMountReady
002578c4 T TapDriverInitActivate
00257954 t TapDriverInstall
002579f8 t TapDeviceCreate
00257b98 t TapOpen
00257c74 t TapClose
00257d28 t TapRead
00257f84 t TapWrite
00258190 t TapIoctl
00258390 t audioIfRequest
002584a4 t findAudioDescrByUnit
002585ec t findAudioDescrSkip
00258780 t findAudioDescr
002587fc t buildAudioMap
00258a18 t parseInterface
00258de8 t buildFormatList
00258f00 t parseAudioConfig
00258fb0 t configureSeqDev
0025929c t destroyAudioStream
002595c8 t setIsochIPODIrp
00259a88 t initIsochIPODIrp
00259be0 t resetAudioRead
00259e58 t selectBandWidth
0025a71c t openAudioStream
0025a774 t closeAudioStream
0025a7cc t usbIsochIpodIrpCallback
0025b3c4 t usbIsochIpodSeqRd
0025b838 t usbIsochIpodSeqWrt
0025b86c t SetFreqOut
0025b9d0 t usbIsochIpodIoctl
0025be20 t usbIsochIpodSeqWrtFileMarks
0025be50 t usbIsochIpodRewind
0025be78 t usbIsochIpodReserve
0025bf04 t usbIsochIpodRelease
0025bf90 t usbIsochIpodReadBlkLim
0025bff4 t usbIsochIpodLoad
0025c020 t usbIsochIpodSpace
0025c050 t usbIsochIpodErase
0025c078 t destroyAttachRequest
0025c0bc t destroySeqDev
0025c328 t createSeqDev
0025c668 t findSeqDev
0025c6f0 t notifyAttach
0025c7e4 T InitIpodStrategy
0025c89c T debugStrategy
0025c914 t usbIsochIpodConfigFinder
0025cd6c T usbIsochIpodAttachCallback
0025cf30 t doShutdown
0025d020 T usbIsochIpodDevInit
0025d1b8 T usbIsochIpodDevShutdown
0025d264 T usbIsochIpodDynamicAttachRegister
0025d3c8 T usbIsochIpodDynamicAttachUnRegister
0025d4b0 T usbIsochIpodSeqDevLock
0025d530 T usbIsochIpodSeqDevUnlock
0025d610 t usbIsochIpodSeqDevShow
0025d7d8 T saf7115_attach
0025d8dc T saf7115_writeregs
0025d98c T StatusSAF7115Dev
0025d9d4 T StVBIDataVDDev
0025da1c T RdVBIDataVDDev
0025da64 T ReadSAF7115Dev
0025dc98 T WriteSAF7115Dev
0025dec0 T SetUpSAF7115Dev
0025e01c T InitSAF7115Dev
0025e0b4 T saf7115PowerOn
0025e0f4 T saf7115PowerOn_TASKB
0025e134 T saf7115PowerOFF
0025e174 T SetUpVDDevTASKB
0025e240 t GetNandHarmonyAddress
0025e2f8 t GetNandHarmonyNbBlocks
0025e3b0 t GetNandBigHarmonyCount
0025e470 t CheckBigHarmonyInfFile
0025e6c4 t GetBigHarmonyPagesToSkip
0025e7c8 t GetBigHarmonyPageAndSize
0025e9b0 t CheckBigHarmonySizeFit
0025ebf4 T WriteBigHarmony
0025ef38 T EraseAllHarmonies
0025f068 T ReadBigHarmonyPreHeader
0025f1f4 t ReadBigHarmonyHeaderInternal
0025f3e4 t ReadBigHarmonyHeaderFreeInternal
0025f468 T ReadBigHarmonyBigHeader
0025f554 T ReadBigHarmonyHeader
0025f6b4 T ReadBigHarmony
0025f898 t printString
0025f97c t ShowOneBigHarmony
0025fb98 T ShowBigHarmony
002600d4 T ShowBigHarmonies
002601b4 T CheckBigHarmony
00260360 T CheckBigHarmonies
00260438 T Diag_Close
0026044c T _Z8DIAGmainv
002605a0 T Diag_Write
00260620 T Diag_Read
00260694 T Diag_Open
00260708 T Diag_Remove
002607d0 T Diag_Create
002608b8 T Diag_Driver
00260978 T Eol_Close
0026098c T _Z7EOLmainv
00260ae0 T Eol_Write
00260b60 T Eol_Read
00260bd4 T Eol_Open
00260c48 T Eol_Remove
00260d10 T Eol_Create
00260df8 T Eol_Driver
00260ea4 T Fp_Close
00260eb8 T Fp_Ioctl
00260ec0 T _Z6FPmainv
00261014 T Fp_Write
00261094 T Fp_Read
00261108 T Fp_Open
0026117c T Fp_Remove
00261244 T Fp_Create
0026132c T Fp_Driver
002613dc T Kbd_Close
002613f0 T _Z7KBDmainv
00261544 T Kbd_Write
002615c4 T Kbd_Read
00261638 T Kbd_Open
002616ac T Kbd_Remove
00261774 T Kbd_Create
0026185c T Kbd_Driver
00261908 T Libcom_Close
0026191c T _Z10LIBCOMmainv
00261a70 T Libcom_Write
00261b38 T Libcom_Read
00261bac T Libcom_Open
00261c20 T Libcom_Remove
00261cfc T Libcom_Create
00261de4 T Libcom_Driver
00261e90 T Net_Close
00261ea4 T _Z7NETmainv
00261ff8 T Net_Write
00262078 T Net_Read
002620ec T Net_Open
00262160 T Net_Remove
00262228 T Net_Create
00262310 T Net_Driver
002623bc T Upg_Close
002623d0 T _Z7UPGmainv
00262524 T Upg_Write
002625a4 T Upg_Read
00262618 T Upg_Open
0026268c T Upg_Remove
00262768 T Upg_Create
00262850 T Upg_Driver
002628fc T _ZN28C_BCM_FP_LIBCOM_PRESENTATION10ShowStatusEv
0026294c T _ZN28C_BCM_FP_LIBCOM_PRESENTATION20WrapPeriodicWatchdogEPS_
002629c0 T _ZN28C_BCM_FP_LIBCOM_PRESENTATION8SwitchOnEv
00262c18 T _ZN28C_BCM_FP_LIBCOM_PRESENTATION13GetAlertFrameER31t_bcm_fp_libcom_cde_ptr_message
00262d10 T _ZN28C_BCM_FP_LIBCOM_PRESENTATION14GetOnOffStatusER27t_bcm_fp_libcom_onoff_state
00262df4 T _ZN28C_BCM_FP_LIBCOM_PRESENTATION9GetZADataEP23t_bcm_fp_libcom_ZA_data
00262e98 T _ZN28C_BCM_FP_LIBCOM_PRESENTATION10UpdateDataEP22BCM_FP_DEV_LIBCOM_DATA
00263110 T _ZN28C_BCM_FP_LIBCOM_PRESENTATION8ReadTaskEv
00263460 T _ZN28C_BCM_FP_LIBCOM_PRESENTATION5WriteEhhPKh
00263704 T _ZN28C_BCM_FP_LIBCOM_PRESENTATION16SetResetBlackfinEt
0026381c T _ZN28C_BCM_FP_LIBCOM_PRESENTATION13GetDiagConfigER27t_bcm_fp_libcom_diag_config
0026397c T _ZN28C_BCM_FP_LIBCOM_PRESENTATION13GetEolHwIdentER26C_FP_LIB_COM_DATA_HW_IDENT
00263ae8 T _ZN28C_BCM_FP_LIBCOM_PRESENTATION12PeriodicTaskEv
00263f20 T _ZN28C_BCM_FP_LIBCOM_PRESENTATION5CleanEv
00263f84 T _ZN28C_BCM_FP_LIBCOM_PRESENTATION5CloseEv
00264094 T _ZN28C_BCM_FP_LIBCOM_PRESENTATION4InitEv
0026462c T _ZN28C_BCM_FP_LIBCOM_PRESENTATIOND0Ev
00264694 T _ZN28C_BCM_FP_LIBCOM_PRESENTATIOND1Ev
002646dc T _ZN28C_BCM_FP_LIBCOM_PRESENTATIOND2Ev
00264724 T _ZN28C_BCM_FP_LIBCOM_PRESENTATIONC1Ev
002648a4 T _ZN28C_BCM_FP_LIBCOM_PRESENTATION8InstanceEv
00264934 T _ZN28C_BCM_FP_LIBCOM_PRESENTATION16WrapPeriodicTaskEv
00264970 T _ZN28C_BCM_FP_LIBCOM_PRESENTATION12WrapReadTaskEv
002649ac T _ZN28C_BCM_FP_LIBCOM_PRESENTATIONC2Ev
00264b2c T _ZN16C_BCM_FP_LIB_COM13FlashStopDataERNS_29t_bcm_fp_lib_com_flash_statusE
00264b94 T _Z19MyTestFlashStopDatav
00264c18 T _ZN16C_BCM_FP_LIB_COM9FlashDataERNS_27t_bcm_fp_lib_com_flash_dataERNS_29t_bcm_fp_lib_com_flash_statusE
00264ce8 T _Z23MyTestFlashDataChecksumv
00264df0 T _Z21MyTestFlashDataLoaderv
00264f14 T _Z15MyTestFlashDatav
0026504c T _ZN16C_BCM_FP_LIB_COM14FlashStartDataEv
00265090 T _Z20MyTestFlashStartDatav
002650f0 T _ZN16C_BCM_FP_LIB_COM11EraseLoaderERNS_29t_bcm_fp_lib_com_flash_statusE
00265150 T _Z17MyTestEraseLoaderv
002651d4 T _ZN16C_BCM_FP_LIB_COM10EraseAppliERNS_29t_bcm_fp_lib_com_flash_statusE
00265234 T _Z16MyTestEraseAppliv
002652b8 T _ZN16C_BCM_FP_LIB_COM13SetLoaderModeEv
002652fc T _Z19MyTestSetLoaderModev
0026535c T _ZN16C_BCM_FP_LIB_COM15GetUpgBlReleaseER28C_FP_LIB_COM_DATA_BL_RELEASE
002653a0 T _Z21MyTestGetUpgBlReleasev
00265444 T _ZN16C_BCM_FP_LIB_COM15GetEolBlReleaseER28C_FP_LIB_COM_DATA_BL_RELEASE
00265488 T _Z21MyTestGetEolBlReleasev
0026552c T _ZN16C_BCM_FP_LIB_COM15GetEolSwReleaseER28C_FP_LIB_COM_DATA_SW_RELEASE
00265570 T _Z21MyTestGetEolSwReleasev
00265614 T _ZN16C_BCM_FP_LIB_COM14GetSystemStateERNS_26t_bcm_fp_libcom_syst_stateE
002656c4 T _Z20MyTestGetSystemStatev
00265728 T _ZN16C_BCM_FP_LIB_COM11ExitEolModeEv
0026578c T _Z17MyTestExitEolModev
002657ec T _ZN16C_BCM_FP_LIB_COM12EnterEolModeEv
00265850 T _Z18MyTestEnterEolModev
002658b0 T _ZN16C_BCM_FP_LIB_COM9GetZADataEP23t_bcm_fp_libcom_ZA_data
002658f4 T _ZN16C_BCM_FP_LIB_COM14GetUpgConfDataEP29t_bcm_fp_libcom_upg_conf_data
00265938 T _ZN16C_BCM_FP_LIB_COM17GetSystemConfDataEP32t_bcm_fp_libcom_system_conf_data
0026597c T _ZN16C_BCM_FP_LIB_COM14SetUpgConfDataEP29t_bcm_fp_libcom_upg_conf_data
002659d0 T _ZN16C_BCM_FP_LIB_COM17SetSystemConfDataEP32t_bcm_fp_libcom_system_conf_data
00265a24 T _ZN16C_BCM_FP_LIB_COM20SetManufacturingDataEPh
00265a78 T _ZN16C_BCM_FP_LIB_COM9SetZADataEP29t_bcm_fp_libcom_write_ZA_data
00265acc T _ZN16C_BCM_FP_LIB_COM11GetZAStatusEPb
00265b20 T _ZN16C_BCM_FP_LIB_COM20GetManufacturingDataEPh
00265b64 T _ZN16C_BCM_FP_LIB_COM9GetZADataEP29t_bcm_fp_libcom_write_ZA_data
00265ba8 T _ZN16C_BCM_FP_LIB_COM13GetAlertFrameER31t_bcm_fp_libcom_cde_ptr_message
00265bec T _Z19MyTestGetAlertFramev
00265d28 T _ZN16C_BCM_FP_LIB_COM13GetDiagConfigER27t_bcm_fp_libcom_diag_config
00265d6c T _Z19MyTestGetDiagConfigv
00265e08 T _ZN16C_BCM_FP_LIB_COM14GetOnOffStatusER27t_bcm_fp_libcom_onoff_state
00265ea4 T _Z20MyTestGetOnOffStatusv
00266068 T _ZN16C_BCM_FP_LIB_COM16SetResetBlackfinEt
002660fc T _Z22MyTestSetResetBlackfint
00266160 T _ZN16C_BCM_FP_LIB_COM13GetEolHwIdentER26C_FP_LIB_COM_DATA_HW_IDENT
002661a4 T _Z19MyTestGetEolHwIdentv
00266290 T _ZN16C_BCM_FP_LIB_COM10ShowStatusEv
00266470 T _ZN16C_BCM_FP_LIB_COM5CloseEv
00266590 T _Z15TestCloseLibComv
0026661c T _ZN16C_BCM_FP_LIB_COM4InitEv
002667e8 T _ZN16C_BCM_FP_LIB_COMD0Ev
00266850 T _ZN16C_BCM_FP_LIB_COMD1Ev
00266898 T _ZN16C_BCM_FP_LIB_COMD2Ev
002668e0 T _ZN16C_BCM_FP_LIB_COMC1Ev
0026698c T _ZN16C_BCM_FP_LIB_COM8InstanceEv
00266a1c T _Z20TestInitializeLibComv
00266a6c T _ZN16C_BCM_FP_LIB_COM25BCM_FP_LIB_COM_ShowStatusEv
00266abc T _ZN16C_BCM_FP_LIB_COMC2Ev
00266b68 T _ZN26C_FP_LIB_COM_DATA_HW_IDENTC2Ev
00266b80 T _ZN26C_FP_LIB_COM_DATA_HW_IDENTC1Ev
00266b98 T _ZN28C_FP_LIB_COM_DATA_BL_RELEASE12SetBlReleaseEhhh
00266be8 T _ZN28C_FP_LIB_COM_DATA_BL_RELEASEC1Ev
00266c20 T _ZN28C_FP_LIB_COM_DATA_BL_RELEASEC2Ev
00266c58 T _ZN28C_FP_LIB_COM_DATA_SW_RELEASE12SetSwReleaseEhhh
00266ca8 T _ZN28C_FP_LIB_COM_DATA_SW_RELEASEC1Ev
00266ce0 T _ZN28C_FP_LIB_COM_DATA_SW_RELEASEC2Ev
00266d18 T _ZN25C_BCM_FP_LIB_PROTOCOL_SPI16SetFpDeviceUsingEb
00266d24 T _ZN25C_BCM_FP_LIB_PROTOCOL_SPI17SetEolDeviceUsingEb
00266d30 T _ZN25C_BCM_FP_LIB_PROTOCOL_SPI17SetKbdDeviceUsingEb
00266d3c T _ZN25C_BCM_FP_LIB_PROTOCOL_SPI18SetDiagDeviceUsingEb
00266d48 T _ZN25C_BCM_FP_LIB_PROTOCOL_SPI17SetNetDeviceUsingEb
00266d54 T _ZN25C_BCM_FP_LIB_PROTOCOL_SPI17SetUpgDeviceUsingEb
00266d60 T _ZN25C_BCM_FP_LIB_PROTOCOL_SPI20SetLibcomDeviceUsingEb
00266d6c T _ZN25C_BCM_FP_LIB_PROTOCOL_SPI10KillFPCommEv
00266d7c T _ZN25C_BCM_FP_LIB_PROTOCOL_SPI19FPSpiIsRxEmptyFrameEPh
00266d9c T _ZN25C_BCM_FP_LIB_PROTOCOL_SPI21FPSpiCalculNbrSegmentEh
00266de0 T _ZN25C_BCM_FP_LIB_PROTOCOL_SPI18FPSpiUpdateTxQueueE30t_bcm_fp_lib_spi_ctrl_ack_nack
00266e78 T _ZN25C_BCM_FP_LIB_PROTOCOL_SPI10ShowStatusEv
00266f24 T _ZN25C_BCM_FP_LIB_PROTOCOL_SPI25FPSpiClearRxWaitingBufferEv
00266f68 T _ZN25C_BCM_FP_LIB_PROTOCOL_SPI19FPSpiBuildSyncFrameEv
00266fa4 T _ZN25C_BCM_FP_LIB_PROTOCOL_SPI16FPSpiPushRxQueueEPhh
00267068 T _ZN25C_BCM_FP_LIB_PROTOCOL_SPI20CloseLibcomInterfaceEv
00267194 T _ZN25C_BCM_FP_LIB_PROTOCOL_SPI18FPSpiResetTxBufferEv
002671cc T _ZN25C_BCM_FP_LIB_PROTOCOL_SPIC1Ev
00267394 T _ZN25C_BCM_FP_LIB_PROTOCOL_SPIC2Ev
0026755c T _ZN25C_BCM_FP_LIB_PROTOCOL_SPI19FPSpiCalculFrameCRCEPhh
00267590 T _ZN25C_BCM_FP_LIB_PROTOCOL_SPI11FPSpiSetMsgEhhPKhh
00267924 T _ZN25C_BCM_FP_LIB_PROTOCOL_SPI5WriteEPK21TYPE_LIB_KEY_MSG_DATAh
00267980 T _ZN25C_BCM_FP_LIB_PROTOCOL_SPI24FPSpiPrepareNextNewFrameEb
00267c40 T _ZN25C_BCM_FP_LIB_PROTOCOL_SPI14FPSpiSyncTreatEv
00267d54 T _ZN25C_BCM_FP_LIB_PROTOCOL_SPI13FPSpiCheckCRCEPhh
00267e10 T _ZN25C_BCM_FP_LIB_PROTOCOL_SPI23FPSpiIsMsgDecapsulateOKEPh
00267e7c T _ZN25C_BCM_FP_LIB_PROTOCOL_SPI18FPSpiSendToApplMsgEv
002683d4 T _ZN25C_BCM_FP_LIB_PROTOCOL_SPI26FPSpiIsCtrlReceivedCorrectEv
0026848c T _ZN25C_BCM_FP_LIB_PROTOCOL_SPI25FPSpiIsMsgReceivedCorrectEv
00268544 T _ZN25C_BCM_FP_LIB_PROTOCOL_SPI17FPSpiControlTreatEv
0026874c T _ZN25C_BCM_FP_LIB_PROTOCOL_SPI17FPSpiMessageTreatEv
002689cc T _ZN25C_BCM_FP_LIB_PROTOCOL_SPI17FPSpiProtocolTaskEv
00268cac T _ZN25C_BCM_FP_LIB_PROTOCOL_SPI21FPSpiWrapProtocolTaskEPS_
00268ce0 T _ZN25C_BCM_FP_LIB_PROTOCOL_SPI13ReadNetDeviceEP21TYPE_LIB_KEY_MSG_DATA
00268dcc T _ZN25C_BCM_FP_LIB_PROTOCOL_SPI14ReadDiagDeviceEP21TYPE_LIB_KEY_MSG_DATA
00268eb8 T _ZN25C_BCM_FP_LIB_PROTOCOL_SPI13ReadKbdDeviceEP21TYPE_LIB_KEY_MSG_DATA
00268fa4 T _ZN25C_BCM_FP_LIB_PROTOCOL_SPI13ReadEolDeviceEP21TYPE_LIB_KEY_MSG_DATA
00269090 T _ZN25C_BCM_FP_LIB_PROTOCOL_SPI12ReadFpDeviceEP21TYPE_LIB_KEY_MSG_DATA
0026917c T _ZN25C_BCM_FP_LIB_PROTOCOL_SPI4ReadEP5msg_qP21TYPE_LIB_KEY_MSG_DATA
00269264 T _ZN25C_BCM_FP_LIB_PROTOCOL_SPI16ReadLibcomDeviceEP21TYPE_LIB_KEY_MSG_DATA
0026938c T _ZN25C_BCM_FP_LIB_PROTOCOL_SPI13ReadUpgDeviceEP21TYPE_LIB_KEY_MSG_DATA
002694b4 T _ZN25C_BCM_FP_LIB_PROTOCOL_SPI5CloseEv
00269668 T _ZN25C_BCM_FP_LIB_PROTOCOL_SPI4InitEv
00269eb8 T _ZN25C_BCM_FP_LIB_PROTOCOL_SPID0Ev
00269f1c T _ZN25C_BCM_FP_LIB_PROTOCOL_SPID1Ev
00269f60 T _ZN25C_BCM_FP_LIB_PROTOCOL_SPID2Ev
00269fa4 T _ZN25C_BCM_FP_LIB_PROTOCOL_SPI8InstanceEv
0026a034 T _ZN16C_BCM_FP_LIB_SEMC2Ev
0026a050 T _ZN16C_BCM_FP_LIB_SEMC1Ev
0026a06c T _ZN16C_BCM_FP_LIB_SEM10ShowStatusEv
0026a134 T _ZNK16C_BCM_FP_LIB_SEM19StopSynchronousWaitEh
0026a190 T _ZNK16C_BCM_FP_LIB_SEM20StartSynchronousWaitEht
0026a230 T _ZN16C_BCM_FP_LIB_SEM5CleanEv
0026a304 T _ZN16C_BCM_FP_LIB_SEM4InitEh
0026a408 T _ZN16C_BCM_FP_LIB_SEMD0Ev
0026a460 T _ZN16C_BCM_FP_LIB_SEMD1Ev
0026a498 T _ZN16C_BCM_FP_LIB_SEMD2Ev
0026a4d0 T _ZN23C_BCM_FP_LIB_SERIAL_SPY15IncrNbResynchroEv
0026a4e8 T _ZN23C_BCM_FP_LIB_SERIAL_SPY14GetNbResynchroEv
0026a4f0 T _ZN23C_BCM_FP_LIB_SERIAL_SPY15IncrNbFrameLostEv
0026a508 T _ZN23C_BCM_FP_LIB_SERIAL_SPY14GetNbFrameLostEv
0026a510 T _ZN23C_BCM_FP_LIB_SERIAL_SPY16IncrNackReceivedEv
0026a528 T _ZN23C_BCM_FP_LIB_SERIAL_SPY15GetNackReceivedEv
0026a530 T _ZN23C_BCM_FP_LIB_SERIAL_SPY19IncrNbFrameReceivedEv
0026a548 T _ZN23C_BCM_FP_LIB_SERIAL_SPY18GetNbFrameReceivedEv
0026a550 T _ZN23C_BCM_FP_LIB_SERIAL_SPY17IncrNbMsgReceivedEh
0026a578 T _ZN23C_BCM_FP_LIB_SERIAL_SPY16GetNbMsgReceivedEv
0026a580 T _ZN23C_BCM_FP_LIB_SERIAL_SPY15GetRegDataIndexEv
0026a588 T _ZN23C_BCM_FP_LIB_SERIAL_SPY16GetRegBeginIndexEv
0026a590 T _ZN23C_BCM_FP_LIB_SERIAL_SPY15GetRegFillIndexEv
0026a598 T _ZN23C_BCM_FP_LIB_SERIAL_SPY7GetDataEv
0026a5a0 T _ZN23C_BCM_FP_LIB_SERIAL_SPY8GetSemIdEv
0026a5ac T _ZN23C_BCM_FP_LIB_SERIAL_SPY11GetSpyStateEv
0026a5b8 T _ZN23C_BCM_FP_LIB_SERIAL_SPY8SetSpyOnEb
0026a5c4 T _ZN23C_BCM_FP_LIB_SERIAL_SPY12IncrNackSentEv
0026a5dc T _ZN23C_BCM_FP_LIB_SERIAL_SPY11GetNackSentEv
0026a5e4 T _ZN23C_BCM_FP_LIB_SERIAL_SPY15IncrNbFrameSentEv
0026a5fc T _ZN23C_BCM_FP_LIB_SERIAL_SPY14GetNbFrameSentEv
0026a604 T _ZN23C_BCM_FP_LIB_SERIAL_SPY13IncrNbMsgSentEh
0026a62c T _ZN23C_BCM_FP_LIB_SERIAL_SPY12GetNbMsgSentEv
0026a634 T _ZN23C_BCM_FP_LIB_SERIAL_SPY17GetNextBeginIndexEj
0026a6ec T _ZN23C_BCM_FP_LIB_SERIAL_SPY9FPSpyStopEv
0026a6fc T _ZN23C_BCM_FP_LIB_SERIAL_SPY7SemGiveEv
0026a73c T _ZN23C_BCM_FP_LIB_SERIAL_SPY7SemTakeEv
0026a780 T _ZN23C_BCM_FP_LIB_SERIAL_SPY16LogSpyDataToFileEbPhh
0026a900 T _ZN23C_BCM_FP_LIB_SERIAL_SPY10LogSpyDataEbPKh
0026ab18 T _ZN23C_BCM_FP_LIB_SERIAL_SPY5ResetEv
0026abb4 T _ZN23C_BCM_FP_LIB_SERIAL_SPYC1Ev
0026ac58 T _ZN23C_BCM_FP_LIB_SERIAL_SPYC2Ev
0026acfc T _ZN23C_BCM_FP_LIB_SERIAL_SPY4InitEv
0026ad48 T _ZN23C_BCM_FP_LIB_SERIAL_SPY8InstanceEv
0026add4 T _ZN23C_BCM_FP_LIB_SERIAL_SPY10FPSpyStartEv
0026ae1c T _ZN23C_BCM_FP_LIB_SERIAL_SPY11FPSpyInFileEv
0026af78 T _ZN23C_BCM_FP_LIB_SERIAL_SPY9FPSpyStatEv
0026b0c8 T _ZN23C_BCM_FP_LIB_SERIAL_SPYD0Ev
0026b130 T _ZN23C_BCM_FP_LIB_SERIAL_SPYD1Ev
0026b180 T _ZN23C_BCM_FP_LIB_SERIAL_SPYD2Ev
0026b1d0 T _ZN25C_BCM_FP_UPG_PRESENTATION20WrapPeriodicWatchdogEPS_
0026b244 T _ZN25C_BCM_FP_UPG_PRESENTATION8SwitchOnEv
0026b49c T _ZN25C_BCM_FP_UPG_PRESENTATION20GetManufacturingDataEPh
0026b55c T _ZN25C_BCM_FP_UPG_PRESENTATION9GetZADataEP29t_bcm_fp_libcom_write_ZA_data
0026b67c T _ZN25C_BCM_FP_UPG_PRESENTATION10UpdateDataEP19BCM_FP_DEV_UPG_DATA
0026bb08 T _ZN25C_BCM_FP_UPG_PRESENTATION5WriteEhhPKh
0026bdc0 T _ZN25C_BCM_FP_UPG_PRESENTATION13GetUpgBlIdentER28C_FP_LIB_COM_DATA_BL_RELEASE
0026bf28 T _ZN25C_BCM_FP_UPG_PRESENTATION13GetEolBlIdentER28C_FP_LIB_COM_DATA_BL_RELEASE
0026c08c T _ZN25C_BCM_FP_UPG_PRESENTATION13GetEolSwIdentER28C_FP_LIB_COM_DATA_SW_RELEASE
0026c1f0 T _ZN25C_BCM_FP_UPG_PRESENTATION13SetLoaderModeEv
0026c308 T _ZN25C_BCM_FP_UPG_PRESENTATION13FlashStopDataER25t_bcm_fp_upg_flash_status
0026c4b0 T _ZN25C_BCM_FP_UPG_PRESENTATION14FlashStartDataEv
0026c5d0 T _ZN25C_BCM_FP_UPG_PRESENTATION9FlashDataER23t_bcm_fp_upg_flash_dataR25t_bcm_fp_upg_flash_status
0026c7bc T _ZN25C_BCM_FP_UPG_PRESENTATION11ExitEolModeEv
0026c8dc T _ZN25C_BCM_FP_UPG_PRESENTATION11EraseLoaderER25t_bcm_fp_upg_flash_status
0026ca7c T _ZN25C_BCM_FP_UPG_PRESENTATION10EraseAppliER25t_bcm_fp_upg_flash_status
0026cc1c T _ZN25C_BCM_FP_UPG_PRESENTATION12EnterEolModeEv
0026ccd0 T _ZN25C_BCM_FP_UPG_PRESENTATION14GetUpgConfDataEP29t_bcm_fp_libcom_upg_conf_data
0026cdd8 T _ZN25C_BCM_FP_UPG_PRESENTATION14SetUpgConfDataEP29t_bcm_fp_libcom_upg_conf_data
0026ce94 T _ZN25C_BCM_FP_UPG_PRESENTATION17GetSystemConfDataEP32t_bcm_fp_libcom_system_conf_data
0026cfb8 T _ZN25C_BCM_FP_UPG_PRESENTATION17SetSystemConfDataEP32t_bcm_fp_libcom_system_conf_data
0026d070 T _ZN25C_BCM_FP_UPG_PRESENTATION20SetManufacturingDataEPh
0026d188 T _ZN25C_BCM_FP_UPG_PRESENTATION9SetZADataEP29t_bcm_fp_libcom_write_ZA_data
0026d244 T _ZN25C_BCM_FP_UPG_PRESENTATION11GetZAStatusEPb
0026d2fc T _ZN25C_BCM_FP_UPG_PRESENTATION12PeriodicTaskEv
0026d780 T _ZN25C_BCM_FP_UPG_PRESENTATION8ReadTaskEv
0026db00 T _ZN25C_BCM_FP_UPG_PRESENTATION5CleanEv
0026db48 T _ZN25C_BCM_FP_UPG_PRESENTATION5CloseEv
0026db78 T _ZN25C_BCM_FP_UPG_PRESENTATION4InitEv
0026df78 T _ZN25C_BCM_FP_UPG_PRESENTATIOND0Ev
0026dfe0 T _ZN25C_BCM_FP_UPG_PRESENTATIOND1Ev
0026e028 T _ZN25C_BCM_FP_UPG_PRESENTATIOND2Ev
0026e070 T _ZN25C_BCM_FP_UPG_PRESENTATIONC1Ev
0026e214 T _ZN25C_BCM_FP_UPG_PRESENTATION8InstanceEv
0026e2a4 T _ZN25C_BCM_FP_UPG_PRESENTATION16WrapPeriodicTaskEv
0026e2e0 T _ZN25C_BCM_FP_UPG_PRESENTATION12WrapReadTaskEv
0026e31c T _ZN25C_BCM_FP_UPG_PRESENTATIONC2Ev
0026e4c0 T _ZN12C_FP_LIB_SPIC2Ev
0026e4d8 T _ZN12C_FP_LIB_SPIC1Ev
0026e4f0 T _ZN12C_FP_LIB_SPI5WriteEPKhj
0026e520 T _ZN12C_FP_LIB_SPI4ReadEPhj
0026e550 T _ZN12C_FP_LIB_SPI5CloseEv
0026e584 T _ZN12C_FP_LIB_SPI4InitEPKcjjj
0026e714 T _ZN12C_FP_LIB_SPID0Ev
0026e78c T _ZN12C_FP_LIB_SPID1Ev
0026e7f0 T _ZN12C_FP_LIB_SPID2Ev
0026e854 T _ZN12C_FP_LIB_SPI8InstanceEv
0026e8e4 t memcpy
0026e94c t bzero
0026e99c t adler32
0026eb04 t cksum
0026ec84 t zcalloc
0026ecc8 t zcfree
0026ed2c t falloc
0026ed4c t inflate_trees_free
0026edc8 t huft_build
0026f2b0 t inflate_trees_fixed
0026f46c t inflate_trees_dynamic
0026f5a0 t inflate_trees_bits
0026f630 t inflate_flush
0026f798 t inflate_fast
0026fa88 t inflate_codes_new
0026faec t inflate_codes
00270120 t inflate_codes_free
0027015c t inflate_blocks_reset
0027022c t inflate_blocks_new
002702d8 t inflate_blocks
00270bb4 t inflate_blocks_free
00270c18 t inflateReset
00270c84 t inflateEnd
00270d04 t inflateInit
00270e04 t zinflate
0027132c T inflate
00271620 T SetPanicFunc
00271628 T memPartDbgCheck
002719c0 t memPartBlockErrorDbgCheck
00271a5c t memPartDestroy
00271b64 T memPartDelete
00271b6c T memPartInsertFree
00271c30 T memPartDeleteFree
00271cd4 t memPartBlkAlignedAlloc
00271ed8 T sizeNodesAlloc
00271fd8 t memPartAddToPoolInternal
002721d8 T memPartInit
002722c0 T memPartCreate
00272370 T memPartLibInit
00272490 T memPartBlockIsValid
00272528 T memPartCreateHookSet
00272560 T memBlockSizeGet
00272578 T memPartVerifiedLock
002725dc T memPartAddToPool
0027268c T memAddToPool
00272720 T memPartEdrErrorInject
00272850 t memPartFreeInternal
00272ab4 T free
00272b14 T memPartFree
00272b9c T cfree
00272c34 t memPartAlignedAllocInternal
00272e10 T malloc
00272e78 T realloc
00272fb8 T memPartAlignedAlloc
00273054 T memPartAlloc
002730f8 T calloc
002733cc T _pthreadLibInit
00273450 T _pthreadCreate
002737e8 T _pthreadSetCancelType
002738a4 t deleteHook
002738e8 T _pthreadSemOwnerGet
00273930 T _pthreadSemStateGet
00273a20 T semPxLibInit
00273a78 T sem_init
00273b5c t semPxCreateRtn
00273c0c t semPxDestroyRtn
00273d04 T _sem_destroy
00273e40 T sem_destroy
00273e84 T sem_open
00274010 T sem_close
002740a8 T sem_unlink
00274130 T _sem_wait
00274184 T sem_wait
00274268 T _sem_trywait
002742b0 T sem_trywait
00274358 T _sem_timedwait
0027450c T sem_timedwait
00274600 T _sem_post
00274644 T sem_post
00274714 T _sem_getvalue
00274770 T sem_getvalue
00274814 T ftruncate
002748dc t RnpCheckInputs
002748f8 T RnpGenerateActivationCode
0027495c t RnpOneWayBlock
00274ab8 T VerifyActiveKey
00274db4 T TableOp
00274df8 T ParseHexDword
00274eb0 T RS_MDS_Encode
00274f48 T BuildMDS
00275144 T ReverseRoundSubkeys
00275198 T Xor256
002754b4 T reKey
00276180 T cipherInit
00276234 T blockEncrypt
002774f0 T blockDecrypt
00278820 T makeKey
00278914 t memcpy
0027897c t bzero
002789cc t adler32
00278b34 t cksum
00278cc4 t zcalloc
00278d20 t zcfree
00278d94 t falloc
00278db4 t inflate_trees_free
00278e30 t huft_build
00279318 t inflate_trees_fixed
002794f0 t inflate_trees_dynamic
00279624 t inflate_trees_bits
002796b4 t inflate_flush
0027981c t inflate_fast
00279b0c t inflate_codes_new
00279b70 t inflate_codes
0027a1a4 t inflate_codes_free
0027a1e0 t inflate_blocks_reset
0027a2b0 t inflate_blocks_new
0027a35c t inflate_blocks
0027ac38 t inflate_blocks_free
0027ac9c t inflateReset
0027ad08 t inflateEnd
0027ad88 t inflateInit
0027ae88 t zinflate
0027b3b0 T inflate_n
0027b8b0 T z_adler32
0027bc54 T adler32_combine
0027bd20 T z_compressBound
0027bd3c T z_compress2
0027be24 T z_compress
0027be2c T z_get_crc_table
0027be38 T z_crc32
0027c538 t gf2_matrix_times
0027c584 t gf2_matrix_square
0027c5e0 T crc32_combine
0027c700 T deflateSetHeader
0027c738 T z_deflatePrime
0027c77c T deflateTune
0027c7b8 t putShortMSB
0027c7e0 T z_deflateEnd
0027c944 t longest_match
0027cbbc t longest_match_fast
0027ccdc T z_deflateCopy
0027ced0 t flush_pending
0027cf98 t fill_window
0027d1f0 T z_deflateSetDictionary
0027d358 T z_deflate
0027de34 T z_deflateParams
0027df64 t deflate_slow
0027e558 t deflate_fast
0027ea24 t deflate_stored
0027ec00 T z_deflateBound
0027ec78 T z_deflateReset
0027edfc T z_deflateInit2_
0027f120 T z_deflateInit_
0027f13c T gzungetc
0027f1ac T gzeof
0027f1f4 T gzdirect
0027f220 T gzclearerr
0027f270 T gzerror
0027f3e0 t do_flush
0027f540 t putLong
0027f59c t destroy
0027f6ac T gzclose
0027f730 T gzwrite
0027f84c T gzputs
0027f894 T gzputc
0027f8d0 T gzrewind
0027f984 T gzflush
0027f9f8 T gzprintf
0027faf4 t get_byte
0027fbe8 t getLong
0027fc78 t check_header
0027fed8 T gzread
0028026c T gzseek
002804a0 T gztell
002804ac T gzgets
0028056c T gzgetc
002805a4 T gzsetparams
0028064c t gz_open
00280980 T gzdopen
002809f8 T gzopen
00280a00 T inflateBackInit_
00280b20 T z_inflateBackEnd
00280b84 T z_inflateBack
00281bdc T inflate_fast
002821a8 T z_inflateReset
00282230 T inflatePrime
00282294 T z_inflateInit2_
002823e0 T z_inflateInit_
002823f0 T z_inflateEnd
00282478 T inflateGetHeader
002824b8 t syncsearch
00282544 T z_inflateSync
002826a0 T z_inflateSyncPoint
002826e0 T z_inflateCopy
00282878 t updatewindow
00282a6c T z_inflateSetDictionary
00282bb8 T z_inflate
00284614 T inflate_table
00284be8 T error
00284c3c T gz_uncompress
00284d38 T file_uncompress
00284eac T gz_compress
00284fd0 T file_compress
002850e8 T main
002853d4 t init_block
00285454 T _tr_init
002854ac t pqdownheap
00285608 t scan_tree
0028574c t send_tree
00285cf8 T _tr_tally
00285df0 t compress_block
00286294 t build_tree
0028684c t bi_flush
002868d0 T _tr_align
00286b64 t bi_windup
00286be4 T _tr_stored_block
00286d30 T _tr_flush_block
00287340 T z_uncompress
00287434 T zlibVersion
00287440 T zlibCompileFlags
00287448 T z_zError
00287460 T zcfree
00287484 T zcalloc
002874a8 T _Z7InitCrcR9Crc16Type
002874b8 T _Z10ComputeCrcPKhiR9Crc16Type
00287510 T _Z20ComputeCrcFrontPanelPKhi
00287584 T _Z15update_crc_sicktcc
002875ac T _Z13update_crc_16tc
0028764c T _Z17update_crc_kermittc
002876ec T _Z14update_crc_dnptc
0028778c T _Z13update_crc_32mc
00287814 T _Z16update_crc_ccitttc
002878ac T _ZN15C_DBBootManager18SetDBBootFlagErrorEbjj
002878b4 T _ZN15C_DBBootManager18SetDBBootFlagErrorERK23DBBootBootROMDataStruct
002878bc T _ZN15C_DBBootManager21SetDefaultBootROMDataER12DBBootStruct
002878d8 T _ZN15C_DBBootManager22ComputeAlignSizeDBBootEj
002878f0 T _ZN15C_DBBootManager24GetDBBootAccessErrorTypeERj
00287964 T _ZN15C_DBBootManager13FindDBBootTagERj
00287b68 T _ZN15C_DBBootManager26SetDefaultConfigSystemDataER12DBBootStruct
00287bcc T _ZN15C_DBBootManager25SetDefaultAppliConfigDataER12DBBootStruct
00287bfc T _ZN15C_DBBootManager25SetDefaultPartitionStatusER12DBBootStruct
00287c2c T _ZN15C_DBBootManager21SetDefaultUpgradeDataER12DBBootStruct
00287d88 T _ZN15C_DBBootManager19CreateDBBootDefaultER12DBBootStruct
00287e40 T _ZN15C_DBBootManager12UpdateDBBootEPhR12DBBootStructj
00288294 T _ZN15C_DBBootManager19ReadAnyKindOfDBBootEjR12DBBootStructb
00288538 T _ZN15C_DBBootManager18GetDBBootRecursiveEP12DBBootStructiRS0_bRj
00288ad8 T _ZN15C_DBBootManager20GetDBBootFreeAddressERj
00288d68 T _ZN15C_DBBootManager19WriteCompleteDBBootERK12DBBootStructj
00289058 T _ZN15C_DBBootManager23CreateDBBootFreeAddressERj
00289334 T _ZN15C_DBBootManager25SetDBBootConfigSystemFlagEcj
00289514 T _ZN15C_DBBootManager25SetDBBootConfigSystemFlagEPKc
00289708 T _ZN15C_DBBootManager28SetDBBootConfigSystemVersionEPKh
002898fc T _ZN15C_DBBootManager21SetDBBootConfigSystemERK24DBBootConfigSystemStruct
00289af0 T _ZN15C_DBBootManager24SetDBBootAppliConfigDataEj
00289cd8 T _ZN15C_DBBootManager24SetDBBootPartitionStatusERK27DBBootPartitionStatusStruct
00289ecc T _ZN15C_DBBootManager18SetDBBootToDefaultEv
0028a038 T _ZN15C_DBBootManager9SetDBBootERK12DBBootStruct
0028a13c T _ZN15C_DBBootManager20SetDBBootUpgradeDataERK23DBBootUpgradeDataStruct
0028a330 T _ZN15C_DBBootManager25GetDBBootConfigSystemFlagEPc
0028a468 T _ZN15C_DBBootManager28GetDBBootConfigSystemVersionEPh
0028a5a0 T _ZN15C_DBBootManager21GetDBBootConfigSystemER24DBBootConfigSystemStruct
0028a6d8 T _ZN15C_DBBootManager24GetDBBootAppliConfigDataERj
0028a808 T _ZN15C_DBBootManager24GetDBBootPartitionStatusER27DBBootPartitionStatusStruct
0028a940 T _ZN15C_DBBootManager9GetDBBootER12DBBootStructib
0028aa68 T _ZN15C_DBBootManager24GetDBBootLastUpgradeDataER23DBBootUpgradeDataStruct
0028aba0 T _ZN15C_DBBootManager22GetDBBootLastFlagErrorER23DBBootBootROMDataStruct
0028acd8 T _ZN15C_DBBootManager22CreateConfigSystemFileEPKcRK24DBBootConfigSystemStruct
0028af80 T _ZN15C_DBBootManager25GetDBBootConfigSystemFlagERcj
0028b234 T _ZN15C_DBBootManager25VerifyConfigSystemDefaultEPKc
0028b714 T _ZN15C_DBBootManagerD0Ev
0028b76c T _ZN15C_DBBootManagerD1Ev
0028b7b4 T _ZN15C_DBBootManagerD2Ev
0028b7fc T _ZN15C_DBBootManagerC1Ev
0028b85c T _ZN15C_DBBootManager8InstanceEv
0028b8d8 T _ZN15C_DBBootManagerC2Ev
0028b938 T _ZN17C_DBSystemManager21CreateDBSystemDefaultER14DBSystemStructb
0028bb88 T _ZN17C_DBSystemManager26GetDBSystemAccessErrorTypeERj
0028bbfc T _ZN17C_DBSystemManager21WriteCompleteDBSystemEPjj
0028be40 T _ZN17C_DBSystemManager20SetDBSystemToDefaultEPhS0_Pt
0028c2f8 T _ZN17C_DBSystemManager11SetDBSystemERK14DBSystemStruct
0028c5ec T _ZN17C_DBSystemManager14UpdateDBSystemEPhR14DBSystemStruct
0028c6e8 T _ZN17C_DBSystemManager21ReadAnyKindOfDBSystemEPjR14DBSystemStruct
0028ca1c T _ZN17C_DBSystemManager22SetDBSystemBootROMDataEjj
0028cd7c T _ZN17C_DBSystemManager16SetDVDAttemptNumEh
0028cf6c T _ZN17C_DBSystemManager16SetDVDRegionCodeEh
0028d1a4 T _ZN17C_DBSystemManager21SetDisplayOrientationEhh
0028d450 T _ZN17C_DBSystemManager13SetDisplayPwdEPKt
0028d6cc T _ZN17C_DBSystemManager14SetDisplayConfEPKh
0028d948 T _ZN17C_DBSystemManager18SetSBSystemCodeVINEPKh
0028dbc4 T _ZN17C_DBSystemManager22VerifyCompleteDBSystemERK14DBSystemStructbb
0028dfdc T _ZN17C_DBSystemManager25SetDBSystemBootLoaderFlagEb
0028e1e4 T _ZN17C_DBSystemManager26GetDBSystemFirstDBBootAddrERj
0028e3c8 T _ZN17C_DBSystemManager11GetDBSystemER14DBSystemStruct
0028e558 T _ZN17C_DBSystemManager16GetDVDAttemptNumERh
0028e708 T _ZN17C_DBSystemManager16GetDVDRegionCodeERh
0028e8b8 T _ZN17C_DBSystemManager22GetDBSystemBootROMDataERjS0_Rt
0028eac8 T _ZN17C_DBSystemManager18GetDBSystemVersionEPc
0028ed14 T _ZN17C_DBSystemManager21GetDisplayOrientationEhRh
0028efdc T _ZN17C_DBSystemManager13GetDisplayPwdEPt
0028f1f0 T _ZN17C_DBSystemManager14GetDisplayConfEPh
0028f404 T _ZN17C_DBSystemManager18GetDBSystemCodeVINEPh
0028f618 T _ZN17C_DBSystemManager14VerifyDBSystemEv
0028f78c T _ZN17C_DBSystemManagerD0Ev
0028f7e4 T _ZN17C_DBSystemManagerD1Ev
0028f82c T _ZN17C_DBSystemManagerD2Ev
0028f874 T _ZN17C_DBSystemManagerC1Ev
0028f8c8 T _ZN17C_DBSystemManager8InstanceEv
0028f944 T _ZN17C_DBSystemManagerC2Ev
0028f998 T _Z23DumpADBBootConfigSystemRK12DBBootStruct
0028fa58 T _Z11DumpADBBootRK12DBBootStruct
0028ffbc T _Z27InterCreateConfigSystemFilePKcRK24DBBootConfigSystemStruct
00290008 T _Z30InterVerifyConfigSystemDefaultPKc
0029004c T _Z30InterSetDBBootConfigSystemFlagcj
00290098 T _Z30InterSetDBBootConfigSystemFlagPKc
002900dc T _Z33InterSetDBBootConfigSystemVersionPKh
00290120 T _Z26InterSetDBBootConfigSystemR24DBBootConfigSystemStruct
00290164 T _Z29InterSetDBBootAppliConfigDataj
002901a8 T _Z29InterSetDBBootPartitionStatusRK27DBBootPartitionStatusStruct
002901ec T _Z26InterSetDisplayOrientationhh
00290238 T _Z18InterSetDisplayPwdPKt
0029027c T _Z19InterSetDisplayConfPKh
002902c0 T _Z23InterSetDBBootToDefaultv
002902fc T _Z14InterSetDBBootRK12DBBootStruct
00290340 T _Z25InterSetDBBootUpgradeDataRK23DBBootUpgradeDataStruct
00290384 T _Z23InterSetDBBootFlagErrorRK23DBBootBootROMDataStruct
002903c8 T _Z23InterSetDBBootFlagErrorbjj
0029041c T _Z7BootRomv
0029042c T _Z30InterGetDBBootConfigSystemFlagRcj
00290478 T _Z30InterGetDBBootConfigSystemFlagPc
002904bc T _Z33InterGetDBBootConfigSystemVersionPh
00290500 T _Z26InterGetDBBootConfigSystemR24DBBootConfigSystemStruct
00290544 T _Z29InterGetDBBootAppliConfigDataRj
00290588 T _Z29InterGetDBBootAccessErrorTypeRj
002905cc T _Z29InterGetDBBootPartitionStatusR27DBBootPartitionStatusStruct
00290610 T _Z26InterGetDisplayOrientationhRh
0029065c T _Z18InterGetDisplayPwdPt
002906a0 T _Z19InterGetDisplayConfPh
002906e4 T _Z14InterGetDBBootR12DBBootStructib
00290738 T _Z10DumpDBBootv
00290780 T _Z22DumpDBBootConfigSystemv
002907c8 T _Z29InterGetDBBootLastUpgradeDataR23DBBootUpgradeDataStruct
0029080c T _Z27InterGetDBBootLastFlagErrorR23DBBootBootROMDataStruct
00290850 T _Z25InterSetDBSystemToDefaultPhS_Pt
002908a4 T _Z16InterSetDBSystemRK14DBSystemStruct
002908e8 T _Z21InterSetDVDAttemptNumh
0029092c T _Z21InterSetDVDRegionCodeh
00290970 T _Z27InterSetDBSystemBootROMDatajj
002909bc T _Z23InterSetSBSystemCodeVINPKh
00290a00 T _Z30InterSetDBSystemBootLoaderFlagb
00290a44 T _Z10BootLoaderv
00290a4c T _Z31InterGetDBSystemAccessErrorTypeRj
00290a90 T _Z31InterGetDBSystemFirstDBBootAddrRj
00290ad4 T _Z16InterGetDBSystemR14DBSystemStruct
00290b18 T _Z12DumpDBSystemv
00290ee0 T _Z21InterGetDVDAttemptNumRh
00290f24 T _Z21InterGetDVDRegionCodeRh
00290f68 T _Z27InterGetDBSystemBootROMDataRjS_Rt
00290fbc T _Z23InterGetDBSystemVersionPc
00291000 T _Z23InterGetDBSystemCodeVINPh
00291044 T _Z19InterVerifyDBSystemv
00291080 T _Z18InterInitDBManagerv
00291100 T _Z21DBStorage_SetReadOnlyv
00291108 T _Z23DBStorage_ResetReadOnlyv
00291110 T _Z36DBStorage_GetBootromStartRealAddressv
0029111c T _Z33DBStorage_GetDbSystemStartAddressv
00291124 T _Z31DBStorage_GetDbSystemEndAddressv
0029112c T _Z25DBStorage_GetDbSystemSizev
00291160 T _Z15DBStorage_WritePjS_j
002911fc T _Z15DBStorage_Resetv
00291278 T _Z14DBStorage_ReadPjS_j
00291314 T _Z16DBStorage_Uninitv
00291358 T _Z14DBStorage_Initv
00291418 T _Z28DiscReaderGetFirmwareSizeMaxv
00291420 T _Z27DiscReaderGetFirmwareStringPc
00291450 t _Z15ConfigArrayInitPP13ConfigElement
00291464 t _Z18ConfigArrayDisplayPKP13ConfigElement
002914cc T _Z22ShowConfigSystemStatusv
00291734 T _Z30GetConfigSystemSoftwareVersionPhRi
00291914 t _Z14ConfigArrayGetPKP13ConfigElementPKcPS4_
00291a60 T _Z24GetHardwareConfigurationPKcPS0_
00291c08 T _Z24GetSoftwareConfigurationPKcPS0_
00291db0 t _Z17ConfigArraySearchPKP13ConfigElementPKcPc
00291ef4 T _Z23GetHardwareConfigSystemPKcPc
0029209c T _Z23GetSoftwareConfigSystemPKcPc
00292244 t _Z18ConfigArrayDestroyPP13ConfigElement
002922bc t _Z21CheckFileConfigSystemR12ConfigSystem
002925dc t _Z14ConfigArrayAddPP13ConfigElementPKcS3_
0029275c t _Z18CreateConfigSystemR12ConfigSystem
00292d8c T _Z17StartConfigSystemv
002933a4 T _Z11IsELFFormatRK10Elf32_Ehdr
002933e4 T _Z13ReadELFHeaderiP10Elf32_Ehdr
0029348c T _Z19FindEntryPointValueiP6modulePm
0029350c T sizeLoadInfo
00293514 T ConvASCIIToHexa
00293568 T ConvASCIIToDec
00293580 T ReadFileCRC
002936ec t _Z13GetFieldValuePKcP7__sFILEPc
002938fc T GetInfValue
00293c74 T GetFileVersion
00293c84 T ComputeCRCBinaryFile
00294064 T ComputeCRCFile
0029443c T CheckCRCInf
002947e0 T GetInfLoadInfo
00294bbc T CheckCRCFileInMem
00294cc4 T CheckCRCFile
00294f98 T _Z21LoadIsOffshoreAddressPKc
00294fc8 T _Z15GetOffShoreAddrv
00294fd4 T _Z20GetOffShoreAddrStartv
00294fe0 T _Z18GetOffShoreAddrEndv
00294fec T _Z16IncrOffShoreAddrj
00295014 T _Z13OffShorePrintP6module
00295184 T _Z19OffShoreDetailsShowv
002952b8 T _Z12OffShoreShowi
00295400 t _Z21LoadDestroyMemoryFileiPKc
00295448 t _Z20LoadCreateMemoryFilePKcPiPPc
002957b4 t _Z11LoadIsCrcOKiRK9Crc16Type
002958d8 t _Z18LoadRegisterModulePciiPP6module
002959dc t _Z13LoadFindEntryiP6modulePbPm
00295a80 T _Z17LoadInterfaceInitv
00295abc T _Z18LoadAndInflateFilePKciiPbPmRK9Crc16Type
00295eb8 T _Z8LoadFilePKciPbPmRK9Crc16Type
00296040 T _Z16KernelWriteFlashPjS_j
00296094 T _Z15KernelReadFlashPjS_j
002960e8 T _Z20GetFlashStartAddress13TYPE_FLASH_IDPj
0029613c T _Z15KernelInitFlashv
00296190 T _Z13ChkPartDevicePKcb
00296428 T _Z7ResetFPv
00296430 T _Z8SetPoweri
00296438 T _Z15EmergencyRebootv
00296474 T _Z17GetHddTemperatureRi
0029647c T _Z24WriteProtectHddPartitionPKc
00296484 T _Z21UnprotectHddPartitionPKc
0029648c T _Z15GetHddUsageTimev
00296494 T _Z10fwriteDataPKvjjP7__sFILE
002964b4 T _Z9writeDataiPcj
002964d4 T _ZN8FpLibCom6LibCom8GetMBId1Ev
002964dc T _ZN8FpLibCom6LibCom8GetMBId2Ev
002964e4 T _ZN8FpLibCom6LibCom8GetDBId1Ev
002964ec T _ZN8FpLibCom6LibCom6GetMTBEv
002964f4 T _ZN8FpLibCom6LibCom16SetResetBlackfinEv
0029654c T _ZN8FpLibCom6LibCom10GetHWIdentEv
0029662c T _ZN8FpLibCom6LibComD0Ev
00296664 T _ZN8FpLibCom6LibComD1Ev
00296680 T _ZN8FpLibCom6LibComD2Ev
0029669c T _ZN8FpLibCom6LibComC1Ev
002966cc T _ZN8FpLibCom6LibCom8InstanceEv
00296748 T SetResetBlackfin
002967a0 T _Z10GetHWIdentv
002967fc T _Z6GetMTBv
00296820 T _Z8GetDBId1v
00296844 T _Z8GetMBId2v
00296868 T _Z8GetMBId1v
0029688c T _ZN8FpLibCom6LibComC2Ev
002968bc T _ZN21nsLIB_COM_BoardConfig21C_LIB_COM_BoardConfig8InstanceEv
002968c8 T _ZN21nsLIB_COM_BoardConfig21C_LIB_COM_BoardConfigC2Ev
00296954 T _ZN21nsLIB_COM_BoardConfig21C_LIB_COM_BoardConfigC1Ev
002969e0 T _ZN21nsLIB_COM_BoardConfig21C_LIB_COM_BoardConfig7DestroyEv
002969e4 T _ZN21nsLIB_COM_BoardConfig21C_LIB_COM_BoardConfig13GetMatchingIdEm
00296abc T _ZN21nsLIB_COM_BoardConfig21C_LIB_COM_BoardConfig13ReadDisplayIdEv
00296ac4 T _ZN21nsLIB_COM_BoardConfig21C_LIB_COM_BoardConfig17VerifyBoardConfigEv
00296ba0 T _ZN21nsLIB_COM_BoardConfig21C_LIB_COM_BoardConfig4ShowEv
00296dfc T _ZN21nsLIB_COM_BoardConfig21C_LIB_COM_BoardConfig11GetFamilyIdEv
00296e50 T _ZN21nsLIB_COM_BoardConfig21C_LIB_COM_BoardConfig11GetHardDispEv
00296ed0 T _ZN21nsLIB_COM_BoardConfig21C_LIB_COM_BoardConfig20HardCanManageFPLinesEv
00296f4c T _ZN21nsLIB_COM_BoardConfig21C_LIB_COM_BoardConfig11ReadBoardIdEv
00296fc0 T _ZN21nsLIB_COM_BoardConfig21C_LIB_COM_BoardConfig14GetHardReleaseEv
00297040 T _ZN21nsLIB_COM_BoardConfig21C_LIB_COM_BoardConfigD0Ev
00297078 T _ZN21nsLIB_COM_BoardConfig21C_LIB_COM_BoardConfigD1Ev
00297094 T _ZN21nsLIB_COM_BoardConfig21C_LIB_COM_BoardConfigD2Ev
002970b0 T _Z31LIB_COM_BoardConfigUnInitializev
00297100 T _Z23LIB_COM_BoardConfigShowv
00297140 T _Z15BoardConfigShowv
00297144 T _Z29LIB_COM_BoardConfigInitializev
0029726c T _Z19LIB_COM_GetFamilyIdv
002972d0 T _Z19LIB_COM_GetHardDispv
00297334 T _Z28LIB_COM_HardCanManageFPLinesv
00297398 T LIB_COM_BoardConfigGetHardRelease
0029740c T _Z14GetHardReleasev
00297410 T _Z14LIB_COM_DevDelPc
0029746c T LIB_COM_VerifyBoardConfig
00297658 T _Z20PermanentDevice_Initv
0029766c T _Z32PermanentDevice_GetPartitionNameiP21t_PermanentDeviceName
00297b20 T _Z29PermanentDevice_GetDeviceNameiP21t_PermanentDeviceName
00298000 T _Z20PermanentDevice_Showv
0029812c T _Z17GetGraphicLibraryv
00298138 T _Z12getBRVersionv
00298198 T BootRomFormatTffs
002981ec T MountAndCheckTffs
00298240 t _Z15isDevicePresentPKc
00298290 T _Z16ShellRedirectionv
00298340 T _Z12CloseDABTestv
002983a0 T BRVersionShow
002983d4 T CheckMemoryCoherency
002983f4 T SetMemoryPanicFunction
00298414 t _Z12BootRomMkDirPKc
0029851c T BootRomRestoreTffsAndReboot
00298fe8 t _Z10BootRomWdgv
00299048 t _Z11BootRomStopbi
0029914c T _Z16LoadAndLaunchSSMPKc
0029942c T _Z12LoadAndStartPKcS0_
002995a4 T BootRomStart
00299634 T _Z12StartDABTestv
00299870 T _Z15WriteDABCommandv
0029995c T _Z14ReadDABCommandv
00299a7c T IsFpInLoaderMode
00299aac T BootLoadBlackfin
00299fb0 T _Z6exeSymPcS_
0029a038 t _Z24CheckFFXAndLaunchUpgradev
0029a418 T BootRomInterruptBoot
0029ab40 T _Z16BootRomLaunchSSMv
0029ac48 t _Z14BootRomStartupv
0029adb0 T _Z12mountSdAsUsbv
0029ae54 T moduleSizeGet
0029ae84 T _ZNK10__cxxabiv117__class_type_info11__do_upcastEPKS0_PPv
0029aefc T _ZNK10__cxxabiv117__class_type_info20__do_find_public_srcEiPKvPKS0_S2_
0029af1c T _ZN10__cxxabiv117__class_type_infoD0Ev
0029af5c T _ZN10__cxxabiv117__class_type_infoD1Ev
0029af88 T _ZN10__cxxabiv117__class_type_infoD2Ev
0029afb4 T _ZNK10__cxxabiv117__class_type_info10__do_catchEPKSt9type_infoPPvj
0029b02c T _ZNK10__cxxabiv117__class_type_info11__do_upcastEPKS0_PKvRNS0_15__upcast_resultE
0029b05c T _ZNK10__cxxabiv117__class_type_info12__do_dyncastEiNS0_10__sub_kindEPKS0_PKvS3_S5_RNS0_16__dyncast_resultE
0029b0a4 T _ZdaPv
0029b0c4 T _ZdlPv
0029b0ec t _Z12read_uleb128PKhPj
0029b11c t _Z12read_sleb128PKhPi
0029b168 t _Z16get_adjusted_ptrPKSt9type_infoS1_PPv
0029b210 t _Z28read_encoded_value_with_basehjPKhPj
0029b390 t _Z21base_of_encoded_valuehP15_Unwind_Context
0029b428 t _Z17parse_lsda_headerP15_Unwind_ContextPKhP16lsda_header_info
0029b570 t _Z15get_ttype_entryP16lsda_header_infoj
0029b624 t _Z20check_exception_specP16lsda_header_infoPKSt9type_infoPvi
0029b6e0 T __cxa_call_unexpected
0029b7d0 T __gxx_personality_v0
0029bc4c T _ZSt13set_terminatePFvvE
0029bc60 T _ZSt14set_unexpectedPFvvE
0029bc74 T _ZN10__cxxabiv111__terminateEPFvvE
0029bca8 T _ZSt9terminatev
0029bcc0 T _ZN10__cxxabiv112__unexpectedEPFvvE
0029bcd8 T _ZSt10unexpectedv
0029bcf0 T __cxa_rethrow
0029bd74 T __cxa_throw
0029bde4 t _Z23__gxx_exception_cleanup19_Unwind_Reason_CodeP17_Unwind_Exception
0029be40 T _ZNSt9exception18_Set_raise_handlerEPFvRKS_E
0029be54 T _ZNKSt9exception4whatEv
0029be60 T _ZNKSt10bad_typeid4whatEv
0029be6c T _ZNSt9exceptionD0Ev
0029be98 T _ZNSt9exceptionD1Ev
0029bea8 T _ZNSt9exceptionD2Ev
0029beb8 T _ZNSt13bad_exceptionD0Ev
0029bef8 T _ZNSt13bad_exceptionD1Ev
0029bf08 T _ZNSt13bad_exceptionD2Ev
0029bf18 T _ZNSt9type_infoD0Ev
0029bf44 T _ZNSt9type_infoD1Ev
0029bf54 T _ZNSt9type_infoD2Ev
0029bf64 T _ZnajRKSt9nothrow_t
0029bf84 T _Znwj
0029c004 T _ZnwjRKSt9nothrow_t
0029c0dc T _ZSt9_Nomemoryv
0029c154 t __tcf_0
0029c188 t _Z41__static_initialization_and_destruction_0ii
0029c18c T _GLOBAL__I__ZSt7nothrow
0029c19c T _ZNK10__cxxabiv120__si_class_type_info11__do_upcastEPKNS_17__class_type_infoEPKvRNS1_15__upcast_resultE
0029c218 T _ZN10__cxxabiv120__si_class_type_infoD0Ev
0029c258 T _ZN10__cxxabiv120__si_class_type_infoD1Ev
0029c284 T _ZN10__cxxabiv120__si_class_type_infoD2Ev
0029c2b0 T _ZNK10__cxxabiv120__si_class_type_info20__do_find_public_srcEiPKvPKNS_17__class_type_infoES2_
0029c314 T _ZNK10__cxxabiv120__si_class_type_info12__do_dyncastEiNS_17__class_type_info10__sub_kindEPKS1_PKvS4_S6_RNS1_16__dyncast_resultE
0029c40c T _ZNKSt9type_info14__is_pointer_pEv
0029c414 T _ZNKSt9type_info15__is_function_pEv
0029c41c T _ZNKSt9type_info10__do_catchEPKS_PPvj
0029c434 T _ZNKSt9type_info11__do_upcastEPKN10__cxxabiv117__class_type_infoEPPv
0029c43c T __gplusplus_intrinsicsInit
0029c448 T __gnu_cplusplus_std_libraryInit
0029c454 T _ZN10__cxxabiv117__array_type_infoD0Ev
0029c494 T _ZN10__cxxabiv117__array_type_infoD1Ev
0029c4c0 T _ZN10__cxxabiv117__array_type_infoD2Ev
0029c4ec T _ZdaPvRKSt9nothrow_t
0029c50c T _ZdaPvS_
0029c510 T _ZdlPvRKSt9nothrow_t
0029c530 T _ZdlPvS_
0029c534 T __dynamic_cast
0029c698 t _Z20emergency_mutex_initv
0029c6c4 T __cxa_allocate_exception
0029c7d4 T __cxa_free_exception
0029c884 T __cxa_bad_typeid
0029c8b8 T __cxa_bad_cast
0029c8ec T __cxa_get_exception_ptr
0029c8f4 T _ZSt18uncaught_exceptionv
0029c920 T __cxa_end_catch
0029c9d8 T __cxa_begin_catch
0029ca98 T __cxa_call_terminate
0029cae8 t _Z15eh_globals_dtorPv
0029cb48 t _Z41__static_initialization_and_destruction_0ii
0029cbfc T _GLOBAL__D___cxa_get_globals_fast
0029cc0c T _GLOBAL__I___cxa_get_globals_fast
0029cc1c T __cxa_get_globals
0029ccbc T __cxa_get_globals_fast
0029cd1c T __cxa_current_exception_type
0029cd54 T _ZN10__cxxabiv116__enum_type_infoD0Ev
0029cd94 T _ZN10__cxxabiv116__enum_type_infoD1Ev
0029cdc0 T _ZN10__cxxabiv116__enum_type_infoD2Ev
0029cdec T _ZNK10__cxxabiv120__function_type_info15__is_function_pEv
0029cdf4 T _ZN10__cxxabiv120__function_type_infoD0Ev
0029ce34 T _ZN10__cxxabiv120__function_type_infoD1Ev
0029ce60 T _ZN10__cxxabiv120__function_type_infoD2Ev
0029ce8c T _ZN10__cxxabiv123__fundamental_type_infoD0Ev
0029cecc T _ZN10__cxxabiv123__fundamental_type_infoD1Ev
0029cef8 T _ZN10__cxxabiv123__fundamental_type_infoD2Ev
0029cf24 T _ZN9__gnu_cxx14recursive_initD0Ev
0029cf74 T _ZN9__gnu_cxx14recursive_initD1Ev
0029cfb0 T _ZN9__gnu_cxx14recursive_initD2Ev
0029cfec T _ZN106_GLOBAL__N__scratch_nathan_vxworks_4_1_dwarf_src_gcc_4_1_libstdc___v3_libsupc___guard_cc_00000000_BCBE915812static_mutex6unlockEv
0029d014 T __cxa_guard_release
0029d030 T _ZN106_GLOBAL__N__scratch_nathan_vxworks_4_1_dwarf_src_gcc_4_1_libstdc___v3_libsupc___guard_cc_00000000_BCBE915812static_mutex4lockEv
0029d070 T _ZN106_GLOBAL__N__scratch_nathan_vxworks_4_1_dwarf_src_gcc_4_1_libstdc___v3_libsupc___guard_cc_00000000_BCBE915812static_mutex4initEv
0029d09c T __cxa_guard_abort
0029d0ac T __cxa_guard_acquire
0029d164 T _ZSt15set_new_handlerPFvvE
0029d1c4 T _Znaj
0029d1f4 T _ZNK10__cxxabiv117__pbase_type_info10__do_catchEPKSt9type_infoPPvj
0029d2a0 T _ZN10__cxxabiv117__pbase_type_infoD0Ev
0029d2e0 T _ZN10__cxxabiv117__pbase_type_infoD1Ev
0029d30c T _ZN10__cxxabiv117__pbase_type_infoD2Ev
0029d338 T _ZNK10__cxxabiv129__pointer_to_member_type_info15__pointer_catchEPKNS_17__pbase_type_infoEPPvj
0029d398 T _ZN10__cxxabiv129__pointer_to_member_type_infoD0Ev
0029d3d8 T _ZN10__cxxabiv129__pointer_to_member_type_infoD1Ev
0029d404 T _ZN10__cxxabiv129__pointer_to_member_type_infoD2Ev
0029d430 T _ZNK10__cxxabiv119__pointer_type_info14__is_pointer_pEv
0029d438 T _ZNK10__cxxabiv119__pointer_type_info15__pointer_catchEPKNS_17__pbase_type_infoEPPvj
0029d4c4 T _ZN10__cxxabiv119__pointer_type_infoD0Ev
0029d504 T _ZN10__cxxabiv119__pointer_type_infoD1Ev
0029d530 T _ZN10__cxxabiv119__pointer_type_infoD2Ev
0029d55c T __cxa_pure_virtual
0029d56c T _ZSt14_Debug_messagePKcS0_
0029d630 T _ZSt6_ThrowRKSt9exception
0029d670 T __cxa_vec_cleanup
0029d6fc T _ZN10__cxxabiv1104_GLOBAL__N__scratch_nathan_vxworks_4_1_dwarf_src_gcc_4_1_libstdc___v3_libsupc___vec_cc_00000000_9F96B6DC17uncatch_exceptionC1Ev
0029d758 T __cxa_vec_dtor
0029d838 T __cxa_vec_delete2
0029d8ec T __cxa_vec_delete
0029d8f8 T __cxa_vec_ctor
0029d9f8 T __cxa_vec_new2
0029db04 T __cxa_vec_new
0029db18 T _ZN10__cxxabiv1104_GLOBAL__N__scratch_nathan_vxworks_4_1_dwarf_src_gcc_4_1_libstdc___v3_libsupc___vec_cc_00000000_9F96B6DC17uncatch_exceptionC2Ev
0029db74 T __cxa_vec_new3
0029dc90 T __cxa_vec_delete3
0029dd64 T __cxa_vec_cctor
0029de78 T _ZN10__cxxabiv121__vmi_class_type_infoD0Ev
0029deb8 T _ZN10__cxxabiv121__vmi_class_type_infoD1Ev
0029dee4 T _ZN10__cxxabiv121__vmi_class_type_infoD2Ev
0029df10 T _ZNK10__cxxabiv121__vmi_class_type_info20__do_find_public_srcEiPKvPKNS_17__class_type_infoES2_
0029e078 T _ZNK10__cxxabiv121__vmi_class_type_info11__do_upcastEPKNS_17__class_type_infoEPKvRNS1_15__upcast_resultE
0029e33c T _ZNK10__cxxabiv121__vmi_class_type_info12__do_dyncastEiNS_17__class_type_info10__sub_kindEPKS1_PKvS4_S6_RNS1_16__dyncast_resultE
0029e808 T _ZSt7_FiopenPKcNSt5_IosbIiE9_OpenmodeEi
0029e9b0 t _ZSt5rsfunRSt8ios_baseNSt5_IosbIiE9_FmtflagsE
0029e9c0 t _ZSt5spfunRSt8ios_basei
0029e9c8 t _ZSt5swfunRSt8ios_basei
0029e9d0 T _ZSt13resetiosflagsNSt5_IosbIiE9_FmtflagsE
0029e9f0 T _ZSt12setprecisioni
0029ea10 T _ZSt7setbasei
0029ea30 T _ZSt4setwi
0029ea50 t _ZSt5sbfunRSt8ios_basei
0029ea8c t _ZSt5sifunRSt8ios_baseNSt5_IosbIiE9_FmtflagsE
0029eaa4 T _ZSt11setiosflagsNSt5_IosbIiE9_FmtflagsE
0029eac4 T _ZNSt8ios_base8_CallfnsENS_5eventE
0029eb30 T _ZNSt8ios_base5_TidyEv
0029ebb8 T _ZNSt8ios_base17register_callbackEPFvNS_5eventERS_iEi
0029ec14 T _ZNSt8ios_base7_AddstdEv
0029ecac T _ZNSt8ios_base5imbueERKSt6locale
0029ee64 T _ZNSt8ios_baseD0Ev
0029ef68 T _ZNSt8ios_baseD1Ev
0029f05c T _ZNSt8ios_baseD2Ev
0029f150 T _ZNSt8ios_base5clearENSt5_IosbIiE8_IostateEb
0029f84c T _ZNSt8ios_base8_FindarrEi
0029f9ac T _ZNSt8ios_base5_InitEv
0029fa20 T _ZNSt8ios_base7copyfmtERKS_
0029fbfc t _Z41__static_initialization_and_destruction_1ii
0029fc54 T _ZNSt8ios_base4InitD1Ev
0029fdd0 T _ZNSt8ios_base4InitD2Ev
0029ff4c T _ZNSt8ios_base4InitC1Ev
002a0420 T _ZNSt8ios_base4InitC2Ev
002a08f4 t _Z41__static_initialization_and_destruction_0ii
002a11bc T _GLOBAL__D__ZNSt8ios_base4Init9_Init_cntE
002a11fc T _GLOBAL__I__ZNSt8ios_base4Init9_Init_cntE
002a123c t _Z41__static_initialization_and_destruction_0ii
002a1350 T _GLOBAL__I__ZNSt6localeC2ERKS_S1_i
002a1360 T _ZNSt6locale7_Locimp7_AddfacEPNS_5facetEj
002a14f4 T _ZNSt6locale6globalERKS_
002a1698 T _ZNSt8_Locinfo8_AddcatsEiPKc
002a1a9c T _ZNSt8_LocinfoC1EiPKc
002a1c90 T _ZNSt8_LocinfoC2EiPKc
002a2008 T _ZNSt6locale7_Locimp8_MakelocERKSt8_LocinfoiPS0_PKS_
002a25cc T _ZNSt6localeC1EPKci
002a2978 T _ZNSt6locale7_LocimpC1ERKS0_
002a2c54 T _ZNSt6locale7_AddfacEPNS_5facetEjj
002a2eb8 T _ZNSt6localeC1ERKS_PKci
002a349c T _ZNSt6localeC2ERKS_PKci
002a3964 T _ZNSt6localeC1ERKS_S1_i
002a3adc T _ZNSt6localeC2ERKS_S1_i
002a3c54 T _ZNSt6localeC2EPKci
002a4000 T _ZNSt6locale7_LocimpC2ERKS0_
002a42dc T _Getgloballocale
002a42e8 T _ZNKSt6locale9_GetfacetEj
002a4378 t _Z41__static_initialization_and_destruction_0ii
002a4450 T _GLOBAL__D__Fac_tidy
002a4460 T _GLOBAL__I__Fac_tidy
002a4470 T _ZNSt6locale5facet9_RegisterEv
002a4504 T _Setgloballocale
002a4558 T _Deletegloballocale
002a45f8 t tidy_global
002a464c T _Fac_tidy
002a473c T _ZNSt8_LocinfoD1Ev
002a4844 T _ZNSt8_LocinfoD2Ev
002a494c T _ZNSt6locale7_LocimpD2Ev
002a4ad8 T _ZNSt6locale7_LocimpD0Ev
002a4c6c T _ZNSt6locale7_LocimpD1Ev
002a4df8 T _ZNSt6locale7_LocimpC2Eb
002a5178 T _ZNKSt6localeeqERKS_
002a54fc T _ZNSt6locale7_LocimpC1Eb
002a569c T _ZNSt6locale5_InitEv
002a5888 T _ZNSt6locale5emptyEv
002a58ec T _ZNSt6locale7classicEv
002a5914 T _ZNSt6localeC1Ev
002a5980 T _ZNSt6localeC2Ev
002a59ec T _ZNSt8_LocinfoC1EPKc
002a6080 T _ZNSt8_LocinfoC2EPKc
002a6558 T _ZNKSt12_String_base5_XlenEv
002a6904 T _ZNKSt12_String_base5_XranEv
002a6cb0 T _ZNSt12strstreambuf5_TidyEv
002a6d84 T _ZNSt12strstreambuf5_InitEiPcS0_i
002a6f4c T _ZNSt12strstreambuf9underflowEv
002a6fdc T _ZNSt12strstreambuf6freezeEb
002a7058 T _ZNSt12strstreambuf7seekposESt4fposIiENSt5_IosbIiE9_OpenmodeE
002a71cc T _ZNSt12strstreambuf9pbackfailEi
002a7264 T _ZNSt12strstreambuf7seekoffElNSt5_IosbIiE8_SeekdirENS1_9_OpenmodeE
002a746c T _ZNSt12strstreambuf8overflowEi
002a7768 T _ZNSt12strstreambufD2Ev
002a78f8 T _ZNSt12strstreambufD0Ev
002a7a90 T _ZNSt12strstreambufD1Ev
002a7c20 T _ZNSt10ostrstreamD2Ev
002a7c9c T _ZNSt10ostrstreamC2EPciNSt5_IosbIiE9_OpenmodeE
002a7e44 T _ZNSt10ostrstreamD1Ev
002a7efc T _ZNSt10ostrstreamD0Ev
002a7fbc T _ZNSt10istrstreamD2Ev
002a8038 T _ZNSt10ostrstreamC1EPciNSt5_IosbIiE9_OpenmodeE
002a8218 T _ZNSt10istrstreamD1Ev
002a82d0 T _ZNSt10istrstreamD0Ev
002a8390 T _ZNSt9strstreamC1EPciNSt5_IosbIiE9_OpenmodeE
002a8600 T _ZNSt9strstreamD1Ev
002a8710 T _ZNSt9strstreamD2Ev
002a87ec T _ZNSt9strstreamD0Ev
002a8904 T _ZNSt9strstreamC2EPciNSt5_IosbIiE9_OpenmodeE
002a8b58 T _Atexit
002a8b78 T _Dtest
002a8c04 t _Z41__static_initialization_and_destruction_0ii
002a8e18 T _GLOBAL__I__ZNSt6locale7_Locimp9_MakexlocERKSt8_LocinfoiPS0_PKS_
002a8e28 T _ZNSt6locale7_Locimp9_MakexlocERKSt8_LocinfoiPS0_PKS_
002a961c T _Getctyptab
002a97bc T _Mtxunlock
002a97e0 T _Mtxlock
002a9808 T _Mtxdst
002a982c T _Mtxinit
002a9860 T _ZNSt6_Mutex7_UnlockEv
002a9884 T _ZNSt6_Mutex5_LockEv
002a98a8 T _ZNSt6_MutexD1Ev
002a98e0 T _ZNSt6_MutexD2Ev
002a9918 T _ZNSt6_MutexC1Ev
002a9950 T _ZNSt6_MutexC2Ev
002a9988 T _Stod
002a9a00 T _Stold
002a9a04 T _Stof
002a9a28 T _Stoll
002a9bdc T _Stoull
002a9edc T _Unlocksyslock
002a9f1c T _Locksyslock
002a9f7c t initlocks
002a9fe0 t clearlocks
002aa038 T bcopy
002aa078 t bcrL1
002aa084 t bcrL2
002aa094 t bcrL3
002aa09c t bcrLCopy
002aa0a0 t bcrLGO
002aa0b4 t bcrBCopy
002aa0b8 t bcrBGO
002aa0c8 t bcrH1
002aa0dc t bcrH2
002aa0e4 t bcrHCopy
002aa0e8 t bcrHGO
002aa108 t bcfwd
002aa128 t bcfL1
002aa130 t bcfL2
002aa150 t bcfL3
002aa158 t bcfLCopy
002aa164 t bcfLGO
002aa180 t bcfBCopy
002aa18c t bcfBGO
002aa19c t bcfH1
002aa1b8 t bcfH2
002aa1c0 t bcfHCopy
002aa1cc t bcfHGO
002aa1ec T bcopyBytes
002aa20c T bcopyWords
002aa234 T bcopyLongs
002aa25c T bfill
002aa26c t bffL1
002aa284 t bffLFill
002aa2a8 t bffLGO
002aa2b4 t bffBFill
002aa2b4 T bfillBytes
002aa2c4 t bffBGO
002aa2d0 T swab
002aa2e4 t swloop
002aa2f8 T excIntNestLogInit
002aa2fc T vecOffRelocMatch
002aa344 T vecOffRelocMatchRev
002aa380 t excHandlerMap
002aa3c0 T excVecGet
002aa438 T excVecBaseSet
002aa458 T excVecBaseGet
002aa460 T excIntHandle
002aa4cc T excDecrHandle
002aa4d0 t excGetInfoFromESF
002aa5b4 T excExcHandle
002aaa4c t excPageUnProtect
002aab18 t excPageProtect
002aab98 t excVecSetInternal
002aacd4 T excVecSet
002aacd8 T excConnect
002aacdc T excIntConnect
002aad54 t excVecConnectCommon
002ab03c T excVecInit
002ab268 T excShowInit
002ab288 t eprint
002ab2f0 t excFpCheck
002ab3d0 t excInfoShow
002ab69c t excPanicShow
002abc5c T fppSave
002abd04 T fppRestore
002abda8 T fppEnable
002abdbc T fppDisable
002abdc0 T fppCtxCreate
002abe0c T fppCtxDelete
002abe14 T fppProbe
002abe1c T fppCtxShow
002abf4c T fppRegListShow
002ac120 T intArchConnect
002ac160 T intArchDisconnect
002ac1a0 T intVecSet
002ac1d8 T intVecGet
002ac218 T intVecBaseSet
002ac2d0 T intVecBaseGet
002ac310 T intLevelSet
002ac350 T intEnable
002ac3c4 T intDisable
002ac438 T intLockLevelSet
002ac43c T intLockLevelGet
002ac444 T intRegsLock
002ac458 T intRegsUnlock
002ac470 T intVecTableWriteProtect
002ac5a0 T intEnt
002ac5f0 t intSaveCritical
002ac6cc t intEntNoContextChange
002ac70c t intEntEnable
002ac79c t noActionIntEnt
002ac7c0 t intOvflHandle
002ac820 t intSkipStackSwitch
002ac84c t intStkOvfl
002ac854 t intExcOsm
002ac8a0 t actionIntEnt
002ac8b4 t shortVec
002ac900 T intExit
002ac91c t noActionIntExit
002ac9b8 t intRte
002ac9f0 t intExitIdle
002aca18 t intExitIdleSkipExcStackLoad
002aca40 t saveIntContext
002acb34 t alreadyOnExcStack
002acb48 t skipSaveIntContext
002acb60 t actionIntExit
002acb74 t wQNotEmpty
002acba0 T intCpuLock
002acba0 T intLock
002acbb0 T intCpuUnlock
002acbb0 T intUnlock
002acbc4 T isrArchDecCreate
002acc10 T isrArchDecDispatcher
002acc54 T objVerify
002acc54 T objVerifyMagicRead
002acc58 T objVerifyMagicCompare
002acc64 T objVerifyTypeRead
002acc6c T objVerifyTypeCompare
002acc7c T objVerifyError
002acca8 T ppcBrCompute
002acd18 T ppcBrExtract
002acd40 T spinLockIsrNdTake
002acd40 T spinlockIsrNdTake
002acd50 T spinLockIsrNdGive
002acd50 T spinlockIsrNdGive
002acd64 T vxTaskEntry
002ace08 T taskArgsSet
002ace68 T taskRtnValueSet
002ace70 T taskArgsGet
002ace8c T taskMsrSet
002aced0 T taskUserMmuCtxSet
002acf40 T taskRegsInit
002ad128 T sigsetjmp
002ad158 T setjmp
002ad188 T _sigCtxSave
002ad1cc T _sigCtxLoad
002ad1e0 T vxTas
002ad208 t vxTasEnd
002ad210 T vxSdaSet
002ad22c T vxSdaInit
002ad240 T vxMsrGet
002ad248 T vxMsrSet
002ad254 T vxDarGet
002ad25c T vxDarSet
002ad264 T vxDsisrGet
002ad26c T vxDsisrSet
002ad274 T vxSrr0Get
002ad27c T vxSrr0Set
002ad284 T vxSrr1Get
002ad28c T vxSrr1Set
002ad294 T vxFirstBit
002ad29c T vxFirstRBit
002ad2b0 t findBit
002ad2b4 t findBit2
002ad2c8 T vxPvrGet
002ad2d0 T vxEieio
002ad2d8 T vxHid0Set
002ad2e0 T vxHid0Get
002ad2e8 T vxHid1Set
002ad2f0 T vxHid1Get
002ad2f8 T vxFpscrSet
002ad320 T vxFpscrGet
002ad340 T vxTimeBaseSet
002ad354 T vxTimeBaseGet
002ad374 T vxDecSet
002ad37c T vxDecGet
002ad384 T vxDecReload
002ad390 t reloadLoop
002ad3a4 T vxImmrIsbGet
002ad3b0 T vxImmrDevGet
002ad3c0 T windExit
002ad3e8 t checkWorkQ
002ad408 t workQueueEmpty
002ad438 t noSchedExit
002ad444 t afterEvtWindExit
002ad46c t saveTaskContext
002ad508 t windExitSkipExcStackLoad
002ad518 t evtWindExit
002ad538 t noInst1Inheritance
002ad53c t Inst1Inheritance
002ad554 t checkWorkQ_ISR
002ad554 t noSchedExit_ISR
002ad574 t workQueueEmpty_ISR
002ad580 t afterEvtWindExit_ISR
002ad5a0 t evtWindExit_ISR
002ad5c0 t noInst1Inheritance_ISR
002ad5c4 t Inst1Inheritance_ISR
002ad5e0 T windLoadContext
002ad608 T windPpcLoadRegSet
002ad6b4 T windPpcLoadVolatileRegSet
002ad700 t windLoadContextAlreadyLocked
002ad71c t noSetCPT
002ad7f0 t windLoadContextNoContextChange
002ad87c T windIntStackSet
002ad8a0 t excOsm
002ad918 t excOsmStoreEsf
002ad928 t excOsmFlushEsf
002ad934 t excOsmEsfDone
002ad97c t excOsmNotIntStk
002ad9b4 t excOsmTestTaskGuardSize
002ad9c4 t excOsmUnProt
002ada08 t excOsmBoot
002ada14 t excOsmVmSsOK
002ada78 t excOsmExitNotLocked
002adaa0 T excOsmInit
002adad0 t excOsmFill
002adaec T ppcIntCtlrRegister
002adaf8 t ppcIntCtlrInstInit
002adb58 t ppcIntCtlrInit
002adb90 t ppcIntCtlrInstInit2
002adb94 t ppcIntCtlrInstConnect
002adb98 t ppcIntCtlrConnect
002adc14 t ppcIntCtlrDisconnect
002adc1c t ppcIntCtlrEnable
002adcb0 t ppcIntCtlrDisable
002adcb8 t ppcIntCtlrAck
002adcc0 T vxbPpcIntCtlrISR_INTR
002add00 T vxbPpcIntCtlrISR_SYSTIMER
002add40 t mmuCacheFlushLoadAdrsGet
002addcc T mmuPpcLibInit
002ae224 t mmuPgTblCurrentSet
002ae23c t mmuPpcCurrentSet
002ae2d0 t mmuPgTblLvl1DescAddrGet
002ae300 t mmuPgTblLvl2DescAddrGet
002ae370 t mmuPgTblStateGet
002ae3dc t mmuPpcStateGet
002ae3e4 t mmuPgTblTranslate
002ae474 t mmuPpcTranslate
002ae47c t mmuPgTblPhysTranslate
002ae538 t mmuPpcPhysTranslate
002ae550 t mmuPgTblLvl1DescUpdate
002ae574 t mmuPgTblLvl2DescUpdate
002ae598 t mmuPgTblUnMap
002ae690 t mmuPpcUnMap
002ae698 t mmuPgTblStateSet
002ae7f0 t mmuPpcStateSet
002ae84c t mmuPgTblLvl1DescInit
002ae904 t mmuPgTblPageMap
002ae9f8 t mmuPpcPageMap
002aeaec t mmuPpcGlobalPageMap
002aeb08 t mmuPgTblLvl2DescFree
002aeb94 t mmuPgTblDelete
002aec74 t mmuPpcTransTblDelete
002aece4 t mmuPgTblInit
002aed74 t mmuPgTblCreate
002aede8 t mmuPpcTransTblInit
002aeefc t mmuPpcTransTblCreate
002aef60 t mmuPpcPageSizeGet
002aef68 t mmuPpcPageBlockSizeGet
002aef70 t mmuPpcInvalidateRegion
002af060 t mmuPpcBufferWrite
002af284 t mmuPgTblUnion
002af308 t mmuPpcTransTblUnion
002af43c t mmuPgTblMask
002af4f4 t mmuPpcTransTblMask
002af65c t mmuPgTblAttachInit
002af700 t mmuPpcTransTblUnionInit
002af7c0 T mmuPpcBatInitMPC7x5
002af800 T mmuPpcBatInit750fx
002af83c t mmuPpcBATInfoGet
002af8b4 t writeProtectPgTbl
002af958 t mmuPpcEnable
002afbb0 T atan
002afbb4 t atan_starts_here
002afbf0 t case_e
002afc58 t cases_abcdf
002afc60 t case_d
002afd0c t atan_case_d_minus
002afd30 t cases_abcf
002afd3c t case_c
002afd68 t cases_abf
002afd6c t case_f
002afd78 t cases_ab
002afd7c t case_b
002afd8c t atan_pi2_sign_now_ok
002afd98 t case_a
002afddc T atan2
002afde0 t atan2_starts_here
002afe20 t atan2_x_ge_y
002afe28 t atan2_recycle_x_ge_y
002afe4c t atan2_inv_x_representable
002afe68 t atan2_x_ge_y_one_term
002afe90 t atan2_when_minus
002afea0 t atan2_x_ge_y_direct
002afebc t atan2_x_ge_y_resolve
002afec4 t atan2_cases_56
002afecc t atan2_case_5
002aff88 t atan2_case_5_flip
002aff98 t atan2_case_6
002affb0 t atan2_cases_67
002b0068 t atan2_case_6_flip
002b0078 t atan2_cases_12
002b007c t atan2_case_1
002b00ec t atan2_case_2
002b017c t atan2_case_2_flip
002b018c t atan2_x_ge_y_eq_0
002b0194 t atan2_return_pi_sign_y
002b01a4 t atan2_return_it
002b01a4 t atan2_return_y
002b01b0 t atan2_y_gt_x
002b01b4 t atan2_recycle_y_gt_x
002b01d8 t atan2_inv_y_representable
002b01f4 t atan2_y_gt_x_one_term
002b0218 t atan2_y_minus
002b0228 t atan2_y_gt_x_resolve
002b0230 t atan2_cases_78
002b0238 t atan2_case_8
002b0308 t atan2_case_8_flip
002b0318 t atan2_case_7
002b0334 t atan2_cases_34
002b03c4 t atan2_case_34_flip
002b03d4 t atan2_return_pi_2_sign_y
002b03e4 t atan2_return_as_is
002b03f0 t atan2_y_is_denorm
002b0410 t atan2_inv_y_overflows
002b0438 t atan2_unordered
002b046c t atan2_x_is_infinite
002b047c t atan2_return_zero_sign_y
002b0488 t atan2_zero_sign_ok
002b0494 t atan2_two_infinities
002b0498 t atan2_return_pi_4_sign_y
002b04a4 t atan2_return_pi_4
002b04b0 t atan2_return_pi_34_sign_y
002b04bc t atan2_return_3pi_4
002b04c8 t atan2_x_is_denorm
002b04e8 t atan2_inv_x_overflows
002b0510 t atan2_x_ge_y_prob_uflow
002b0518 T pow
002b0528 t pow_restart
002b062c t pow_normal
002b0658 t pow_special
002b0680 t pow_confluence
002b0698 t pow_x_is_ok
002b070c t pow_sign_now_ok
002b072c t pow_result_ok
002b0744 t pow_possible_over_under
002b0774 t pow_aix_return_zero
002b0780 t pow_aix_underflow
002b079c t pow_aix_overflow
002b07b0 t pow_x_denorm_zero
002b07d4 t pow_x_zero
002b0824 t pow_y_nan_inf
002b0838 t pow_y_qnan
002b0840 t pow_y_snan
002b0854 t pow_lower_word_y
002b0868 t pow_exact_zero_inf
002b0880 t pow_aix_domain_returns
002b08b4 t pow_exact_one
002b08b8 t pow_return_exact
002b08c8 t pow_dvz
002b08e0 t pow_x_negative
002b0910 t pow_lower_word
002b0924 t pow_x_negative_error
002b092c t pow_y_outside_range
002b0954 t pow_inexact_one
002b095c t pow_inexact_one_ok
002b0974 t pow_y_not_zero_denorm
002b0988 t pow_y_is_infinity
002b09ac t pow_domain_error
002b09b8 t pow_x_less
002b09c4 t pow_major_over_under
002b09dc t pow_major_overflow
002b09e0 t pow_aix_range_returns
002b0a14 t pow_very_large_negative_y
002b0a18 t pow_major_underflow
002b0a20 t pow_ylogx_outside_range
002b0a4c t pow_ylogx_ovf_ok
002b0a50 t pow_ylogx_small
002b0a60 t pow_ylogx_small_ok
002b0a64 t pow_ylogx_unf
002b0a70 t pow_ylogx_unf_ok
002b0a74 t pow_x_inf_nan
002b0aa8 t pow_x_is_qnan
002b0abc t pow_return_x_qnan
002b0ac0 t pow_x_infinity
002b0ad8 t pow_infinityinfinity
002b0ae8 t pow_return_zero
002b0af0 t pow_infinitynumeric
002b0b2c t pow_lower_word_zero
002b0b40 t pow_exact_inf_zero
002b0b58 t pow_give_a_zero
002b0b70 T exp
002b0c38 t exp_result_ok
002b0c50 t exp_possible_over_under
002b0c78 t exp_aix_denorm
002b0c9c t exp_aix_overflow
002b0ca0 t exp_aix_range_returns
002b0cd4 t exp_no_computation
002b0cf0 t exp_zero_or_small
002b0cfc t exp_small
002b0d0c t exp_zero
002b0d10 t exp_exact
002b0d1c t exp_inf_large_nan
002b0d24 t exp_ovf
002b0d2c t exp_unf
002b0d34 t exp_inf_nan
002b0d40 t exp_inf
002b0d4c t exp_nan
002b0d54 t exp_qnan
002b0d58 t exp_snan
002b0d68 t exp_aix_domain_returns
002b0d9c T log
002b0dac t log_restart
002b0e94 t log_normal
002b0ea8 t log_special
002b0eb8 t log_x_denorm_zero
002b0edc t log_x_zero
002b0ee0 t log_aix_domain_returns
002b0f14 t log_x_negative
002b0f1c t log_x_inf_nan
002b0f44 t log_x_is_qnan
002b0f48 t log_x_infinity
002b0f5c T log10
002b0f6c t log10_restart
002b105c t log10_normal
002b1078 t log10_special
002b1090 t log10_x_denorm_zero
002b10b4 t log10_x_zero
002b10b8 t log10_aix_domain_returns
002b10ec t log10_x_negative
002b10f4 t log10_x_inf_nan
002b111c t log10_x_is_qnan
002b1120 t log10_x_infinity
002b1134 T sqrt
002b1144 t repeat
002b1234 t return_single
002b1250 t arg_negative
002b125c t negative_zero
002b1268 t domain_error
002b1274 t invalid_return
002b12a4 t nan_domain_error
002b12ac t max_exp
002b12bc t infinity
002b12d0 t its_a_nan
002b1314 t its_a_qnan
002b1320 t zero_exp
002b1334 t denorm
002b1344 T sin
002b1348 t sin.b
002b1354 t common
002b1394 t reduce
002b13a8 t reduce_done
002b13d4 t actual_cos
002b1410 t actual_cos_ok
002b141c t actual_sin
002b144c t actual_sin_ok
002b1458 t other_cases
002b1478 t zero_cos
002b147c t zero_sin
002b1488 t multiple_nan_inf
002b14bc t reduce_loop
002b14d8 t return_invalid
002b150c T cos
002b1510 t cos.b
002b1520 t FE_MOT_RESVD.cos
002b1520 T absSymbols_Common
002b1528 T excEnt
002b154c t tidValid
002b1570 t useExcStack
002b158c t excStackOverflowCheck
002b15a4 t excNotOnIntStk
002b15b0 t excOvflChk
002b15c0 t alreadyOnProperStack
002b15d0 t saveRegs
002b1634 t alreadyLocked
002b1704 t excEntNoContextChange
002b171c t wasLocked
002b1770 t fpNotEnabled
002b1790 t mmuOK
002b1804 t notLocked
002b18a0 t flushDone
002b18dc t excEntEnable
002b190c t shortVec
002b19b8 t excCrtExit
002b19b8 T excExit
002b19d0 T excEPSet
002b19e8 t excEPClear
002b19ec t excMsrSet
002b19f4 T mmuPpcTlbie
002b1a04 T mmuPpcBatInit
002b1aa8 T mmuPpcSrSet
002b1abc T mmuPpcSrGet
002b1ac8 T mmuPpcSdr1Set
002b1ad8 T mmuPpcSdr1Get
002b1ae0 T mmuPpcExtraBatInit
002b1b84 T mmuPpcTlbInvalidateAll
002b1b94 t vvxpbi1
002b1ba8 T mmuPpcExtraBatEnableMPC7x5
002b1bc0 T mmuPpcPgTblLvlDescUpdate
002b1bec t LockedD
002b1bf0 t lockDoneD
002b1bfc T mmuPpcInstMissHandlerLongJump
002b1c00 T mmuPpcInstMissHandler
002b1c5c t doIAEp
002b1c6c t doIAE
002b1c78 t iae1
002b1c90 T mmuPpcDataLoadMissHandlerLongJump
002b1c94 T mmuPpcDataLoadMissHandler
002b1cc0 t dtlbLogClr1
002b1cc8 t dtlbLogSet1
002b1ccc t dtlbLogSave1
002b1d24 T mmuPpcDataStoreMissHandlerLongJump
002b1d28 T mmuPpcDataStoreMissHandler
002b1d54 t dtlbLogClr2
002b1d5c t dtlbLogSet2
002b1d60 t dtlbLogSave2
002b1da8 t ceq2
002b1dbc t cEq0ChkProt
002b1dd0 t chk0
002b1df0 t chk1
002b1e04 t chk2
002b1e10 t doDAE
002b1e20 t doDAEp
002b1e2c t dae1
002b1e48 t dae2
002b1e60 t cEq0ChkProtTbl
002b1e74 t chk0Tbl
002b1e94 t chk1Tbl
002b1ea8 t chk2Tbl
002b1eb0 T mmuPpcAEnable
002b1ecc t enaDat
002b1ee0 t enaErr
002b1ee4 T mmuPpcADisable
002b1f00 t disDat
002b1f14 t disErr
002b1f18 T mmuPpcBcopy
002b1f30 t bcopyLoop
002b1f54 T wdbSysBpLibInit
002b20c4 T wdbBpAddHookAdd
002b20e4 T wdbSysBpEnableAll
002b21c4 T wdbSysBpDisableAll
002b2260 t wdbSysBpEventGet
002b22e0 t wdbSysBpCallBack
002b2354 T wdbE
002b23d4 t wdbBpModeCheck
002b240c t wdbHwBpAdd
002b2694 t wdbBpAdd
002b288c t wdbStop
002b2948 t wdbCont
002b2a54 t wdbStep
002b2b70 t wdbSysBpHandle
002b2bc0 t wdbBreakpoint
002b2d10 t wdbTrace
002b2db4 t wdbSysBpDelete
002b2e40 t wdbBpDelete
002b2f58 T dbgInit
002b3034 T dbgHelp
002b3074 T dbgBpEpCoreRtn
002b3290 T bd
002b33b0 T bdall
002b347c T dbgStackTrace
002b3620 T dbgTaskTraceCoreRtn
002b366c T tt
002b36b4 t dbgBpByIdRemove
002b3708 t dbgBpAddrPrint
002b3834 T dbgBpListPrint
002b3b60 t bpEpCommonRtn
002b3c68 T b
002b3ce4 T e
002b3d9c T bh
002b3e1c t dbgTargetNotify
002b3ed0 t dbgBpDeleteCallback
002b3f24 t dbgPrintAdrs
002b3ff0 t dbgList
002b41ac T dbgCallPrint
002b447c t dbgCheckBreakable
002b4528 t dbgBrkTaskGet
002b4614 t dbgDsmAddrDefaultSet
002b4690 t dbgTlSnglStep
002b48bc t dbgTlBreak
002b49d8 t dbgBrkContinue
002b4bd8 T so
002b4c3c T s
002b4cb8 T cret
002b4d1c T c
002b4d98 t dbgE
002b4e14 T dbgDisassemble
002b4f64 T l
002b4f74 t dbgDynPrintfBpHandler
002b51c4 T dbgDynPrintfCommonRtn
002b55f8 T hdprintf
002b5738 T dprintf
002b62e4 T wdbTaskBpLibInit
002b6474 t wdbTaskBpEnable
002b648c t wdbTaskBpEnableHook
002b64a0 t wdbTaskBpPost
002b6620 t wdbBreakpointEventGet
002b67a4 t wdbBreakpointEventDeq
002b67c4 T wdbTaskStep
002b6864 T wdbTaskStop
002b6908 T wdbTaskCont
002b69ac T wdbTaskBpAdd
002b6aa0 t wdbTaskBpByIdRemove
002b6af4 t vxdbgListInsert
002b6b3c t vxdbgListDelete
002b6b84 T vxdbgClntRegister
002b6cb8 T vxdbgHookAdd
002b6d70 T vxdbgStop
002b6de4 T vxdbgCont
002b6e58 t vxdbgSafeMemRead
002b6fb4 t vxdbgSafeMemWrite
002b7118 t vxdbgSafeMemMove
002b71b8 t vxdbgSafeMemScan
002b7274 t vxdbgHookInvoke
002b73f8 t vxdbgTaskHooksInstall
002b749c T vxdbgStep
002b750c t vxdbgMemCtxSwitch
002b75f8 t vxdbgBpEnable
002b7858 t vxdbgBpEnableHook
002b786c t vxdbgBrkIgnoreDefault
002b78c4 t vxdbgBpDoIgnore
002b78f0 t vxdbgBpDoneIgnore
002b7944 t vxdbgBpTrace
002b7a80 t vxdbgBpGet
002b7b14 T vxdbgBpFind
002b7ba8 T vxdbgBpAllDisable
002b7c28 t vxdbgTaskSwitch
002b7d10 T vxdbgEnable
002b7d8c t vxdbgHwBpInstall
002b7e84 t vxdbgBpRemove
002b7f54 T vxdbgBpDelete
002b80ec t vxdbgBpBreakpoint
002b8430 T vxdbgBpAdd
002b899c T vxdbgTaskLibInit
002b89a8 T vxdbgTaskCont
002b8a78 T vxdbgTaskStop
002b8af0 T vxdbgTaskStep
002b8cb4 t vxdbgTaskDeleteHook
002b8d18 T vxdbgBpAddrCheck
002b90a4 T wdbDbgTrace
002b911c T wdbDbgBreakpoint
002b91ac T vxdbgBpMsgQCreate
002b92b8 T vxdbgBpMsgGet
002b9324 T vxdbgBpMsgQHdlrIsRunning
002b9374 T vxdbgBpMsgPost
002b9420 T vxdbgBpMsgDrop
002b9424 t vxdbgBpPrintJob
002b9698 T vxdbgMemAccess
002b9868 T vxdbgMemRead
002b9880 T vxdbgMemWrite
002b9898 T vxdbgMemMove
002b9904 T vxdbgMemScan
002b9970 T cplusLibInit
002b999c T _ZN18RBStringIterator_TC2ERK10RBString_T
002b99ac T _ZN18RBStringIterator_TC1ERK10RBString_T
002b99bc T _ZN18RBStringIterator_T8nextCharEv
002b99f0 T _ZN10RBString_TC2Ev
002b9a0c T _ZN10RBString_TC1Ev
002b9a28 T _ZN10RBString_T5clearEv
002b9a44 T _ZNK10RBString_TeqERS_
002b9b38 T _ZN10RBString_T14extractCStringEPci
002b9bec T _ZN10RBString_T6appendERS_
002b9cb4 T _ZN10RBString_T6appendEPKci
002b9d30 T _ZN10RBString_T6appendEc
002b9d8c T _ZN10RBString_T7prependEc
002b9de4 T _ZN10RBString_TaSERS_
002b9e54 T _ZN10RBString_T7prependEPKci
002b9ed4 T _ZN10RBString_TC1ERS_
002b9f38 T _ZN10RBString_T7prependERS_
002b9f90 T _ZN10RBString_TC2ERS_
002b9ff4 T _ZN10RBString_TC1EPKc
002ba078 T _ZN10RBString_TC2EPKc
002ba0fc T cplusCallCtors
002ba144 T cplusCtorsLink
002ba180 T cplusCallDtors
002ba1e8 T cplusDtorsLink
002ba1f4 T cplusDemanglerInit
002ba21c T _cplusDemangle
002ba250 T cplusDemanglerSet
002ba258 t symbolStartOf
002ba25c T cplusDemangle
002ba2bc T cplusDemangleToBuffer
002ba364 t startsWith
002ba3bc T cplusMangledSymCheck
002ba454 T cplusMatchMangledListGet
002ba4c0 t symNodeAdd
002ba540 T cplusUserAsk
002ba6a0 T cplusMangledSymGet
002ba7d8 T cplusMatchMangled
002ba804 T cplusDemangle2
002ba894 t findMatches
002ba980 T cplusDemanglerStyleInit
002ba98c T cplusDemanglerStyleSet
002ba994 T demanglerNameFromStyle
002ba9dc T realDemangleToBufferEx
002bac1c T demangleToBufferEx
002bae64 T demangleToBuffer
002bafc4 T demangleResultFree
002bafec T demangle
002bb118 T demanglerStyleFromName
002bb1cc T __pure_virtual_called
002bb228 T __pure_virtual
002bb22c T cplusLibMinInit
002bb274 T cplusArraysInit
002bb278 T _Z14cplusTerminatev
002bb2d8 T _Z19cplusCallNewHandlerv
002bb314 T _Z21cplusNewHandlerExistsv
002bb354 T is_IA64_encoded_identifier
002bb37c t clear_control_block
002bb3ac t write_id_ch
002bb424 t write_id_str
002bb488 t bad_mangled_name
002bb4b8 t start_of_id_is
002bb4e8 t advance_past
002bb544 t advance_past_underscore
002bb554 t get_length
002bb650 t cfront_get_number
002bb700 t get_single_digit_number
002bb774 t get_length_with_optional_underscore
002bb824 t is_immediate_type_qualifier
002bb844 t clear_template_param_block
002bb86c t demangle_operator
002bc06c t note_specialization
002bc0a8 t get_char
002bc0cc t demangle_type_qualifiers
002bc1d8 t cfront_skip_extern_C_indication
002bc1f0 t clear_func_block
002bc208 t IA64_get_number
002bc2c8 t record_substitutable_entity
002bc328 t get_cv_qualifiers
002bc394 t output_cv_qualifiers
002bc498 t IA64_skip_extern_C_indication
002bc4b0 t get_operator_name
002bc9bc t demangle_source_name
002bcb90 t get_hex_digit
002bcbe4 t demangle_call_offset
002bcd7c t demangle_template_param
002bce3c t write_template_parameter_name
002bcf70 t demangle_expression
002bd3f0 t IA64_demangle_type_first_part
002bd8cc t demangle_substitution
002bdd00 t IA64_demangle_type_second_part
002bdfe8 t IA64_demangle_type
002be054 t demangle_float_literal
002be2c0 t demangle_unqualified_name
002be3f4 t demangle_unscoped_name
002be4ac t demangle_bare_function_type
002be614 t demangle_encoding
002be8bc T IA64_decode_identifier_ex
002bea74 t demangle_literal
002bec08 t demangle_template_args
002bed08 t demangle_nested_name_components
002befec t IA64_demangle_name
002bf2a8 t demangle_constant
002bf89c t demangle_template_arguments
002bfb5c t demangle_template_parameter_name
002bfcb4 t demangle_simple_type_name
002bfcdc t full_demangle_type_name
002bfe60 t cfront_demangle_type_first_part
002c0524 t cfront_demangle_type
002c0588 t demangle_function_parameters
002c0858 t cfront_demangle_type_second_part
002c0ad8 t demangle_vtbl_class_name
002c0b4c t cfront_demangle_name
002c1198 t full_demangle_identifier
002c160c T decode_identifier_styled
002c1d88 T cfront_decode_identifier
002c1dac T decode_identifier_ex
002c1e9c T decode_identifier
002c1ee0 T __cxa_demangle
002c2124 t demangle_function_local_indication
002c2274 t demangle_name_with_preceding_length
002c24a8 T aimFppLibInit
002c24ac T fppTaskRegsSet
002c24b8 T fppTaskRegsGet
002c24c4 T aimMmuBaseLibInit
002c2534 t aimMmuCurrentSet
002c2568 t aimMmuPageSizeGet
002c2574 t aimMmuAttrTranslate
002c25a0 t aimMmuBlockSizeGet
002c25ac t aimMmuTransTblToRegionTbl
002c25c0 t aimMmuUnityXlate
002c25c4 t countBits
002c25ec T aimMmuLibInit
002c2a84 t aimMmuPteSet
002c2ba4 t checkKernelAddress
002c2c38 T mmuRegionTblMask
002c2c44 t aimMmuVirtToPtePtr
002c2cc8 t protectedPageWrite
002c2dc0 t aimMmuTransTblCreate
002c2f1c t aimMmuUnoptimizePage
002c3068 t aimMmuStateSet
002c3424 t aimMmuPageCacheInhibit
002c343c t aimMmuPageUnProtect
002c34a8 t aimMmuPageProtect
002c3514 t aimMmuPageTableAlloc
002c361c t aimMmuMapOptimize
002c3ab4 t aimMmuUnlock
002c3c40 t aimMmuLock
002c40c4 t aimMmuLockRegionsImport
002c4180 t aimMmuBufferWrite
002c43b4 t aimMmuPageUnMap
002c4568 t aimMmuStateGet
002c45f8 t aimMmuTranslate
002c46c4 t aimMmuTransTblMask
002c4814 t aimMmuTransTblUnion
002c48ec t aimMmuTransTblUnionInit
002c49a0 t aimMmuPhysTranslate
002c4afc t aimMmuPageMapRaw
002c4cc4 t aimMmuPageMap
002c4cdc t aimMmuGlobalPageMap
002c4cfc t aimMmuProtectPageTable
002c4de4 t aimMmuEnable
002c4e58 t aimMmuTransTblDelete
002c5248 T vxCpuIndexGet
002c5250 T wdbDbgArchInit
002c52bc T wdbDbgTraceModeSet
002c52f4 T wdbDbgTraceModeClear
002c532c t wdbDbgSoftBpHandle
002c53b4 T wdbDbgHwAddrCheck
002c5440 T wdbDbgHwBpSet
002c55b0 T wdbDbgHwBpFind
002c5694 t wdbDbgRegsGet
002c5700 T wdbDbgHwBpHandle
002c5754 T wdbDbgRegsSet
002c57a8 T wdbDbgRegsClear
002c57fc T wdbDbgSysCallCheck
002c5824 T _dbgArchInit
002c5834 T _dbgInstSizeGet
002c583c T _dbgRetAdrsGet
002c5938 T _dbgFuncCallCheck
002c5990 T _dbgInfoPCGet
002c5998 T _dbgTaskPCSet
002c59ec T _dbgTaskPCGet
002c5a14 T _dbgBrkDisplayHard
002c5b58 t dsmFind
002c5be0 t nPrtAddress
002c5c00 t dsmSuffixPrint
002c5d40 t decodeSpecial
002c5d84 t prtArgs
002c6838 t dsmPrint
002c6954 T dsmInst
002c69e8 T dsmFindByInst
002c6a50 T dsmFindByName
002c7234 T wdbDbgTraceStub
002c7264 T wdbDbgIabrGet
002c726c T wdbDbgIabrSet
002c7278 T wdbDbgIabr2Get
002c7280 T wdbDbgIabr2Set
002c728c T wdbDbgIbcrGet
002c7294 T wdbDbgIbcrSet
002c72a0 T wdbDbgDabrGet
002c72a8 T wdbDbgDabrSet
002c72b4 T wdbDbgDabr2Get
002c72bc T wdbDbgDabr2Set
002c72c8 T wdbDbgDbcrGet
002c72d0 T wdbDbgDbcrSet
002c72dc T wdbDbgDarGet
002c72e4 T wdbDbgDataAccessStub
002c72fc T wdbDbgHwBpStub
002c7304 T __assert
002c733c T isalnum
002c7350 T isalpha
002c7364 T iscntrl
002c7378 T isdigit
002c738c T isgraph
002c73a0 T islower
002c73b4 T isprint
002c73c8 T ispunct
002c73dc T isspace
002c73f0 T isupper
002c7404 T isxdigit
002c7418 T tolower
002c7428 T toupper
002c7438 T localeconv
002c7448 T setlocale
002c74b0 T _setjmpSetup
002c7554 T longjmp
002c75ec T clearerr
002c7618 T fclose
002c771c T fdopen
002c77a0 T feof
002c77d8 T ferror
002c7810 T __sflush
002c78d0 T fflush
002c7940 T fgetc
002c79b0 T fgetpos
002c7a10 T fgets
002c7b38 T fileno
002c7b64 T __sflags
002c7c70 T fopen
002c7d14 T fputc
002c7dd0 T fputs
002c7e48 T fread
002c7f44 T freopen
002c8118 T fseek
002c84cc T fsetpos
002c84d8 T ftell
002c8598 T __sfvwrite
002c88ec T fwrite
002c8978 T getc
002c8a04 T getchar
002c8ab0 T gets
002c8b84 T getw
002c8bcc T __smakebuf
002c8d00 T perror
002c8d88 T putc
002c8e44 T putchar
002c8f74 T putw
002c8fc0 T puts
002c9048 t lflush
002c9064 T __srefill
002c91d8 T rewind
002c9250 T __srget
002c92a8 T setbuf
002c92f0 T setbuffer
002c933c T setlinebuf
002c9390 T setvbuf
002c94bc T __sread
002c951c T __swrite
002c9584 T __sseek
002c95d8 T __sclose
002c9630 T stdioInit
002c9658 T stdioFpCreate
002c96f8 T stdioFpDestroy
002c9754 t stdioStdfpCleanup
002c97a0 t stdioInitStd
002c9890 T __stderr
002c98cc T __stdout
002c9908 T __stdin
002c9944 T stdioFp
002c9998 T stdioShowInit
002c99c8 T stdioShow
002c9ca0 T tmpnam
002c9d34 T tmpfile
002c9d3c t __submore
002c9df8 T ungetc
002c9f7c T __swbuf
002ca068 T __swsetup
002ca158 T vfprintf
002ca2e0 t putbuf
002ca3a0 T fprintf
002ca454 T fscanf
002ca558 T scanf
002ca630 T abort
002ca658 T abs
002ca668 T atexit
002ca670 T atof
002ca694 T atoi
002ca6a0 T atol
002ca6ac T bsearch
002ca720 T div_r
002ca75c T div
002ca78c T labs
002ca79c T ldiv_r
002ca7d8 T ldiv
002ca808 T mblen
002ca86c T mbtowc
002ca8d4 T wctomb
002ca90c T mbstowcs
002ca974 T wcstombs
002ca9a0 t insertion_sort
002caa5c t quick_sort
002cae54 T qsort
002cae8c T rand
002caeac T srand
002caeb8 T strtol
002cb054 T strtoul
002cb1e4 T system
002cb1ec T strtod
002cb48c T memchr
002cb4c0 T memcmp
002cb508 T memcpy
002cb544 T memmove
002cb580 T memset
002cb5bc T strcat
002cb600 T strchr
002cb63c T strcmp
002cb670 t getxfrm
002cb704 T strcoll
002cb7f0 T strcpy
002cb81c T strcspn
002cb85c T strerrorIf
002cb910 T strerror_r
002cb98c T strerror
002cb9d4 T strlen
002cb9fc T strncat
002cba54 T strncmp
002cbaa0 T strncpy
002cbaf4 T strpbrk
002cbb34 T strrchr
002cbb64 T strspn
002cbba4 T strstr
002cbc14 T strtok
002cbc1c T strtok_r
002cbca8 T __strxfrm
002cbdc0 T strxfrm
002cbe90 T strlcpy
002cbf08 T strdup
002cbf6c T strcasecmp
002cbfb8 T strncasecmp
002cc000 T asctime_r
002cc038 T asctime
002cc094 T clock
002cc09c T ctime_r
002cc0e4 T ctime
002cc118 T __daysSinceEpoch
002cc180 T __julday
002cc1f4 T __getTime
002cc358 T gmtime_r
002cc360 T gmtime
002cc39c T localtime_r
002cc42c T localtime
002cc464 t __tmNormalize
002cc4b8 t __tmValidate
002cc5fc T mktime
002cc6f0 t __weekOfYear
002cc71c t __intToStr
002cc760 t __getDay
002cc7c4 t __getMonth
002cc82c T __getDstInfo
002ccae4 T __getZoneInfo
002ccbf8 t __getLocale
002cccb8 t __generateTime
002cd048 t strftime_r
002cd188 T strftime
002cd1a0 T time
002cd1f8 T difftime
002cd338 t ccip_NextProviderSlot
002cd3c0 t ccip_IsProviderLoaded
002cd444 t ccip_copy_algorithm
002cd4e8 T cciSetNativeAlgorithm
002cd52c T cciProviderLoad
002cd71c T cciProviderInherit
002cd810 t ccip_initInstance
002cd868 T cciLibInit
002cd99c T cciProviderUnload
002cda18 T cciLibUnInit
002cdb40 T cciShareStats
002cdb84 T cciStats
002cde0c T cciTaskPrioritySet
002ce0b8 T cciPoolCreateReg
002ce198 T cciPoolDestroy
002ce214 T cciPoolAlloc
002ce310 T cciPoolRelease
002ce3cc T cciProviderCreate
002ce494 t ccip_FreeAlgorithms
002ce4e4 T cciProviderDestroy
002ce57c T cciProviderAlgorithmSet
002ce608 T cciProviderName
002ce620 T cciProviderIntegerTableSet
002ceb70 T ccip_pvr_set_param
002ceb94 T ccip_pvr_get_param
002cebc0 T ccip_pvr_generate_hash
002cec84 T ccip_pvr_check_signature
002cef60 T cciPKIAlgorithm
002cef68 T cciPKIKeyCreate
002cf0ac T cciPKIKeyDestroy
002cf15c T cciPKIKeyCompSet
002cf214 T cciPKIKeyCompGet
002cf2d4 T ccip_initialize
002cf498 T ccip_share_alloc
002cf530 T ccip_share_realloc
002cf590 T ccip_share_free
002cf5f4 t ccip_Malloc
002cf630 T cciAlloc
002cf6d0 T cciRealloc
002cf750 T cciFree
002cf7d8 T cciMemFunctions
002cf80c T cciSharedMemFunctions
002cf81c T cciSharedRegionSet
002cf948 T ccip_show_buffer
002cfacc T cciIsAlgorithmSet
002cfb4c T cciIsNative
002cfbd4 T ccip_time_ms
002cfc18 T ccip_time_sec
002cfc44 T ccip_wait
002cfc74 T ccip_wait_ms
002cfc7c T cciShowVersion
002cfcf4 T cci_noSdUnmapDelete
002cfd40 T cci_noSdOpen
002cfdbc T cci_FakeVirtToPhys
002cfdc0 t rijndaelKeySetupEnc
002d01a8 t rijndaelKeySetupDec
002d03dc t rijndaelEncrypt
002d0810 t rijndaelDecrypt
002d0c44 t ccip_cipherCBCBits
002d0d50 T ccip_aes_encrypt
002d1178 T ccip_aes_decrypt
002d17b0 t ccip_default_aes_session
002d1958 T ccip_aes_setup_schedule
002d1964 T ccip_aes_encrypt_block
002d198c T CCI_CIPHER_AES_native
002d1a90 T ccip_aeskw_wrap
002d1c68 T ccip_aeskw_unwrap
002d1e34 t ccip_default_aeskeywrap_session
002d1f24 T CCI_CIPHER_AESKW_native
002d1fc0 T ccip_default_hmac_aesxcbc_init
002d209c T ccip_default_hmac_aesxcbc_update
002d21e8 T ccip_default_hmac_aesxcbc_final
002d22c8 t ccip_default_AESXCBC_open_session
002d2300 t ccip_default_AESXCBC_close_session
002d2344 t ccip_default_AESXCBC_init_session
002d23a8 T ccip_default_AESXCBC_update_session
002d240c T ccip_default_AESXCBC_final_session
002d2468 T CCI_HMAC_AES_XCBC_native
002d2534 t des_encrypt
002d3a8c t des_cfb64_encrypt
002d3cb0 t des_encrypt2
002d508c t des_encrypt3
002d520c t des_ede3_cfb64_encrypt
002d5444 t des_decrypt3
002d55c8 t des_ncbc_encrypt
002d5a8c t des_ede3_cbc_encrypt
002d5f68 t des_ecb3_encrypt
002d604c t des_ecb_encrypt
002d6128 t des_ede3_ofb64_encrypt
002d62d8 t des_ofb64_encrypt
002d6484 t check_parity
002d64bc t des_is_weak_key
002d6514 t des_set_key
002d67dc t DES_cfb_encrypt
002d6e4c T ccip_des_block
002d7030 T ccip_tripledes_block
002d7180 t ccip_boundaryCheck
002d71e0 t ccip_default_des_session
002d7448 T CCI_CIPHER_DES_native
002d74f4 T CCI_CIPHER_DESX_native
002d75a0 T CCI_CIPHER_2DES_native
002d764c T CCI_CIPHER_3DES_native
002d76f8 T ccip_default_rc4_init
002d7784 T ccip_default_rc4_encrypt
002d780c t ccip_default_rc4_close_session
002d7850 T ccip_default_rc4_session
002d7914 T CCI_CIPHER_RC4_native
002d7994 T ccip_default_rc4tkip_encrypt
002d7ab4 T ccip_default_rc4tkip_session
002d7b74 T CCI_CIPHER_RC4TKIP_native
002d7be0 T ccip_default_NULL_session
002d7c78 T CCI_CIPHER_NULL_native
002d7ce4 t ccip_default_CRC32_init_session
002d7d40 t ccip_default_CRC32_update_session
002d7de0 t ccip_default_CRC32_final_session
002d7e1c T CCI_HASH_CRC32_native
002d7ee8 t MD2Transform
002d7ff8 T ccip_default_MD2_init
002d803c T ccip_default_MD2_update
002d8100 T ccip_default_MD2_final
002d8178 t ccip_default_HashMD2_init_session
002d81a0 t ccip_default_HashMD2_update_session
002d8204 t ccip_default_HashMD2_final_session
002d8230 T CCI_HASH_MD2_native
002d8398 T ccip_default_MD4_init
002d83d8 t Encode
002d8428 t Decode
002d8480 t MD4_memcpy
002d84a4 t MD4_memset
002d84c0 t MD4Transform
002d8c0c T ccip_default_MD4_update
002d8cf0 T ccip_default_MD4_final
002d8d98 t ccip_default_HashMD4_init_session
002d8dc0 t ccip_default_HashMD4_update_session
002d8e24 t ccip_default_HashMD4_final_session
002d8e50 T CCI_HASH_MD4_native
002d8f1c T ccip_default_MD5_init
002d8f20 T ccip_default_MD5_update
002d8f24 T ccip_default_MD5_final
002d8f34 t ccip_default_HashMD5_init_session
002d8f5c t ccip_default_HashMD5_update_session
002d8fc0 t ccip_default_HashMD5_final_session
002d8ff0 T CCI_HASH_MD5_native
002d90bc t MDinit
002d90f0 t compress
002da50c T ccip_default_RMD128_init
002da544 T ccip_default_RMD128_update
002da620 T ccip_default_RMD128_final
002da738 T ccip_default_RMD128_block
002da780 t ccip_default_HashRIPEMD128_init_session
002da7a8 t ccip_default_HashRIPEMD128_update_session
002da80c t ccip_default_HashRIPEMD128_final_session
002da838 T CCI_HASH_RIPEMD128_native
002da904 T ccip_default_RMD160_init
002da908 T ccip_default_RMD160_update
002da90c T ccip_default_RMD160_final
002da91c T ccip_default_RMD160_block
002da964 t ccip_default_HashRIPEMD160_init_session
002da98c t ccip_default_HashRIPEMD160_update_session
002da9f0 t ccip_default_HashRIPEMD160_final_session
002daa20 T CCI_HASH_RIPEMD160_native
002daaec T ccip_default_SHA1_init
002dab24 T ccip_default_SHA1_update
002dab28 T ccip_default_SHA1_final
002dab38 t ccip_default_HashSHA1_init_session
002dab60 t ccip_default_HashSHA1_update_session
002dabc4 t ccip_default_HashSHA1_final_session
002dabf4 T CCI_HASH_SHA1_native
002dacc0 T ccip_default_SHA224_init
002dad54 T ccip_default_SHA224_update
002dad58 T ccip_default_SHA224_final
002dad60 t ccip_default_HashSHA224_init_session
002dad88 t ccip_default_HashSHA224_update_session
002dadec t ccip_default_HashSHA224_final_session
002dae1c T CCI_HASH_SHA224_native
002daee8 T ccip_default_SHA256_init
002daf7c t SHA256Transform
002db1c4 T ccip_default_shasmall_Final
002db2c0 T ccip_default_SHA256_final
002db2c8 T ccip_default_SHA256_update
002db430 t ccip_default_HashSHA256_init_session
002db458 t ccip_default_HashSHA256_update_session
002db4bc t ccip_default_HashSHA256_final_session
002db4ec T CCI_HASH_SHA256_native
002db5b8 T ccip_default_SHA384_init
002db68c T ccip_default_SHA384_update
002db690 T ccip_default_SHA384_final
002db698 t ccip_default_HashSHA384_init_session
002db6c0 t ccip_default_HashSHA384_update_session
002db724 t ccip_default_HashSHA384_final_session
002db754 T CCI_HASH_SHA384_native
002db820 t sha_compress
002dbc80 T ccip_default_SHA512_init
002dbd54 T ccip_default_SHA512_update
002dbddc T ccip_default_shabig_Final
002dbf70 T ccip_default_SHA512_final
002dbf78 t ccip_default_HashSHA512_init_session
002dbfa0 t ccip_default_HashSHA512_update_session
002dc004 t ccip_default_HashSHA512_final_session
002dc034 T CCI_HASH_SHA512_native
002dc100 t ccip_default_hmacMD4_open_session
002dc158 t ccip_default_hmacMD4_close_session
002dc188 T CCI_HMAC_MD4_native
002dc254 t ccip_default_hmacMD5_open_session
002dc2ac t ccip_default_hmacMD5_close_session
002dc2dc T CCI_HMAC_MD5_native
002dc3a8 t ccip_default_hmacRIP128_open_session
002dc400 t ccip_default_hmacRIP128_close_session
002dc430 T CCI_HMAC_RIPEMD128_native
002dc4fc t ccip_default_hmacRIP160_open_session
002dc554 t ccip_default_hmacRIP160_close_session
002dc584 T CCI_HMAC_RIPEMD160_native
002dc650 t ccip_default_hmacSHA1_open_session
002dc6a8 t ccip_default_hmacSHA1_close_session
002dc6d8 T CCI_HMAC_SHA1_native
002dc7a4 t ccip_default_hmacSHA224_open_session
002dc7fc t ccip_default_hmacSHA224_close_session
002dc82c T CCI_HMAC_SHA224_native
002dc8f8 t ccip_default_hmacSHA256_open_session
002dc950 t ccip_default_hmacSHA256_close_session
002dc980 T CCI_HMAC_SHA256_native
002dca4c t ccip_default_hmacSHA384_open_session
002dcaa4 t ccip_default_hmacSHA384_close_session
002dcad4 T CCI_HMAC_SHA384_native
002dcba0 t ccip_default_hmacSHA512_open_session
002dcbf8 t ccip_default_hmacSHA512_close_session
002dcc28 T CCI_HMAC_SHA512_native
002dccf4 t ccip_NumCreate
002dccf8 t ccip_NumDestroy
002dcd1c t ccip_NumTstBit
002dcd20 t ccip_NumSetBit
002dcd44 t ccip_NumClrBit
002dcd68 t ccip_NumMaskBits
002dcd8c t ccip_NumCmpWord
002dcdd8 t ccip_NumSetWord
002dcddc t ccip_NumCreateDec
002dce1c t ccip_NumCreateHex
002dce5c t ccip_NumCreateBin
002dce64 t ccip_NumDecStr
002dce68 t ccip_NumHexStr
002dce6c t ccip_NumNumBits
002dce70 t ccip_NumMultiply
002dcec4 t ccip_NumDivide
002dcf20 t ccip_NumGCD
002dcf74 t ccip_NumAdd
002dcf78 t ccip_NumSub
002dcf7c t ccip_NumCopy
002dcf80 t ccip_NumExp
002dcfd4 t ccip_NumMod
002dd048 t ccip_NumModExp
002dd0a4 t ccip_NumModInverse
002dd0f8 t ccip_NumShiftLeft
002dd0fc t ccip_NumShiftRight
002dd100 t ccip_NumCompare
002dd104 t ccip_NumIsPos
002dd114 t ccip_NumIsNeg
002dd124 t ccip_NumPos
002dd130 t ccip_NumNeg
002dd13c t ccip_NumBinary
002dd180 t ccip_NumRandom
002dd1e4 t ccip_NumPrime
002dd1f8 t ccip_NumIsPrime
002dd25c T CCI_INTEGER_native
002dd444 t ccip_get_hash_ctx_size
002dd50c T cciCtxHashCopy
002dd5c0 T ccip_default_generic_open_session
002dd5f8 T ccip_default_generic_close_session
002dd63c T ccip_default_provider
002dd690 t randomTime
002dd6bc t glue_seed_prng
002dd720 t prng_iterate
002dd8a0 t prng_seed
002dd9d4 t prng_random8
002dda1c t prng_random
002dda64 T ccip_default_prng_seed
002ddac8 t prng_init
002ddb48 T ccip_default_prng_integers
002ddba0 T ccip_default_prng_num
002ddbe0 T ccip_default_prng_session
002ddc7c T ccip_default_prng_seed_session
002ddd04 T CCI_RNG_GENERIC_native
002ddd70 T CCI_RNG_SEED_native
002ddddc T ccip_rsa_show_keys
002ddfd8 T ccip_rsa_set_component_pri
002de0c0 T ccip_rsa_get_component_pri
002de1a4 T ccip_rsa_set_component_pub
002de208 T ccip_rsa_get_component_pub
002de278 t ccip_MaskGenFunct
002de374 t setupProcessSpecs
002de46c t ccip_Encode_OAEP
002de67c t ccip_Decode_OAEP
002de8a0 t ccip_HashNULLS
002de8d0 t ccip_GenerateRandomNumWithoutNULLS
002de91c t ccip_Encode_PKCS1
002de9dc t ccip_Decode_PKCS1
002dea9c t ccip_Encode_SSLV23
002deb50 t ccip_Decode_SSLV23
002dec38 t ccip_ProduceDigest
002def50 t ccip_Sign_PKCS1
002df050 t ccip_CalculateRSAOutputSize
002df130 t ccip_CalculateRSAInputSize
002df1fc t ccip_EncodeRSABlock
002df2c8 t ccip_DecodeRSABlock
002df398 t ccip_chinese_remainder_theorem
002df488 t ccip_BlindingAlloc
002df570 t ccip_BlindingFree
002df5b4 t ccip_RSAEncrypt
002df884 t ccip_RSADecrypt
002dfcec T ccip_rsa_sign
002dfee4 T ccip_rsa_verify
002e0030 T ccip_rsa_create_privatekey
002e011c T ccip_rsa_destroy_privatekey
002e01a0 T ccip_rsa_create_publickey
002e0204 T ccip_rsa_destroy_publickey
002e0248 t _calculatePrimes
002e033c t _calculatePublicExponent
002e0494 T ccip_rsa_generate
002e0598 t mp_table_setup
002e06e8 t ccip_DefaultRSAHandler_GenKeys
002e0750 t ccip_DefaultRSAHandler_Sign
002e0878 t ccip_DefaultRSAHandler_Verify
002e099c t ccip_DefaultRSAHandler_Encrypt
002e0ae4 t ccip_DefaultRSAHandler_Decrypt
002e0c2c T ccip_DefaultRSAHandler_CreateKey
002e0cb4 T ccip_DefaultRSAHandler_DestroyKey
002e0d24 T ccip_DefaultRSAHandler_SetKeyComp
002e0df4 T ccip_DefaultRSAHandler_GetKeyComp
002e0ec4 T ccip_DefaultRSAHandler_Set_Blinding
002e0f48 T ccip_DefaultRSAHandler_Get_Blinding
002e0fd0 T ccip_DefaultRSAHandler_KeySize
002e1074 T ccip_default_rsa_handler
002e11ac T CCI_PUBLICKEY_RSA_native
002e12d8 t ccip_default_singlepass_open_session
002e1434 t ccip_default_singlepass_close_session
002e14ec t ccip_default_singlepass_session
002e1b18 T CCI_IPSEC_SINGLEPASS_native
002e1bac t ccip_default_cast_session
002e1e20 T CCI_CIPHER_CAST_native
002e1f38 t ccip_default_blowfish_session
002e21ac T CCI_CIPHER_BLOWFISH_native
002e22c4 T cciAlgorithmCreate
002e2360 T ccip_algorithm_set_attr
002e23cc T cciAlgorithmHandlerSet
002e2434 T cciAlgorithmDestroy
002e2474 T cciCtxInit
002e25ec T cciCtxClear
002e2638 T cciCtxCreate
002e26c8 T ccip_ctx_get_attr
002e26f4 T cciCtxDestroy
002e2744 T cciCtxDigestLenGet
002e2798 T cciCtxIvLenGet
002e27d4 T ccip_submit_request
002e2898 T ccip_ctx_update
002e2990 T cciCtxPoolRelease
002e29d4 T cciCtxPoolAlloc
002e2a5c T ccip_cciTask_insert
002e2adc T ccip_process_request
002e2b1c T cciCtxExecute
002e2b2c T cciRand
002e2bb8 T cciRandSeed
002e2c38 T cciCtxCompress
002e2cbc T ccip_ctx_digest_get
002e2d44 T cciCtxCipher
002e2dc0 T cciCtxPKIDecrypt
002e2e88 T cciCtxPKIEncrypt
002e2f50 T cciCtxPKIVerify
002e3018 T cciCtxPKISign
002e30e0 T cciCtxPKIKeyGen
002e31d0 T cciCtxAsyncStatus
002e3294 T cciTask
002e3468 T cciInteger
002e34d8 T cciIntegerDec
002e353c T cciIntegerHex
002e35a0 T cciIntegerBin
002e360c T cciIntegerFree
002e3690 T cciSetWord
002e36e8 T cciTestBit
002e3744 T cciSetBit
002e37a0 T cciClearBit
002e37fc T cciMaskBits
002e3858 T cciCmpWord
002e38b4 T cciDecStr
002e3928 T cciHexStr
002e399c T cciNumBits
002e39fc T cciMul
002e3a5c T cciDiv
002e3ac0 T cciGcd
002e3b20 T cciAdd
002e3b80 T cciSub
002e3be0 T cciCopy
002e3c4c T cciIntegerDup
002e3c94 T cciMulWord
002e3cec T cciAddWord
002e3d44 T cciSubWord
002e3d9c T cciSetHex
002e3de8 T cciSetDec
002e3e34 T cciExp
002e3e94 T cciExpWord
002e3eec T cciMod
002e3f4c T cciModWord
002e3fa4 T cciModExp
002e4008 T cciModExpObsolete
002e404c T cciModInverse
002e40ac T cciCmp
002e4110 T cciCmpHex
002e4168 T cciCmpDec
002e41c0 T cciLShift
002e4224 T cciRShift
002e4288 T cciIsPos
002e42e8 T cciIsNeg
002e4348 T cciPos
002e43a4 T cciNeg
002e4400 T cciExportBin
002e4460 T cciImportBin
002e44ac T cciRandomInt
002e4508 T cciPrime
002e4564 T cciIsPrime
002e45c4 T cciBinToHex
002e4684 T cciHexToBin
002e4794 T ccip_kernel_map_shared_memory
002e4c68 T ccip_kernel_process_rtp_msg
002e5488 T cciHmacInit
002e54e4 T cciHmacBlock
002e55c4 T cciCmacInit
002e5638 T cciCmacFinal
002e56f0 T cciCmacBlock
002e57e0 T cciHashBlock
002e58a0 T cciCipher
002e59a8 T cciPKIGenerateKeys
002e5aa8 T cciPKISignMessage
002e5b50 T cciPKIVerifyMessage
002e5bf8 T cciPKISignDigest
002e5c98 T cciPKIVerifyDigest
002e5d38 T cciPKIEncrypt
002e5e0c T cciPKIDecrypt
002e5ee0 T cciPKIBlindingSet
002e5f9c T cciPKIBlindingGet
002e6058 T cciPKISize
002e616c T ccip_CreateHmacContext
002e620c T ccip_ReleaseHmacContext
002e6270 t ccip_default_hmac_reset
002e6334 T ccip_default_hmac_init
002e63c8 T ccip_default_hmac_update
002e63fc T ccip_default_hmac_final
002e6498 T ccip_default_hmac_init_session
002e64fc T ccip_default_hmac_update_session
002e6560 T ccip_default_hmac_final_session
002e6590 T _restfpr_14_l
002e6594 T _restfpr_15_l
002e6598 T _restfpr_16_l
002e659c T _restfpr_17_l
002e65a0 T _restfpr_18_l
002e65a4 T _restfpr_19_l
002e65a8 T _restfpr_20_l
002e65ac T _restfpr_21_l
002e65b0 T _restfpr_22_l
002e65b4 T _restfpr_23_l
002e65b8 T _restfpr_24_l
002e65bc T _restfpr_25_l
002e65c0 T _restfpr_26_l
002e65c4 T _restfpr_27_l
002e65c8 T _restfpr_28_l
002e65e8 T _restfpr_29_l
002e65ec T _restfpr_30_l
002e65f0 T _restfpr_31_l
002e6608 T _savefpr_14_l
002e660c T _savefpr_15_l
002e6610 T _savefpr_16_l
002e6614 T _savefpr_17_l
002e6618 T _savefpr_18_l
002e661c T _savefpr_19_l
002e6620 T _savefpr_20_l
002e6624 T _savefpr_21_l
002e6628 T _savefpr_22_l
002e662c T _savefpr_23_l
002e6630 T _savefpr_24_l
002e6634 T _savefpr_25_l
002e6638 T _savefpr_26_l
002e663c T _savefpr_27_l
002e6640 T _savefpr_28_l
002e6644 T _savefpr_29_l
002e6648 T _savefpr_30_l
002e664c T _savefpr_31_l
002e665c T _restgpr_14
002e6660 T _restgpr_15
002e6664 T _restgpr_16
002e6668 T _restgpr_17
002e666c T _restgpr_18
002e6670 T _restgpr_19
002e6674 T _restgpr_20
002e6678 T _restgpr_21
002e667c T _restgpr_22
002e6680 T _restgpr_23
002e6684 T _restgpr_24
002e6688 T _restgpr_25
002e668c T _restgpr_26
002e6690 T _restgpr_27
002e6694 T _restgpr_28
002e6698 T _restgpr_29
002e669c T _restgpr_30
002e66a0 T _restgpr_31
002e66ac T _savegpr_14
002e66b0 T _savegpr_15
002e66b4 T _savegpr_16
002e66b8 T _savegpr_17
002e66bc T _savegpr_18
002e66c0 T _savegpr_19
002e66c4 T _savegpr_20
002e66c8 T _savegpr_21
002e66cc T _savegpr_22
002e66d0 T _savegpr_23
002e66d4 T _savegpr_24
002e66d8 T _savegpr_25
002e66dc T _savegpr_26
002e66e0 T _savegpr_27
002e66e4 T _savegpr_28
002e66e8 T _savegpr_29
002e66ec T _savegpr_30
002e66f0 T _savegpr_31
002e66fc T _restgpr_14_l
002e6700 T _restgpr_15_l
002e6704 T _restgpr_16_l
002e6708 T _restgpr_17_l
002e670c T _restgpr_18_l
002e6710 T _restgpr_19_l
002e6714 T _restgpr_20_l
002e6718 T _restgpr_21_l
002e671c T _restgpr_22_l
002e6720 T _restgpr_23_l
002e6724 T _restgpr_24_l
002e6728 T _restgpr_25_l
002e672c T _restgpr_26_l
002e6730 T _restgpr_27_l
002e6754 T _restgpr_28_l
002e6758 T _restgpr_29_l
002e675c T _restgpr_30_l
002e6760 T _restgpr_31_l
002e6778 T _savegpr_14_l
002e677c T _savegpr_15_l
002e6780 T _savegpr_16_l
002e6784 T _savegpr_17_l
002e6788 T _savegpr_18_l
002e678c T _savegpr_19_l
002e6790 T _savegpr_20_l
002e6794 T _savegpr_21_l
002e6798 T _savegpr_22_l
002e679c T _savegpr_23_l
002e67a0 T _savegpr_24_l
002e67a4 T _savegpr_25_l
002e67a8 T _savegpr_26_l
002e67ac T _savegpr_27_l
002e67b0 T _savegpr_28_l
002e67b4 T _savegpr_29_l
002e67b8 T _savegpr_30_l
002e67bc T _savegpr_31_l
002e67c8 T __common_intrinsicsInit
002e67d4 t div64
002e69f0 T __div64
002e6ab0 T __udiv64
002e6b04 t rem64
002e6ca8 T __rem64
002e6d64 T __urem64
002e6db8 T __va_arg
002e6f24 t ddInit
002e7010 t ddInsert
002e70a4 t ddFinishRemoval
002e7104 t ddRemove
002e71ac t ddMap
002e7250 t ddUnmap
002e730c T devInit
002e7344 T devAttach
002e73bc T devDetach
002e7414 T devMap
002e746c T devMapUnsafe
002e7494 T devUnmap
002e74e8 T devUnmapUnsafe
002e7514 T devName
002e7578 T endLibInit
002e7590 T endRcvRtnCall
002e75d4 T muxReceive
002e774c t endPoolInternalCreate
002e7810 T endPoolJumboCreate
002e7818 T endPoolCreate
002e7820 T endPoolDestroy
002e7848 T endEtherHdrInit
002e787c T end8023AddressForm
002e79dc T endEtherAddressForm
002e7b04 T endEtherPacketDataGet
002e7c1c T endEtherPacketAddrGet
002e7cec t PANendParse
002e7dac t PANendInitRxBuff
002e7fd4 t PANendStart
002e8158 t PANendUnload
002e8198 t PANendResetDevice
002e81e4 t PANendStop
002e82ac T PANendShow
002e847c t PANendProcessReceive
002e84c8 t PANendCopyTxFrame
002e85e0 t PANendInitQueue
002e8614 T PANendLoad
002e88bc t PANendQueueEmpty
002e88f8 t PANendDequeue
002e895c t PANendTxNextFrame
002e89f4 t PANendTransmitEvent
002e8a38 t PANendSenderTask
002e8b38 t PANendEventHandler
002e8bac t PANendEnqueue
002e8c70 t PANendStartOutput
002e8d38 t PANendSend
002e8dc8 t PANendReceiveEvent
002e8f80 t PANendReceiverTask
002e9120 t PANendPollRcv
002e91c8 t PANendPollSend
002e9260 t PANendMCastGet
002e92a8 t updateCrc
002e937c t PANendCalculateHashIndex
002e9440 t PANendAddrFilterSet
002e94f4 t PANendPurgeQs
002e95b0 t PANendConfig
002e961c t PANendPollStop
002e9668 t PANendPollStart
002e96b4 t PANendMCastDel
002e9700 t PANendMCastAdd
002e974c t PANendIoctl
002e99e0 T PanEndSetMACAddress
002ea12c T m512xDmaByteSize2RegAttr
002ea190 T m512xDmaRegAttr2ByteSize
002ea1f4 T m512xDmaRegister
002ea200 t m512xDmaInstInit
002ea26c t m512xDmaInstInit2
002ea2d8 t m512xDmaInstConnect
002ea2dc t m512xDmaRWInt
002ea39c t m512xDmaRWIntFIFO
002ea4ec t m512xDmaRWStart
002ea538 t m512xDmaRWStartReq
002ea594 T m512xDmaRWPoll
002ea670 T m512xDmaRead
002ea678 t m512xDmaSyncRead
002ea680 T m512xDmaWrite
002ea688 t m512xDmaReadIntFIFO
002ea6c4 t m512xDmaWriteIntFIFO
002ea6fc t m512xDmaReadIntFIFO_SPI
002ea734 t m512xDmaWriteIntFIFO_SPI
002ea770 t m512xDmaSyncWrite
002ea778 T m512xDmaCancel
002ea7c4 t m512xDmaPause
002ea7cc t m512xDmaResume
002ea7d4 t m512xDmaStatus
002ea7dc t m512xDmaResourceGet
002ea988 t m512xDmaResourceRelease
002eaa00 t m512xDmaInstUnlink
002eaa60 t m512xDmaInt
002eab5c T fslAxeRegister
002eab68 t fslAxeInstInit
002eac98 t fslAxeInstInit2
002ead60 t fslAxeInstConnect
002ead64 t fslAxeMemPoolInit
002eaddc t fslAxeServerTask
002eae0c T fslAxeSampleRun
002eae74 T AxeGetBaseAddr
002eae84 t fslAxeIsrTask
002eaeec t fslAxeIsr
002eaf8c T AxeMalloc
002eb008 t fslAxeLoadImage
002eb0a8 T AxeFree
002eb0f8 T fslAxeServerInit
002eb1d0 T AxeCPrint
002eb1f8 T AxeCScan
002eb220 T AxeMapVirtToPhys
002eb25c T AxeMapPhysToVirt
002eb298 T AxeGetDriverMutex
002eb2a4 T AxeMutexInit
002eb2ac T AxeMutexLock
002eb2b8 T AxeMutexUnlock
002eb2c0 T AxeMutexDestroy
002eb2c8 T AxeGetRxMsgCond
002eb2d0 T AxeCondInit
002eb2d8 T AxeCondTimedWait
002eb308 T AxeCondBroadcast
002eb334 T AxeCondDestroy
002eb33c T AxeGetCurrentTimeMilliseconds
002eb380 T AxeStoreCacheRange
002eb384 T AxeInvalidateCacheRange
002eb388 T AxeGetDriverOpt
002eb3c0 T AxeGetRxQueueHead
002eb3cc T AxeGetTxQueueHead
002eb3d8 T AxePartIdGet
002eb3e4 T AxeSramPartIdGet
002eb464 T intCtlrStrayISR
002eb4b8 T intCtlrChainISR
002eb510 T intCtlrTableCreate
002eb610 t intCtlrTableOutputSet
002eb634 t intCtlrTablePrioSet
002eb658 t intCtlrTableFill
002eb6a8 T intCtlrTableUserSet
002eb740 T intCtlrTableArgGet
002eb784 T intCtlrTableIsrGet
002eb7c8 T intCtlrTableFlagsSet
002eb81c T intCtlrTableFlagsGet
002eb860 T isrRerouteNotify
002eb868 T intCtlrISRDisable
002eb964 T intCtlrISREnable
002eba4c T intCtlrISRRemove
002ebc2c T intCtlrISRAdd
002ebde0 T intCtlrPinFind
002ebf20 T intCtlrHwConfGet
002ec158 T defaultISR
002ec17c T vxbQuiccIntCtlrRegister
002ec194 t quiccIntCtlrInstConnect
002ec198 T vxbSysQuiccInit
002ec200 t quiccIntCtlrInstInit
002ec30c T vxbSysQuiccIntrInit
002ec3d8 t quiccIntCtlrInstInit2
002ec404 t vxbSysQuiccIntConnect
002ec450 T quiccAnd32
002ec494 T quiccOr32
002ec4d8 T vxbSysQuiccIntEnable
002ec560 T vxbSysQuiccIntDisable
002ec5ec T quiccInumToIvec
002ec5f0 T quiccIvecToInum
002ec5f4 t quiccIntrDeMux
002ec764 t vxbQuiccIntCtlrDevIsrConnect
002ec7d0 t vxbQuiccIntCtlrDevIsrDisconnect
002ec7d8 t vxbQuiccIntCtlrDevIsrEnable
002ec848 t vxbQuiccIntCtlrDevIsrDisable
002ec918 T m512xFifocRegister
002ec924 t m512xFifocInstInit
002ec990 t m512xFifocInstInit2
002ec9e8 t m512xFifocIntCtlrConnect
002eca58 t m512xFifocIntCtlrDisconnect
002ecac0 t m512xFifocIntCtlrEnable
002ecb28 t m512xFifocIntCtlrDisable
002ecb90 t m512xFifocIntCtlrIsr
002ecc2c t m512xFifocAllocFifo
002eccf8 T miiBusRegister
002ecd40 T miiBusListAdd
002ecd88 T miiBusListDel
002ece20 t miiBusDevInstInit
002ece24 t miiBusDevInstConnect
002eceb4 t miiBusDevProbe
002ecf6c t miiBusDevInstUnlink
002ed020 t miiBusPhyResourceGet
002ed120 t miiBusBusMatch
002ed230 t miiBusDevMatch
002ed35c t miiBusHwConfIfMatch
002ed478 t miiBusDirectIfMatch
002ed4e8 t miiBusNameMatch
002ed550 T miiBusGet
002ed5f0 T miiBusCreate
002ed7a0 T miiBusDelete
002ed814 T miiBusRead
002ed894 t miiBusDevInstInit2
002eda04 T miiBusWrite
002eda78 T miiBusMediaUpdate
002edae8 T miiBusModeGet
002edb78 T miiBusIdleErrorCheck
002edca4 t miiBusMonitor
002ede30 t miiBusMonitorTask
002ede6c T miiBusMediaListGet
002edea0 T miiBusMediaAdd
002edf80 T miiBusMediaDel
002ee090 T miiBusMediaDefaultSet
002ee0e4 T miiBusModeSet
002ee1d8 T genPhyRegister
002ee1e4 t genPhyDevInstInit
002ee1e8 t genPhyDevInstConnect
002ee1ec t genPhyInstUnlink
002ee308 t genPhyProbe
002ee310 t genPhyInit
002ee3e0 t genPhyDevInstInit2
002ee4f4 t genPhyModeSet
002ee6a0 t genPhyModeGet
002ee8b0 T m5xxxPscSioRegister
002ee8bc t m5xxxPscSioInstInit2
002ee8c0 t m5xxxPscSioInstConnect
002ee8c4 t m5xxxPscSioChanGet
002ee8e8 t m5xxxPscSioChannelConnect
002ee96c t m5xxxPscSioChanConnect
002ee9f0 t m5xxxPscSioDummyCallback
002ee9f8 t m5xxxPscSioAcrSetClr
002eea34 t m5xxxPscSioImrSetClr
002eea70 t m5xxxPscSioBaudSet
002eeb28 t m5xxxPscSioOptsSet
002eed08 t m5xxxPscSioModeSet
002eee08 t m5xxxPscSioInitFifo
002eef30 t m5xxxPscSioInitChannel
002ef080 t m5xxxPscSioDevInit
002ef0a0 t m5xxxPscSioInstInit
002ef1dc t m5xxxPscSioIntWr
002ef254 t m5xxxPscSioIntRd
002ef2c4 t m5xxxPscSioInt
002ef358 t m5xxxPscSioIntWrFifo
002ef3d0 t m5xxxPscSioIntFifo
002ef5d0 t m5xxxPscSioIoctl
002ef6c4 t m5xxxPscSioTxStartup
002ef73c t m5xxxPscSioCallbackInstall
002ef778 t m5xxxPscSioPollInput
002ef824 t m5xxxPscSioPollOutput
002ef914 T ppcDecTimerDrvRegister
002ef920 t ppcDecTimerInstInit
002efb08 t ppcDecTimerInstInit2
002efb58 t ppcDecTimerInstConnect
002efb5c t ppcDecTimerAllocate
002efbc0 t ppcDecTimerRolloverGet
002efbe8 t ppcDecTimerCountGet
002efc48 t ppcDecTimerISRSet
002efc80 t ppcDecTimerDisable
002efca0 t ppcDecTimerRelease
002efd34 t ppcDecTimerEnable
002efd90 t ppcDecTimerFuncGet
002efdd4 t vxbPpcDecTimerIsr
002efe44 t ppcDecTimerIsr
002efe80 T m5xxxGPTimerRegister
002efe8c t m5xxxGPTimerInstInit
002f0014 t m5xxxGPTimerInstInit2
002f0034 t m5xxxGPTimerInstConnect
002f0038 t m5xxxGPTimerAllocate
002f009c t m5xxxGPTimerRelease
002f00ec t m5xxxGPTimerDisable
002f018c t m5xxxGPTimerEnable
002f0244 t m5xxxGPTimerISRSet
002f0264 t m5xxxGPTimerFuncGet
002f02a8 t m5xxxGPTimerIsr
002f0348 T vxbDmaLibInit
002f034c t vxbDmaDedicationCheck
002f03b0 T vxbDmaChanAlloc
002f04c8 T vxbDmaChanFree
002f0530 t vxbDmaDataCopyUtil
002f0610 t vxbDmaDataCopyAndWait
002f06c8 t vxbDmaDataCopy
002f07a0 T vxbLegacyIntInit
002f0868 t vxbLegacyIntConnect
002f0890 t vxbLegacyIntDisconnect
002f08b8 t vxbLegacyIntEnable
002f08e0 t vxbLegacyIntDisable
002f0910 t _vxbInstRetrieve
002f0970 T vxbInstByNameFind
002f09b4 T vxbInstParamSet
002f0a9c t vxbParamInstTableCreate
002f0c1c t vxbParamBspCheck
002f0cb8 T vxbInstParamByNameGet
002f0d78 T vxbInstParamByIndexGet
002f0e08 T vxbSysClkLibInit
002f0eb8 t vxbSysClkEval
002f0fd4 t vxbSysClkFind
002f1084 T sysClkHandleGet
002f108c T vxbSysClkConnect
002f1120 T vxbSysClkDisable
002f11c8 T vxbSysClkEnable
002f12fc T vxbSysClkRateGet
002f1350 T vxbSysClkRateSet
002f13e8 T vxbAuxClkLibInit
002f1490 t vxbAuxClkEval
002f1598 t vxbAuxClkFind
002f1708 T sysAuxClkHandleGet
002f1710 T vxbAuxClkConnect
002f178c T vxbAuxClkDisable
002f1800 T vxbAuxClkEnable
002f1880 T vxbAuxClkRateGet
002f18d4 T vxbAuxClkRateSet
002f19ac t vxbSwUsDelay
002f19e8 T vxbMsDelay
002f1a40 T vxbDelay
002f1a84 T vxbUsDelay
002f1ae0 t vxbSwMsDelay
002f1b40 T vxbTimestampLibInit
002f1c08 t vxbTimestampEval
002f1d68 t vxbTimestampFind
002f1ed8 T sysTimestampHandleGet
002f1ee0 T vxbTimestampConnect
002f1f60 T vxbTimestampDisable
002f1ffc T vxbTimestampPeriod
002f2088 T vxbTimestampEnable
002f211c T vxbTimestampFreq
002f2170 T vxbTimestamp
002f21e0 T vxbTimestampLock
002f22a8 T vxbTimerFeaturesGet
002f22f0 T vxbTimerAlloc
002f2424 T vxbTimerRelease
002f2464 t vxbTimerFind
002f25a4 T vxbDelayLibInit
002f26d0 t vxbDelayCommon
002f28d8 t vxbDelayTimerEval
002f29c8 t vxbDelayTimerFind
002f2af8 T printErrorMessageHere
002f2b30 T hwMemLibInit
002f2b34 t hwMemPoolSplit
002f2c78 T hwMemPoolCreate
002f2d74 T hwMemAlloc
002f2eb8 T hwMemFree
002f30bc T hcfDeviceGet
002f3150 T devResourceGet
002f31f8 T devResourceIntrGet
002f341c T sioNextChannelNumberAssign
002f3494 T sysSerialChanGet
002f3500 T sysSerialChanConnect
002f3570 T sysSerialConnectAll
002f35ac t in_be32
002f35b4 t out_be32
002f35bc t printf_ptr
002f3630 t printf_reg
002f366c T diuDrawBmp
002f3c18 T diuBlitSplash
002f3d74 T diuBlitAlert
002f404c t diuClearScreen
002f40bc t diuDisable
002f411c t diuEnable
002f4180 t diuFree
002f41dc t diuGetRefreshRate
002f427c t diuGetVideoMode
002f430c t diuMalloc
002f436c t diuRealloc
002f43ec t diuReset
002f45c8 t diuSetCursor
002f4650 t diuSetGammaTable
002f46ec t diuSetPalette
002f4730 t diuSetPixelClock
002f47c4 t diuSetVideoModeEx
002f4be0 t diuSetVideoMode
002f4da8 t diuShow
002f5428 t vxbDiuDriverCtrl
002f581c t driverRequest
002f58a4 T DisplayAlertLogo
002f5920 t vxbDiuIntHandler
002f5ab8 t vxbDiuInstanceInit
002f5cd8 t vxbDiuInstanceInit2
002f5ee8 t vxbDiuInstanceUnlink
002f5fb8 t vxbDiuInstanceConnect
002f5fbc T vxbDiuRegister2
002f6008 T vxbDiuRegister
002f600c t vxbDiuShow
002f6398 T diuAddPanelActivate
002f63b0 T diuAddPanelRemove
002f63c8 T diuDefPanelFBRtnSet
002f63d8 T diuDefPanelPxlFmtSet
002f6404 T diuDefPanelPxlFmtGet
002f7580 T vxbRegMap
002f7660 T plbRegister
002f779c T plbInit1
002f78e8 T plbInit2
002f78f8 T plbConnect
002f7908 T plbDevMatch
002f794c T plbIntrSet
002f7a34 T plbIntrGet
002f7acc T vxbLibInit
002f7ad8 T vxbInit
002f7b08 t vxbInstInsert
002f7b2c t vxbInstRemove
002f7b70 t vxbDevInit2Helper
002f7bf8 T vxbLibError
002f7c50 t vxbDevOnlyMethodGet
002f7c9c T vxbDevParent
002f7cc8 T vxbDevPath
002f7d1c T vxbDevMethodGet
002f7da4 T vxbDevIterate
002f7e58 T vxbDrvRescan
002f7e8c T vxbDevConnectInternal
002f7ee4 T vxbDeviceMethodRun
002f7f38 T vxbDevMethodRun
002f7f74 T noDev
002f7f7c T vxbBusTypeString
002f804c t vxbIntCtlrMatch
002f8144 t vxbDevControl
002f81b4 T vxbIntConnect
002f8244 T vxbIntDisconnect
002f833c T vxbIntAcknowledge
002f8434 T vxbIntEnable
002f8510 T vxbIntDisable
002f8608 T vxbIntVectorGet
002f86bc T vxbInstUnitSet
002f86c8 T vxbInstUnitGet
002f86d8 t vxbUnitCheck
002f8750 T vxbNextUnitGet
002f87bc t vxbSpinLockStub
002f87c0 T vxbLockInit
002f8840 T vxbLockGive
002f88e4 T vxbLockTake
002f898c t vxbDevConnectHelper
002f8a20 t vxbDevInitRun
002f8b18 t vxbNewDriver
002f8c54 T vxbDeviceAnnounce
002f8e2c T vxbDevRegister
002f8eec t vxbBusPresentVerify
002f8f54 T vxbDriverUnregister
002f9040 T vxbBusTypeRegister
002f90bc T vxbBusTypeUnregister
002f914c t vxbDevFromBusRemove
002f9290 T vxbSubDevAction
002f93a4 t vxbResourceSearch
002f945c T vxbResourceFind
002f94a4 T vxbDevStructAlloc
002f9554 T vxbBusAnnounce
002f9724 T vxbDevInitInternal
002f979c T vxbLockDelete
002f97cc T vxbDevStructFree
002f9844 t vxbSubordinateBusRemove
002f9958 T vxbDevRemovalAnnounce
002f99f4 T vxbDeviceDriverRelease
002f9ae4 t vxbDrvDisconnect
002f9c04 T endTxSemTake
002f9c0c T endTxSemGive
002f9c14 T endFlagsClr
002f9c24 T endFlagsSet
002f9c34 T endFlagsGet
002f9c3c T endMultiLstCnt
002f9c44 T endMultiLstFirst
002f9c4c T endMultiLstNext
002f9c50 T endDevName
002f9c58 T endObjectUnload
002f9ccc T endM2Free
002f9d1c T endM2Ioctl
002f9db0 T _endM2Packet_1213
002f9ef0 T _endM2Packet_2233
002fa00c T endMibIfInit
002fa0b0 T mib2Init
002fa10c T mib2ErrorAdd
002fa168 T endObjInit
002fa214 T endObjFlagSet
002fa228 T endM2Init
002fa2d8 t endPollStatsPoll
002fa328 t endPollStatsJobQueue
002fa398 T endPollStatsInit
002fa464 T endEtherCrc32BeGet
002fa4c8 T endEtherCrc32LeGet
002fa518 T AxeDequeueMessage
002fa5e0 T AxeEnqueueMessage
002fa650 T AxeAllocateMessage
002fa6e8 T AXESendMessage
002fa760 T AXESendMessageToHost
002fa7e4 t axeGetMessage
002fa920 T AXEReceiveMessage
002fa990 T AXEReceiveMessageReply
002fa9f4 T AxeSendMessageWait
002faab8 T AXEGetResetState
002fab0c T AXESetResetState
002fab64 T AXEKickStart
002fac44 T AXECacheClear
002fac98 t axeAllocateTaskSegment
002fae04 T AxeAllocateTaskSegments
002fae68 T AxeReallocateTaskSegment
002faed8 t axeSendCreateTask
002faf78 t axeSendProcessKill
002fb018 t axeLoadImage
002fb1a8 T AXEServerLoadTask
002fb230 T AXEServerUnloadTask
002fb284 T AxeIPCInit
002fb32c T AXEInit
002fb3b8 t axeCountQueueMessages
002fb3d8 T AXEGetMessageStatus
002fb42c T AXERxFIFOHandler
002fb4ac T AXETxFIFOHandler
002fb550 t axeProcessMalloc
002fb5f4 t axeProcessFree
002fb65c t axeProcessCPrint
002fb698 t axeProcessCScan
002fb6d8 t axeProcessServerLoad
002fb71c t axeProcessServerUnload
002fb754 t axeProcessUndeliverable
002fb764 T AXEProcessServerMessage
002fb880 T testPrint
002fb95c T readBinFile
002fba38 T testLoadTask
002fbab0 T testStartTask
002fbb2c T testSuspendTask
002fbba8 T testProcessStatus
002fbd18 T testUnloadTask
002fbd78 T usage
002fbf88 T parse_cmdline_args
002fc19c T allocMsg
002fc1cc T sendCodecStartMsgFromHost
002fc238 T sendCodecStopMsgFromHost
002fc290 T processCodecGetDataMsg_rwd
002fc398 T processCodecGetDataMsg_ffwd
002fc468 T processCodecGetDataMsg
002fc59c T getHostTaskParams
002fc5dc T hostMemFree
002fc5e4 T read_wav_header
002fc918 T write_wav_header
002fcc44 T processCodecSendDataMsg
002fcdb4 T fixup_wav_header
002fce74 T closeCodecTasks
002fcf14 T EndTest
002fcf80 T hostMemAlloc
002fcfe8 T initHostTaskParams
002fd224 T ReceiveAnswer
002fd2c4 T freeMsg
002fd318 T initMsgAlloc
002fd390 T HostTask
002fd7a8 T axec_codec
002fe19c t plbBusIntConnect
002fe208 t plbBusIntDisconnect
002fe274 t plbBusIntVectorGet
002fe2b8 t plbBusIntEnable
002fe310 t plbBusIntDisable
002fe368 t plbDevControl
002fe404 T axe_copy_to_isram
002fe44c T AXELoadTask
002fe4f8 T AXEUnloadTask
002fe5b0 T AXEStartTask
002fe658 T AXESuspendTask
002fe700 t allocate
002fe754 t byte_get_big_endian
002fe7e8 t byte_put_big_endian
002fe85c t get_data
002fe8d0 t jump_branch_globalsym_check
002feb10 t jump_branch_localsym_check
002fed9c t perform_postrelocation_operations
002fefe4 t do_relocation
002ff2bc t relocate_section
002ff83c t resolve_symbols
003003e8 t load_segments
003008fc t process_file_header
00300b6c T AXELoader
0030267c T AxeCreateTaskContext
00302734 T AxeInitTCB
00302820 T axeFreeAllocList
00302890 T AxeFreeTaskContext
003029c4 T AxeAddTaskContext
00302a5c T AxeRemoveTaskContext
00302b04 T AxeGetTaskContext
00302b90 T AxeAddAllocRecord
00302c70 T AxeReallocRecord
00302dd4 T AxeFreeAllocRecord
00302f2c T dsiPoolInit
00303254 T dsiSysPoolShow
0030325c T dsiDataPoolShow
00303264 T dsiSockLibInit
00303270 T dsiDomainAdd
003032c4 t dsiPfFindType
00303328 t dsiBind
0030345c t dsiListen
00303580 T dsiConnect
003037c0 t dsiUioMove
003038a4 t dsiTx
00303de0 T dsiSend
00303e70 t dsiSockWrite
00303ef8 T dsiGetsockname
00303fd4 T dsiGetpeername
003040c4 T dsiZbufSockRtn
003040cc t dsiSoCleanup
0030412c t dsiSoAccept
00304308 t dsiSoDisconnect
00304450 t dsiSoOptCopyin
003044a0 t dsiSoOptCopyout
003044f0 t dsiSoGetOpt
0030461c T dsiGetsockopt
00304728 t dsiSbSelQueue
0030477c t dsiSbSelDequeue
003047cc T dsiSbWait
003048cc T dsiSbNoWait
00304998 T dsiSbLock
00304a18 T dsiSbWakeup
00304bf8 T dsiSoCantRcvMore
00304c2c T dsiSoCantSendMore
00304c60 T dsiSoIsDisconnected
00304ccc T dsiSoIsConnected
00304d3c T dsiSbWakeupOne
00304ef4 T dsiSbReserve
00304f2c t dsiSoSetOpt
003050c8 T dsiSetsockopt
0030515c t dsiSbDrop
00305344 t dsiSbFlush
00305534 T dsiSoReserve
003055f4 t dsiSoRflush
003056e8 T dsiShutdown
0030585c T dsiSoFree
003059e8 T dsiSoAbort
00305ad0 T dsiSoClose
00305cd0 T dsiAccept
00305ef0 t dsiSockClose
00305f54 T dsiSoAlloc
00306024 T dsiSoNewConn3
00306178 T dsiSoCreate
003063d4 t dsiSocket
00306454 t dsiSbDropRecord
003064d8 t dsiRx
00306ab8 t dsiSockRead
00306b40 T dsiRecv
00306bb8 t dsiSoSelect
00306d68 t dsiSoUnselect
00306e78 t dsiSoIoctl
00307008 T dsiControlNotSupp
00307010 T dsiRcvoobNotSupp
00307018 T dsiSenseNull
00307178 T dsiLockInit
003071e8 T dsiLock
00307244 T dsiUnlock
00307268 T dsiTsleep
00307308 T unInit
003073b8 T unCompInit
003074b4 t uncomp_firstAvailableNameGet
00307548 t uncomp_nameDecode
0030764c t uncomp_acceptSocketFind
003076d8 t uncomp_dupsockaddr
003077c0 T uncomp_stateGet
003078d4 t uncomp_accept
00307948 t uncomp_attach
00307a14 t uncomp_bind
00307afc t uncomp_connect2
00307b64 t uncomp_connect
00307c6c t uncomp_disconnect
00307ce4 t uncomp_detach
00307d88 t uncomp_abort
00307dc8 t uncomp_listen
00307e44 t uncomp_peeraddr
00307ec8 t uncomp_rcvd
00307f54 t uncomp_send
00308438 t uncomp_shutdown
003084c0 t uncomp_sockaddr
00308518 T uncomp_ctloutput
00308568 T erfCategoryAllocate
00308604 T erfTypeAllocate
003086bc T erfCategoriesAvailable
003086d0 T erfTypesAvailable
00308700 t erfHandlerDbAdd
00308728 T erfHandlerRegister
003087ec t erfHandlerDbRemove
00308870 T erfHandlerUnregister
0030892c t erfHandlerDbRemoveByPtr
003089a0 t erfHandlerDbFind
003089bc t erfQueueInit
00308b1c T erfCategoryQueueCreate
00308bf8 T erfLibInit
00308e3c t erfQueueAdd
00308f2c t erfExcEventRaise
00308fd0 T erfEventRaise
00309158 t erfQueueGet
0030921c t erfServiceTask
00309280 T frexp
00309390 T ldexp
00309440 T modf
00309508 T asin
003095c8 T acos
00309650 T ceil
003096f4 T cosh
00309940 t scalb
00309d6c T exp__E
00309e60 T floor
00309eec T fmod
0030a03c T sinh
0030a298 t scalb
0030a6c4 T tan
0030ab64 t drem
0030b638 t scalb
0030ba64 T tanh
0030bbf4 T fabs
0030bc78 T fpTypeGet
0030bddc T fioBaseLibInit
0030bdec T sprintf
0030be9c T fioFormatV
0030d07c T snprintf
0030d14c T printExc
0030d3d4 T printErr
0030d470 T oprintf
0030d524 T printf
0030d5bc T fioBufPut
0030d60c T fioSnBufPut
0030d678 T fioBufPrint
0030d724 T fioFltInstall
0030d730 T floatInit
0030d74c t roundCvt
0030d878 t exponentCvt
0030d928 t cvt
0030df60 t floatFormat
0030e03c t floatScan
0030e350 T fioLibInit
0030e360 T voprintf
0030e3ac T fdprintf
0030e450 T vprintf
0030e47c T vfdprintf
0030e4b4 T vsprintf
0030e4fc T vsnprintf
0030e560 T fioRead
0030e5d0 T fioRdString
0030e670 t getbuf
0030e698 t scanString
0030e744 t scanChar
0030e7cc T scanCharSet
0030e988 t scanNum
0030eb88 T scanField
0030f238 T fioScanV
0030f568 T sscanf
0030f610 T expm1
0030fb88 t scalb
0030ffb4 T __floatundidf
0030fff4 T __udivdi3
00310470 T __gthread_getspecific
003104dc t tls_init
00310508 t tls_destructor
0031057c T __gthread_once
00310604 T _GLOBAL__D_0___gthread_once
00310608 T __gthread_setspecific
00310740 T __gthread_key_delete
00310818 t tls_delete_hook
00310964 T __gthread_key_create
00310a88 t read_uleb128
00310ab8 t read_sleb128
00310b04 T _Unwind_GetCFA
00310b0c T _Unwind_GetIP
00310b14 T _Unwind_GetIPInfo
00310b2c T _Unwind_SetIP
00310b34 T _Unwind_GetLanguageSpecificData
00310b3c T _Unwind_GetRegionStart
00310b44 T _Unwind_GetDataRelBase
00310b4c T _Unwind_GetTextRelBase
00310b54 T _Unwind_DeleteException
00310b8c T _Unwind_SetGR
00310c08 T _Unwind_GetGR
00310c70 t read_encoded_value_with_base
00310df0 t base_of_encoded_value
00310e94 t init_dwarf_reg_size_table
00311074 T _Unwind_FindEnclosingFunction
003110ac t execute_cfa_program
00311730 t uw_frame_state_for
00311b1c T __frame_state_for
00311c2c t execute_stack_op
003122a8 t uw_update_context_1
00312660 t uw_init_context_1
0031293c t uw_install_context_1
00312afc t uw_update_context
00312b88 T _Unwind_Backtrace
00312d58 t _Unwind_RaiseException_Phase2
00312e28 T _Unwind_RaiseException
003130ac t _Unwind_ForcedUnwind_Phase2
003131b8 T _Unwind_Resume_or_Rethrow
003133b0 T _Unwind_Resume
003135ac T _Unwind_ForcedUnwind
003137a8 t read_uleb128
003137d8 t read_sleb128
00313824 t fde_unencoded_compare
00313848 t frame_downheap
00313980 t frame_heapsort
00313a50 t init_object_mutex_once
00313a80 t init_object_mutex
00313aac t base_from_object
00313b28 t read_encoded_value_with_base
00313ca8 t fde_single_encoding_compare
00313d54 t get_cie_encoding
00313e64 t size_of_encoded_value
00313edc t linear_search_fdes
00314080 t add_fdes
003141f8 t classify_object_over_fdes
00314390 T __deregister_frame_info_bases
003144d4 T __deregister_frame_info
003144d8 T __deregister_frame
00314508 T __register_frame_info_table_bases
00314584 T __register_frame_info_table
00314590 T __register_frame_table
003145c8 T __register_frame_info_bases
00314670 T __register_frame_info
0031467c T __register_frame
003146d4 t search_object
00314d94 T _Unwind_Find_FDE
00314f7c t fde_mixed_encoding_compare
0031504c T __gthread_get_tsd_data
00315054 T __gthread_set_tsd_data
0031505c T __gthread_enter_tls_dtor_context
00315060 T __gthread_leave_tls_dtor_context
00315064 T __gthread_enter_tsd_dtor_context
00315068 T __gthread_leave_tsd_dtor_context
0031506c T __gthread_set_tls_data
0031509c T __gthread_get_tls_data
003150c4 T __gcc_intrinsicsInit
003150d0 T __muldi3
003150f4 T __negdi2
0031510c T __lshrdi3
00315154 T __ashldi3
0031519c T __ashrdi3
003151e8 T __cmpdi2
00315214 T __ucmpdi2
00315240 T __clear_cache
00315244 T __enable_execute_stack
00315248 T __absvsi2
00315278 T __absvdi2
003152c0 T __addvsi3
00315314 T __addvdi3
00315394 T __subvsi3
003153e8 T __subvdi3
00315468 T __mulvsi3
003154b0 T __mulvdi3
00315708 T __negvsi2
0031574c T __negvdi2
003157b0 T __ffssi2
003157d4 T __ffsdi2
00315814 T __clzsi2
0031581c T __clzdi2
00315840 T __ctzsi2
00315854 T __ctzdi2
00315884 T __popcountsi2
003158c0 T __popcountdi2
0031592c T __paritysi2
00315958 T __paritydi2
00315988 T __powisf2
00315a24 T __powidf2
00315ac0 T __mulsc3
00315f18 T __muldc3
00316490 T __divsc3
00316760 T __divdc3
00316b7c T __fixunssfsi
00316bc8 T __fixunsdfsi
00316c10 T __fixsfdi
00316c60 T __fixunssfdi
00316d64 T __floatdisf
00316e10 T __floatundisf
00316e7c T __fixdfdi
00316ecc T __fixunsdfdi
00316fd0 T __floatdidf
00317024 T __gcc_bcmp
00317074 T __divdi3
003174f0 T __moddi3
003179c0 T __umoddi3
00317e48 T __udiv_w_sdiv
00317e50 T __udivmoddi4
00318388 T __pack_f
00318518 T __unpack_f
003185e8 t _fpadd_parts
003187f8 T __subsf3
0031886c T __addsf3
003188d4 T __mulsf3
00318ae0 T __divsf3
00318c98 T __fpcmp_parts_f
00318d74 T __cmpsf2
00318dd4 T __eqsf2
00318e58 T __nesf2
00318edc T __gtsf2
00318f60 T __gesf2
00318fe4 T __ltsf2
00319068 T __lesf2
003190ec T __unordsf2
00319148 T __floatsisf
003191e4 T __fixsfsi
00319280 T __negsf2
003192d0 T __make_fp
00319304 T __extendsfdf2
00319354 T __floatunsisf
00319414 T __pack_d
00319708 T __unpack_d
00319828 t _fpadd_parts
00319c44 T __subdf3
00319cb8 T __adddf3
00319d20 T __muldf3
0031a0d0 T __divdf3
0031a348 T __fpcmp_parts_d
0031a458 T __cmpdf2
0031a4b8 T __eqdf2
0031a53c T __nedf2
0031a5c0 T __gtdf2
0031a644 T __gedf2
0031a6c8 T __ltdf2
0031a74c T __ledf2
0031a7d0 T __unorddf2
0031a82c T __floatsidf
0031a908 T __fixdfsi
0031a9d0 T __negdf2
0031aa20 T __make_dp
0031aa58 T __truncdfsf2
0031aac0 T __floatunsidf
0031ac54 t trampoline_initial
0031ac7c T __trampoline_setup
0031ace0 T __gnat_default_lock
0031ace4 T __gnat_default_unlock
0031ace8 T __gnat_install_locks
0031acfc T __gthread_active_p
0031ad04 T __gthread_mutex_lock
0031ad34 T __gthread_mutex_unlock
0031ad64 t read_uleb128
0031ad94 t read_encoded_value_with_base
0031af4c t base_of_encoded_value
0031afe4 T __gcc_personality_v0
0031b280 T __emutls_register_common
0031b2c4 T __emutls_get_address
0031b4bc t emutls_init
0031b508 t emutls_destroy
0031b588 t ipdnsc_ptr_name
0031b6c4 t ipdnsc_encode_name
0031b754 t ipdnsc_decode_name
0031b894 t ipdnsc_create_query
0031b934 t ipdnsc_send_wait
0031bbfc t ipdnsc_parse_response
0031bee4 t ipdnsc_do_query
0031c0fc t ipdnsc_cache_remove
0031c190 t ipdnsc_cache_find_oldest
0031c1c4 t ipdnsc_cache_find_expired
0031c218 t ipdnsc_cache_clean
0031c2b8 t ipdnsc_cache_add
0031c38c t ipdnsc_cache_find_addr
0031c42c t ipdnsc_cache_find_name
0031c510 t ipdnsc_cache_known_hosts
0031c634 T ipdnsc_default
0031c788 T ipdnsc_resolve_name
0031c9c8 T ipdnsc_resolve_addr
0031cb14 T ipdnsc_cache_flush
0031cb74 T ipdnsc_create
0031cba8 T ipdnsc_start
0031cc70 T ipdnsc_version
0031cd94 t ipdnsc_hostent_alias_count
0031cdc0 t ipdnsc_hostent_addr_count
0031cdec T ipdnsc_hostent_insert_name
0031ce84 T ipdnsc_hostent_insert_alias
0031cf7c T ipdnsc_hostent_insert_addr
0031d054 T ipdnsc_hostent_create
0031d120 T ipdnsc_hostent_free
0031d208 T ipdnsc_hostent_copy
0031d2e0 t ipdnsc_hostent_merge
0031d4ac t ipdnsc_hostent_convert
0031d5d8 T ipdnsc_freehostent
0031d5dc T ipdnsc_getipnodebyname
0031d900 T ipdnsc_getipnodebyaddr
0031d9b4 t ipdhcpc_init
0031dbd8 t ipdhcpc_exit
0031dcb4 t ipdhcpc_number
0031dd04 t ipdhcpc_wakeup
0031dd78 t ipdhcpc_sec_to_msec
0031dd98 t ipdhcpc_output
0031e580 t ipdhcpc_koption_get
0031e610 t ipdhcpc_bootp_input
0031e6e4 t ipdhcpc_route_mod
0031e788 t ipdhcpc_timer_cancel
0031e890 t ipdhcpc_timer_set
0031e934 t ipdhcpc_output_request
0031ea8c t ipdhcpc_offer_input
0031ec0c t ipdhcpc_state_init
0031ec70 t ipdhcpc_state_reboot
0031ec84 t ipdhcpc_state_init_reboot
0031ed2c t ipdhcpc_state_restart
0031edd0 t ipdhcpc_ifclose_all
0031ee5c t ipdhcpc_validate_packet
0031efa4 t ipdhcpc_route_init_addrs
0031efec t ipdhcpc_if_has_addr
0031f170 t ipdhcpc_ifunlease_locked
0031f2d0 t ipdhcpc_tmo_cb
0031f61c t ipdhcpc_nak_input
0031f718 T ipdhcpc_ifopen
0031fbd4 T ipdhcpc_if_isopen
0031fc58 T ipdhcpc_handle_free
0031fd34 T ipdhcpc_ifclose
0031fe3c t ipdhcpc_handle_free_pending
0031fec0 T ipdhcpc_ifrequest
00320000 T ipdhcpc_ifunlease
003200dc T ipdhcpc_option_sprintf
0032081c T ipdhcpc_option_find
00320840 T ipdhcpc_option_get_first
00320844 T ipdhcpc_option_get_next
0032087c T ipdhcpc_iflease
00321208 T ipdhcpc_reply_cb
00321340 t ipdhcpc_ack_input
00321734 t ipdhcpc_reply_input
00321adc T ipdhcpc_option_add
00321c04 T ipdhcpc_handle_malloc
00322328 t ipdhcpc_if_eventcb
0032269c t ipdhcpc_daemon
00322b0c t ipdhcpc_run
00322c0c t ipdhcpc_proc
00322d30 T ipdhcpc_create
00322d38 T ipdhcpc_start
00322d80 T ipdhcpc_version
00324a48 t ipcom_char_append
00324a8c T ipcom_inet_ntop
00324b74 T ipcom_inet_pton
00324d08 T ipcom_list_init
00324d20 T ipcom_list_first
00324d3c T ipcom_list_last
00324d58 T ipcom_list_next
00324d78 T ipcom_list_prev
00324d98 T ipcom_list_insert_first
00324dc4 T ipcom_list_insert_last
00324df0 T ipcom_list_insert_before
00324e20 T ipcom_list_insert_after
00324e50 T ipcom_list_remove
00324e84 T ipcom_list_unlink_head
00324ed4 T ipcom_once
00324fb8 t ipcom_sysvar_hash_key
00324ff0 t ipcom_sysvar_hash_obj
00324ff8 t ipcom_sysvar_hash_cmp
00325024 t ipcom_sysvar_pqueue_cmp
00325034 t ipcom_sysvar_pqueue_insert_cb
00325050 t ipcom_sysvar_free
00325088 t ipcom_sysvar_tree_get
00325144 t ipcom_sysvar_tree_done
0032515c t ipcom_sysvar_init
0032519c t ipcom_sysvar_release
003251f0 t ipcom_sysvar_getvr
003252d4 T ipcom_sysvar_set_tree
003253fc t ipcom_sysvar_setvr
00325498 T ipcom_sysvar_get
003254a4 T ipcom_sysvar_get0
003254b0 T ipcom_sysvar_get_descriptive_int0
00325544 T ipcom_sysvar_get_as_int0
00325570 T ipcom_sysvar_set
00325578 T ipcom_sysvar_set0
00325580 T ipcom_sysvar_for_each
003256d8 T ipcom_sysvar_unset
003257b4 t ipcom_sysvar_unset_cb
003257d8 T ipcom_sysvar_setv
0032585c T ipcom_sysvar_get_as_int
003258b0 T ipcom_sysvar_ext_setv
00325ae8 t ipcom_tickd
00325c50 t ipcom_tmo_init
00325ce4 T ipcom_tmo_request
00325d80 T ipcom_tmo_cancel
00325e14 T ipcom_tmo_reset
00325e68 T ipcom_tmo_get
00325f0c t ipcom_ipd_socket_clear
00325f44 t ipcom_ipd_socket
0032608c t ipcom_ipd_isstarted
003261e4 T ipcom_ipd_init
003263dc T ipcom_ipd_exit
00326460 T ipcom_ipd_input_process
003264e8 T ipcom_ipd_input
00326540 T ipcom_ipd_start
003266e4 T ipcom_ipd_read
00326734 T ipcom_ipd_sendmsg
00326980 T ipcom_ipd_datamsg
00326bc8 T ipcom_ipd_send
00326bfc T ipcom_ipd_kill
00326c04 T ipcom_ipd_reconfigure
00326c54 t ipcom_shellcmd_init
00326c80 T ipcom_shell_find_cmd
00326ce8 T ipcom_shell_add_cmd
00326e04 T ipcom_shell_remove_cmd
00326e4c t ipcom_adjustlog
00326e9c t ipcom_syslogd_log
00326fbc T ipcom_openlog
003270cc t ipcom_checklog
003271d4 t ipcom_syslogd
00327434 T ipcom_closelog
00327438 T ipcom_setlogmask_on
0032749c T ipcom_getlogmask_on
00327508 T ipcom_setlogfile
003275b4 T ipcom_setlogudp
003275bc T ipcom_vsyslog
003276dc T ipcom_syslog
0032776c T ipcom_syslogd_init
003278d8 t ipcom_telnetd_spawn
00327a30 t ipcom_telnet_write
00327b74 t ipcom_telnet_respond_option
00327ca8 t ipcom_telnet_input_option
00327dac t ipcom_telnet_negotiate
00327dfc t ipcom_telnet_read
00327fcc t ipcom_telnet_getline
003280bc t ipcom_telnet_login
00328214 T ipcom_telnetd
00328578 t ipcom_telnet_transfer_from_shell_to_client
0032861c T ipcom_telnetspawn
00328ad4 T iptelnets_start
00328b14 T iptelnets_version
0032917c t ipcom_cmd_link_ntop
00329264 t ipcom_cmd_addr_to_str
00329304 T ipcom_cmd_sockaddr_to_str
00329404 T ipcom_cmd_if_flags_to_str
00329610 T ipcom_cmd_if_caps_to_str
0032971c T ipcom_cmd_key_to_str
003297b0 T ipcom_cmd_str_to_key2
00329824 T ipcom_cmd_str_to_key
003299a4 T ipcom_cmd_mkdir
00329a30 T ipcom_cmd_cd
00329abc T ipcom_cmd_cat
00329ba8 T ipcom_cmd_uuencode
00329d00 T ipcom_cmd_cp
00329e40 T ipcom_cmd_pwd
00329ee0 T ipcom_cmd_rm
00329f68 T ipcom_cmd_rmdir
00329fec T ipcom_cmd_mv
0032a078 T ipcom_cmd_ls
0032a2c0 T ipcom_cmd_date
0032a438 T ipcom_cmd_time
0032a5b0 T ipcom_cmd_getenv
0032a634 T ipcom_cmd_setenv
0032aa5c t ipcom_cmd_syslog_facility
0032aab0 t ipcom_cmd_syslog_priority
0032ab04 T ipcom_cmd_syslog
0032b1c8 t ipcom_cmd_sysvar_for_each_cb
0032b204 T ipcom_cmd_sysvar
0032b928 t ipcom_cmd_tracert_tv_to_msec
0032b964 t ipcom_cmd_tracert_icmp4
0032ba14 t ipcom_cmd_tracert_ntop
0032ba40 t ipcom_cmd_tracert_send_recv
0032bd28 T ipcom_cmd_tracert
0032c370 T ipcom_err_string
0032ca44 t ipcom_hash_can_move_obj
0032ca90 T ipcom_hash_new
0032cb14 T ipcom_hash_delete
0032cb58 t ipcom_hash_resize
0032cc18 T ipcom_hash_add
0032cd30 T ipcom_hash_remove
0032cea4 T ipcom_hash_for_each
0032cf48 T ipcom_hash_update
0032d040 t ipcom_pqueue_upheap
0032d0e8 t ipcom_pqueue_downheap
0032d1d0 T ipcom_pqueue_new
0032d23c T ipcom_pqueue_delete
0032d270 T ipcom_pqueue_insert
0032d30c T ipcom_pqueue_remove
0032d3c0 T ipcom_pqueue_remove_next
0032d3c8 T ipcom_pqueue_get_next
0032d3e8 T ipcom_pqueue_for_each
0032d444 T ipcom_pqueue_size
0032d44c T ipcom_pqueue_nop_store_index
0032d650 T ipcom_getsockaddrbyaddr
0032d88c T ipcom_getsockaddrbyaddrname
0032d988 t ipcom_getopt_longopt
0032da3c T ipcom_getopt_clear_r
0032da74 T ipcom_getopt_clear
0032da80 T ipcom_getopt_r
0032deb4 T ipcom_getopt
0032df8c t ipcom_auth_login_init
0032dfd4 t ipcom_auth_radius_init
0032e1b0 t ipcom_auth_radius_event_callback
0032e2bc t ipcom_auth_radius_request
0032e544 t ipcom_authd
0032e6dc T ipcom_auth_chap_login
0032e804 T ipcom_auth_login
0032eae4 t ipcom_auth_init
0032eb4c T ipcom_auth_useradd
0032ec44 T ipcom_auth_userdel
0032ecec T ipcom_auth_userget
0032edc0 T ipcom_auth_userlist
0032eeec T ipcom_errno_set
0032ef20 T ipcom_errno_get
0032ef24 t millisec2tick
0032ef78 t find_open_q
0032efe4 t ipcom_ipc_free_inqueue_msgs
0032f038 T ipcom_sleep
0032f068 T ipcom_millisleep
0032f0d0 T ipcom_getpid
0032f0d4 T ipcom_is_pid_valid
0032f0fc T ipcom_block_create
0032f148 T ipcom_block_delete
0032f194 T ipcom_block_wait
0032f2c0 T ipcom_block_post
0032f2c4 T ipcom_mutex_create
0032f30c T ipcom_mutex_delete
0032f358 T ipcom_sem_create
0032f3a0 T ipcom_sem_delete
0032f3ec t delete_open_q
0032f4c0 T ipcom_sem_getvalue
0032f4e8 T ipcom_vxworks_proc_free
0032f560 T ipcom_proc_exit
0032f5b8 T ipcom_proc_find
0032f5ec T ipcom_proc_attr_init
0032f60c T ipcom_proc_self
0032f68c T ipcom_proc_init
0032f690 T ipcom_proc_yield
0032f6c8 T ipcom_vxworks_task_del_hook
0032f708 T ipcom_proc_getprio
0032f760 T ipcom_proc_setprio
0032f7ac T ipcom_get_cpuid
0032f7b0 T ipcom_num_configured_cpus
0032f7b4 T ipcom_num_online_cpus
0032f808 T ipcom_cpu_is_online
0032f848 T ipcom_cpu_reserved_alloc
0032f850 T ipcom_cpu_reserved_free
0032f858 T ipcom_proc_cpu_affinity_set
0032f8fc T ipcom_proc_cpu_affinity_clr
0032f940 T ipcom_proc_acreate
0032fac0 T ipcom_proc_create
0032fb14 T ipcom_proc_cpu_affinity_get
0032fbb4 T ipcom_proc_cpu_affinity_set_all
0032fc8c T ipcom_mb
0032fc90 T ipcom_rmb
0032fc94 T ipcom_wmb
0032fc98 T ipcom_ipc_install
0032fd40 T ipcom_ipc_uninstall
0032fdd8 T ipcom_ipc_open
0032ff78 T ipcom_ipc_close
0032ff90 T ipcom_ipc_isopen
0032ffac T ipcom_ipc_malloc
00330008 T ipcom_ipc_free
00330030 T ipcom_ipc_size
00330048 T ipcom_ipc_send
0033010c T ipcom_ipc_receive
003302bc T ipcom_microtime
00330308 T ipcom_gettimeofday
00330378 T ipcom_settimeofday
003303d0 T ipcom_asctime_r_vxworks
00330420 T ipcom_ctime_r_vxworks
00330470 t ipcom_check_fs_devs
00330664 t ipcom_drv_eth_free_out_native_pkt
00330678 t ipnet_drv_eth_sync_with_end_flags
00330768 t ipcom_drv_eth_bind
003307f0 t ipcom_drv_eth_unbind
00330870 T ipcom_vxworks_pkt_pool_hdr_ctor
0033089c t ipcom_drv_eth_detach
00330998 t ipcom_drv_eth_shutdown_end2
00330a44 t ipcom_drv_eth_error_end2
00330b68 T ipcom_register_dev_name_mapping
00330c30 t ipcom_unregister_dev_name_mapping
00330ca4 T ipcom_drv_eth_exit
00330ddc t ipcom_drv_eth_ioctl
003312f0 t ipcom_drv_wlan_ioctl
003313cc T ipcom_get_ip_if_name
00331428 T ipcom_drv_eth_init
003318f8 t ipcom_drv_eth_bind_to_dev
00331994 t ipcom_drv_eth_bind_to_devs
00331ba8 T ipcom_drv_eth_create
00331c0c T ipcom_drv_eth_ip_attach
00332154 t ipcom_random_tmo_handler
00332164 t ipcom_random_bingo_lotto
00332180 t ipcom_random_get
00332208 t ipcom_egd
003322d4 t ipcom_egd_random
0033234c T ipcom_random
00332378 T ipcom_srandom
003323c8 T ipcom_random_init
00332448 T ipcom_rand
0033248c T ipcom_srand
00332490 T ipcom_random_seed_state
003324e0 T ipcom_in_checksum_update
003325e8 T ipcom_in_checksum_finish
0033260c T ipcom_in_checksum
0033264c T ipcom_in_checksum_memcpy
00332678 t ipcom_strerror_int
00332ac4 t ipcom_strerror_int_vxworks
00332b70 T ipcom_strerror_r
00332c08 T ipcom_strerror
003331fc T ipcom_getenv
00333200 T ipcom_setenv
0033325c T ipcom_unsetenv
003332b0 T ipcom_clearenv
003332b8 T ipcom_getenv_as_int
003332f8 T ipcom_setenv_as_int
00333368 t ipcom_gethostip
0033348c t ipcom_gethost_static
0033356c T ipcom_gethostbynamelocal
003335e0 T ipcom_gethostbyname
003336e8 T ipcom_gethostbyname_r
003337fc T ipcom_gethostbyaddrlocal
00333878 T ipcom_gethostbyaddr
00333934 T ipcom_gethostbyaddr_r
00333a00 T ipcom_getnameinfo
00333a04 T ipcom_getaddrinfo
00333a08 T ipcom_freeaddrinfo
00333a0c t ipcom_getaddrinfo_alloc
00333a88 T ipcom_getnameinfo2
00333d78 T ipcom_freeaddrinfo2
00333de0 T ipcom_getaddrinfo2
00334608 t ipcom_find_service_byname
003346c0 t ipcom_find_service_byport
00334738 T ipcom_getservbyname
003347b0 T ipcom_getservbyport
003348c8 T ipcom_sethostname
00334950 T ipcom_strcasecmp
003349d4 T ipcom_strncasecmp
00334a58 T ipcom_proc_vr_get
00334a68 T ipcom_proc_vr_set
00334a80 T ipcom_stdout
00334aa4 T ipcom_stderr
00334ac8 T ipcom_stdin
00334aec T ipcom_wait_queue_init
00334af0 T ipcom_wait_queue_is_empty
00334b00 T ipcom_wait_queue_add_current_proc
00334bb8 T ipcom_wait_queue_wakeup_one_proc
00334bf8 T ipcom_wait_queue_wakeup_all_procs
00334c38 T ipcom_fileclose
00334c3c T ipcom_fileread
00334c40 T ipcom_fileopen
00334c44 T ipcom_fstat
00334cd4 T ipcom_stat
00334d64 T ipcom_fopen
00334d68 T ipcom_fclose
00334d6c T ipcom_fwrite
00334d70 T ipcom_fread
00334d74 T ipcom_opendir
00334d78 T ipcom_readdir
00334ddc T ipcom_closedir
00334de0 T ipcom_fileno
00334e0c T ipcom_unlink
00334e10 T ipcom_ferror
00334e48 T ipcom_feof
00334e80 T ipcom_fseek
00334e84 T ipcom_ftell
00334e88 T ipcom_lseek
00334e8c T ipcom_rename
00334e90 T ipcom_fdopen
00334e94 T ipcom_getcwd
00334e98 T ipcom_mkdir
00334ed8 T ipcom_rmdir
00334fbc T ipcom_chdir
00335004 T ipcom_fflush
00335008 T ipcom_filewrite
0033500c T ipcom_rewind
00335018 T ipcom_shell_fread
0033501c T ipcom_shell_fwrite
00335020 t ipcom_pshell_spawn_proxy
0033511c t ipcom_pshell_proxy_data
00335218 t ipcom_pshell_create_pty
003353e8 t ipcom_pshell_stdio_proxy
00335654 t ipcom_vxworks_shell_logout_cb
0033565c t ipcom_vxshell_login_task
003356f4 T ipcom_start_extshell
00335998 T ipcom_stdio_set_echo
00335de4 t ipcom_psock_ipoptname_to_optname
00335e98 T ipcom_socket_usr
00335e9c T ipcom_socketclose_usr
00335ebc T ipcom_shutdown_usr
00335edc T ipcom_bind_usr
00335efc T ipcom_connect_usr
00335f00 T ipcom_listen_usr
00335f04 T ipcom_accept_usr
00335f24 T ipcom_setsockopt_usr
00335f54 T ipcom_getsockopt_usr
00335f84 T ipcom_getsockname_usr
00335f88 T ipcom_getpeername_usr
00335f8c T ipcom_socketwritev_usr
00335f90 T ipcom_send_usr
00335f94 T ipcom_socketwrite_usr
00335f9c T ipcom_sendto_usr
00335fa0 T ipcom_socketread_usr
00335fa8 T ipcom_recv_usr
00335fac T ipcom_recvfrom_usr
00335fb0 T ipcom_recvmsg_usr
00335fb4 T ipcom_sendmsg_usr
00335fb8 T ipcom_socketselect_usr
00335fd8 T ipcom_socketioctl_usr
00336230 T ipcom_vxshell_add_cmd
003363e4 t ipcom_vxworks_rtp_del_hook
00336408 T ipcom_initd
00336478 T ipcom_create
003365dc T ipcom_run_cmd
003366ec T ipcom_is_stack_task
00336738 T ipcom_ima_stack_task
0033688c T vxfs_ramdisk_init
003369e8 t ipcrypto_setup_lock_functions
00336a88 t ipcrypto_lock_callback
00336af4 T ipcrypto_rnd_seed
00336b6c T ipcrypto_cmd_memory
00336b74 T ipcrypto_cmds_startup
00336ba8 T ipcrypto_create
00336c24 T ipcrypto_start
00336c78 T ipcrypto_version
00336cfc T CRYPTO_num_locks
00336d04 T CRYPTO_get_locking_callback
00336d0c T CRYPTO_get_add_lock_callback
00336d14 T CRYPTO_set_locking_callback
00336d1c T CRYPTO_set_add_lock_callback
00336d24 T CRYPTO_get_id_callback
00336d2c T CRYPTO_set_id_callback
00336d34 T CRYPTO_thread_id
00336d74 T int_CRYPTO_set_do_dynlock_callback
00336d7c T CRYPTO_lock
00336dcc T CRYPTO_add_lock
00336e4c T OPENSSL_ia32cap_loc
00336e54 T OPENSSL_cpuid_setup
00336e58 T OPENSSL_showfatal
00336efc T OPENSSL_isservice
00336f04 T OpenSSLDie
00336f40 T OPENSSL_stderr
00336f7c t default_malloc_ex
00336fa4 t default_realloc_ex
00336fcc t default_malloc_locked_ex
00336ff4 T CRYPTO_set_mem_functions
00337068 T CRYPTO_set_mem_ex_functions
003370c8 T CRYPTO_set_locked_mem_functions
00337110 T CRYPTO_set_locked_mem_ex_functions
00337154 T CRYPTO_set_mem_debug_functions
00337184 T CRYPTO_set_mem_info_functions
00337194 T CRYPTO_get_mem_functions
003371f8 T CRYPTO_get_mem_ex_functions
0033725c T CRYPTO_get_locked_mem_functions
00337298 T CRYPTO_get_locked_mem_ex_functions
003372d4 T CRYPTO_get_mem_debug_functions
00337328 T CRYPTO_malloc_locked
003373e8 T CRYPTO_free_locked
0033745c T CRYPTO_malloc
0033751c T CRYPTO_realloc
003375f4 T CRYPTO_realloc_clean
003376ec T CRYPTO_free
00337760 T CRYPTO_remalloc
003377a8 T CRYPTO_set_mem_debug_options
003377e0 T CRYPTO_get_mem_debug_options
00337820 T CRYPTO_push_info_
00337860 T CRYPTO_pop_info
003378a0 T CRYPTO_remove_all_info
00337928 T OPENSSL_cleanse
00337994 T MD5_Init
003379dc T md5_block_data_order
00338928 T MD5_Final
00338a88 T MD5_Transform
00338a90 T MD5_Update
00338bb4 T SHA1_Init
00338c08 t sha1_block_data_order
0033aac0 T SHA1_Final
0033ac40 T SHA1_Transform
0033ac48 T SHA1_Update
0033ad6c T RIPEMD160_Init
0033adc0 T ripemd160_block_data_order
0033d158 T RIPEMD160_Final
0033d2d8 T RIPEMD160_Transform
0033d2e0 T RIPEMD160_Update
0033d404 T BF_set_key
0033d538 T BF_options
0033d544 T BF_ecb_encrypt
0033d63c T BF_cfb64_encrypt
0033d858 T BF_ofb64_encrypt
0033da00 T BF_encrypt
0033de68 T BF_decrypt
0033e2d0 T BF_cbc_encrypt
0033e754 T CAST_set_key
0033f078 T CAST_ecb_encrypt
0033f160 T CAST_cfb64_encrypt
0033f37c T CAST_ofb64_encrypt
0033f524 T CAST_encrypt
0033fa48 T CAST_decrypt
0033ff6c T CAST_cbc_encrypt
003403f0 t BN_STACK_init
00340404 t BN_STACK_finish
0034041c t BN_STACK_push
003404d8 T BN_CTX_start
00340554 t BN_STACK_pop
00340574 t BN_POOL_init
00340590 T BN_CTX_new
0034060c t BN_POOL_finish
0034067c T BN_CTX_free
003406c0 t BN_POOL_reset
00340728 T BN_CTX_init
00340768 t BN_POOL_get
00340874 T BN_CTX_get
00340914 t BN_POOL_release
0034095c T BN_CTX_end
00340a14 T BN_exp
00340b94 T BN_mod_exp_recp
00340eec t MOD_EXP_CTIME_COPY_TO_PREBUF
00340fe8 t MOD_EXP_CTIME_COPY_FROM_PREBUF
003410ac T BN_mod_exp_mont_consttime
003414b8 T BN_mod_exp_mont
003418a0 T BN_mod_exp_mont_word
00341c64 T BN_mod_exp
00341ce4 T BN_mod_exp_simple
00342020 T BN_bn2hex
00342130 T BN_bn2dec
00342330 T BN_hex2bn
00342520 T BN_dec2bn
003426ec T BN_print
003427d0 T BN_print_fp
00342894 T bn_sqr_normal
00342984 T bn_sqr_recursive
00342b38 T BN_sqr
00342d08 T BN_uadd
00342e28 T BN_usub
00342ff0 T BN_add
003430a0 T BN_sub
00343210 T BN_set_params
003432a4 T BN_get_params
003432ec T BN_value_one
003432f8 T BN_num_bits_word
00343358 T BN_num_bits
003433a8 T BN_clear_free
00343430 T BN_free
003434a0 T BN_init
003434ac T BN_new
00343524 t bn_expand_internal
00343648 T bn_expand2
003436a4 T BN_copy
003437a0 T BN_dup
00343808 T bn_dup_expand
00343884 T BN_swap
00343908 T BN_clear
00343958 T BN_get_word
00343988 T BN_set_word
00343a04 T BN_bin2bn
00343b30 T BN_bn2bin
00343bac T BN_ucmp
00343c14 T BN_cmp
00343cfc T BN_set_bit
00343dd8 T BN_clear_bit
00343e6c T BN_is_bit_set
00343ec0 T BN_mask_bits
00343f78 T BN_set_negative
00343fa0 T bn_cmp_words
0034401c T bn_cmp_part_words
003440fc T bn_sub_part_words
00344330 T bn_add_part_words
00344608 T bn_mul_normal
0034470c T bn_mul_recursive
00344b58 T bn_mul_high
00344f68 T bn_mul_part_recursive
003453d8 T BN_mul
003456a4 T bn_mul_low_normal
00345750 T bn_mul_low_recursive
00345868 t bnrand
00345a80 T BN_rand
00345ab4 T BN_pseudo_rand
00345ae8 T BN_bntest_rand
00345b1c t bn_rand_range
00345d0c T BN_rand_range
00345d38 T BN_pseudo_rand_range
00345e04 t BN_div_no_branch
003462b8 T BN_div
003467a8 t euclid
003468fc T BN_gcd
003469e0 t BN_mod_inverse_no_branch
00346cf8 T BN_mod_inverse
003473b8 T BN_nnmod
00347448 T BN_mod_add
00347494 T BN_mod_add_quick
00347508 T BN_mod_sub
00347554 T BN_mod_sub_quick
003475c0 T BN_mod_mul
00347668 T BN_mod_sqr
003476bc T BN_mod_lshift1
00347708 T BN_mod_lshift1_quick
0034777c T BN_mod_lshift_quick
00347890 T BN_mod_lshift
00347980 T BN_RECP_CTX_init
003479c0 T BN_RECP_CTX_new
00347a18 T BN_RECP_CTX_free
00347a64 T BN_RECP_CTX_set
00347ad0 T BN_reciprocal
00347b54 T BN_div_recp
00347dc0 T BN_mod_mul_reciprocal
00347ec4 T BN_mod_word
00347f3c T BN_div_word
00348024 T BN_add_word
00348158 T BN_sub_word
00348264 T BN_mul_word
00348314 T BN_from_montgomery
003486d0 T BN_mod_mul_montgomery
00348778 T BN_MONT_CTX_init
003487d0 T BN_MONT_CTX_new
00348828 T BN_MONT_CTX_free
00348880 T BN_MONT_CTX_set
00348a4c T BN_MONT_CTX_copy
00348af0 T BN_MONT_CTX_set_locked
00348c88 T BN_GENCB_call
00348d30 t witness
00348e2c T BN_is_prime_fasttest_ex
00349224 T BN_is_prime_ex
00349230 t probable_prime
00349300 t probable_prime_dh
00349428 t probable_prime_dh_safe
003495e4 T BN_generate_prime_ex
00349858 T BN_lshift1
00349980 T BN_rshift1
00349a9c T BN_lshift
00349c18 T BN_rshift
00349d90 T bn_sqr_comba4
00349ee0 T bn_sqr_comba8
0034a3f0 T bn_mul_comba4
0034a5c0 T bn_mul_comba8
0034acd0 T bn_sub_words
0034acec t Lppcasm_sub_mainloop
0034ad00 t Lppcasm_sub_adios
0034ad10 T bn_add_words
0034ad2c t Lppcasm_add_mainloop
0034ad40 t Lppcasm_add_adios
0034ad50 T bn_div_words
0034ad60 t Lppcasm_div1
0034ad7c t Lppcasm_div2
0034ad88 t Lppcasm_div3
0034ada4 t Lppcasm_div4
0034adb0 t Lppcasm_divouterloop
0034adcc t Lppcasm_div5
0034add0 t Lppcasm_div6
0034addc t Lppcasm_divinnerloop
0034ae10 t Lppcasm_divinnerexit
0034ae28 t Lppcasm_div7
0034ae3c t Lppcasm_div8
0034ae58 t Lppcasm_div9
0034ae70 T bn_sqr_words
0034ae84 t Lppcasm_sqr_mainloop
0034ae9c t Lppcasm_sqr_adios
0034aeb0 T bn_mul_words
0034aec4 t Lppcasm_mw_LOOP
0034af24 t Lppcasm_mw_REM
0034af98 t Lppcasm_mw_OVER
0034afb0 T bn_mul_add_words
0034afc4 t Lppcasm_maw_mainloop
0034b054 t Lppcasm_maw_leftover
0034b0dc t Lppcasm_maw_adios
0034b0f0 T ENGINE_load_builtin_engines
0034b110 t int_free_str
0034b114 t dynamic_data_ctx_free_func
0034b190 t dynamic_set_data_ctx
0034b2ec t dynamic_get_data_ctx
0034b3ec t engine_dynamic
0034b4d0 T ENGINE_load_dynamic
0034b510 t dynamic_init
0034b518 t dynamic_finish
0034b520 t int_load
0034b5f0 t dynamic_load
0034b884 t dynamic_ctrl
0034bd48 T BUF_memdup
0034bdd4 T BUF_strlcpy
0034be4c T BUF_strndup
0034bec8 T BUF_strdup
0034bf14 T BUF_strlcat
0034bfbc T BIO_set
0034c068 T BIO_new
0034c0f8 T BIO_free
0034c1bc T BIO_vfree
0034c1c0 T BIO_clear_flags
0034c1d0 T BIO_test_flags
0034c1dc T BIO_set_flags
0034c1ec T BIO_get_callback
0034c1f4 T BIO_set_callback
0034c1fc T BIO_set_callback_arg
0034c204 T BIO_get_callback_arg
0034c20c T BIO_method_name
0034c218 T BIO_method_type
0034c224 T BIO_read
0034c348 T BIO_write
0034c474 T BIO_puts
0034c590 T BIO_gets
0034c6a4 T BIO_indent
0034c71c T BIO_ctrl
0034c810 T BIO_ptr_ctrl
0034c850 T BIO_int_ctrl
0034c878 T BIO_callback_ctrl
0034c964 T BIO_ctrl_pending
0034c974 T BIO_ctrl_wpending
0034c984 T BIO_push
0034c9fc T BIO_pop
0034ca84 T BIO_get_retry_BIO
0034cabc T BIO_get_retry_reason
0034cac4 T BIO_find_type
0034cb10 T BIO_next
0034cb28 T BIO_free_all
0034cb78 T BIO_dup_chain
0034cc68 T BIO_copy_next_retry
0034cc8c T BIO_get_ex_new_index
0034cca8 T BIO_set_ex_data
0034ccb0 T BIO_get_ex_data
0034ccb8 T BIO_number_read
0034ccd0 T BIO_number_written
0034cd3c T BIO_s_file
0034cd48 T BIO_new_fp
0034cda4 T BIO_new_file
0034cea8 t file_new
0034cec4 t file_free
0034cf38 t file_read
0034cfe8 t file_write
0034d054 t file_ctrl
0034d2cc t file_gets
0034d334 t file_puts
0034d44c t abs_val
0034d468 t pow_10
0034d488 t roundv
0034d4d4 t doapr_outch
0034d5c8 t fmtfp
0034d93c t fmtint
0034dc08 t fmtstr
0034dd3c t _dopr
0034e498 T BIO_vprintf
0034e550 T BIO_printf
0034e5e0 T BIO_vsnprintf
0034e654 T BIO_snprintf
0034e77c T sk_set_cmp_func
0034e79c T sk_new
0034e84c T sk_new_null
0034e854 T sk_insert
0034e944 T sk_delete
0034e9b0 T sk_delete_ptr
0034ea0c T sk_push
0034ea20 T sk_unshift
0034ea28 T sk_shift
0034ea50 T sk_pop
0034ea98 T sk_zero
0034eae8 T sk_free
0034eb2c T sk_pop_free
0034eb94 T sk_dup
0034ec48 T sk_num
0034ec60 T sk_value
0034ec94 T sk_set
0034eccc T sk_sort
0034ed20 t internal_find
0034ee00 T sk_find_ex
0034ee08 T sk_find
0034ee10 T sk_is_sorted
0034ee78 T RAND_set_rand_method
0034eec0 T RAND_get_rand_method
0034ef34 T RAND_set_rand_engine
0034efa8 T RAND_cleanup
0034eff4 T RAND_seed
0034f03c T RAND_add
0034f09c T RAND_bytes
0034f0ec T RAND_pseudo_bytes
0034f13c T RAND_status
0034f188 T ERR_put_error
0034f28c T ERR_clear_error
0034f304 t get_error_values
0034f4b4 T ERR_peek_last_error_line_data
0034f4d0 T ERR_peek_last_error_line
0034f4ec T ERR_peek_last_error
0034f508 T ERR_peek_error_line_data
0034f524 T ERR_peek_error_line
0034f540 T ERR_peek_error
0034f55c T ERR_get_error_line_data
0034f578 T ERR_get_error_line
0034f594 T ERR_get_error
0034f5b0 T ERR_set_error_data
0034f614 T ERR_add_error_data
0034f74c T ERR_set_mark
0034f79c T ERR_pop_to_mark
0034f910 T ERR_load_crypto_strings
0034f980 t err_fns_check
0034f9f0 T ERR_get_implementation
0034fa14 T ERR_set_implementation
0034fa94 t int_err_get
0034fb54 t int_err_del
0034fbb4 t int_err_get_item
0034fc50 t int_err_set_item
0034fcec t int_err_del_item
0034fd88 t int_thread_get
0034fe54 t int_thread_release
0034feb8 t int_thread_get_item
0034ff64 t int_thread_set_item
00350010 t int_err_get_next_lib
00350074 t ERR_STATE_free
003500d8 t int_thread_del_item
003501bc t err_load_strings
00350234 T ERR_load_strings
00350274 T ERR_unload_strings
003502ec T ERR_free_strings
0035031c T ERR_get_string_table
00350350 T ERR_get_err_state_table
00350384 T ERR_release_err_state_table
003503c4 T ERR_lib_error_string
00350424 T ERR_func_error_string
00350488 T ERR_reason_error_string
00350510 t err_hash
00350540 t err_cmp
00350550 t pid_hash
0035055c t pid_cmp
0035056c T ERR_remove_state
003505c0 T ERR_get_state
003506c0 T ERR_get_next_error_library
0035076c t build_SYS_str_reasons
003508a4 T ERR_load_ERR_strings
00350df0 t sn_cmp
00350e04 t ln_cmp
00350e18 t add_hash
00350ef0 t add_cmp
00350ff4 t init_added
00351044 t cleanup1
00351060 t cleanup3
003510a4 t cleanup1_LHASH_DOALL
003510a8 t cleanup2_LHASH_DOALL
003510bc t cleanup3_LHASH_DOALL
003510c0 T OBJ_cleanup
00351130 T OBJ_new_nid
00351144 T OBJ_add_object
00351308 T OBJ_nid2obj
003513c8 T OBJ_nid2sn
0035148c T OBJ_nid2ln
00351550 t obj_cmp
00351594 T OBJ_bsearch_ex
00351690 T OBJ_bsearch
00351698 T OBJ_obj2nid
00351740 T OBJ_obj2txt
00351a38 T OBJ_ln2nid
00351ad0 T OBJ_sn2nid
00351b68 T OBJ_txt2obj
00351c5c T OBJ_txt2nid
00351ca8 T OBJ_create
00351d88 T OBJ_create_objects
00356820 T OBJ_dup
003569c4 T OBJ_cmp
00356a58 T ERR_load_OBJ_strings
00356b20 T ERR_load_EVP_strings
003572a0 T OPENSSL_add_all_algorithms_noconf
003572c4 T OpenSSL_add_all_ciphers
00357748 T OpenSSL_add_all_digests
0035791c T PKCS5_PBE_add
00357a24 T PKCS5_PBE_keyivgen
00357d84 T EVP_CIPHER_CTX_init
00357d90 t do_evp_enc_engine
00357e3c T EVP_CIPHER_CTX_cleanup
00357ef4 T EVP_Cipher
00357f28 T EVP_CIPHER_CTX_ctrl
00357fc4 T EVP_CIPHER_CTX_flags
00357fd0 T EVP_CIPHER_CTX_iv_length
00357fdc T EVP_CipherInit_ex
003582d4 T EVP_CIPHER_nid
00358410 T i2d_ASN1_OBJECT
003584ac T a2d_ASN1_OBJECT
00358860 T i2t_ASN1_OBJECT
00358868 T i2a_ASN1_OBJECT
00358944 T ASN1_OBJECT_new
003589c0 T ASN1_OBJECT_free
00358a60 T c2i_ASN1_OBJECT
00358b8c T d2i_ASN1_OBJECT
00358c48 T ASN1_OBJECT_create
00358cec T ERR_load_ASN1_strings
00359d20 t _asn1_check_infinite_end
00359d6c T ASN1_check_infinite_end
00359d70 T ASN1_const_check_infinite_end
00359d74 t asn1_get_length
00359e50 T ASN1_get_object
00359f8c T ASN1_put_eoc
00359fac t asn1_put_length
0035a00c T ASN1_put_object
0035a0f8 T ASN1_object_size
0035a140 t _asn1_Finish
0035a1c0 T asn1_Finish
0035a1c4 T asn1_const_Finish
0035a1c8 T asn1_GetSequence
0035a288 T ASN1_STRING_set
0035a380 T ASN1_STRING_set0
0035a3bc T ASN1_STRING_type_new
0035a438 T ASN1_STRING_new
0035a440 T ASN1_STRING_free
0035a484 T ASN1_STRING_dup
0035a508 T ASN1_STRING_cmp
0035a560 T asn1_add_error
0035a5e4 T ASN1_STRING_length
0035a5ec T ASN1_STRING_length_set
0035a5f4 T ASN1_STRING_type
0035a5fc T ASN1_STRING_data
0035a670 T d2i_PBEPARAM
0035a67c T i2d_PBEPARAM
0035a688 T PBEPARAM_new
0035a694 T PBEPARAM_free
0035a6a0 T PKCS5_pbe_set
0035a904 t der_cmp
0035a968 T asn1_ex_i2c
0035ac0c t asn1_i2d_ex_primitive
0035ad28 T ASN1_item_ex_i2d
0035b0a4 t asn1_set_seq_out
0035b2e0 t asn1_template_ex_i2d
0035b588 t asn1_item_flags_i2d
0035b63c T ASN1_item_i2d
0035b644 T ASN1_item_ndef_i2d
0035b64c T ASN1_template_i2d
0035b6ac T ASN1_primitive_free
0035b7d0 t asn1_item_combine_free
0035ba14 T ASN1_template_free
0035baac T ASN1_item_free
0035bad8 T ASN1_item_ex_free
0035bae0 T ASN1_INTEGER_dup
0035bae4 T ASN1_INTEGER_cmp
0035bb48 T i2c_ASN1_INTEGER
0035bcf4 T c2i_ASN1_INTEGER
0035bef0 T d2i_ASN1_UINTEGER
0035c080 T ASN1_INTEGER_set
0035c1a8 T ASN1_INTEGER_get
0035c240 T BN_to_ASN1_INTEGER
0035c360 T ASN1_INTEGER_to_BN
0035c480 T ASN1_primitive_new
0035c5b4 T asn1_primitive_clear
0035c634 t asn1_item_clear
0035c6e0 t asn1_template_clear
0035c71c t asn1_item_ex_combine_new
0035ca18 T ASN1_template_new
0035cad4 T ASN1_item_ex_new
0035cadc T ASN1_item_new
0035cb74 T ERR_load_PEM_strings
0035ce8c T ERR_load_X509_strings
0035d450 T ERR_load_X509V3_strings
0035de50 T ERR_load_CONF_strings
0035e0f0 T ERR_load_PKCS7_strings
0035e714 T PKCS12_PBE_add
0035e804 T PKCS12_PBE_keyivgen
0035ea68 T PKCS12_key_gen_uni
0035ee40 T PKCS12_key_gen_asc
0035ef64 T asc2uni
0035f024 T uni2asc
0035f0c4 T i2d_PKCS12_bio
0035f0dc T i2d_PKCS12_fp
0035f0f4 T d2i_PKCS12_bio
0035f10c T d2i_PKCS12_fp
0035f124 T PKCS12_x5092certbag
0035f138 T PKCS12_x509crl2certbag
0035f14c T PKCS12_certbag2x509
0035f1bc T PKCS12_certbag2x509crl
0035f280 T ERR_load_PKCS12_strings
0035f6b0 T ERR_load_OCSP_strings
0035facc T ERR_load_UI_strings
0035fc8c t impl_check
0035fcec T CRYPTO_get_ex_data_implementation
0035fd1c T CRYPTO_set_ex_data_implementation
0035fd98 t ex_hash_cb
0035fda0 t ex_cmp_cb
0035fdb0 t ex_data_check
0035fe3c t def_cleanup_util_cb
0035fe40 t def_cleanup_cb
0035fe7c t def_get_class
0035ff7c t def_add_index
003600a4 t int_new_class
00360108 t int_cleanup
00360160 t int_get_new_index
003601b8 T CRYPTO_ex_data_new_class
003601f4 T CRYPTO_cleanup_all_ex_data
00360230 T CRYPTO_get_ex_new_index
00360298 T CRYPTO_new_ex_data
003602e8 T CRYPTO_dup_ex_data
00360338 T CRYPTO_free_ex_data
00360388 T CRYPTO_set_ex_data
00360438 T CRYPTO_get_ex_data
003604a0 t int_free_ex_data
00360618 t int_dup_ex_data
003607b4 t int_new_ex_data
003609bc T ERR_load_CRYPTO_strings
00360ad4 T CRYPTO_get_new_lockid
00360b88 T CRYPTO_get_new_dynlockid
00360d8c T CRYPTO_destroy_dynlockid
00360ea4 T CRYPTO_get_dynlock_value
00360f60 T CRYPTO_get_dynlock_create_callback
00360f68 T CRYPTO_get_dynlock_lock_callback
00360f70 T CRYPTO_get_dynlock_destroy_callback
00360f78 T CRYPTO_set_dynlock_create_callback
00360f80 t do_dynlock
00361000 T CRYPTO_set_dynlock_lock_callback
0036104c T CRYPTO_set_dynlock_destroy_callback
00361054 T CRYPTO_get_lock_name
003612c0 t init
003612c8 t update
003612d0 t final
003612e0 T EVP_md2
003612ec t init
003612f4 t update
003612fc t final
0036130c T EVP_md4
00361318 t init
00361320 t update
00361328 t final
00361338 T EVP_md5
00361344 t init
0036134c t update
00361354 t final
00361364 T EVP_sha
00361370 t init
00361378 t update
00361380 t final
00361390 T EVP_sha1
0036139c t init224
003613a4 t init256
003613ac t update256
003613b4 t final256
003613c4 T EVP_sha224
003613d0 T EVP_sha256
003613dc t init384
003613e4 t init512
003613ec t update512
003613f4 t final512
00361404 T EVP_sha384
00361410 T EVP_sha512
0036141c T PKCS5_PBKDF2_HMAC_SHA1
003615a0 T PKCS5_v2_PBE_keyivgen
00361980 t init
00361988 t update
00361990 t final
003619a0 T EVP_ripemd160
003619ac t rc2_cbc_cipher
003619f4 t rc2_cfb64_cipher
00361a40 t rc2_ecb_cipher
00361aac t rc2_ofb_cipher
00361af4 T EVP_rc2_cbc
00361b00 T EVP_rc2_cfb64
00361b0c T EVP_rc2_ofb
00361b18 T EVP_rc2_ecb
00361b24 T EVP_rc2_64_cbc
00361b30 T EVP_rc2_40_cbc
00361b3c t rc2_init_key
00361b90 t rc2_meth_to_magic
00361bf4 t rc2_magic_to_meth
00361c60 t rc2_get_asn1_type_and_iv
00361d40 t rc2_set_asn1_type_and_iv
00361d94 t rc2_ctrl
00361e88 T EVP_rc4
00361e94 T EVP_rc4_40
00361ea0 t rc4_init_key
00361eec t rc4_cipher
00361f20 T RC4
00362370 t bf_cbc_cipher
003623b4 t bf_cfb64_cipher
003623fc t bf_ecb_cipher
00362464 t bf_ofb_cipher
003624a8 T EVP_bf_cbc
003624b4 T EVP_bf_cfb64
003624c0 T EVP_bf_ofb
003624cc T EVP_bf_ecb
003624d8 t bf_init_key
00362524 t cast5_cbc_cipher
00362568 t cast5_cfb64_cipher
003625b0 t cast5_ecb_cipher
00362618 t cast5_ofb_cipher
0036265c T EVP_cast5_cbc
00362668 T EVP_cast5_cfb64
00362674 T EVP_cast5_ofb
00362680 T EVP_cast5_ecb
0036268c t cast_init_key
003626d8 T ERR_load_BN_strings
00362abc T RSA_sign
00362ce8 T RSA_verify
0036306c T ERR_load_RSA_strings
003637ec T ERR_load_DSA_strings
003639ec t init
003639f4 t update
003639fc t final
00363a0c T EVP_dss
00363a18 t init
00363a20 t update
00363a28 t final
00363a38 T EVP_dss1
00363a44 T ERR_load_DH_strings
00363b98 T ERR_load_DSO_strings
00363f9c T DSO_set_default_method
00363fa4 T DSO_get_default_method
00363fac T DSO_get_method
00363fb4 T DSO_set_method
00363fc4 T DSO_new_method
003640d8 T DSO_new
003640e0 T DSO_free
00364228 T DSO_flags
00364240 T DSO_up_ref
003642a8 T DSO_bind_var
0036434c T DSO_bind_func
003643f4 T DSO_ctrl
003644cc T DSO_set_name_converter
0036452c T DSO_get_filename
00364578 T DSO_set_filename
00364678 T DSO_load
00364824 T DSO_merge
003648bc T DSO_convert_filename
003649e4 T DSO_get_loaded_filename
00364ad0 T DSO_METHOD_openssl
00364ad4 T ERR_load_ENGINE_strings
003650b8 T ENGINE_new
00365144 T engine_set_all_null
00365190 T engine_free_util
0036525c T ENGINE_free
00365264 t int_cleanup_check
003652b4 t int_cleanup_item
00365304 T engine_cleanup_add_first
0036535c T engine_cleanup_add_last
003653b0 t engine_cleanup_cb_free
003653e8 T ENGINE_cleanup
00365430 T ENGINE_get_ex_new_index
0036544c T ENGINE_set_ex_data
00365454 T ENGINE_get_ex_data
0036545c T ENGINE_set_id
003654ac T ENGINE_set_name
003654fc T ENGINE_set_destroy_function
00365508 T ENGINE_set_init_function
00365514 T ENGINE_set_finish_function
00365520 T ENGINE_set_ctrl_function
0036552c T ENGINE_set_flags
00365538 T ENGINE_set_cmd_defns
00365544 T ENGINE_get_id
0036554c T ENGINE_get_name
00365554 T ENGINE_get_destroy_function
0036555c T ENGINE_get_init_function
00365564 T ENGINE_get_finish_function
0036556c T ENGINE_get_ctrl_function
00365574 T ENGINE_get_flags
0036557c T ENGINE_get_cmd_defns
00365584 T ENGINE_get_static_state
003655e0 t engine_list_add
00365724 t engine_list_remove
00365810 T ENGINE_get_first
00365880 T ENGINE_get_last
003658f0 T ENGINE_get_next
0036599c T ENGINE_get_prev
00365a48 T ENGINE_add
00365b3c T ENGINE_remove
00365bfc t engine_list_cleanup
00365c2c t engine_cpy
00365cb8 T ENGINE_by_id
00365eb0 T ENGINE_up_ref
00366014 T engine_unlocked_init
00366078 T engine_unlocked_finish
00366158 T ENGINE_init
003661e8 T ENGINE_finish
003662fc t int_ctrl_cmd_is_null
00366324 t int_ctrl_cmd_by_name
00366394 t int_ctrl_cmd_by_num
003663f8 t int_ctrl_helper
0036665c T ENGINE_ctrl
00366814 T ENGINE_cmd_is_executable
00366884 T ENGINE_ctrl_cmd
00366968 T ENGINE_ctrl_cmd_string
00366c4c T ENGINE_load_padlock
00366c50 T ENGINE_unregister_RAND
00366c5c t engine_unregister_all_RAND
00366c64 T ENGINE_register_RAND
00366c98 T ENGINE_register_all_RAND
00366cd8 T ENGINE_set_default_RAND
00366d0c T ENGINE_get_default_RAND
00366d18 T ENGINE_get_RAND
00366d20 T ENGINE_set_RAND
00366d2c T ENGINE_unregister_ciphers
00366d38 t engine_unregister_all_ciphers
00366d40 T ENGINE_register_ciphers
00366dac T ENGINE_register_all_ciphers
00366dec T ENGINE_set_default_ciphers
00366e58 T ENGINE_get_cipher_engine
00366e64 T ENGINE_get_ciphers
00366e6c T ENGINE_get_cipher
00366ee0 T ENGINE_set_ciphers
00366f44 t aes_128_cbc_cipher
00366f88 t aes_128_cfb128_cipher
00366fd0 t aes_128_ecb_cipher
00367038 t aes_128_ofb_cipher
0036707c T EVP_aes_128_cbc
00367088 T EVP_aes_128_cfb128
00367094 T EVP_aes_128_ofb
003670a0 T EVP_aes_128_ecb
003670ac t aes_192_cbc_cipher
003670f0 t aes_192_cfb128_cipher
00367138 t aes_192_ecb_cipher
003671a0 t aes_192_ofb_cipher
003671e4 T EVP_aes_192_cbc
003671f0 T EVP_aes_192_cfb128
003671fc T EVP_aes_192_ofb
00367208 T EVP_aes_192_ecb
00367214 t aes_256_cbc_cipher
00367258 t aes_256_cfb128_cipher
003672a0 t aes_256_ecb_cipher
00367308 t aes_256_ofb_cipher
0036734c T EVP_aes_256_cbc
00367358 T EVP_aes_256_cfb128
00367364 T EVP_aes_256_ofb
00367370 T EVP_aes_256_ecb
0036737c t aes_128_cfb1_cipher
003673d8 T EVP_aes_128_cfb1
003673e4 t aes_192_cfb1_cipher
00367440 T EVP_aes_192_cfb1
0036744c t aes_256_cfb1_cipher
003674a8 T EVP_aes_256_cfb1
003674b4 t aes_128_cfb8_cipher
003674fc T EVP_aes_128_cfb8
00367508 t aes_192_cfb8_cipher
00367550 T EVP_aes_192_cfb8
0036755c t aes_256_cfb8_cipher
003675a4 T EVP_aes_256_cfb8
003675b0 t aes_init_key
003676ac T AES_set_encrypt_key
00367b3c T AES_set_decrypt_key
00367d78 T AES_encrypt
003681a8 T AES_decrypt
003685d4 T AES_cbc_encrypt
00368878 T ERR_load_BUF_strings
00368918 T ERR_load_BIO_strings
00368d18 T lh_new
00368e28 T lh_free
00368e9c t doall_util_fn
00368f28 T lh_doall
00368f3c T lh_doall_arg
00368f50 t expand
0036908c t contract
0036919c t getrn
00369278 T lh_retrieve
003692e4 T lh_delete
003693a4 T lh_insert
0036948c T lh_strhash
003694fc T lh_num_items
00369564 T RAND_SSLeay
00369570 t ssleay_rand_cleanup
003695d4 t ssleay_rand_add
003698f8 t ssleay_rand_seed
00369934 t ssleay_rand_bytes
00369d24 t ssleay_rand_pseudo_bytes
00369d78 t ssleay_rand_status
00369f68 T ERR_load_RAND_strings
0036a12c T RAND_poll
0036a258 T OBJ_NAME_init
0036a2bc T OBJ_NAME_new_index
0036a40c t obj_name_cmp
0036a484 t obj_name_hash
0036a500 T OBJ_NAME_get
0036a5b4 T OBJ_NAME_add
0036a6b4 T OBJ_NAME_remove
0036a760 t do_all_fn
0036a7a4 t do_all_fn_LHASH_DOALL_ARG
0036a7a8 T OBJ_NAME_do_all
0036a7e4 t do_all_sorted_fn
0036a810 t do_all_sorted_cmp
0036a824 T OBJ_NAME_do_all_sorted
0036a8e0 t names_lh_free
0036a930 t names_lh_free_LHASH_DOALL
0036a934 t name_funcs_free
0036a938 T OBJ_NAME_cleanup
0036aa1c T EVP_MD_CTX_init
0036aa28 T EVP_MD_CTX_create
0036aa74 t do_evp_md_engine
0036ab78 T EVP_DigestInit_ex
0036ac68 T EVP_DigestInit
0036acb4 T EVP_DigestUpdate
0036ace8 T EVP_DigestFinal_ex
0036ada0 T EVP_MD_CTX_cleanup
0036ae64 T EVP_MD_CTX_destroy
0036ae94 T EVP_Digest
0036af40 T EVP_MD_CTX_copy_ex
0036b080 T EVP_MD_CTX_copy
0036b0c8 T EVP_DigestFinal
0036b1d4 T EVP_CIPHER_CTX_new
0036b21c T EVP_CipherInit
0036b278 T EVP_EncryptInit
0036b280 T EVP_EncryptInit_ex
0036b288 T EVP_DecryptInit
0036b290 T EVP_DecryptInit_ex
0036b298 T EVP_EncryptUpdate
0036b460 T EVP_EncryptFinal_ex
0036b54c T EVP_EncryptFinal
0036b56c T EVP_DecryptUpdate
0036b6a0 T EVP_CipherUpdate
0036b6d4 T EVP_DecryptFinal_ex
0036b850 T EVP_DecryptFinal
0036b870 T EVP_CipherFinal
0036b8a4 T EVP_CipherFinal_ex
0036b8d8 T EVP_CIPHER_CTX_free
0036b910 T EVP_CIPHER_CTX_set_key_length
0036b9a0 T EVP_CIPHER_CTX_set_padding
0036b9c4 T EVP_CIPHER_CTX_rand_key
0036bb08 t des_ecb_cipher
0036bb70 t des_ofb_cipher
0036bbb4 t des_cbc_cipher
0036bbf8 t des_cfb64_cipher
0036bc40 t des_cfb1_cipher
0036bcf4 t des_cfb8_cipher
0036bd34 T EVP_des_cbc
0036bd40 T EVP_des_cfb64
0036bd4c T EVP_des_ofb
0036bd58 T EVP_des_ecb
0036bd64 T EVP_des_cfb1
0036bd70 T EVP_des_cfb8
0036bd7c t des_init_key
0036bdac t des_ctrl
0036be0c t des_ede_ecb_cipher
0036be7c t des_ede_ofb_cipher
0036bed0 t des_ede_cbc_cipher
0036bf24 t des_ede_cfb64_cipher
0036bf80 t des_ede3_cfb1_cipher
0036c040 t des_ede3_cfb8_cipher
0036c094 T EVP_des_ede_cbc
0036c0a0 T EVP_des_ede_cfb64
0036c0ac T EVP_des_ede_ofb
0036c0b8 T EVP_des_ede_ecb
0036c0c4 T EVP_des_ede3_cbc
0036c0d0 T EVP_des_ede3_cfb64
0036c0dc T EVP_des_ede3_ofb
0036c0e8 T EVP_des_ede3_ecb
0036c0f4 T EVP_des_ede3_cfb1
0036c100 T EVP_des_ede3_cfb8
0036c10c t des_ede_init_key
0036c174 t des_ede3_init_key
0036c1d8 t des3_ctrl
0036c26c T EVP_des_ede
0036c278 T EVP_des_ede3
0036c284 T EVP_add_cipher
0036c2e4 T EVP_add_digest
0036c3a0 T EVP_get_cipherbyname
0036c3c4 T EVP_get_digestbyname
0036c3e8 T EVP_cleanup
0036c41c T EVP_desx_cbc
0036c428 t desx_cbc_init_key
0036c494 t desx_cbc_cipher
0036c4e8 T EVP_CIPHER_get_asn1_iv
0036c578 T EVP_CIPHER_asn1_to_param
0036c5d0 T EVP_CIPHER_set_asn1_iv
0036c638 T EVP_CIPHER_param_to_asn1
0036c690 T EVP_CIPHER_type
0036c7ac T EVP_CIPHER_block_size
0036c7b4 T EVP_CIPHER_CTX_block_size
0036c7c0 T EVP_CIPHER_CTX_cipher
0036c7c8 T EVP_CIPHER_flags
0036c7d0 T EVP_CIPHER_CTX_get_app_data
0036c7d8 T EVP_CIPHER_CTX_set_app_data
0036c7e0 T EVP_CIPHER_iv_length
0036c7e8 T EVP_CIPHER_key_length
0036c7f0 T EVP_CIPHER_CTX_key_length
0036c7f8 T EVP_CIPHER_CTX_nid
0036c804 T EVP_MD_block_size
0036c80c T EVP_MD_type
0036c814 T EVP_MD_pkey_type
0036c81c T EVP_MD_size
0036c824 T EVP_MD_CTX_md
0036c82c T EVP_MD_CTX_set_flags
0036c83c T EVP_MD_CTX_clear_flags
0036c84c T EVP_MD_CTX_test_flags
0036c858 T EVP_CIPHER_CTX_set_flags
0036c868 T EVP_CIPHER_CTX_clear_flags
0036c878 T EVP_CIPHER_CTX_test_flags
0036c8fc T EVP_PBE_CipherInit
0036ca48 t pbe_cmp
0036ca60 T EVP_PBE_alg_add
0036cb00 T EVP_PBE_cleanup
0036cb90 T ASN1_BIT_STRING_set
0036cb94 T i2c_ASN1_BIT_STRING
0036ccd0 T c2i_ASN1_BIT_STRING
0036ce30 T ASN1_BIT_STRING_set_bit
0036cf90 T ASN1_BIT_STRING_get_bit
0036d03c T ASN1_TYPE_set_octetstring
0036d0a8 T ASN1_TYPE_get_octetstring
0036d138 T ASN1_TYPE_set_int_octetstring
0036d248 T ASN1_TYPE_get_int_octetstring
0036d45c T d2i_ASN1_INTEGER
0036d468 T i2d_ASN1_INTEGER
0036d474 T ASN1_INTEGER_new
0036d480 T ASN1_INTEGER_free
0036d48c T d2i_ASN1_ENUMERATED
0036d498 T i2d_ASN1_ENUMERATED
0036d4a4 T ASN1_ENUMERATED_new
0036d4b0 T ASN1_ENUMERATED_free
0036d4bc T d2i_ASN1_BIT_STRING
0036d4c8 T i2d_ASN1_BIT_STRING
0036d4d4 T ASN1_BIT_STRING_new
0036d4e0 T ASN1_BIT_STRING_free
0036d4ec T d2i_ASN1_OCTET_STRING
0036d4f8 T i2d_ASN1_OCTET_STRING
0036d504 T ASN1_OCTET_STRING_new
0036d510 T ASN1_OCTET_STRING_free
0036d51c T d2i_ASN1_NULL
0036d528 T i2d_ASN1_NULL
0036d534 T ASN1_NULL_new
0036d540 T ASN1_NULL_free
0036d54c T d2i_ASN1_UTF8STRING
0036d558 T i2d_ASN1_UTF8STRING
0036d564 T ASN1_UTF8STRING_new
0036d570 T ASN1_UTF8STRING_free
0036d57c T d2i_ASN1_PRINTABLESTRING
0036d588 T i2d_ASN1_PRINTABLESTRING
0036d594 T ASN1_PRINTABLESTRING_new
0036d5a0 T ASN1_PRINTABLESTRING_free
0036d5ac T d2i_ASN1_T61STRING
0036d5b8 T i2d_ASN1_T61STRING
0036d5c4 T ASN1_T61STRING_new
0036d5d0 T ASN1_T61STRING_free
0036d5dc T d2i_ASN1_IA5STRING
0036d5e8 T i2d_ASN1_IA5STRING
0036d5f4 T ASN1_IA5STRING_new
0036d600 T ASN1_IA5STRING_free
0036d60c T d2i_ASN1_GENERALSTRING
0036d618 T i2d_ASN1_GENERALSTRING
0036d624 T ASN1_GENERALSTRING_new
0036d630 T ASN1_GENERALSTRING_free
0036d63c T d2i_ASN1_UTCTIME
0036d648 T i2d_ASN1_UTCTIME
0036d654 T ASN1_UTCTIME_new
0036d660 T ASN1_UTCTIME_free
0036d66c T d2i_ASN1_GENERALIZEDTIME
0036d678 T i2d_ASN1_GENERALIZEDTIME
0036d684 T ASN1_GENERALIZEDTIME_new
0036d690 T ASN1_GENERALIZEDTIME_free
0036d69c T d2i_ASN1_VISIBLESTRING
0036d6a8 T i2d_ASN1_VISIBLESTRING
0036d6b4 T ASN1_VISIBLESTRING_new
0036d6c0 T ASN1_VISIBLESTRING_free
0036d6cc T d2i_ASN1_UNIVERSALSTRING
0036d6d8 T i2d_ASN1_UNIVERSALSTRING
0036d6e4 T ASN1_UNIVERSALSTRING_new
0036d6f0 T ASN1_UNIVERSALSTRING_free
0036d6fc T d2i_ASN1_BMPSTRING
0036d708 T i2d_ASN1_BMPSTRING
0036d714 T ASN1_BMPSTRING_new
0036d720 T ASN1_BMPSTRING_free
0036d72c T d2i_ASN1_TYPE
0036d738 T i2d_ASN1_TYPE
0036d744 T ASN1_TYPE_new
0036d750 T ASN1_TYPE_free
0036d75c T d2i_ASN1_PRINTABLE
0036d768 T i2d_ASN1_PRINTABLE
0036d774 T ASN1_PRINTABLE_new
0036d780 T ASN1_PRINTABLE_free
0036d78c T d2i_DISPLAYTEXT
0036d798 T i2d_DISPLAYTEXT
0036d7a4 T DISPLAYTEXT_new
0036d7b0 T DISPLAYTEXT_free
0036d7bc T d2i_DIRECTORYSTRING
0036d7c8 T i2d_DIRECTORYSTRING
0036d7d4 T DIRECTORYSTRING_new
0036d7e0 T DIRECTORYSTRING_free
0036d974 T asn1_get_choice_selector
0036d984 T asn1_set_choice_selector
0036d998 T asn1_do_lock
0036da28 t asn1_get_enc_ptr
0036da70 T asn1_enc_init
0036daac T asn1_enc_free
0036db00 T asn1_enc_save
0036db88 T asn1_enc_restore
0036dc0c T asn1_get_field_ptr
0036dc28 T asn1_do_adb
0036dd6c T d2i_ASN1_type_bytes
0036df18 T i2d_ASN1_bytes
0036dfd8 T d2i_ASN1_bytes
0036e1dc t asn1_collate_primitive
0036e3f0 T d2i_X509_ALGOR
0036e3fc T i2d_X509_ALGOR
0036e408 T X509_ALGOR_new
0036e414 T X509_ALGOR_free
0036e420 T d2i_X509_ALGORS
0036e42c T i2d_X509_ALGORS
0036e438 T X509_ALGOR_dup
0036e448 T X509_ALGOR_set0
0036e500 T X509_ALGOR_get0
0036e584 T d2i_X509_SIG
0036e590 T i2d_X509_SIG
0036e59c T X509_SIG_new
0036e5a8 T X509_SIG_free
0036e5cc t asn1_d2i_read_bio
0036e7e0 T ASN1_item_d2i_bio
0036e850 T ASN1_item_d2i_fp
0036e8d8 T ASN1_d2i_bio
0036e948 T ASN1_d2i_fp
0036ea7c T ASN1_dup
0036eb38 T ASN1_item_dup
0036ec30 t crl_inf_cb
0036ec80 T d2i_X509_REVOKED
0036ec8c T i2d_X509_REVOKED
0036ec98 T X509_REVOKED_new
0036eca4 T X509_REVOKED_free
0036ecb0 T d2i_X509_CRL_INFO
0036ecbc T i2d_X509_CRL_INFO
0036ecc8 T X509_CRL_INFO_new
0036ecd4 T X509_CRL_INFO_free
0036ece0 T d2i_X509_CRL
0036ecec T i2d_X509_CRL
0036ecf8 T X509_CRL_new
0036ed04 T X509_CRL_free
0036ed10 T X509_CRL_dup
0036ed20 t X509_REVOKED_cmp
0036ed34 T X509_CRL_add0_revoked
0036eeac T d2i_X509_CINF
0036eeb8 T i2d_X509_CINF
0036eec4 T X509_CINF_new
0036eed0 T X509_CINF_free
0036eedc t x509_cb
0036efcc T d2i_X509
0036efd8 T i2d_X509
0036efe4 T X509_new
0036eff0 T X509_free
0036effc T X509_dup
0036f00c T X509_asn1_meth
0036f018 T X509_get_ex_new_index
0036f034 T X509_set_ex_data
0036f03c T X509_get_ex_data
0036f044 T d2i_X509_AUX
0036f0bc T i2d_X509_AUX
0036f17c T d2i_X509_EXTENSION
0036f188 T i2d_X509_EXTENSION
0036f194 T X509_EXTENSION_new
0036f1a0 T X509_EXTENSION_free
0036f1ac T d2i_X509_EXTENSIONS
0036f1b8 T i2d_X509_EXTENSIONS
0036f1c4 T X509_EXTENSION_dup
0036f214 T d2i_X509_CERT_AUX
0036f220 T i2d_X509_CERT_AUX
0036f22c T X509_CERT_AUX_new
0036f238 T X509_CERT_AUX_free
0036f244 t aux_get
0036f2a8 T X509_alias_set1
0036f35c T X509_keyid_set1
0036f410 T X509_alias_get0
0036f448 T X509_keyid_get0
0036f480 T X509_add1_trust_object
0036f510 T X509_add1_reject_object
0036f5a0 T X509_trust_clear
0036f5f8 T X509_reject_clear
0036f650 T d2i_X509_CERT_PAIR
0036f65c T i2d_X509_CERT_PAIR
0036f668 T X509_CERT_PAIR_new
0036f674 T X509_CERT_PAIR_free
0036f6cc T ASN1_tag2bit
0036f6f0 T asn1_ex_c2i
0036fa94 t collect_data
0036fb18 t asn1_check_eoc
0036fb54 t asn1_check_tlen
0036fd94 t asn1_collect
0036ff64 t asn1_find_end
003700a4 t asn1_d2i_ex_primitive
00370428 t asn1_template_ex_d2i
003705d0 T ASN1_item_ex_d2i
00370d7c t asn1_template_noexp_d2i
0037106c T ASN1_template_d2i
00371098 T ASN1_item_d2i
003711bc T ASN1_seq_unpack
00371230 T ASN1_seq_pack
00371314 T ASN1_unpack_string
00371384 T ASN1_pack_string
00371474 T ASN1_item_pack
0037155c T ASN1_item_unpack
00371668 T ASN1_i2d_bio
00371734 T ASN1_i2d_fp
003717bc T ASN1_item_i2d_bio
0037186c T ASN1_item_i2d_fp
00371948 T d2i_ASN1_TIME
00371954 T i2d_ASN1_TIME
00371960 T ASN1_TIME_new
0037196c T ASN1_TIME_free
00371978 T ASN1_TIME_set
00371a00 T ASN1_TIME_check
00371a44 T ASN1_TIME_to_generalizedtime
00371bac T d2i_PBE2PARAM
00371bb8 T i2d_PBE2PARAM
00371bc4 T PBE2PARAM_new
00371bd0 T PBE2PARAM_free
00371bdc T d2i_PBKDF2PARAM
00371be8 T i2d_PBKDF2PARAM
00371bf4 T PBKDF2PARAM_new
00371c00 T PBKDF2PARAM_free
00371c0c T PKCS5_pbe2_set
00371fd4 T d2i_X509_NAME_ENTRY
00371fe0 T i2d_X509_NAME_ENTRY
00371fec T X509_NAME_ENTRY_new
00371ff8 T X509_NAME_ENTRY_free
00372004 T X509_NAME_ENTRY_dup
00372014 T d2i_X509_NAME
00372020 T i2d_X509_NAME
0037202c T X509_NAME_new
00372038 T X509_NAME_free
00372044 T X509_NAME_dup
00372054 t x509_name_ex_new
00372114 t x509_name_ex_free
0037217c t sk_internal_free
00372180 t x509_name_ex_d2i
00372310 t x509_name_encode
00372470 t x509_name_ex_i2d
003724dc T X509_NAME_set
003725f8 T ASN1_TYPE_get
00372620 T ASN1_TYPE_set
0037267c T ASN1_TYPE_set1
0037270c T X509_NAME_oneline
00372ad0 t policy_cache_create
00372c28 T policy_cache_free
00372c84 T policy_cache_find_data
00372cd8 t policy_data_cmp
00372cec t policy_cache_set_int
00372d40 t policy_cache_new
00372f04 T policy_cache_set
00372fcc T policy_data_free
0037302c T policy_data_new
00373184 T POLICY_CONSTRAINTS_new
00373190 T POLICY_CONSTRAINTS_free
0037319c t i2v_POLICY_CONSTRAINTS
003731f4 t v2i_POLICY_CONSTRAINTS
00373450 t ref_cmp
00373464 t policy_map_free
003734a0 t policy_map_find
003734f4 T policy_cache_set_mapping
0037374c T d2i_AUTHORITY_KEYID
00373758 T i2d_AUTHORITY_KEYID
00373764 T AUTHORITY_KEYID_new
00373770 T AUTHORITY_KEYID_free
003737a0 T d2i_OTHERNAME
003737ac T i2d_OTHERNAME
003737b8 T OTHERNAME_new
003737c4 T OTHERNAME_free
003737d0 T d2i_EDIPARTYNAME
003737dc T i2d_EDIPARTYNAME
003737e8 T EDIPARTYNAME_new
003737f4 T EDIPARTYNAME_free
00373800 T d2i_GENERAL_NAME
0037380c T i2d_GENERAL_NAME
00373818 T GENERAL_NAME_new
00373824 T GENERAL_NAME_free
00373830 T d2i_GENERAL_NAMES
0037383c T i2d_GENERAL_NAMES
00373848 T GENERAL_NAMES_new
00373854 T GENERAL_NAMES_free
0037394c T d2i_CERTIFICATEPOLICIES
00373958 T i2d_CERTIFICATEPOLICIES
00373964 T CERTIFICATEPOLICIES_new
00373970 T CERTIFICATEPOLICIES_free
0037397c T d2i_POLICYINFO
00373988 T i2d_POLICYINFO
00373994 T POLICYINFO_new
003739a0 T POLICYINFO_free
003739ac T d2i_POLICYQUALINFO
003739b8 T i2d_POLICYQUALINFO
003739c4 T POLICYQUALINFO_new
003739d0 T POLICYQUALINFO_free
003739dc T d2i_USERNOTICE
003739e8 T i2d_USERNOTICE
003739f4 T USERNOTICE_new
00373a00 T USERNOTICE_free
00373a0c T d2i_NOTICEREF
00373a18 T i2d_NOTICEREF
00373a24 T NOTICEREF_new
00373a30 T NOTICEREF_free
00373a3c t nref_nos
00373b04 t notice_section
00373da4 t policy_section
0037402c t r2i_certpol
00374274 t print_notice
003743c0 t print_qualifiers
003744d4 t i2r_certpol
0037458c T X509_POLICY_NODE_print
003748d4 T POLICY_MAPPING_new
003748e0 T POLICY_MAPPING_free
003748ec t i2v_POLICY_MAPPINGS
00374978 t v2i_POLICY_MAPPINGS
00374c1c T X509V3_add_value
00374d28 T X509V3_add_value_uchar
00374d2c T X509V3_conf_free
00374d90 T X509V3_add_value_bool
00374db0 T X509V3_add_value_bool_nf
00374dcc T i2s_ASN1_ENUMERATED
00374e50 T i2s_ASN1_INTEGER
00374ed4 T s2i_ASN1_INTEGER
00375050 T X509V3_add_value_int
003750b8 T X509V3_get_value_bool
0037526c T X509V3_get_value_int
003752f4 t strip_spaces
003753b8 T X509V3_parse_list
0037558c T hex_to_string
00375670 T string_to_hex
0037581c T name_cmp
00375884 t sk_strcmp
00375890 t str_free
00375894 T X509_email_free
003758a0 t append_ia5
0037597c T X509_get1_ocsp
00375a30 t get_email
00375b00 T X509_REQ_get1_email
00375b70 T X509_get1_email
00375bdc t ipv4_from_asc
00375cac t ipv6_from_asc
00375e0c T a2i_ipadd
00375e80 T a2i_IPADDRESS
00375ef8 T a2i_IPADDRESS_NC
00375fd4 t ipv6_hex
00376078 t ipv6_cb
00376178 T X509V3_NAME_from_section
00376374 t module_add
00376420 t module_load_dso
0037651c t module_find
003765b4 t module_init
00376728 t module_run
00376854 T CONF_modules_load
00376938 t module_free
0037697c t module_finish
003769e8 T CONF_modules_finish
00376a30 T CONF_modules_unload
00376acc T CONF_module_add
00376b04 T CONF_modules_free
00376b28 T CONF_imodule_get_name
00376b30 T CONF_imodule_get_value
00376b38 T CONF_imodule_get_usr_data
00376b40 T CONF_imodule_set_usr_data
00376b48 T CONF_imodule_get_module
00376b50 T CONF_imodule_get_flags
00376b58 T CONF_imodule_set_flags
00376b60 T CONF_module_get_usr_data
00376b68 T CONF_module_set_usr_data
00376b70 T CONF_get1_default_config_file
00376c38 T CONF_modules_load_file
00376cfc T CONF_parse_list
00376f18 T PKCS12_item_pack_safebag
00376fe4 T PKCS12_MAKE_KEYBAG
00377058 T PKCS12_MAKE_SHKEYBAG
00377108 T PKCS12_pack_p7data
003771d8 T PKCS12_unpack_p7data
00377244 T PKCS12_pack_p7encdata
00377390 T PKCS12_unpack_p7encdata
003773f4 T PKCS12_decrypt_skey
003773fc T PKCS12_pack_authsafes
0037743c T PKCS12_unpack_authsafes
00377558 T d2i_PKCS12
00377564 T i2d_PKCS12
00377570 T PKCS12_new
0037757c T PKCS12_free
00377588 T d2i_PKCS12_MAC_DATA
00377594 T i2d_PKCS12_MAC_DATA
003775a0 T PKCS12_MAC_DATA_new
003775ac T PKCS12_MAC_DATA_free
003775b8 T d2i_PKCS12_BAGS
003775c4 T i2d_PKCS12_BAGS
003775d0 T PKCS12_BAGS_new
003775dc T PKCS12_BAGS_free
003775e8 T d2i_PKCS12_SAFEBAG
003775f4 T i2d_PKCS12_SAFEBAG
00377600 T PKCS12_SAFEBAG_new
0037760c T PKCS12_SAFEBAG_free
00377708 T PKCS12_pbe_crypt
00377860 T PKCS12_item_decrypt_d2i
00377934 T PKCS12_item_i2d_encrypt
00377ab0 T PKCS8_decrypt
00377ae0 T PKCS8_encrypt
00377c68 t app_info_free
00377cb8 T CRYPTO_mem_ctrl
00377e3c T CRYPTO_is_mem_check_on
00377ec8 T CRYPTO_dbg_set_options
00377ed0 T CRYPTO_dbg_get_options
00377ed8 t mem_cmp
00377ee8 t mem_hash
00377f0c t app_info_cmp
00377f24 t app_info_hash
00377f48 t pop_info
00377ffc T CRYPTO_dbg_push_info
003780d4 T CRYPTO_dbg_pop_info
00378128 T CRYPTO_dbg_remove_all_info
00378184 T CRYPTO_dbg_malloc
00378308 T CRYPTO_dbg_free
0037839c T CRYPTO_dbg_realloc
00378440 t print_leak
0037866c t print_leak_LHASH_DOALL_ARG
00378670 T CRYPTO_mem_leaks
003787a0 T CRYPTO_mem_leaks_fp
00378824 t cb_leak
00378874 t cb_leak_LHASH_DOALL_ARG
00378878 T CRYPTO_mem_leaks_cb
003788e8 T CRYPTO_malloc_debug_init
00378948 T CRYPTO_strdup
00378a78 T OPENSSL_gmtime
00378aa8 T MD2_options
00378ab4 T MD2_Init
00378b14 t md2_block
00378c94 T MD2_Update
00378d54 T MD2_Final
00378e18 T MD4_Init
00378e60 T md4_block_data_order
003798c8 T MD4_Final
00379a28 T MD4_Transform
00379a30 T MD4_Update
00379b54 T SHA_Init
00379ba8 t sha_block_data_order
0037b7b4 T SHA_Final
0037b934 T SHA_Transform
0037b93c T SHA_Update
0037ba60 T SHA224_Init
0037bae0 T SHA256_Init
0037bb60 t sha256_block_data_order
0037db20 T SHA256_Final
0037dce0 T SHA224_Final
0037dce4 T SHA256_Transform
0037dcec T SHA256_Update
0037de10 T SHA224
0037de80 T SHA256
0037def0 T SHA224_Update
0037def4 T SHA384_Init
0037dfdc T SHA512_Init
0037e0c4 t sha512_block_data_order
00380980 T SHA512_Transform
00380988 T SHA512_Update
00380ae0 T SHA384_Update
00380ae4 T SHA512_Final
00380c80 T SHA512
00380cf4 T SHA384
00380d68 T SHA384_Final
00380d6c T HMAC_Init_ex
00380f1c T HMAC_Update
00380f24 T HMAC_Final
00380f8c T HMAC_CTX_init
00380fc8 T HMAC_Init
00381028 T HMAC_CTX_cleanup
00381074 T HMAC
003810fc T HMAC_CTX_set_flags
003811dc T DES_encrypt1
00382734 T DES_encrypt2
00383b10 T DES_encrypt3
00383c90 T DES_decrypt3
00383e14 T DES_ncbc_encrypt
003842a8 T DES_ede3_cbc_encrypt
00384784 T DES_set_odd_parity
003847ac T DES_check_key_parity
003847e4 T DES_is_weak_key
0038483c T DES_set_key_unchecked
00384ab0 T DES_set_key_checked
00384b20 T DES_set_key
00384b58 T DES_key_sched
00384b5c T DES_ecb_encrypt
00384c38 T DES_ecb3_encrypt
00384d1c T DES_cfb64_encrypt
00384f40 T DES_ede3_cfb64_encrypt
00385178 T DES_ede3_cfb_encrypt
003857f4 T DES_cfb_encrypt
00385e44 T DES_ede3_ofb64_encrypt
00385ff4 T DES_ofb64_encrypt
003861a0 T DES_xcbc_encrypt
00386768 T RC2_ecb_encrypt
00386850 T RC2_set_key
00386980 T RC2_encrypt
00386abc T RC2_decrypt
00386c28 T RC2_cbc_encrypt
003870ac T RC2_cfb64_encrypt
003872c8 T RC2_ofb64_encrypt
00387470 T RC4_options
0038747c T RC4_set_key
003875cc T RSA_public_encrypt
00387600 T RSA_private_encrypt
00387634 T RSA_private_decrypt
00387668 T RSA_public_decrypt
0038769c T RSA_size
003876cc T RSA_blinding_off
0038771c t rsa_get_public_exp
0038780c T RSA_setup_blinding
003879e0 T RSA_blinding_on
00387a94 t sig_cb
00387b20 T d2i_DSA_SIG
00387b2c T i2d_DSA_SIG
00387b38 t dsa_cb
00387ba4 T d2i_DSAPrivateKey
00387bb0 T i2d_DSAPrivateKey
00387bbc T d2i_DSAparams
00387bc8 T i2d_DSAparams
00387bd4 T d2i_DSAPublicKey
00387be0 T i2d_DSAPublicKey
00387bec T DSA_sign
00387c5c T DSA_size
00387cc4 T DSA_verify
00387dc0 T DSA_do_verify
00387df4 T DSA_do_sign
00387e28 T DSA_sign_setup
00387e5c T DSA_SIG_new
00387ea8 T DSA_SIG_free
00387f4c T DSO_METHOD_null
00387f74 T ENGINE_get_table_flags
00387f7c T ENGINE_set_table_flags
00387f84 t engine_pile_cmp
00387f94 t engine_pile_hash_LHASH_HASH
00387f9c t engine_pile_cmp_LHASH_COMP
00387fa0 t int_table_check
00388010 T engine_table_register
003881c8 t int_unregister_cb
00388234 t int_unregister_cb_LHASH_DOALL_ARG
00388238 T engine_table_unregister
003882c0 t int_cleanup_cb
00388308 t int_cleanup_cb_LHASH_DOALL
0038830c T engine_table_cleanup
00388388 T engine_table_select
00388548 T ENGINE_unregister_digests
00388554 t engine_unregister_all_digests
0038855c T ENGINE_register_digests
003885c8 T ENGINE_register_all_digests
00388608 T ENGINE_set_default_digests
00388674 T ENGINE_get_digest_engine
00388680 T ENGINE_get_digests
00388688 T ENGINE_get_digest
003886fc T ENGINE_set_digests
00388760 T AES_ecb_encrypt
00388790 T AES_cfb128_encrypt
0038886c T AES_cfbr_encrypt_block
003889b8 T AES_cfb1_encrypt
00388a84 T AES_cfb8_encrypt
00388ae4 T AES_ofb128_encrypt
00388b60 T BUF_MEM_new
00388bcc T BUF_MEM_free
00388c20 T BUF_MEM_grow
00388cf4 T BUF_MEM_grow_clean
00388e38 T RAND_query_egd_bytes
00388e40 T RAND_egd
00388e48 T RAND_egd_bytes
00388e50 T ASN1_UTCTIME_check
00388ff4 T ASN1_UTCTIME_set_string
00389074 T ASN1_UTCTIME_set
00389198 T ASN1_UTCTIME_cmp_time_t
003893e4 t pubkey_cb
00389418 T d2i_X509_PUBKEY
00389424 T i2d_X509_PUBKEY
00389430 T X509_PUBKEY_new
0038943c T X509_PUBKEY_free
00389448 T X509_PUBKEY_set
00389700 T X509_PUBKEY_get
003898cc T d2i_PUBKEY
00389940 T i2d_PUBKEY
003899c8 T d2i_RSA_PUBKEY
00389a4c T i2d_RSA_PUBKEY
00389acc T d2i_DSA_PUBKEY
00389b50 T i2d_DSA_PUBKEY
00389c94 T ASN1_OCTET_STRING_dup
00389c98 T ASN1_OCTET_STRING_cmp
00389c9c T ASN1_OCTET_STRING_set
00389ca0 T d2i_X509_ATTRIBUTE
00389cac T i2d_X509_ATTRIBUTE
00389cb8 T X509_ATTRIBUTE_new
00389cc4 T X509_ATTRIBUTE_free
00389cd0 T X509_ATTRIBUTE_dup
00389ce0 T X509_ATTRIBUTE_create
00389dd0 t bn_new
00389e08 t bn_free
00389e5c t bn_i2c
00389ee0 t bn_c2i
00389f54 T d2i_X509_VAL
00389f60 T i2d_X509_VAL
00389f6c T X509_VAL_new
00389f78 T X509_VAL_free
00389fa0 t SetBlobCmp
00389ffc T i2d_ASN1_SET
0038a288 T d2i_ASN1_SET
0038a598 T i2d_PublicKey
0038a654 T ASN1_ENUMERATED_set
0038a77c T ASN1_ENUMERATED_get
0038a814 T BN_to_ASN1_ENUMERATED
0038a918 T ASN1_ENUMERATED_to_BN
0038aa38 T ASN1_GENERALIZEDTIME_check
0038ac30 T ASN1_GENERALIZEDTIME_set_string
0038acb0 T ASN1_GENERALIZEDTIME_set
0038ae34 t long_new
0038ae44 t long_free
0038ae50 t long_i2c
0038af44 t long_c2i
0038b0cc T d2i_PublicKey
0038b2a0 t pkey_cb
0038b2f0 T d2i_PKCS8_PRIV_KEY_INFO
0038b2fc T i2d_PKCS8_PRIV_KEY_INFO
0038b308 T PKCS8_PRIV_KEY_INFO_new
0038b314 T PKCS8_PRIV_KEY_INFO_free
0038b354 T X509_get_default_private_dir
0038b360 T X509_get_default_cert_area
0038b36c T X509_get_default_cert_dir
0038b378 T X509_get_default_cert_file
0038b384 T X509_get_default_cert_dir_env
0038b390 T X509_get_default_cert_file_env
0038b40c T X509_issuer_and_serial_hash
0038b4d8 T X509_get_issuer_name
0038b4e4 T X509_get_subject_name
0038b4f0 T X509_get_serialNumber
0038b4fc T X509_cmp
0038b558 t nocase_cmp
0038b5dc t nocase_spacenorm_cmp
0038b760 t asn1_string_memcmp
0038b7a0 T X509_NAME_cmp
0038b94c T X509_CRL_cmp
0038b960 T X509_subject_name_cmp
0038b974 T X509_issuer_name_cmp
0038b988 T X509_issuer_and_serial_cmp
0038b9cc T X509_NAME_hash
0038ba78 T X509_subject_name_hash
0038ba84 T X509_issuer_name_hash
0038ba90 T X509_find_by_issuer_and_serial
0038bb10 T X509_find_by_subject
0038bb88 T X509_get_pubkey
0038bbac T X509_get0_pubkey_bitstr
0038bbcc T X509_check_private_key
0038bcd4 T X509_to_X509_REQ
0038bdd4 T X509_REQ_get_pubkey
0038bdf8 T X509_REQ_check_private_key
0038beac T X509_REQ_extension_nid
0038bee4 T X509_REQ_get_extension_nids
0038beec T X509_REQ_set_extension_nids
0038bef4 T X509_REQ_add_extensions_nid
0038c03c T X509_REQ_add_extensions
0038c044 T X509_REQ_get_attr_count
0038c050 T X509_REQ_get_attr_by_NID
0038c05c T X509_REQ_get_attr_by_OBJ
0038c068 T X509_REQ_get_attr
0038c074 T X509_REQ_get_extensions
0038c184 T X509_REQ_delete_attr
0038c190 T X509_REQ_add1_attr
0038c1c0 T X509_REQ_add1_attr_by_OBJ
0038c1f0 T X509_REQ_add1_attr_by_NID
0038c220 T X509_REQ_add1_attr_by_txt
0038c2a4 T X509_REQ_set_version
0038c2c0 T X509_REQ_set_subject_name
0038c2e4 T X509_REQ_set_pubkey
0038c308 T X509_NAME_entry_count
0038c320 T X509_NAME_get_index_by_OBJ
0038c3a0 T X509_NAME_get_index_by_NID
0038c3f8 T X509_NAME_get_entry
0038c45c T X509_NAME_delete_entry
0038c544 T X509_NAME_add_entry
0038c6bc T X509_NAME_ENTRY_set_object
0038c740 T X509_NAME_ENTRY_set_data
0038c824 T X509_NAME_ENTRY_create_by_OBJ
0038c8e0 T X509_NAME_add_entry_by_OBJ
0038c940 T X509_NAME_ENTRY_create_by_txt
0038c9e4 T X509_NAME_add_entry_by_txt
0038ca44 T X509_NAME_ENTRY_create_by_NID
0038cac8 T X509_NAME_add_entry_by_NID
0038cb28 T X509_NAME_ENTRY_get_object
0038cb40 T X509_NAME_ENTRY_get_data
0038cb58 T X509_NAME_get_text_by_OBJ
0038cbf0 T X509_NAME_get_text_by_NID
0038cc94 T X509_CRL_get_ext_count
0038cca0 T X509_CRL_get_ext_by_NID
0038ccac T X509_CRL_get_ext_by_OBJ
0038ccb8 T X509_CRL_get_ext_by_critical
0038ccc4 T X509_CRL_get_ext
0038ccd0 T X509_CRL_delete_ext
0038ccdc T X509_CRL_get_ext_d2i
0038cce8 T X509_CRL_add1_ext_i2d
0038ccf4 T X509_CRL_add_ext
0038cd24 T X509_get_ext_count
0038cd30 T X509_get_ext_by_NID
0038cd3c T X509_get_ext_by_OBJ
0038cd48 T X509_get_ext_by_critical
0038cd54 T X509_get_ext
0038cd60 T X509_delete_ext
0038cd6c T X509_add_ext
0038cd9c T X509_get_ext_d2i
0038cda8 T X509_add1_ext_i2d
0038cdb4 T X509_REVOKED_get_ext_count
0038cdbc T X509_REVOKED_get_ext_by_NID
0038cdc4 T X509_REVOKED_get_ext_by_OBJ
0038cdcc T X509_REVOKED_get_ext_by_critical
0038cdd4 T X509_REVOKED_get_ext
0038cddc T X509_REVOKED_delete_ext
0038cde4 T X509_REVOKED_add_ext
0038ce10 T X509_REVOKED_get_ext_d2i
0038ce18 T X509_REVOKED_add1_ext_i2d
0038ce20 T X509at_get_attr_count
0038ce24 T X509at_get_attr_by_OBJ
0038ceac T X509at_get_attr_by_NID
0038cf04 T X509at_get_attr
0038cf64 T X509at_delete_attr
0038cfc4 T X509at_add1_attr
0038d0a4 T X509_ATTRIBUTE_set1_object
0038d108 T X509_ATTRIBUTE_set1_data
0038d254 T X509_ATTRIBUTE_create_by_OBJ
0038d32c T X509_ATTRIBUTE_create_by_txt
0038d3d0 T X509at_add1_attr_by_txt
0038d434 T X509at_add1_attr_by_OBJ
0038d498 T X509_ATTRIBUTE_create_by_NID
0038d520 T X509at_add1_attr_by_NID
0038d584 T X509_ATTRIBUTE_count
0038d5a8 T X509_ATTRIBUTE_get0_object
0038d5c0 T X509_ATTRIBUTE_get0_type
0038d628 T X509_ATTRIBUTE_get0_data
0038d6a0 T X509at_get0_data_by_OBJ
0038d7a0 T X509_verify
0038d7d0 T X509_REQ_verify
0038d800 T X509_CRL_verify
0038d830 T NETSCAPE_SPKI_verify
0038d860 T X509_sign
0038d894 T X509_REQ_sign
0038d8cc T X509_CRL_sign
0038d908 T NETSCAPE_SPKI_sign
0038d940 T d2i_X509_fp
0038d958 T i2d_X509_fp
0038d970 T d2i_X509_bio
0038d988 T i2d_X509_bio
0038d9a0 T d2i_X509_CRL_fp
0038d9b8 T i2d_X509_CRL_fp
0038d9d0 T d2i_X509_CRL_bio
0038d9e8 T i2d_X509_CRL_bio
0038da00 T d2i_PKCS7_fp
0038da18 T i2d_PKCS7_fp
0038da30 T d2i_PKCS7_bio
0038da48 T i2d_PKCS7_bio
0038da60 T d2i_X509_REQ_fp
0038da78 T i2d_X509_REQ_fp
0038da90 T d2i_X509_REQ_bio
0038daa8 T i2d_X509_REQ_bio
0038dac0 T d2i_RSAPrivateKey_fp
0038dad8 T i2d_RSAPrivateKey_fp
0038daf0 T d2i_RSAPublicKey_fp
0038db08 T d2i_RSA_PUBKEY_fp
0038db24 T i2d_RSAPublicKey_fp
0038db3c T i2d_RSA_PUBKEY_fp
0038db54 T d2i_RSAPrivateKey_bio
0038db6c T i2d_RSAPrivateKey_bio
0038db84 T d2i_RSAPublicKey_bio
0038db9c T d2i_RSA_PUBKEY_bio
0038dbb8 T i2d_RSAPublicKey_bio
0038dbd0 T i2d_RSA_PUBKEY_bio
0038dbe8 T d2i_DSAPrivateKey_fp
0038dc04 T i2d_DSAPrivateKey_fp
0038dc1c T d2i_DSA_PUBKEY_fp
0038dc38 T i2d_DSA_PUBKEY_fp
0038dc50 T d2i_DSAPrivateKey_bio
0038dc6c T i2d_DSAPrivateKey_bio
0038dc84 T d2i_DSA_PUBKEY_bio
0038dca0 T i2d_DSA_PUBKEY_bio
0038dcb8 T X509_pubkey_digest
0038dd0c T X509_digest
0038dd28 T X509_CRL_digest
0038dd44 T X509_REQ_digest
0038dd60 T X509_NAME_digest
0038dd7c T PKCS7_ISSUER_AND_SERIAL_digest
0038dd98 T d2i_PKCS8_fp
0038ddb4 T i2d_PKCS8_fp
0038ddcc T d2i_PKCS8_bio
0038dde8 T i2d_PKCS8_bio
0038de00 T d2i_PKCS8_PRIV_KEY_INFO_fp
0038de1c T i2d_PKCS8_PRIV_KEY_INFO_fp
0038de34 T i2d_PKCS8PrivateKeyInfo_fp
0038de98 T i2d_PrivateKey_fp
0038deb0 T d2i_PrivateKey_fp
0038decc T i2d_PUBKEY_fp
0038dee4 T d2i_PUBKEY_fp
0038df00 T d2i_PKCS8_PRIV_KEY_INFO_bio
0038df1c T i2d_PKCS8_PRIV_KEY_INFO_bio
0038df34 T i2d_PKCS8PrivateKeyInfo_bio
0038df98 T i2d_PrivateKey_bio
0038dfb0 T d2i_PrivateKey_bio
0038dfcc T i2d_PUBKEY_bio
0038dfe4 T d2i_PUBKEY_bio
0038e000 T d2i_ACCESS_DESCRIPTION
0038e00c T i2d_ACCESS_DESCRIPTION
0038e018 T ACCESS_DESCRIPTION_new
0038e024 T ACCESS_DESCRIPTION_free
0038e030 T d2i_AUTHORITY_INFO_ACCESS
0038e03c T i2d_AUTHORITY_INFO_ACCESS
0038e048 T AUTHORITY_INFO_ACCESS_new
0038e054 T AUTHORITY_INFO_ACCESS_free
0038e060 t i2v_AUTHORITY_INFO_ACCESS
0038e19c t v2i_AUTHORITY_INFO_ACCESS
0038e390 T i2a_ACCESS_DESCRIPTION
0038e4b0 t xp_cmp
0038e4c8 T X509_PURPOSE_get_count
0038e500 T X509_PURPOSE_get0
0038e538 T X509_PURPOSE_get_by_sname
0038e5b0 T X509_PURPOSE_get_by_id
0038e614 T X509_PURPOSE_set
0038e684 T X509_PURPOSE_add
0038e7e8 t xptable_free
0038e840 T X509_PURPOSE_cleanup
0038e8a4 T X509_PURPOSE_get_id
0038e8ac T X509_PURPOSE_get0_name
0038e8b4 T X509_PURPOSE_get0_sname
0038e8bc T X509_PURPOSE_get_trust
0038e8c4 t nid_cmp
0038e8d4 T X509_supported_extension
0038e938 t x509v3_cache_extensions
0038ed70 T X509_check_purpose
0038ee18 t check_ca
0038ee90 T X509_check_ca
0038ef00 t check_ssl_ca
0038ef48 t check_purpose_ssl_client
0038efd4 t check_purpose_ssl_server
0038f060 t check_purpose_ns_ssl_server
0038f0b4 t purpose_smime
0038f160 t check_purpose_smime_sign
0038f1bc t check_purpose_smime_encrypt
0038f218 t check_purpose_crl_sign
0038f27c t ocsp_helper
0038f294 t no_check
0038f29c T X509_check_issued
0038f5a0 T X509V3_EXT_add
0038f634 t ext_cmp
0038f64c T X509V3_EXT_get_nid
0038f6f4 T X509V3_EXT_get
0038f734 T X509V3_EXT_add_list
0038f790 T X509V3_EXT_add_alias
0038f86c T X509V3_EXT_cleanup
0038f8a0 t ext_list_free
0038f8b4 T X509V3_add_standard_extensions
0038f8bc T X509V3_EXT_d2i
0038f944 T X509V3_get_d2i
0038fa50 T X509V3_add1_i2d
0038fc7c T i2s_ASN1_OCTET_STRING
0038fc94 T s2i_ASN1_OCTET_STRING
0038fd2c t s2i_skey_id
0038ff38 t do_ext_i2d
00390040 t do_ext_nconf
003902ac T X509V3_EXT_i2d
00390310 t v3_check_critical
003903a0 t v3_check_generic
00390460 t generic_asn1
003904c4 t v3_generic_extension
00390630 T X509V3_EXT_nconf
003906f8 T X509V3_EXT_nconf_nid
00390774 T X509V3_EXT_add_nconf_sk
00390828 T X509V3_EXT_add_nconf
00390844 T X509V3_EXT_CRL_add_nconf
00390860 T X509V3_EXT_REQ_add_nconf
003908d4 T X509V3_get_string
00390950 T X509V3_get_section
003909cc T X509V3_string_free
00390a14 T X509V3_section_free
00390a5c t nconf_get_string
00390a60 t nconf_get_section
00390a64 T X509V3_set_nconf
00390a78 T X509V3_set_ctx
00390a90 T X509V3_EXT_conf
00390ad8 T X509V3_EXT_conf_nid
00390b20 t conf_lhash_get_string
00390b24 t conf_lhash_get_section
00390b28 T X509V3_set_conf_lhash
00390b3c T X509V3_EXT_add_conf
00390b84 T X509V3_EXT_CRL_add_conf
00390bcc T X509V3_EXT_REQ_add_conf
00390c9c T GENERAL_SUBTREE_new
00390ca8 T GENERAL_SUBTREE_free
00390cb4 T NAME_CONSTRAINTS_new
00390cc0 T NAME_CONSTRAINTS_free
00390ccc t v2i_NAME_CONSTRAINTS
00390e98 t print_nc_ipadd
00390f98 t do_i2r_name_constraints
00391094 t i2r_NAME_CONSTRAINTS
00391208 T d2i_PKEY_USAGE_PERIOD
00391214 T i2d_PKEY_USAGE_PERIOD
00391220 T PKEY_USAGE_PERIOD_new
0039122c T PKEY_USAGE_PERIOD_free
00391238 t i2r_PKEY_USAGE_PERIOD
00391354 T d2i_SXNETID
00391360 T i2d_SXNETID
0039136c T SXNETID_new
00391378 T SXNETID_free
00391384 T d2i_SXNET
00391390 T i2d_SXNET
0039139c T SXNET_new
003913a8 T SXNET_free
003913b4 t sxnet_i2r
0039148c T SXNET_get_id_INTEGER
00391504 T SXNET_get_id_ulong
0039158c T SXNET_get_id_asc
0039160c T SXNET_add_id_INTEGER
003917c8 T SXNET_add_id_asc
00391830 t sxnet_v2i
003918ac T SXNET_add_id_ulong
003919dc T i2v_GENERAL_NAME
00391be8 T i2v_GENERAL_NAMES
00391c68 T GENERAL_NAME_print
00391e34 t copy_issuer
00391f78 t copy_email
003920d8 t do_othername
003921bc t do_dirname
00392274 T v2i_GENERAL_NAME_ex
00392584 T v2i_GENERAL_NAME
0039259c T v2i_GENERAL_NAMES
00392660 t v2i_subject_alt
003927c0 t v2i_issuer_alt
00392b00 t i2s_ASN1_IA5STRING
00392ba4 t s2i_ASN1_IA5STRING
00392ce8 t i2r_ocsp_crlid
00392e44 t i2r_ocsp_acutoff
00392ec0 t i2r_object
00392f3c t ocsp_nonce_new
00392f40 t i2d_ocsp_nonce
00392f9c t d2i_ocsp_nonce
00393054 t ocsp_nonce_free
00393058 t i2r_ocsp_nonce
003930dc t i2r_ocsp_nocheck
003930e4 t s2i_ocsp_nocheck
003930e8 t i2r_ocsp_serviceloc
00393294 T CONF_set_nconf
003932f4 T CONF_set_default_method
00393300 T NCONF_new
0039336c T NCONF_free
003933a8 T NCONF_free_data
003933e4 T CONF_free
00393414 T NCONF_load
00393474 T NCONF_load_bio
003934d4 T NCONF_load_fp
0039354c T CONF_load_bio
003935b4 T CONF_load
00393630 T CONF_load_fp
003936a8 T NCONF_get_section
00393720 T CONF_get_section
00393770 T NCONF_get_string
00393800 T CONF_get_string
00393860 T NCONF_get_number_e
00393930 T CONF_get_number
003939b0 T NCONF_dump_bio
00393a10 T NCONF_dump_fp
00393a94 T CONF_dump_bio
00393ad8 T CONF_dump_fp
00393bc0 T _CONF_get_section
00393c0c T _CONF_get_section_values
00393c40 T _CONF_add_string
00393cc4 T _CONF_get_string
00393d90 T _CONF_new_data
00393dfc T _CONF_free_data
00393e78 t value_free_hash
00393e98 t value_free_hash_LHASH_DOALL_ARG
00393e9c t value_free_stack
00393f2c t value_free_stack_LHASH_DOALL_ARG
00393f30 t hash
00393f7c t cmp_conf
0039400c T _CONF_new_section
00394130 T NCONF_default
0039413c T NCONF_WIN32
00394148 t def_create
003941b8 t def_init_default
003941f0 t def_init_WIN32
00394228 t def_destroy_data
0039425c t def_destroy
003942a4 t str_copy
00394698 t eat_ws
003946e0 t eat_alpha_numeric
00394740 t scan_quote
003947a8 t scan_dquote
003947fc t clear_comments
0039493c t def_load_bio
00394f7c t def_load
0039501c t dump_value
00395088 t dump_value_LHASH_DOALL_ARG
0039508c t def_dump
003950c0 t def_is_number
003950d4 t def_to_int
003951c0 T d2i_PKCS7
003951cc T i2d_PKCS7
003951d8 T PKCS7_new
003951e4 T PKCS7_free
003951f0 T i2d_PKCS7_NDEF
003951fc T PKCS7_dup
0039520c T d2i_PKCS7_SIGNED
00395218 T i2d_PKCS7_SIGNED
00395224 T PKCS7_SIGNED_new
00395230 T PKCS7_SIGNED_free
0039523c t si_cb
00395270 T d2i_PKCS7_SIGNER_INFO
0039527c T i2d_PKCS7_SIGNER_INFO
00395288 T PKCS7_SIGNER_INFO_new
00395294 T PKCS7_SIGNER_INFO_free
003952a0 T d2i_PKCS7_ISSUER_AND_SERIAL
003952ac T i2d_PKCS7_ISSUER_AND_SERIAL
003952b8 T PKCS7_ISSUER_AND_SERIAL_new
003952c4 T PKCS7_ISSUER_AND_SERIAL_free
003952d0 T d2i_PKCS7_ENVELOPE
003952dc T i2d_PKCS7_ENVELOPE
003952e8 T PKCS7_ENVELOPE_new
003952f4 T PKCS7_ENVELOPE_free
00395300 t ri_cb
00395334 T d2i_PKCS7_RECIP_INFO
00395340 T i2d_PKCS7_RECIP_INFO
0039534c T PKCS7_RECIP_INFO_new
00395358 T PKCS7_RECIP_INFO_free
00395364 T d2i_PKCS7_ENC_CONTENT
00395370 T i2d_PKCS7_ENC_CONTENT
0039537c T PKCS7_ENC_CONTENT_new
00395388 T PKCS7_ENC_CONTENT_free
00395394 T d2i_PKCS7_SIGN_ENVELOPE
003953a0 T i2d_PKCS7_SIGN_ENVELOPE
003953ac T PKCS7_SIGN_ENVELOPE_new
003953b8 T PKCS7_SIGN_ENVELOPE_free
003953c4 T d2i_PKCS7_ENCRYPT
003953d0 T i2d_PKCS7_ENCRYPT
003953dc T PKCS7_ENCRYPT_new
003953e8 T PKCS7_ENCRYPT_free
003953f4 T d2i_PKCS7_DIGEST
00395400 T i2d_PKCS7_DIGEST
0039540c T PKCS7_DIGEST_new
00395418 T PKCS7_DIGEST_free
00395620 T PKCS7_ctrl
00395728 T PKCS7_set_content
003957e0 T PKCS7_set_type
003959d0 T PKCS7_content_new
00395a3c T PKCS7_set0_type_other
00395a84 T PKCS7_add_signer
00395be0 T PKCS7_add_certificate
00395ce4 T PKCS7_add_crl
00395de8 T PKCS7_SIGNER_INFO_set
00395f9c T PKCS7_add_signature
00396010 T PKCS7_set_digest
003960e0 T PKCS7_get_signer_info
0039613c T PKCS7_add_recipient_info
003961dc T PKCS7_RECIP_INFO_set
003962bc T PKCS7_add_recipient
00396320 T PKCS7_cert_from_signer_info
00396384 T PKCS7_set_cipher
003964e0 T d2i_OCSP_SIGNATURE
003964ec T i2d_OCSP_SIGNATURE
003964f8 T OCSP_SIGNATURE_new
00396504 T OCSP_SIGNATURE_free
00396510 T d2i_OCSP_CERTID
0039651c T i2d_OCSP_CERTID
00396528 T OCSP_CERTID_new
00396534 T OCSP_CERTID_free
00396540 T d2i_OCSP_ONEREQ
0039654c T i2d_OCSP_ONEREQ
00396558 T OCSP_ONEREQ_new
00396564 T OCSP_ONEREQ_free
00396570 T d2i_OCSP_REQINFO
0039657c T i2d_OCSP_REQINFO
00396588 T OCSP_REQINFO_new
00396594 T OCSP_REQINFO_free
003965a0 T d2i_OCSP_REQUEST
003965ac T i2d_OCSP_REQUEST
003965b8 T OCSP_REQUEST_new
003965c4 T OCSP_REQUEST_free
003965d0 T d2i_OCSP_RESPBYTES
003965dc T i2d_OCSP_RESPBYTES
003965e8 T OCSP_RESPBYTES_new
003965f4 T OCSP_RESPBYTES_free
00396600 T d2i_OCSP_RESPONSE
0039660c T i2d_OCSP_RESPONSE
00396618 T OCSP_RESPONSE_new
00396624 T OCSP_RESPONSE_free
00396630 T d2i_OCSP_RESPID
0039663c T i2d_OCSP_RESPID
00396648 T OCSP_RESPID_new
00396654 T OCSP_RESPID_free
00396660 T d2i_OCSP_REVOKEDINFO
0039666c T i2d_OCSP_REVOKEDINFO
00396678 T OCSP_REVOKEDINFO_new
00396684 T OCSP_REVOKEDINFO_free
00396690 T d2i_OCSP_CERTSTATUS
0039669c T i2d_OCSP_CERTSTATUS
003966a8 T OCSP_CERTSTATUS_new
003966b4 T OCSP_CERTSTATUS_free
003966c0 T d2i_OCSP_SINGLERESP
003966cc T i2d_OCSP_SINGLERESP
003966d8 T OCSP_SINGLERESP_new
003966e4 T OCSP_SINGLERESP_free
003966f0 T d2i_OCSP_RESPDATA
003966fc T i2d_OCSP_RESPDATA
00396708 T OCSP_RESPDATA_new
00396714 T OCSP_RESPDATA_free
00396720 T d2i_OCSP_BASICRESP
0039672c T i2d_OCSP_BASICRESP
00396738 T OCSP_BASICRESP_new
00396744 T OCSP_BASICRESP_free
00396750 T d2i_OCSP_CRLID
0039675c T i2d_OCSP_CRLID
00396768 T OCSP_CRLID_new
00396774 T OCSP_CRLID_free
00396780 T d2i_OCSP_SERVICELOC
0039678c T i2d_OCSP_SERVICELOC
00396798 T OCSP_SERVICELOC_new
003967a4 T OCSP_SERVICELOC_free
00396a84 T BN_BLINDING_free
00396af8 T BN_BLINDING_new
00396bec T BN_BLINDING_convert_ex
00396c98 T BN_BLINDING_convert
00396ca8 T BN_BLINDING_get_thread_id
00396cb0 T BN_BLINDING_set_thread_id
00396cb8 T BN_BLINDING_get_flags
00396cc0 T BN_BLINDING_set_flags
00396cc8 T BN_BLINDING_create_param
00396eb0 T BN_BLINDING_update
00396fc8 T BN_BLINDING_invert_ex
00397068 T BN_BLINDING_invert
003970c8 T RSAPrivateKey_asn1_meth
003970d4 t rsa_cb
00397140 T d2i_RSAPrivateKey
0039714c T i2d_RSAPrivateKey
00397158 T d2i_RSAPublicKey
00397164 T i2d_RSAPublicKey
00397170 T RSAPublicKey_dup
00397180 T RSAPrivateKey_dup
003971b8 T RSA_set_default_method
003971c0 T RSA_get_default_method
003971f4 T RSA_get_method
003971fc T RSA_set_method
00397270 T RSA_new_method
00397450 T RSA_new
00397474 T RSA_free
003975f0 T RSA_up_ref
00397634 T RSA_get_ex_new_index
00397650 T RSA_set_ex_data
00397658 T RSA_get_ex_data
00397660 T RSA_flags
0039767c T RSA_memory_lock
00397810 T DSA_set_default_method
00397818 T DSA_get_default_method
0039784c T DSA_set_method
003978c0 T DSA_new_method
00397a8c T DSA_new
00397a94 T DSA_free
00397bc0 T DSA_up_ref
00397c04 T DSA_get_ex_new_index
00397c20 T DSA_set_ex_data
00397c28 T DSA_get_ex_data
00397c30 T DSA_dup_DH
00397d64 T DSA_OpenSSL
00397d70 t dsa_do_sign
00397f94 t dsa_sign_setup
00398264 t dsa_do_verify
00398558 t dsa_init
0039856c t dsa_finish
00398600 T DH_set_default_method
00398608 T DH_get_default_method
0039863c T DH_set_method
003986b0 T DH_new_method
00398884 T DH_new
0039888c T DH_free
003989cc T DH_up_ref
00398a10 T DH_get_ex_new_index
00398a2c T DH_set_ex_data
00398a34 T DH_get_ex_data
00398a3c T DH_size
00398abc T ENGINE_unregister_RSA
00398ac8 t engine_unregister_all_RSA
00398ad0 T ENGINE_register_RSA
00398b04 T ENGINE_register_all_RSA
00398b44 T ENGINE_set_default_RSA
00398b78 T ENGINE_get_default_RSA
00398b84 T ENGINE_get_RSA
00398b8c T ENGINE_set_RSA
00398b98 T ENGINE_unregister_DSA
00398ba4 t engine_unregister_all_DSA
00398bac T ENGINE_register_DSA
00398be0 T ENGINE_register_all_DSA
00398c20 T ENGINE_set_default_DSA
00398c54 T ENGINE_get_default_DSA
00398c60 T ENGINE_get_DSA
00398c68 T ENGINE_set_DSA
00398c74 T ENGINE_unregister_DH
00398c80 t engine_unregister_all_DH
00398c88 T ENGINE_register_DH
00398cbc T ENGINE_register_all_DH
00398cfc T ENGINE_set_default_DH
00398d30 T ENGINE_get_default_DH
00398d3c T ENGINE_get_DH
00398d44 T ENGINE_set_DH
00398d50 T EVP_PKEY_bits
00398da8 T EVP_PKEY_size
00398dfc T EVP_PKEY_save_parameters
00398e28 T EVP_PKEY_missing_parameters
00398e6c T EVP_PKEY_copy_parameters
00398f94 T EVP_PKEY_cmp_parameters
00399048 T EVP_PKEY_cmp
00399140 T EVP_PKEY_new
003991b8 T EVP_PKEY_get1_RSA
0039921c T EVP_PKEY_get1_DSA
00399280 T EVP_PKEY_get1_DH
003992e4 T EVP_PKEY_type
00399360 t EVP_PKEY_free_it
003993c4 T EVP_PKEY_free
0039943c T EVP_PKEY_assign
00399498 T EVP_PKEY_set1_DH
003994e8 T EVP_PKEY_set1_DSA
00399538 T EVP_PKEY_set1_RSA
003995d8 T EVP_PKCS82PKEY
003999e0 T PKCS8_set_broken
00399a54 t dsa_pkey2pkcs8
00399e5c T EVP_PKEY2PKCS8_broken
00399fdc T EVP_PKEY2PKCS8
0039a000 T EVP_PKEY_get_attr_count
0039a024 T EVP_PKEY_get_attr_by_NID
0039a048 T EVP_PKEY_get_attr_by_OBJ
0039a06c T EVP_PKEY_get_attr
0039a090 T EVP_PKEY_delete_attr
0039a0b4 T EVP_PKEY_add1_attr
0039a0e0 T EVP_PKEY_add1_attr_by_OBJ
0039a10c T EVP_PKEY_add1_attr_by_NID
0039a138 T EVP_PKEY_add1_attr_by_txt
0039a214 t rinf_cb
0039a260 T d2i_X509_REQ_INFO
0039a26c T i2d_X509_REQ_INFO
0039a278 T X509_REQ_INFO_new
0039a284 T X509_REQ_INFO_free
0039a290 T d2i_X509_REQ
0039a29c T i2d_X509_REQ
0039a2a8 T X509_REQ_new
0039a2b4 T X509_REQ_free
0039a2c0 T X509_REQ_dup
0039a324 T ASN1_verify
0039a48c T ASN1_item_verify
0039a680 T i2a_ASN1_INTEGER
0039a7b0 T a2i_ASN1_INTEGER
0039aafc T i2a_ASN1_STRING
0039ac00 T a2i_ASN1_STRING
0039af04 T d2i_NETSCAPE_SPKAC
0039af10 T i2d_NETSCAPE_SPKAC
0039af1c T NETSCAPE_SPKAC_new
0039af28 T NETSCAPE_SPKAC_free
0039af34 T d2i_NETSCAPE_SPKI
0039af40 T i2d_NETSCAPE_SPKI
0039af4c T NETSCAPE_SPKI_new
0039af58 T NETSCAPE_SPKI_free
0039afac T ASN1_digest
0039b064 T ASN1_item_digest
0039b138 T ASN1_PRINTABLE_type
0039b23c T ASN1_UNIVERSALSTRING_to_string
0039b348 t parse_tagging
0039b498 t append_exp
0039b568 t asn1_str2tag
0039b5e0 t asn1_cb
0039b910 t asn1_str2type
0039be1c T ASN1_generate_v3
0039c0e4 t asn1_multi
0039c27c T ASN1_generate_nconf
0039c2c8 t bitstr_cb
0039c754 T i2d_PrivateKey
0039c810 T X509_ocspid_print
0039c99c T X509_signature_print
0039cabc T ASN1_STRING_print
0039cba0 T ASN1_GENERALIZEDTIME_print
0039cd30 T ASN1_UTCTIME_print
0039ceb0 T ASN1_TIME_print
0039cf04 T X509_print_ex
0039d4bc T X509_print
0039d4c8 T X509_print_ex_fp
0039d558 T X509_print_fp
0039d564 T X509_NAME_print
0039d974 T ASN1_sign
0039dc14 T ASN1_item_sign
0039df58 T X509_CERT_AUX_print
0039e290 t send_bio_chars
0039e2d8 t send_fp_chars
0039e32c t do_esc_char
0039e534 t do_buf
0039e6f0 t do_hex_dump
0039e784 t do_dump
0039e878 t do_print_ex
0039ea98 t do_indent
0039eaf4 t do_name_ex
0039ee58 T X509_NAME_print_ex
0039eea4 T X509_NAME_print_ex_fp
0039ef24 T ASN1_STRING_print_ex
0039ef3c T ASN1_STRING_print_ex_fp
0039ef54 T ASN1_STRING_to_UTF8
0039f080 T ASN1_STRING_set_default_mask
0039f088 T ASN1_STRING_get_default_mask
0039f090 T ASN1_STRING_set_default_mask_asc
0039f1a0 t sk_table_cmp
0039f1b8 t table_cmp
0039f1c8 T ASN1_STRING_TABLE_get
0039f254 T ASN1_STRING_set_by_NID
0039f308 T ASN1_STRING_TABLE_add
0039f40c T ASN1_STRING_TABLE_cleanup
0039f430 t st_free
0039f50c T d2i_PrivateKey
0039f644 T d2i_AutoPrivateKey
0039f78c T X509v3_get_ext_count
0039f7a0 T X509v3_get_ext_by_OBJ
0039f828 T X509v3_get_ext_by_NID
0039f880 T X509v3_get_ext_by_critical
0039f914 T X509v3_get_ext
0039f974 T X509v3_delete_ext
0039f9d4 T X509v3_add_ext
0039fad8 T X509_EXTENSION_set_object
0039fb3c T X509_EXTENSION_set_critical
0039fb68 T X509_EXTENSION_set_data
0039fbb8 T X509_EXTENSION_create_by_OBJ
0039fc98 T X509_EXTENSION_create_by_NID
0039fd18 T X509_EXTENSION_get_object
0039fd30 T X509_EXTENSION_get_data
0039fd48 T X509_EXTENSION_get_critical
0039fdc0 t i2v_crld
0039feac T d2i_DIST_POINT_NAME
0039feb8 T i2d_DIST_POINT_NAME
0039fec4 T DIST_POINT_NAME_new
0039fed0 T DIST_POINT_NAME_free
0039fedc T d2i_DIST_POINT
0039fee8 T i2d_DIST_POINT
0039fef4 T DIST_POINT_new
0039ff00 T DIST_POINT_free
0039ff0c t v2i_crld
003a0060 T d2i_CRL_DIST_POINTS
003a006c T i2d_CRL_DIST_POINTS
003a0078 T CRL_DIST_POINTS_new
003a0084 T CRL_DIST_POINTS_free
003a017c t i2r_pci
003a0280 t process_pci_value
003a0698 t r2i_pci
003a0ab0 T X509V3_EXT_val_prn
003a0c10 t unknown_ext_print
003a0cd8 T X509V3_EXT_print
003a0e9c T X509V3_extensions_print
003a1044 T X509V3_EXT_print_fp
003a1100 T d2i_BASIC_CONSTRAINTS
003a110c T i2d_BASIC_CONSTRAINTS
003a1118 T BASIC_CONSTRAINTS_new
003a1124 T BASIC_CONSTRAINTS_free
003a1130 t i2v_BASIC_CONSTRAINTS
003a1188 t v2i_BASIC_CONSTRAINTS
003a1368 T i2s_ASN1_ENUMERATED_TABLE
003a14d8 t s2i_asn1_int
003a14e0 T d2i_PROXY_POLICY
003a14ec T i2d_PROXY_POLICY
003a14f8 T PROXY_POLICY_new
003a1504 T PROXY_POLICY_free
003a1510 T d2i_PROXY_CERT_INFO_EXTENSION
003a151c T i2d_PROXY_CERT_INFO_EXTENSION
003a1528 T PROXY_CERT_INFO_EXTENSION_new
003a1534 T PROXY_CERT_INFO_EXTENSION_free
003a15a0 t i2v_AUTHORITY_KEYID
003a1668 t v2i_AUTHORITY_KEYID
003a19cc T i2v_ASN1_BIT_STRING
003a1a40 T v2i_ASN1_BIT_STRING
003a1db8 T d2i_EXTENDED_KEY_USAGE
003a1dc4 T i2d_EXTENDED_KEY_USAGE
003a1dd0 T EXTENDED_KEY_USAGE_new
003a1ddc T EXTENDED_KEY_USAGE_free
003a1de8 t i2v_EXTENDED_KEY_USAGE
003a1e74 t v2i_EXTENDED_KEY_USAGE
003a2010 T BN_mod_exp2_mont
003a264c T RSA_PKCS1_SSLeay
003a2658 t RSA_eay_public_encrypt
003a2970 t rsa_get_blinding
003a2ae4 t rsa_blinding_convert
003a2b88 t rsa_blinding_invert
003a2c2c t RSA_eay_private_encrypt
003a3028 t RSA_eay_private_decrypt
003a33dc t RSA_eay_public_decrypt
003a36d8 t RSA_eay_mod_exp
003a3ce0 t RSA_eay_init
003a3cf4 t RSA_eay_finish
003a3e0c T RSA_padding_add_PKCS1_type_1
003a3ea4 T RSA_padding_check_PKCS1_type_1
003a4008 T RSA_padding_add_PKCS1_type_2
003a40ec T RSA_padding_check_PKCS1_type_2
003a4270 T RSA_padding_add_SSLv23
003a4364 T RSA_padding_check_SSLv23
003a4538 T RSA_padding_add_none
003a45b8 T RSA_padding_check_none
003a4684 T PKCS1_MGF1
003a4774 T MGF1
003a47c4 T RSA_padding_check_PKCS1_OAEP
003a4a04 T RSA_padding_add_PKCS1_OAEP
003a4c30 T RSA_padding_add_X931
003a4cec T RSA_padding_check_X931
003a4e0c T RSA_X931_hash_id
003a4efc T DH_generate_key
003a4f30 T DH_compute_key
003a4f64 T DH_OpenSSL
003a4f70 t generate_key
003a5150 t compute_key
003a5300 t dh_bn_mod_exp
003a5378 t dh_init
003a538c t dh_finish
003a541c T DH_check
003a557c T DH_check_pub_key
003a562c T BIO_dump_indent_cb
003a58e0 T BIO_dump_cb
003a58e8 t write_fp
003a58f4 T BIO_dump_fp
003a5910 T BIO_dump_indent_fp
003a5930 t write_bio
003a5944 T BIO_dump
003a5960 T BIO_dump_indent
003a59b4 t print_bio
003a59c8 T ERR_print_errors
003a59d8 T EVP_SignFinal
003a5b6c T EVP_VerifyFinal
003a5cfc t traverse_string
003a5e04 T ASN1_mbstring_ncopy
003a62ac T ASN1_mbstring_copy
003a62b8 t in_utf8
003a62cc t out_utf8
003a6314 t cpy_asc
003a6330 t cpy_bmp
003a6354 t cpy_univ
003a6388 t cpy_utf8
003a63d0 t is_printable
003a645c t type_str
003a65b0 T UTF8_getc
003a689c T UTF8_putc
003a6a94 t print
003a6ce8 T DSA_print
003a6f94 T DSA_print_fp
003a701c T RSA_print
003a741c T RSA_print_fp
003a74a4 T DHparams_print
003a7620 T DHparams_print_fp
003a76a0 T DSAparams_print
003a7860 T DSAparams_print_fp
003a7a9c T ASN1_tag2str
003a7ad8 t asn1_print_info
003a7be4 t asn1_parse2
003a84bc T ASN1_parse
003a84f4 T ASN1_parse_dump
003a8774 t print_fp
003a8784 T ERR_error_string_n
003a88f0 T ERR_print_errors_cb
003a89a8 T ERR_print_errors_fp
003a89b8 T ERR_error_string
003a8a44 T i2d_ASN1_BOOLEAN
003a8ab8 T d2i_ASN1_BOOLEAN
003a8bcc t ipfirewall_alloc_aligned
003a8c38 t ipfirewall_find_userdef
003a8ca8 t ipfirewall_limit_timeout
003a8d30 t ipfirewall_init
003a8e10 t ipfirewall_check_head
003a8e74 t ipfirewall_sort_group
003a8ee0 t ipfirewall_get_configuration
003a8fc8 t ipfirewall_internal_unlink_rule
003a9130 t ipfirewall_internal_remove_rule
003a91d0 t ipfirewall_internal_insert_rule
003a9350 t ipfirewall_internal_add_rule
003a9660 t ipfirewall_internal_get_user
003a96e4 t ipfirewall_internal_get_info
003a972c t ipfirewall_internal_flush_rules
003a9770 t ipfirewall_internal_flush_group
003a97d4 t ipfirewall_internal_flush_log
003a9838 t ipfirewall_internal_flush_userdefs
003a98f0 t ipfirewall_internal_clear_stats
003a9924 t ipfirewall_cancel_rate_limit_timeouts
003a998c t ipfirewall_internal_enable
003a99e4 t ipfirewall_internal_disable
003a9a3c t ipfirewall_configure_rules
003a9ac0 T ipfirewall_match_interface
003a9b1c T ipfirewall_compare_limit
003a9bd4 T ipfirewall_register_userdef
003a9cfc T ipfirewall_unregister_userdef
003a9e64 T ipfirewall_getsockopt
003a9f78 T ipfirewall_setsockopt
003aa0d4 T ipfirewall_create
003aa0d8 T ipfirewall_start
003aa2e0 T ipfirewall_version
003aaa40 t ipfirewall_clean_state
003aaaa4 t ipfirewall_state_timeout
003aaab8 t ipfirewall_log_pkt
003aad18 t ipfirewall_reverse_state
003aad88 t ipfirewall_add_state
003aafb8 t ipfirewall_update_state
003ab0fc t ipfirewall_check_state
003ab298 t ipfirewall_check_fragment_state
003ab3dc t ipfirewall_return_icmp
003ab4cc t ipfirewall_return_rst
003ab5f8 t ipfirewall_check_range
003ab6d4 t ipfirewall_check_transport_header
003ab77c T ipfirewall_obj_hash_v4
003ab7f0 T ipfirewall_key_hash_v4
003ab864 T ipfirewall_cmp_hash_v4
003ab8c4 T ipfirewall_get_frag4_info
003ab90c t ipfirewall_check_rules
003ac138 T ipfirewall_internal_get_rule
003ac1c4 T ipfirewall_internal_get_log
003ac254 T ipfirewall_internal_get_state
003ac2ec T ipfirewall_internal_flush_states
003ac328 T ipfirewall_input_hook
003ac384 T ipfirewall_output_hook
003ac570 t ipfirewall_mac_log_pkt
003ac758 t ipfirewall_mac_check_rules
003acc58 T ipfirewall_mac_internal_get_rule
003acce8 T ipfirewall_mac_internal_get_log
003acd78 T ipfirewall_mac_input_hook
003acdc0 T ipfirewall_mac_output_hook
003ace4c T ipfirewall_userdef_match
003ace80 T ipfirewall_userdef_check
003ace88 T ipfirewall_userdef_destroy
003ace94 t ipfirewall_http_bms_str_search
003ad024 t ipfirewall_http_bf_str_search
003ad118 t ipfirewall_http_fast_str_search
003ad148 t ipfirewall_http_str_st_len
003ad180 t ipfirewall_http_is_ci_string_same
003ad1e8 t ipfirewall_http_str_ci_cmp
003ad2fc t ipfirewall_http_find
003ad36c t ipfirewall_field_name_find
003ad47c t ipfirewall_http_checksum_adjust
003ad4ec t ipfirewall_http_match_cookie
003ad5f8 t ipfirewall_http_match_object
003ad738 t ipfirewall_http_match_url
003ad978 T ipfirewall_http_match
003adb78 T ipfirewall_http_check
003adc04 T ipfirewall_http_destroy
003adc08 T ipfirewall_http_insert_url_filter
003addd4 T ipfirewall_http_insert_proxy_filter
003ade60 T ipfirewall_http_insert_cookie_filter
003adeec T ipfirewall_http_insert_java_filter
003adf78 T ipfirewall_http_insert_activex_filter
003ae004 T ipfirewall_http_add_filter
003ae0fc T ipfirewall_http_remove_filter
003ae944 t ipfirewall_cmd_setsockopt
003ae948 t ipfirewall_cmd_getsockopt
003ae94c t ipfirewall_get_protocol_number
003ae9a0 t ipfirewall_get_protocol_name
003aea04 t ipfirewall_print_usage
003aecbc t ipfirewall_mac_print_addr
003aed78 t ipfirewall_print_addr
003aee38 t ipfirewall_print_port
003aeff0 t ipfirewall_print_rule_common1
003af150 t ipfirewall_print_rule_common2
003af1e8 t ipfirewall_print_address_scope
003af428 t ipfirewall_print_rules
003afa8c t ipfirewall_mac_print_rules
003afc28 t ipfirewall_print_states
003afdf8 t ipfirewall_print_log
003b0194 t ipfirewall_mac_print_log
003b040c t ipfirewall_print_userdef
003b0514 t ipfirewall_print_stats
003b069c t ipfirewall_parse_addrmask
003b07b4 t ipfirewall_mac_parse_addrmask
003b0950 t ipfirewall_parse_proto
003b0a74 t ipfirewall_parse_pktflags
003b0ce4 t ipfirewall_parse_tos
003b0e5c t ipfirewall_parse_ttl
003b0f4c t ipfirewall_parse_interface
003b1064 t ipfirewall_parse_quick
003b10c8 t ipfirewall_parse_logkey
003b1148 t ipfirewall_parse_direction
003b1200 t ipfirewall_parse_action
003b1468 t ipfirewall_parse_index
003b14ec t ipfirewall_parse_port
003b1a28 t ipfirewall_parse_address
003b1c9c t ipfirewall_parse_mac_type
003b1d90 t ipfirewall_parse_icmptype
003b1fc8 t ipfirewall_parse_flags
003b2350 t ipfirewall_parse_with
003b24c8 t ipfirewall_parse_keep
003b258c t ipfirewall_parse_head
003b2690 t ipfirewall_parse_limit
003b28dc t ipfirewall_parse_userdef
003b2a30 t ipfirewall_parse_rule
003b2f9c t ipfirewall_setsockopt_single
003b3010 t ipfirewall_addremove_parsed_rule
003b3110 t ipfirewall_addremove_rule
003b31f8 t ipfirewall_enable_disable
003b3304 t ipfirewall_flush_group_common
003b33b0 T ipfirewall_enable
003b33b8 T ipfirewall_disable
003b33c0 T ipfirewall_add_rule
003b33d4 T ipfirewall_remove_rule
003b33e8 T ipfirewall_mac_add_rule
003b33fc T ipfirewall_add_rule_file
003b3588 T ipfirewall_mac_remove_rule
003b359c T ipfirewall_flush_rules
003b35a4 T ipfirewall_mac_flush_rules
003b35ac T ipfirewall_flush_group
003b35b4 T ipfirewall_mac_flush_group
003b35bc T ipfirewall_flush_states
003b35c4 T ipfirewall_flush_userdefs
003b35cc T ipfirewall_flush_log
003b35d4 T ipfirewall_mac_flush_log
003b35dc T ipfirewall_cmd_ipfirewall
003b5464 t ipnet_cmd_netstat_is_contiguous
003b54d8 t ipnet_netstat_print_routes
003b5914 t ipnet_netstat_print_entries
003b5c94 t ipnet_netstat_init_stat_sig
003b5ce4 t ipnet_netstat_print_stats
003b66e8 T ipnet_cmd_netstat
003b78fc t ipnet_cmd_ifconfig_create_mask
003b794c t ipnet_ifconfig_print_ipv4
003b7a9c t ipnet_ifconfig_print_tunnel
003b7bc8 t ipnet_ifconfig_print_vlan
003b7c6c t ipnet_ifconfig_if_change_state
003b7d50 t ipnet_ifconfig_if_change_dhcp
003b7dec t ipnet_ifconfig_if_detach
003b7f00 t ipnet_ifconfig_ipv4_replace
003b8018 t ipnet_ifconfig_ipv4_add_delete
003b81ac t ipnet_ifconfig_set_vr
003b824c t ipnet_ifconfig_set_mtu
003b82e0 t ipnet_ifconfig_set_dstaddr
003b83bc t ipnet_ifconfig_set_lladdr
003b84ac t ipnet_ifconfig_create
003b8524 t ipnet_ifconfig_destroy
003b85c8 t ipnet_ifconfig_vlan_conf
003b8664 t ipnet_ifconfig_vlanpri_conf
003b8700 t ipnet_ifconfig_tunnel_conf
003b8794 t ipnet_ifconfig_if_change_link
003b888c t ipnet_ifconfig_if_promisc_link
003b8920 t ipnet_cmd_ifconfig_print_usage
003b8e08 t ipnet_cmd_ifconfig_parse_arg
003b95a4 t ipnet_ifconfig_format_number
003b962c t ipnet_ifconfig_print_info
003b9a6c T ipstack_ifconfig_print_info
003b9abc T ipnet_cmd_ifconfig
003bb748 t ipnet_cmd_route_create_mask
003bb798 t ipnet_cmd_route_set_mask_from_prefixlen
003bb824 t ipnet_cmd_route_print_addresses
003bb8e0 t ipnet_cmd_route_print_metrics
003bb960 t ipnet_cmd_route_print_if
003bb9d0 t ipnet_cmd_route_print_msghdr
003bba28 t ipnet_cmd_route_print_routeinfo
003bbaf0 t ipnet_cmd_route_print_addrinfo
003bbb40 t ipnet_cmd_route_print_ifinfo
003bbc78 t ipnet_cmd_route_print_ifannounce
003bbcc4 t ipnet_cmd_route_issue_request
003bc040 t ipnet_cmd_route_change
003bc114 t ipnet_cmd_route_get
003bc204 t ipnet_cmd_route_monitor
003bc334 t ipnet_cmd_route_vr
003bc384 t ipnet_cmd_route_print_usage
003bc400 t ipnet_cmd_route_parse_arg
003bcd54 T ipnet_cmd_route_add
003bce9c T ipnet_cmd_route_delete
003bcf78 T ipnet_cmd_route
003bf524 t ipnet_ping_error
003bf580 t ipnet_ping_get_response_time
003bf5f4 t ipnet_ping_update_timeout
003bf670 t ipnet_ping_print_ip_opts
003bf7a0 t ipnet_ping_schedule_echo_request
003bf820 t ipnet_ping_send_echo_request
003bf9e4 t ipnet_ping_process_msg
003bfabc t ipnet_ping_recv_echo_reply
003bfcbc t ipnet_cmd_ping_internal
003c0818 T ipnet_cmd_ping_stoppable
003c081c T ipnet_cmd_ping
003c14b4 T ipnet_cmd_rt_flags_to_str
003c1724 T ipnet_cmd_rt_flags_to_str_short
003c19c8 T ipnet_cmd_if_type_to_str
003c1ac0 T ipnet_cmd_init_addrs
003c1b28 T ipnet_cmd_msec_since
003c1ba8 T ipnet_bit_array_clr
003c1bcc T ipnet_bit_array_test_and_set
003c1c08 T ipnet_nat_protocol_number
003c1c5c T ipnet_nat_protocol_name
003c1ce4 T ipnet_ping_stat_init
003c1d44 T ipnet_ping_stat_transmit
003c1d54 T ipnet_ping_stat_receive
003c1db8 T ipnet_ping_stat_report
003c20fc t ipnet_suspend
003c21ec t ipnet_update_time_tmo
003c2200 t ipnet_timeout_pq_cmp
003c2230 t ipnet_timeout_pq_store_index
003c2238 t ipnet_timeout_duration_until_next
003c2298 t ipnet_ip4_try_eth_fast_forward_path
003c25d0 T ipnet_pkt_input
003c2814 t ipnet_pkt_kclone
003c2988 t ipnet_pkt_report_wrapper
003c29e0 t ipnet_softirq_run
003c2a74 T ipnet_sig_free
003c2ab8 t ipnet_pkt_rx_action
003c2b24 t ipnet_open
003c2b9c T ipnet_stats_tcp_established
003c2c10 t ipnet_handle_statistics_sig
003c2e5c t ipnet_process_signals
003c334c T ipnet_sysvar_netif_get_as_int_ex
003c341c T ipnet_sysvar_netif_get_as_int
003c3424 T ipnet_softirq_init
003c3434 t ipnet_init
003c389c T ipnet_softirq_schedule
003c393c T ipnet_timeout_cancel
003c39b0 T ipnet_timeout_msec_until
003c39c8 T ipnet_sec_now
003c39d8 T ipnet_msec_now
003c3a14 T ipnet_timeout_schedule
003c3b38 T ipcom_stackd_init
003c3bc4 t ipnet_process_pending_timeouts
003c3c80 T ipnet_is_stack_task
003c3cb8 T ipnet_pkt_clone
003c3cc0 T ipnet_schedule_pkt_report
003c3d28 T ipnet_increase_hdr_space
003c3d90 T ipnet_has_priv
003c3da0 T ipnet_finish_transport_checksum
003c3dfc T ipcom_pkt_input_queue
003c3f14 T ipnet_kioevent
003c4138 t ipnet_kioevent_softirq
003c4198 T ipnet_timeval_to_msec
003c41c8 T ipnet_create
003c424c T ipnet_start
003c4358 T ipnet_version
003c4624 t ipnet_ctrl_sock
003c47b0 T ipnet_ctrl
003c4820 t ipnet_diffserv_key_hash
003c4858 t ipnet_diffserv_obj_hash
003c4894 t ipnet_diffserv_hash_cmp
003c48c0 t ipnet_diffserv_register_ctor
003c4904 T ipnet_diffserv_get_ds_field
003c4930 T ipnet_diffserv_input
003c49c4 T ipnet_diffserv_set_ds_field
003c49e8 T ipnet_diffserv_ioctl
003c4c4c T ipnet_diffserv_init
003c4d74 t ipnet_ds_marker_sm_input
003c4de8 t ipnet_ds_sm_delete
003c4dec t ipnet_ds_sm_new
003c4e88 T ipnet_diffserv_sm_template
003c4ea0 t ipnet_ds_meter_srtcm_class_to_color
003c4f64 t ipnet_ds_meter_srtcm_add_tokens
003c500c t ipnet_ds_meter_srtcm_input
003c50cc t ipnet_ds_marker_srtcm_input
003c5174 t ipnet_ds_srtcm_delete
003c5178 t ipnet_ds_srtcm_new
003c5204 T ipnet_diffserv_srtcm_template
003c5214 t ipnet_eth_is_valid_node_mac
003c5240 t ipnet_eth_rarp_input
003c52ec t ipnet_eth_ioevent
003c5348 t ipnet_eth_ip4_multicast_to_link_addr
003c5380 t ipnet_arp_timeout
003c5390 t ipnet_eth_send_pending_pkt
003c53f8 t ipnet_arp_init
003c541c t ipnet_eth_get_frame_info
003c555c T ipnet_set_eth_type
003c55dc t ipnet_eth_raw_output
003c56a0 t ipnet_eth_rarp_request
003c57bc t ipnet_eth_rarp_timeout
003c5838 T ipnet_eth_update_mib2_lastchange
003c589c T ipnet_eth_if_init
003c599c T ipnet_arp_set_state
003c5a78 t ipnet_arp_try_resolve
003c5b2c t ipnet_arp_try_resolve_on_all_links
003c5ba8 t ipnet_eth_update_arp_entry_from_msg
003c5cd0 t ipnet_eth_arp_input
003c62d4 T ipnet_arp_request
003c6570 t ipnet_eth_set_mac_addr
003c6600 t ipnet_eth_ioctl
003c6870 t ipnet_arp_probe
003c68bc T ipnet_arp_ioctl
003c6d70 T ipnet_eth_add_hdr
003c6ee8 t ipnet_ioctl_sigalarm
003c6fa8 t ipnet_ioctl_if_is_rt_affected
003c7020 t ipnet_ioctl_if_remove_routes
003c7150 t ipnet_ioctl_if_queue
003c72cc t ipnet_ioctl_if_queue_filter
003c746c t ipnet_ioctl_if_siocgifconf
003c75ec t ipnet_ioctl_rtab
003c7790 t ipnet_ioctl_sock
003c796c t ipnet_ioctl_netif_from_in_addr
003c79f0 t ipnet_ioctl_ip4_bsd43_compat
003c7c04 t ipnet_ioctl_x_route
003c7d44 t ipnet_ioctl_ip4
003c8318 T ipnet_ioctl_move_if_rt_to_vr
003c84f0 t ipnet_ioctl_if
003c8a5c T ipnet_sys_socketioctl
003c8e40 t ipnet_ip4_addr_key_func
003c8e90 t ipnet_ip4_addr_obj_func
003c8eec t ipnet_ip4_addr_cmp_func
003c8f34 t ipnet_ip4_addr_ignore_if_key_func
003c8f78 t ipnet_ip4_addr_ignore_if_obj_func
003c8fc0 t ipnet_ip4_addr_ignore_if_cmp_func
003c8ff4 T ipnet_ip4_addr_to_sockaddr
003c904c t ipnet_ip4_addr_exit_tentative_state
003c905c t ipnet_ip4_get_ip_opt
003c90cc t ipnet_ip4_rfc1256_sysvar_address
003c9190 t ipnet_ip4_rfc1256_route_remove_auto
003c9284 t ipnet_ip4_rfc1256_mode
003c9340 t ipnet_ip4_rfc1256_advertise_schedule
003c93c8 t ipnet_ip4_rfc1256_solicit_input
003c94a8 t ipnet_ip4_rfc1256_advertise_input
003c974c t ipnet_ip4_lladdr_generate
003c982c T ipnet_ip4_is_part_of_same_pkt
003c98c4 t ipnet_ip4_get_offset
003c98dc t ipnet_ip4_more_fragments
003c98f4 t ipnet_ip4_update_ip_header
003c9920 t ipnet_ip4_get_next_binding_rt
003c9940 t ipnet_icmp4_rate_reseed
003c9978 t ipnet_igmpv3_add_source_to_group_record
003c9a24 t ipnet_igmpv3_create_membership_report
003c9b18 t ipnet_igmpv3_build_if_filter
003c9b90 t ipnet_igmp_host_compatibility_mode
003c9c10 t ipnet_igmp_should_send_message
003c9c44 t ipnet_igmp_report_all
003c9cb0 t ipnet_ip4_deliver_to_raw_sock
003c9d50 t ipnet_ip4_try_fast_forward_path
003ca114 t ipnet_ip4_get_global_src_addr
003ca1a8 T ipnet_ip4_insert_addr_cache
003ca288 T ipnet_ip4_remove_addr_cache
003ca398 T ipnet_ip4_netif_get_subbrd
003ca440 T ipnet_ip4_get_src_addr
003ca7a0 T ipnet_ip4_add_route_table
003ca808 T ipnet_ip4_configure_route_table
003ca908 T ipnet_ip4_init
003ca9d0 T ipnet_ip4_get_addr_entry
003caa24 T ipnet_ip4_get_addr_type
003caac4 T ipnet_ip4_get_addr_type2
003caadc t ipnet_ip4_process_ts_option
003cace0 T ipnet_icmp4_param_init
003cad7c t ipnet_ip4_apply_ancillary_data
003caf58 t ipnet_igmp_input
003cb1b0 T ipnet_ip4_schedule_host_unreachable
003cb1bc t ipnet_ip4_pseudo_header_checksum_update
003cb1e4 t ipnet_ip4_restore_options
003cb2ac t ipnet_ip4_add_options
003cb3e8 t ipnet_ip4_add_header
003cb4f4 t ipnet_ip4_remove_header
003cb538 t ipnet_ip4_is_on_same_subnet
003cb5a0 T ipnet_icmp4_send
003cbdd0 T ipnet_ip4_sendto
003cc554 t ipnet_ip4_process_options
003cc75c t ipnet_ip4_send_host_unreachable
003cc840 t ipnet_igmp_report
003cc910 t ipnet_igmp_report_filter_change
003cc968 T ipnet_igmpv3_report_change
003cc9e0 t ipnet_igmp_report_specific_query
003cc9e8 t ipnet_igmp_report_general_query
003cc9f0 t ipnet_igmp_send_host_leave_group
003ccaa8 t ipnet_ip4_assign_addr
003ccdc4 t ipnet_ip4_lladdr_init
003ccf34 t ipnet_ip4_lladdr_probe_wait
003ccf3c t ipnet_ip4_lladdr_probe
003cd024 t ipnet_ip4_lladdr_announce
003cd114 t ipnet_ip4_lladdr_defend
003cd11c T ipnet_ip4_add_addr
003cd12c t ipnet_ip4_lladdr_set_state
003cd31c T ipnet_ip4_remove_addr
003cd654 T ipnet_ip4_change_addr_mask
003cd810 T ipnet_ip4_add_addr2
003cdaec T ipnet_ip4_lladdr_conflict
003cdbc4 t ipnet_ip4_rfc1256_state_change
003cdc2c t ipnet_ip4_rfc1256_solicit
003cdcfc t ipnet_ip4_rfc1256_state_run
003cde30 T ipnet_ip4_rfc1256_mode_update
003cdfc0 t ipnet_ip4_if_configure
003ce060 t ipnet_ip4_if_unconfigure
003ce128 T ipnet_ip4_kioevent
003ce248 t ipnet_ip4_rfc1256_advertise
003ce5f8 t ipnet_ip4_fragment_timeout
003ce710 T ipnet_icmp4_dst_create_rt
003ce8fc t ipnet_icmp4_input
003cf0c8 T ipnet_ip4_get_mss
003cf668 t ipnet_loopback_ioctl
003cf7c0 t ipnet_loopback_input
003cf88c t ipnet_loopback_get_frame_info
003cf8f0 t ipnet_loopback_raw_output
003cf944 t ipnet_loopback_ip_output
003cf9c8 t ipnet_loopback_drv_output
003cfa2c T ipnet_loopback_attach
003cfa90 T ipnet_loopback_get_netif
003cfa9c T ipnet_is_loopback
003cfadc T ipnet_loopback_if_init
003cfb48 t ipnet_loopback_ioevent
003cfb6c T ipnet_mcast_init
003cfbb4 T ipnet_mcast_clear
003cfc28 T ipnet_mcast_free
003cfc70 T ipnet_mcast_schedule_membership_report
003cfd04 T ipnet_mcast_report_finish
003cfd90 T ipnet_mcast_build_if_filter
003cfe40 T ipnet_mcast_build_source_change_report
003d0064 T ipnet_mcast_time_to_msec
003d00b0 t ipnet_neigh_get_base_reachable_time
003d0158 t ipnet_neigh_rt_template_is_valid
003d0194 T ipnet_neigh_queue_until_resolved
003d02a4 T ipnet_neigh_free_all_pending
003d0344 T ipnet_neigh_send_all_pending
003d03e4 T ipnet_neigh_init
003d0414 T ipnet_neigh_set_state
003d0724 T ipnet_neigh_timeout
003d09f8 t ipnet_netif_key_hash
003d0a24 t ipnet_netif_obj_hash
003d0a2c t ipnet_netif_hash_cmp
003d0a44 t ipnet_if_index_array_cmp_cb
003d0a70 t ipnet_if_update_mib2_lastchange
003d0ad4 T ipnet_if_indextonetif
003d0b40 T ipnet_if_get_index_array
003d0c58 T ipnet_if_nametonetif
003d0d44 T ipnet_if_to_sockaddr_dl
003d0e50 T ipnet_if_can_detach
003d0eec T ipnet_if_clean_snd_queue
003d0f64 T ipnet_if_free
003d0fc8 T ipnet_if_drv_ioctl
003d1044 T ipnet_if_link_ioctl
003d10ac T ipnet_if_clean
003d1184 T ipnet_if_detach
003d1224 T ipnet_if_init_ppp_peer
003d126c T ipnet_if_set_ipv4_ppp_peer
003d13a0 T ipnet_if_clean_ppp_peer
003d13a8 T ipnet_sys_if_indexname
003d1470 T ipnet_sys_if_nametonetif
003d14c8 T ipnet_if_init
003d153c T ipnet_ppp_if_init
003d1584 T ipnet_netif_change_flags
003d1684 T ipnet_sys_if_attach
003d1824 T ipnet_sys_if_detach
003d18ac T ipnet_sys_if_free
003d1908 T ipnet_sys_if_malloc
003d19dc T ipnet_sys_if_changename
003d19e4 T ipnet_sys_if_changemtu
003d19ec T ipnet_sys_if_changelinkaddr
003d1ab4 t ipnet_pkt_queue_key_hash
003d1aec t ipnet_pkt_queue_obj_hash
003d1b28 t ipnet_pkt_queue_hash_cmp
003d1b54 t ipnet_pkt_queue_register
003d1be8 t ipnet_pkt_queue_reset
003d1c30 t ipnet_pkt_select_queue_id
003d1cb4 T ipnet_pkt_queue_delete
003d1d30 T ipnet_pkt_queue_new
003d2050 T ipnet_pkt_queue_init
003d230c t ipnet_pkt_queue_fifo_enqueue
003d2354 t ipnet_pkt_queue_fifo_dequeue
003d2394 t ipnet_pkt_queue_fifo_requeue
003d23d8 t ipnet_pkt_queue_fifo_count
003d23e0 t ipnet_pkt_queue_fifo_dump
003d23ec t ipnet_pkt_queue_fifo_configure
003d23fc t ipnet_pkt_queue_fifo_init
003d2418 T ipnet_pkt_queue_fifo_template
003d242c t ipnet_sock_packet_init
003d2464 t ipnet_sock_packet_destroy
003d2498 t ipnet_sock_packet_lookup
003d2500 t ipnet_sock_packet_send
003d2684 T ipnet_packet_getsockopt
003d268c T ipnet_packet_setsockopt
003d2784 T ipnet_sock_packet_register
003d2864 t ipnet_raw_socket_input
003d292c T ipnet_raw_input
003d2bc8 T ipnet_packet_input
003d2d6c t ipnet_route_name_obj_hash
003d2da8 t ipnet_route_name_key_hash
003d2de0 t ipnet_route_name_hash_cmp
003d2e0c t ipnet_route_find_name_cb
003d2e58 t ipnet_route_table_hash_key
003d2e80 t ipnet_route_table_hash_obj
003d2ebc t ipnet_route_table_hash_cmp
003d2efc t ipnet_route_policy_hash_key
003d2f28 t ipnet_route_policy_hash_obj
003d2f5c t ipnet_route_policy_hash_cmp
003d2f8c t ipnet_route_create_af_link_gateway
003d2fc0 t ipnet_route_u32_align
003d2fd0 t ipnet_route_policy_get_rule_head
003d301c t ipnet_route_find_netif
003d30d4 t ipnet_route_replace_node
003d317c t ipnet_route_unhook
003d32b8 t ipnet_route_get_rt_with_largest_prefixlen
003d3394 t ipnet_route_remove_all_cb_for_each_table
003d33d4 t ipnet_route_are_sockaddr_equal
003d3490 t ipnet_route_delete2_cloned_cb
003d34c0 t ipnet_route_delete_non_perm_cloned_cb
003d34d8 t ipnet_route_key_unpack
003d34f0 t ipnet_route_ip4_is_mcast_or_bcast
003d3570 t ipnet_route_get_capable_netif
003d35f4 T ipnet_route_lock
003d3604 T ipnet_route_unlock
003d3648 t ipnet_route_init_dont_route_entry
003d3718 t ipnet_route_dont_route_timeout_cb
003d3818 T ipnet_route_has_expired
003d384c T ipnet_route_get_rtab
003d38cc t ipnet_route_get
003d3948 T ipnet_route_apply_mask
003d39a4 T ipnet_route_cache_invalidate
003d39d4 T ipnet_route_notify_func
003d3ab4 t ipnet_route_insert
003d3d28 T ipnet_route_walk_tree
003d3e3c T ipnet_route_for_each_data_init
003d3e4c T ipnet_route_lookup_ip4_dont_route
003d412c T ipnet_route_set_lifetime
003d421c T ipnet_route_next_entry
003d42cc T ipnet_route_first_entry
003d432c t ipnet_route_get_table_ids_cb
003d43c8 T ipnet_route_get_table_ids
003d4464 T ipnet_route_key_to_sockaddr
003d44bc t ipnet_route_delete_dynamic_rt_cb
003d4538 T ipnet_route_has_changed
003d45f4 T ipnet_route_rotate_gateways
003d4648 T ipnet_route_remove_all
003d4694 T ipnet_route_sockaddr_to_key
003d46b0 T ipnet_route_is_virtual_router_valid
003d46fc T ipnet_route_set_rtab
003d47e8 T ipnet_route_policy_ioctl
003d4b24 T ipnet_route_vr_and_table_from_name
003d4bc0 T ipnet_route_get_name
003d4c48 T ipnet_route_set_name
003d4d34 T ipnet_route_delete_name
003d4d9c T ipnet_route_delete_table
003d4f44 T ipnet_route_delete_vr
003d5078 T ipnet_route_add_table
003d5204 T ipnet_route_policy_get_rule_chain
003d523c T ipnet_route_key_cmp
003d52b0 t ipnet_route_get_table_id
003d54b4 T ipnet_route_create_llinfo_entry
003d5630 t ipnet_route_lookup_link_local
003d56cc T ipnet_route_raw_lookup
003d59c4 T ipnet_route_lookup_ecmp
003d5d5c T ipnet_route_lookup
003d5de0 T ipnet_route_raw_lookup2
003d5f38 T ipnet_route_add_cloned_rt
003d61a4 T ipnet_route_add
003d67b8 T ipnet_route_delete2
003d6970 t ipnet_route_timeout_cb
003d6a2c T ipnet_route_remove_all_cb_for_each_entry
003d6bb8 T ipnet_route_delete
003d6bfc T ipnet_route_create_mask
003d6cac t ipnet_sock_route_lookup
003d6d14 t ipnet_sock_route_init
003d6d4c t ipnet_sock_route_destroy
003d6d80 t ipnet_routesock_output
003d6dc4 t ipnet_routesock_get_addrs_from_rt_msg
003d6e5c t ipnet_routesock_get_rt
003d6f40 t ipnet_routesock_create_addrs
003d7010 t ipnet_routesock_output_addr
003d70b0 t ipnet_routesock_output_rt
003d72e8 t ipnet_routesock_output_get
003d737c t ipnet_routesock_output_err_reply
003d7434 t ipnet_routesock_input_add_rt
003d7614 t ipnet_routesock_input_delete_rt
003d76f8 t ipnet_routesock_input_new_vr
003d7754 t ipnet_routesock_input_delete_vr
003d77b8 T ipnet_routesock_addr_add
003d77e4 T ipnet_routesock_addr_delete
003d7810 T ipnet_routesock_if_change
003d78a4 T ipnet_routesock_if_announce
003d7948 T ipnet_routesock_rt_add
003d79fc T ipnet_routesock_rt_delete
003d7ab0 T ipnet_routesock_rt_change
003d7b50 t ipnet_routesock_input_change_rt
003d7cb8 t ipnet_routesock_input
003d7e10 t ipnet_sock_route_send
003d7e58 T ipnet_routesock_rt_miss
003d7f04 T ipnet_routesock_rt_redirect
003d806c T ipnet_routesock_rt_resolve
003d811c T ipnet_sock_route_register
003d81f8 t ipnet_sock_bound_obj_hash
003d824c t ipnet_sock_bound_key_hash
003d82a0 t ipnet_sock_bound_hash_cmp
003d82f0 t ipnet_sock_obj_hash
003d8394 t ipnet_sock_key_hash
003d8434 t ipnet_sock_hash_cmp
003d84c8 t ipnet_key_from_sock
003d8518 t ipnet_bound_sock_from_sock
003d85b4 t ipnet_add_ancillary_ipv4_data
003d877c t ipnet_bind_check_reuse
003d8950 t ipnet_sock_get_port_from_sockaddr
003d896c t ipnet_sock_opt_obj_hash
003d89ac t ipnet_sock_opt_key_hash
003d89ec t ipnet_sock_opt_cmp
003d8a2c t ipnet_sock_create_failed_cb
003d8a5c t ipnet_poll_timeout
003d8ac0 t ipnet_signal_ready_sock
003d8b50 t ipnet_sock_has_waiting
003d8bb4 T ipnet_sock_get_bound_socket_size
003d8bbc T ipnet_sock_has_waiting_writers
003d8bc4 T ipnet_is_sock_writable
003d8c98 T ipnet_is_sock_exceptional
003d8d0c T ipnet_is_sock_readable
003d8e38 T ipnet_sys_poll
003d8f44 T ipnet_sys_poll_done
003d9008 T ipnet_sock_pkt_drain
003d909c T ipnet_sock_register_ops
003d91e4 T ipnet_sock_alloc_private_data
003d9210 T ipnet_sock_create_lookup_tables
003d92b4 T ipnet_sock_rx_cache_invalidate
003d92e8 T ipnet_sock_set_reachable
003d93a0 T ipnet_sock_set_unreachable
003d9484 T ipnet_sock_add_to_rx_cache
003d9504 T ipnet_sock_unconnect
003d9550 T ipnet_sock_unbind
003d9664 T ipnet_sock_bind
003d96e0 T ipnet_sock_change_addr_entry
003d9738 T ipnet_next_ephemeral_port
003d9870 T ipnet_sock_bind_to_port
003d995c T ipnet_sock_data_avail
003d9ac4 T ipnet_queue_received_packet
003d9c58 T ipnet_sock_bind_addr_removed
003d9cd4 T ipnet_sys_poll_async
003d9d54 T ipnet_sock_free
003d9e40 t ipnet_sock_pkt_dtor
003da000 T ipnet_sock_drop_all_multicast_memberships
003da0c8 T ipnet_sock_get_ops
003da104 T ipnet_sys_socket
003da360 T ipnet_sys_shutdown
003da520 T ipnet_do_close
003da64c T ipnet_sys_socketclose
003da6e8 T ipnet_sys_listen
003da7a0 T ipnet_sys_accept
003da858 T ipnet_sys_bind
003da990 T ipnet_sys_connect
003dab10 T ipcom_pkt_hdrspace
003dabb4 T ipnet_sys_sendmsg
003dad6c T ipnet_sys_getname
003dae24 T ipnet_sock_get_route
003daf00 T ipnet_sys_get_ancillary_data
003db360 t ipnet_sock_ip4_init
003db44c t ipnet_sock_ip4_close
003db494 t ipnet_sock_ip4_connect
003db624 t ipnet_sock_ip4_raw_connect
003db674 t ipnet_sock_ip4_bind
003db820 t ipnet_sock_ip4_getname
003db8c8 t ipnet_sock_ip4_mcast_remove_source
003db908 T ipnet_sock_ip4_get_mcast_data
003db950 T ipnet_sock_ip4_mcast_delete_data
003dba04 T ipnet_sock_ip4_lookup
003dbae8 T ipnet_sock_ip4_get_ops
003dbb9c T ipnet_sock_ip4_register
003dbd10 t ipnet_sock_tcp_init
003dbd98 t ipnet_sock_tcp_destroy
003dbde4 t ipnet_sock_tcp_bind
003dbe38 t ipnet_sock_tcp_connect
003dbeb4 t ipnet_usr_sock_tcp_recv
003dbfd8 t ipnet_sock_tcp_append_send_data
003dc0b0 t ipnet_usr_sock_tcp_pkts_from_iov
003dc3a4 T ipnet_sock_tcp_register
003dc584 t ipnet_sockopt_invalidate_sock_cache
003dc5ac t ipnet_sockopt_enter_exit_promisc
003dc614 t ipnet_receive_cb_init
003dc660 t ipnet_getsockopt_sol
003dca20 t ipnet_setsockopt_sol
003dcef8 t ipnet_getsockopt_udp
003dcf50 t ipnet_setsockopt_udp
003dcfe8 t ipnet_getsockopt_ip4
003dd3a4 t ipnet_sockopt_ip4_mcast_create_data
003dd4d0 t ipnet_sockopt_ip4_mcast_add_remove_source
003dd60c t ipnet_sockopt_ip4_set_ip_options
003dd6bc t ipnet_setsockopt_ip4_update_sticky_option_flag
003dd6e4 t ipnet_getsockopt_icmp
003dd744 t ipnet_setsockopt_icmp
003dd798 T ipnet_sockopt_ip4_addr_to_netif
003dd840 t ipnet_setsockopt_ip4
003de198 T ipnet_sys_getsockopt
003de32c T ipnet_sys_setsockopt
003de4dc t ipnet_sysctl_route_dump_elem_len
003de53c t ipnet_sysctl_route_add_addr
003de5ac t ipnet_sysctl_route_dump_cb
003de7cc t ipnet_sysctl_for_each_rtab_cb
003de828 t ipnet_sysctl_route_dump
003de8bc t ipnet_sysctl_if_add_ip4_addr
003de918 t ipnet_sysctl_inet4
003dec38 T ipnet_sysctl_if_add_addrs_one
003dee84 t ipnet_sysctl_if_add_addrs
003def34 T ipnet_sysctl_create_ifinfo
003df038 t ipnet_sysctl_if_dump
003df1ec t ipnet_sysctl_route
003df28c t ipnet_sysctl_net
003df2e4 T ipnet_sys_sysctl
003df430 t ipnet_sock_udp_init
003df4ac t ipnet_sock_udp_bind
003df500 t ipnet_sock_udp_connect
003df564 t ipnet_sock_udp_send
003df6d8 t ipnet_udp_encapsulation
003df768 t ipnet_udp_fast_deliver_data
003df8cc T ipnet_udp_input
003dfd38 T ipnet_sock_udp_register
003dfeb4 t ipnet_usr_sock_pipe_recv
003dff50 t ipnet_copy_sender_info
003e00b0 t ipnet_usr_sock_poll_done
003e00f8 t ipnet_usr_sock_poll_free
003e013c t ipnet_is_sock_readable_adapter
003e0144 t ipnet_is_sock_writable_adapter
003e014c t ipnet_is_sock_exceptional_adapter
003e0154 T ipnet_usr_sock_init
003e01ac T ipnet_usr_sock_get_ops
003e01c8 T ipnet_get_sock
003e0268 T ipnet_usr_sock_get_pipe
003e0278 T ipnet_usr_sock_get_response_pipe
003e0288 T ipnet_usr_sock_init_sig
003e02fc t ipnet_usr_sock_alloc_poll_done_sig
003e0364 t ipnet_usr_sock_poll
003e0420 t ipnet_usr_sock_wait_until
003e04ec t ipnet_usr_sock_wait_until_readable
003e0538 t ipnet_usr_sock_poll_exceptional
003e0568 t ipnet_usr_sock_poll_writable
003e0598 t ipnet_usr_sock_poll_readable
003e05c8 t ipnet_usr_sock_basic_send_recv
003e0694 t ipnet_usr_sock_getname
003e076c t ipnet_usr_sockopt
003e0840 t ipnet_do_if_attach
003e093c T ipnet_usr_sock_get_route_cache_id
003e094c T ipnet_release_sock
003e09c4 t ipnet_for_each_sock_in_set
003e0b04 T ipnet_usr_sock_wait_until_writable
003e0b50 t ipnet_usr_sock_create_pkt_from_iov
003e1028 T ipnet_usr_sock_recvmsg
003e1284 T ipcom_accept
003e1378 T ipcom_bind
003e1438 T ipcom_connect
003e1558 T ipcom_getsockname
003e1560 T ipcom_getsockopt
003e1568 T ipcom_getpeername
003e1570 T ipcom_socketioctl
003e1660 T ipcom_listen
003e16dc T ipcom_recvmsg
003e186c T ipcom_recvfrom
003e18f0 T ipcom_recv
003e18fc T ipcom_sendmsg
003e1c64 T ipcom_sendto
003e1cbc T ipcom_send
003e1cc8 T ipcom_setsockopt
003e1cf4 T ipcom_socketselect
003e1e90 T ipcom_socketread
003e1ea0 T ipcom_socketwrite
003e1eb0 T ipcom_socketwritev
003e1efc T ipcom_socket
003e1f80 T ipcom_socketclose
003e2008 T ipcom_shutdown
003e2084 T ipcom_sysctl
003e21b8 T ipcom_if_attach
003e2200 T ipcom_if_attach_and_lock
003e2264 T ipcom_if_changelinkaddr
003e2364 T ipcom_if_changemtu
003e245c T ipcom_if_changename
003e2568 T ipcom_if_detach
003e26b4 T ipcom_if_free
003e2758 T ipcom_if_malloc
003e2854 T ipcom_if_nametoindex
003e293c T ipcom_if_indextoname
003e2a58 T ipcom_if_nameindex
003e2bb4 T ipcom_if_freenameindex
003e2bc4 T ipcom_if_nametonetif
003e2cfc T ipnet_suspend_stack
003e2d94 T ipnet_resume_stack
003e2e40 t ipnet_pcap_session_key_func
003e2e4c t ipnet_pcap_session_obj_func
003e2e74 t ipnet_pcap_session_cmp_func
003e2e8c t ipnet_pcap_fill_header
003e2f40 t ipnet_pcap_new_record
003e2fb8 t ipnet_pcap_file_add_record
003e3034 t ipnet_pcap_add_record
003e3088 t ipnet_pcap_link_input
003e30e4 t ipnet_pcap_drv_output
003e3140 t ipnet_pcap_file_init
003e31fc T ipnet_pcap_ioctl
003e341c t ipnet_pkt_pool_unlock_sched_drain
003e3454 t ipnet_pkt_pool_wakeup_tmo
003e349c t ipnet_issue_pktavail_cb
003e3564 t ipnet_pkt_pool_hdr_ctor
003e357c t ipnet_pkt_pool_hdr_dtor
003e3580 T ipcom_pktbuf_free
003e35d4 t ipnet_pkt_drain
003e3670 T ipnet_pkt_pool_init
003e3790 T ipnet_pkt_pool_hdr_count_hint
003e3824 t ipnet_config_cmd_ifconfig
003e3864 t ipnet_config_cmd_qc
003e38a4 t ipnet_config_cmd_route
003e38e4 t ipnet_config_add_route
003e3ab4 t ipnet_config_add_inet_addr
003e3d00 t ipnet_config_add_gateway
003e3e14 t ipnet_config_bring_up_if
003e3e6c t ipnet_config_interface
003e4038 t ipnet_config_run_boot_cmd
003e418c T ipnet_boot_config
003e45e8 t ipnet_ppp_input
003e45ec t ipnet_ppp_ioctl
003e45f0 t ipnet_ppp_ip4_output
003e45f8 t ipnet_ppp_ioevent
003e4644 t ipnet_ppp_ioevent_init
003e4648 T ipcom_ppp_ioevent
003e49a8 T ipppp_if_init2
003e4a5c t ipnet_ip4_mcast_vr_obj_hash
003e4a70 t ipnet_ip4_mcast_vr_key_hash
003e4a7c t ipnet_ip4_mcast_vr_hash_cmp
003e4a98 t ipnet_ip4_mcast_rt_obj_hash
003e4aa8 t ipnet_ip4_mcast_rt_key_hash
003e4ab4 t ipnet_ip4_mcast_rt_hash_cmp
003e4ae4 t ipnet_ip4_mcast_del_mrt
003e4b48 t ipnet_ip4_mcast_hash_del_mrt
003e4b88 t ipnet_ip4_mcast_get_cached_mrt
003e4bf4 t ipnet_ip4_mcast_mrt_init
003e4d3c t ipnet_ip4_mcast_netiftovif
003e4d98 t ipnet_ip4_mcast_mrt_report
003e4e84 t ipnet_ip4_mcast_mrt_timeout
003e4e8c t ipnet_ip4_mcast_cache_unresolved
003e4fb4 t ipnet_ip4_mcast_output
003e5140 T ipnet_ip4_mcast_add_vif
003e5414 T ipnet_ip4_mcast_del_vif
003e5528 T ipnet_ip4_mcast_del_mfc
003e55ac T ipnet_ip4_mcast_set_assert
003e55f0 T ipnet_ip4_mcast_mrt_done
003e56ac T ipnet_ip4_mcast_getsockopt
003e575c T ipnet_ip4_mcast_ioctl
003e5884 T ipnet_ip4_mcast_input
003e5a50 T ipnet_ip4_mcast_add_mfc
003e5c14 T ipnet_ip4_mcast_setsockopt
003e5d78 T ipnet_pim_ip4_input
003e5f9c t ipnet_pkt_queue_dpaf_cmp_func
003e5fac t ipnet_pkt_queue_dpaf_store_index
003e5fdc t ipnet_pkt_queue_dpaf_dequeue2
003e60b0 t ipnet_pkt_queue_dpaf_enqueue2
003e617c t ipnet_pkt_queue_dpaf_enqueue
003e6240 t ipnet_pkt_queue_dpaf_dequeue
003e62ac t ipnet_pkt_queue_dpaf_requeue
003e62c0 t ipnet_pkt_queue_dpaf_count
003e62c8 t ipnet_pkt_queue_dpaf_dump
003e62d4 t ipnet_pkt_queue_dpaf_configure
003e62e4 t ipnet_pkt_queue_dpaf_destroy
003e632c t ipnet_pkt_queue_dpaf_init
003e63c4 T ipnet_pkt_queue_dpaf_template
003e6440 t ipnet_pkt_queue_htbc_retry_cb
003e64bc t ipnet_pkt_queue_htbc_dequeue
003e65ec t ipnet_pkt_queue_htbc_requeue
003e65fc t ipnet_pkt_queue_htbc_count
003e6658 t ipnet_pkt_queue_htbc_reset
003e66b4 t ipnet_pkt_queue_htbc_dump
003e66fc t ipnet_pkt_queue_htbc_configure
003e67dc t ipnet_pkt_queue_htbc_init
003e68d4 t ipnet_pkt_queue_htbc_destroy
003e6950 t ipnet_pkt_queue_htbc_get
003e69e0 t ipnet_pkt_queue_htbc_enqueue
003e6a60 t ipnet_pkt_queue_htbc_remove
003e6ac0 t ipnet_pkt_queue_htbc_insert
003e6b60 t ipnet_pkt_queue_htbc_f_insert
003e6bb4 t ipnet_pkt_queue_htbc_f_remove
003e6bbc T ipnet_pkt_queue_htbc_template
003e6ca4 t ipnet_pkt_queue_mbc_insert_default_queue
003e6d40 t ipnet_pkt_queue_mbc_enqueue
003e6d98 t ipnet_pkt_queue_mbc_dequeue
003e6e08 t ipnet_pkt_queue_mbc_requeue
003e6e60 t ipnet_pkt_queue_mbc_count
003e6ec0 t ipnet_pkt_queue_mbc_reset
003e6f14 t ipnet_pkt_queue_mbc_dump
003e6f58 t ipnet_pkt_queue_mbc_configure
003e709c t ipnet_pkt_queue_mbc_init
003e7104 t ipnet_pkt_queue_mbc_destroy
003e7180 t ipnet_pkt_queue_mbc_get
003e7220 t ipnet_pkt_queue_mbc_remove
003e72c0 t ipnet_pkt_queue_mbc_insert
003e7354 t ipnet_pkt_queue_mbc_f_insert
003e73dc t ipnet_pkt_queue_mbc_f_remove
003e73e4 T ipnet_pkt_queue_mbc_template
003e7574 t ipnet_pkt_queue_netemu_pq_cmp
003e7624 t ipnet_pkt_queue_netemu_corrupt
003e7694 t ipnet_pkt_queue_netemu_retry_cb
003e770c t ipnet_pkt_queue_netemu_enqueue
003e7918 t ipnet_pkt_queue_netemu_dequeue
003e79b0 t ipnet_pkt_queue_netemu_requeue
003e79b8 t ipnet_pkt_queue_netemu_count
003e79c0 t ipnet_pkt_queue_netemu_reset
003e7a00 t ipnet_pkt_queue_netemu_dump
003e7a4c t ipnet_pkt_queue_netemu_configure
003e7a9c t ipnet_pkt_queue_netemu_init
003e7af8 t ipnet_pkt_queue_netemu_destroy
003e7b34 T ipnet_pkt_queue_netemu_template
003e7b48 t ipnet_pkt_queue_null_enqueue
003e7b70 t ipnet_pkt_queue_null_dequeue
003e7b78 t ipnet_pkt_queue_null_count
003e7b80 t ipnet_pkt_queue_null_dump
003e7b84 t ipnet_pkt_queue_null_configure
003e7b8c t ipnet_pkt_queue_null_init
003e7b94 T ipnet_pkt_queue_null_template
003e7ba8 t ipnet_tunnel_nat_t
003e7d88 t ipnet_tunnel_min_encap_create_header
003e7ed0 t ipnet_tunnel_min_encap_input
003e8028 t ipnet_tunnel_ip4_obj_hash
003e8074 t ipnet_tunnel_ip4_key_hash
003e80d4 t ipnet_tunnel_ip4_hash_cmp
003e817c t ipnet_tunnel_tos
003e81a8 t ipnet_tunnel_ip4_output
003e83b0 t ipnet_tunnel_output
003e85bc t ipnet_tunnel_input
003e8768 t ipnet_tunnel_get_frame_info
003e8804 T ipnet_tunnel_get_type
003e8878 T ipnet_tunnel_get_basetype
003e8928 T ipnet_tunnel_get_basename
003e8a20 T ipnet_tunnel_type
003e8a40 t ipnet_tunnel_configure
003e8aa0 t ipnet_tunnel_ioctl
003e91dc T ipnet_tunnel_ip4_input
003e9348 T ipnet_tunnel_ip4_rfc3519_input
003e937c T ipnet_tunnel_dsmipv6_input
003e940c T ipnet_tunnel_setup
003e9490 T ipnet_tunnel_add
003e955c T ipnet_tunnel_create_bsd
003e95ac T ipnet_tunnel_create_linux
003e9654 T ipnet_tunnel_if_init
003e9944 t ipnet_vlan_obj_hash
003e9958 t ipnet_vlan_key_hash
003e9964 t ipnet_vlan_hash_cmp
003e9980 t ipnet_vlan_bind
003e9aac t ipnet_vlan_unbind
003e9bc8 t ipnet_vlan_link_ioctl
003e9f98 t ipnet_vlan_drv_ioctl
003ea08c t ipnet_vlan_drv_output
003ea100 T ipnet_vlan_create
003ea180 T ipnet_vlan_compact_create
003ea2cc T ipnet_vlan_add_frame_header
003ea358 T ipnet_vlan_if_init
003ea3dc t ipnet_nat_mapping_get
003ea444 t ipnet_nat_get_id
003ea508 t ipnet_nat_release_id
003ea540 t ipnet_nat_clean_mapping
003ea610 t ipnet_nat_mapping_timeout
003ea680 t ipnet_nat_obj_hash_out_port
003ea6f4 t ipnet_nat_key_hash_out_port
003ea764 t ipnet_nat_cmp_hash_out_port
003ea7c4 t ipnet_nat_obj_hash_out_noport
003ea818 t ipnet_nat_key_hash_out_noport
003ea868 t ipnet_nat_cmp_hash_out_noport
003ea8a8 t ipnet_nat_obj_hash_in_port
003ea91c t ipnet_nat_key_hash_in_port
003ea98c t ipnet_nat_cmp_hash_in_port
003ea9ec t ipnet_nat_obj_hash_in_noport
003eaa40 t ipnet_nat_key_hash_in_noport
003eaa90 t ipnet_nat_cmp_hash_in_noport
003eaad0 t ipnet_nat_translate_address
003eab08 t ipnet_nat_get_configuration
003eabe0 t ipnet_nat_remove_mappings
003eac48 t ipnet_nat_internal_add_rule
003eae38 t ipnet_nat_internal_remove_rule
003eaed8 t ipnet_nat_internal_flush_rules
003eaf38 t ipnet_nat_internal_get_rule
003eafcc t ipnet_nat_internal_get_mapping
003eb060 t ipnet_nat_internal_get_proxy
003eb0f4 t ipnet_nat_internal_get_info
003eb144 t ipnet_nat_internal_clear_stats
003eb17c t ipnet_nat_internal_enable
003eb228 t ipnet_nat_internal_disable
003eb27c t ipnet_nat_assign_mapping
003eb544 t ipnet_nat_reset_mapping_timeout
003eb5b0 t ipnet_nat_assign_timeout
003eb6b0 t ipnet_nat_translate_icmp_id
003eb724 t ipnet_nat_get_tuple
003eb944 T ipnet_nat_match_rule
003ebb80 T ipnet_nat_checksum_update
003ebc28 t ipnet_nat_translate_embedded_icmp
003ebf04 t ipnet_nat_tcp_checksum
003ec0f4 t ipnet_nat_udp_checksum
003ec270 t ipnet_nat_icmp_checksum
003ec350 T ipnet_nat_update_sequence_number
003ec398 T ipnet_nat_translate_sequence_number
003ec44c T ipnet_nat_translate_ack_number
003ec508 T ipnet_nat_proxy
003ec7a0 T ipnet_nat_translate_tcpudp_port
003ec7cc t ipnet_nat_translate
003ecad8 T ipnet_nat_add_mapping
003ecd34 T ipnet_nat_update_mapping
003ece60 t ipnet_nat_embedded_tuple
003ed008 T ipnet_nat_find_mapping
003ed4ac t ipnet_nat_loop_rules
003ed680 T ipnet_nat_getsockopt
003ed724 T ipnet_nat_setsockopt
003ed808 T ipnet_nat_input_hook
003ed860 T ipnet_nat_output_hook
003ed8e8 T ipnet_nat_proxy_get_time
003ed8ec T ipnet_nat_proxy_timeout_schedule
003ed8f4 T ipnet_nat_proxy_timeout_cancel
003ed8f8 T ipnet_nat_proxy_timeout_reschedule
003ed948 T ipnet_nat_proxy_add_mapping
003edbac T ipnet_nat_proxy_set_mapping_timeout
003edbb8 T ipnet_nat_add_proxy
003ede08 T ipnet_nat_init
003ee18c T ipnet_nat_remove_proxy
003eea8c t ipnet_nat_proxy_ftp_port_cmd
003eeddc t ipnet_nat_proxy_ftp_extport_cmd
003ef144 t ipnet_nat_proxy_ftp_extpasv_cmd
003ef1bc t ipnet_nat_proxy_ftp_pasv_rep
003ef524 t ipnet_nat_proxy_ftp_extpasv_rep
003ef764 T ipnet_nat_proxy_ftp
003efa30 t ipnet_nat_proxy_h245_msg
003efb94 t ipnet_nat_proxy_h245
003efbcc t ipnet_nat_proxy_h225_msg
003eff74 T ipnet_nat_proxy_h323
003f0054 t ipnet_nat_proxy_esp_translation_timeout
003f0084 t ipnet_nat_proxy_ipsec_esp_find_pending
003f00e8 t ipnet_nat_proxy_ipsec_esp_match_outbound
003f0154 t ipnet_nat_proxy_ipsec_esp_match_inbound
003f01c4 t ipnet_nat_proxy_ipsec_esp_new
003f02bc t ipnet_nat_proxy_isakmp_translation_timeout
003f02ec t ipnet_nat_proxy_ipsec_isakmp_match_outbound
003f0390 t ipnet_nat_proxy_ipsec_isakmp_match_inbound
003f0424 t ipnet_nat_proxy_ipsec_isakmp_new
003f0574 t ipnet_nat_proxy_ipsec_isakmp_cleanup_list
003f0640 t ipnet_nat_proxy_ipsec_isakmp_find_active
003f06b0 t ipnet_nat_proxy_ipsec_esp
003f08f8 t ipnet_nat_proxy_ipsec_isakmp
003f0c0c T ipnet_nat_proxy_ipsec
003f0e70 T ipnet_nat_proxy_trigger
003f1060 t ipnet_nat_proxy_pptp_messsage_type
003f117c t ipnet_nat_proxy_pptp_translation_timeout
003f11ac t ipnet_nat_proxy_pptp_find_outbound_entry_peer
003f1218 t ipnet_nat_proxy_pptp_find_outbound_entry
003f1284 t ipnet_nat_proxy_pptp_find_inbound_entry
003f12f4 t ipnet_nat_proxy_pptp_new
003f13f0 t ipnet_nat_proxy_pptp_new_spoofed_call_id
003f1490 t ipnet_nat_proxy_pptp_gre
003f15fc t ipnet_nat_proxy_pptp_control
003f18fc T ipnet_nat_proxy_pptp
003f1be4 t ipnet_nat_proxy_sip_faststrsearch
003f1cd8 t ipnet_nat_proxy_sip_keyfind
003f1e10 t ipnet_nat_proxy_sip_outboundmsgtypecheck
003f20a4 t ipnet_nat_proxy_sip_inboundmsgtypecheck
003f22b4 t ipnet_nat_proxy_sip_endmsgprocess
003f22cc t ipnet_nat_proxy_sip_addrportstrparse
003f23f4 t ipnet_nat_proxy_sip_callidstr
003f24a4 t ipnet_nat_proxy_sip_modmsg
003f253c t ipnet_nat_proxy_sip_localaddrprocess
003f2724 t ipnet_nat_proxy_sip_payload_parse
003f2d08 t ipnet_nat_proxy_sip_msg
003f2d38 T ipnet_nat_proxy_sip
003f307c t ipnet_classifier_addr_match
003f3124 t ipnet_classifier_port_match
003f3188 t ipnet_classifier_ip4_get_tag
003f32b0 t ipnet_classifier_get_map
003f3300 T ipnet_classifier_pkt_to_tag
003f3358 T ipnet_classifier_set_tag
003f339c T ipnet_classifier_invalidate_tag
003f33ec T ipnet_classifier_get_smallest_unused_id
003f344c T ipnet_classifier_add_mapping
003f35e4 T ipnet_classifier_del_mapping
003f362c T ipnet_classifier_new
003f368c T ipnet_classifier_delete
003f3844 t ipnet_frag_list_len
003f387c T ipnet_fragment_packet
003f3aa8 T ipnet_reassembly
003f3d80 T ipnet_create_reassembled_packet
003f3f88 t ipnet_gre_seq_cmp
003f4014 T ipnet_gre_destroy
003f4080 T ipnet_gre_setup
003f410c t ipnet_gre_seq_tmo
003f4258 T ipnet_gre_input
003f44ec T ipnet_gre_output_append
003f46ec T userPPPFuncDummy
003f4728 T SetPPP_Eventfunc
003f4744 T GetStatusPPP
003f474c t ipppp_auth_login_hook
003f484c T ipppp_example_action_work_default
003f4b4c t ipppp_action_cb
003f4b9c t ipppp_sysvar_get_conf
003f4ce8 t ipppp_sysvar_get_conf_as_int
003f4d24 T ipppp_sysvar_get_conf_string
003f4d74 t ipppp_ip4_get_dstaddr
003f4ed4 T ipppp_pkt_malloc
003f4ff0 t ipppp_drv_ioctl
003f5020 T ipppp_log
003f51f8 t ipppp_timer_cancel
003f53a0 t ipppp_timer_set
003f54d8 T ipppp_action_irc
003f554c t ipppp_win_output
003f5688 t ipppp_coderej_input
003f5704 T ipppp_output
003f5b68 t ipppp_chap_response_output
003f5cc8 t ipppp_chap_challenge_output
003f5e24 t ipppp_pap_request_output
003f5f5c T ipppp_ip4_output
003f5fec t ipppp_termack_reply
003f6040 t ipppp_echoreq_output
003f6138 T ipppp_termreq_output
003f61a8 t ipppp_confreq_output
003f6864 t ipppp_event_up
003f6934 t ipppp_login
003f6afc T ipppp_event_close
003f6c6c t ipppp_action_starting
003f6f6c t ipppp_event_down
003f7098 T ipppp_event_open
003f71ec t ipppp_action_up
003f7654 t ipppp_action_down
003f77d8 T ipppp_action_lcp_close
003f78e4 t ipppp_authenticate
003f7c74 T ipppp_ioctl
003f8188 T ipppp_drv_wincompat
003f82cc t ipppp_drv_open
003f8380 t ipppp_action_finished
003f86c4 t ipppp_termack_input
003f87d0 t ipppp_confnakrej_input
003f8e44 t ipppp_link_down
003f8ebc t ipppp_confreq_input
003f9684 t ipppp_confack_input
003f97bc T ipppp_chap_input
003f9b2c T ipppp_pap_input
003f9dd4 t ipppp_echorep_input
003f9e94 t ipppp_echoreq_input
003f9fa4 t ipppp_termreq_input
003fa088 t ipppp_protrej_input
003fa134 T ipppp_prot_input
003fa2c8 T ipppp_input
003fa9b0 t ipppp_link_up
003fab18 T ipppp_ioevent
003fac0c t ipppp_timeout
003faee8 T ipppp_lock
003faeec T ipppp_unlock
003faef0 T ipppp_if_create
003faefc T ipppp_if_init
003fb010 T ipppp_if_attach
003fb0ac T ipppp_create
003fb0e0 T ipppp_start
003fb174 T ipppp_version
003fc610 t ipppp_pppoe_set_cookie
003fc6bc t ipppp_pppoe_sessionidtonetif
003fc734 t ipppp_pppoe_ascii_addr
003fc79c t ipppp_pppoe_send_padt
003fc850 t ipppp_pppoe_send_padi
003fc990 t ipppp_pppoe_timeout
003fc994 t ipppp_pppoe_drv_output
003fcac0 t ipppp_pppoe_if_malloc
003fcbac t ipppp_pppoe_if_create_server
003fcc34 t ipppp_pppoe_if_detach
003fccd0 t ipppp_pppoe_drv_ioctl
003fcfe0 T ipppp_pppoe_create
003fd020 T ipppp_pppoe_input
003fe2b0 t ipppp_cmd_pppconfig_sysvar_each_cb
003fe2ec t ipppp_cmd_pppconfig_sysvar_each_user_cb
003fe350 t ipppp_cmd_pppconfig_sysvar_each_if_cb
003fe3b4 t ipppp_cmd_pppconfig_sysvar_each_ifp_cb
003fe448 t ipppp_cmd_pppconfig_sprintbit
003fe510 t ipppp_cmd_pppconfig_print_interface
003fe884 t ipppp_cmd_pppconfig_cache_interface
003feb08 t ipppp_cmd_pppconfig_list_interfaces
003febb4 T ipppp_cmd_pppconfig
00400ed4 t ipradius_inaddr_equal
00400f1c t ipradius_server_equal
00400fc0 t ipradius_addr_to_str
00401024 t ipradius_get_lexicographic_server
004010a8 t ipradius_session_free
004010f0 t ipradius_servent_free
004011dc t ipradius_packet_id_alloc
0040127c t ipradius_packet_id_free
00401324 t ipradius_reqent_free
00401374 t ipradius_set_server
004014c0 t ipradius_attr_check
004015b0 t ipradius_access_accept
00401610 t ipradius_access_reject
00401670 t ipradius_access_challenge
004016d0 t ipradius_md5_encrypt
00401718 t ipradius_hmac_md5
00401854 t ipradius_session_find
004018c0 t ipradius_request_entry_find
0040198c t ipradius_packet_validate
00401aa8 T ipradius_attr_find
00401afc T ipradius_attr_add_array
00401b70 T ipradius_attr_add_u32
00401b9c t ipradius_password_insert
00401df8 t ipradius_attr_add_message_auth
00401e60 t ipradius_request_packet_send
00402128 t ipradius_accounting_request_create
00402300 t ipradius_tick
0040255c T ipradius_attr_get_u32
004025cc t ipradius_accounting_response
004026a4 T ipradius_attr_get_array
004026a8 T ipradius_attr_get_next
004026f8 T ipradius_attr_change_u32
00402744 T ipradius_attr_verify_message_auth
004027ec T ipradius_init
00402864 T ipradius_open
00402928 T ipradius_close
00402a3c T ipradius_exit
00402a78 T ipradius_ctrl
00402bcc T ipradius_server_add
00402e14 T ipradius_server_remove
00402eb8 T ipradius_server_ctrl
00403100 t ipradius_check_request_unlocked
0040315c T ipradius_check_request
004031c8 T ipradius_access_request_pkt_malloc
00403280 T ipradius_access_request_pkt_free
004032e8 T ipradius_access_request
004034a0 T ipradius_accounting_session_start
004035cc T ipradius_accounting_session_stop
004036c8 T ipradius_accounting_session_update
00403758 T ipradius_read
0040393c T ipradius_get_numattempts
004039a8 T ipradius_create
004039cc T ipradius_start
00403a4c T ipradius_version
00403d18 t ipradius_errname2
00403e68 t ipradius_errname
00403eb8 t ipradius_example_event_callback
0040414c t ipradius_run_command
004041d0 t ipradius_cmd_exit
004041d8 t ipradius_cmd_help
004041e0 t ipradius_cmd_servadd
00404308 t ipradius_cmd_servdel
004043ec t ipradius_cmd_accessmib
00404620 t ipradius_cmd_acctmib
0040483c t ipradius_cmd_close
004048a0 t ipradius_cmd_open
0040493c t ipradius_example_recv
00404b04 t ipradius_cmd_accounting
00404dd8 t ipradius_cmd_access
00405034 t ipradius_setup
004051d4 t ipradius_cleanup
00405250 T ipradius_cmd_radiusc
00406e88 T ipssl_ciphers
00406ec8 T ipssl_s_time
00406f08 T ipssl_s_client
00406f48 T ipssl_s_server
00406f88 T SSL_library_init
00406f90 T ipssl_create
00406fb4 T ipssl_get_stdio_fd
00406fd4 T ipssl_start
00406fdc T ipssl_version
0040703c T ssl_load_ciphers
0040711c t sk_comp_cmp
00407134 t load_builtin_compressions
00407264 T ssl_cipher_get_evp
00407494 t ll_append_tail
004074fc t ssl_cipher_get_disabled
004075e8 t ssl_cipher_collect_ciphers
0040770c t ssl_cipher_collect_aliases
00407780 t ssl_cipher_apply_rule
00407978 t ssl_cipher_strength_sort
00407ac4 t ssl_cipher_process_rulestr
00407e48 T ssl_create_cipher_list
004080b0 T SSL_CIPHER_description
004085dc T SSL_CIPHER_get_version
0040862c T SSL_CIPHER_get_name
00408648 T SSL_CIPHER_get_bits
00408670 T ssl3_comp_find
004086dc T SSL_COMP_get_compression_methods
00408700 T SSL_COMP_add_compression_method
00408844 T SSL_COMP_get_name
00408c18 T SSL_CTX_set_ssl_version
00408c98 T SSL_CTX_set_session_id_context
00408cf0 T SSL_set_session_id_context
00408d48 T SSL_CTX_set_generate_session_id
00408db4 T SSL_set_generate_session_id
00408e20 T SSL_has_matching_session_id
00408ee0 T SSL_CTX_set_purpose
00408ee8 T SSL_set_purpose
00408ef0 T SSL_CTX_set_trust
00408ef8 T SSL_set_trust
00408f00 T SSL_set_bio
00408f90 T SSL_get_rbio
00408f98 T SSL_get_wbio
00408fa0 T SSL_get_rfd
00408fec T SSL_get_fd
00408ff0 T SSL_get_wfd
0040903c T SSL_set_fd
004090b8 T SSL_set_wfd
0040917c T SSL_set_rfd
00409240 T SSL_get_finished
00409298 T SSL_get_peer_finished
004092f0 T SSL_get_verify_mode
004092f8 T SSL_get_verify_depth
00409300 T SSL_get_verify_callback
00409308 T SSL_CTX_get_verify_mode
00409310 T SSL_CTX_get_verify_depth
00409318 T SSL_CTX_get_verify_callback
00409320 T SSL_set_verify
00409334 T SSL_set_verify_depth
0040933c T SSL_set_read_ahead
00409344 T SSL_get_read_ahead
0040934c T SSL_pending
00409380 T SSL_get_peer_certificate
004093ec T SSL_get_peer_cert_chain
0040941c T SSL_copy_session_id
004094f0 T SSL_CTX_check_private_key
00409588 T SSL_check_private_key
00409650 T SSL_get_default_timeout
00409684 T SSL_read
00409704 T SSL_peek
0040977c T SSL_write
00409818 T SSL_renegotiate
00409868 T SSL_renegotiate_pending
00409878 T SSL_callback_ctrl
004098c0 T SSL_CTX_sessions
004098c8 T SSL_CTX_ctrl
00409a94 T SSL_CTX_callback_ctrl
00409adc T ssl_cipher_id_cmp
00409b08 T ssl_cipher_ptr_id_cmp
00409b3c T SSL_get_ciphers
00409b78 T ssl_get_ciphers_by_id
00409bb4 T SSL_get_cipher_list
00409c34 T SSL_CTX_set_cipher_list
00409cb4 T SSL_set_cipher_list
00409d38 T SSL_get_shared_ciphers
00409e1c T ssl_cipher_list_to_bytes
00409eb4 T ssl_bytes_to_cipher_list
00409fec T SSL_get_servername
0040a024 T SSL_get_servername_type
0040a058 T SSL_SESSION_hash
0040a084 T SSL_SESSION_cmp
0040a0dc t SSL_SESSION_hash_LHASH_HASH
0040a0e0 t SSL_SESSION_cmp_LHASH_COMP
0040a0e4 T SSL_CTX_free
0040a20c T SSL_CTX_new
0040a508 T SSL_CTX_set_default_passwd_cb
0040a510 T SSL_CTX_set_default_passwd_cb_userdata
0040a518 T SSL_CTX_set_cert_verify_callback
0040a524 T SSL_CTX_set_verify
0040a530 T SSL_CTX_set_verify_depth
0040a538 T ssl_set_cert_masks
0040a864 T check_srvr_ecc_cert_and_alg
0040a998 T ssl_get_server_send_cert
0040aab4 T ssl_get_sign_pkey
0040ab58 T ssl_update_cache
0040ac5c T SSL_get_ssl_method
0040ac64 T SSL_set_ssl_method
0040ad14 T ssl_undefined_function
0040ad50 T ssl_undefined_void_function
0040ad8c T ssl_undefined_const_function
0040adc8 T ssl_bad_method
0040ae04 T SSL_get_version
0040ae50 T ssl_clear_cipher_ctx
0040aee8 T SSL_set_connect_state
0040af0c T SSL_connect
0040af58 T SSL_set_accept_state
0040af80 T SSL_accept
0040afcc T SSL_free
0040b1e8 T SSL_clear
0040b390 T SSL_new
0040b5f8 T SSL_get_certificate
0040b618 T SSL_get_privatekey
0040b638 T SSL_get_current_cipher
0040b658 T SSL_get_current_compression
0040b674 T SSL_get_current_expansion
0040b690 T ssl_init_wbio_buffer
0040b784 T ssl_free_wbio_buffer
0040b7dc T SSL_CTX_set_quiet_shutdown
0040b7e4 T SSL_CTX_get_quiet_shutdown
0040b7ec T SSL_set_quiet_shutdown
0040b7f4 T SSL_get_quiet_shutdown
0040b7fc T SSL_set_shutdown
0040b804 T SSL_get_shutdown
0040b80c T SSL_version
0040b814 T SSL_ctrl
0040b978 T SSL_get_SSL_CTX
0040b980 T SSL_set_SSL_CTX
0040ba1c T SSL_CTX_set_default_verify_paths
0040ba24 T SSL_CTX_load_verify_locations
0040ba2c T SSL_set_info_callback
0040ba34 T SSL_get_info_callback
0040ba3c T SSL_dup
0040bd50 T SSL_state
0040bd58 T SSL_do_handshake
0040bdf0 T SSL_shutdown
0040be78 T SSL_set_verify_result
0040be80 T SSL_get_verify_result
0040be88 T SSL_get_ex_new_index
0040bea4 T SSL_set_ex_data
0040beac T SSL_get_ex_data
0040beb4 T SSL_CTX_get_ex_new_index
0040bed0 T SSL_CTX_set_ex_data
0040bed8 T SSL_CTX_get_ex_data
0040bee0 T ssl_ok
0040bee8 T SSL_CTX_get_cert_store
0040bef0 T SSL_CTX_set_cert_store
0040bf38 T SSL_want
0040bf40 T SSL_get_error
0040c0d4 T SSL_CTX_set_tmp_rsa_callback
0040c0e0 T SSL_set_tmp_rsa_callback
0040c0ec T SSL_CTX_set_tmp_dh_callback
0040c0f8 T SSL_set_tmp_dh_callback
0040c104 T SSL_CTX_set_msg_callback
0040c110 T SSL_set_msg_callback
0040c248 T SSL_get_session
0040c250 T SSL_get1_session
0040c2c4 T SSL_SESSION_get_ex_new_index
0040c2e0 T SSL_SESSION_set_ex_data
0040c2e8 T SSL_SESSION_get_ex_data
0040c2f0 T SSL_SESSION_new
0040c3a8 T SSL_SESSION_get_id
0040c3c0 t def_generate_session_id
0040c434 T SSL_SESSION_free
0040c51c T ssl_get_new_session
0040c7b8 T SSL_set_session
0040c924 T SSL_SESSION_set_timeout
0040c940 T SSL_SESSION_get_timeout
0040c958 T SSL_SESSION_get_time
0040c970 T SSL_SESSION_set_time
0040c98c T SSL_CTX_set_timeout
0040c9ac T SSL_CTX_get_timeout
0040c9c4 T SSL_CTX_flush_sessions
0040ca58 t SSL_SESSION_list_remove
0040cae0 t timeout
0040cb7c t timeout_LHASH_DOALL_ARG
0040cb80 t remove_session_lock
0040cc68 T SSL_CTX_remove_session
0040cc70 T ssl_clear_bad_session
0040ccec t SSL_SESSION_list_add
0040cd68 T SSL_CTX_add_session
0040cee0 T ssl_get_prev_session
0040d220 T SSL_CTX_sess_set_new_cb
0040d228 T SSL_CTX_sess_set_remove_cb
0040d230 T SSL_CTX_sess_set_get_cb
0040d238 T SSL_CTX_set_info_callback
0040d240 T SSL_CTX_set_client_cert_cb
0040d248 T SSL_CTX_set_client_cert_engine
0040d2f4 T SSL_CTX_set_cookie_generate_cb
0040d2fc T SSL_CTX_set_cookie_verify_cb
0040d394 t sv_usage
0040d61c t print_details
0040d73c t lock_dbg_cb
0040d860 T doit_biopair
0040df90 T doit
0040e588 t get_proxy_auth_ex_data_idx
0040e610 t verify_callback
0040e8f8 t process_proxy_debug
0040e9c8 t process_proxy_cond_val
0040ebc0 t process_proxy_cond_multipliers
0040ed3c t process_proxy_cond_adders
0040ee60 t process_proxy_cond
0040ee8c t app_verify_callback
0040f140 t tmp_rsa_cb
0040f274 t get_dh512
0040f300 t get_dh1024
0040f38c t get_dh1024dsa
0040f424 t do_test_cipherlist
0040f5c4 T ssltest_main
0041150c T tls1_default_timeout
00411514 T tlsv1_base_method
00411520 T tls1_new
00411574 T tls1_free
00411578 T tls1_clear
004115ac T ssl_add_clienthello_tlsext
0041194c T ssl_add_serverhello_tlsext
00411a88 T ssl_parse_clienthello_tlsext
00411e58 T ssl_parse_serverhello_tlsext
00412008 T ssl_check_clienthello_tlsext
0041213c T ssl_check_serverhello_tlsext
00412290 t tls_decrypt_ticket
004124d4 T tls1_process_ticket
00412694 T TLSv1_method
004126a0 t tls1_get_method
004126bc t sc_usage
00412ac0 t ssl_servername_cb
00412b50 t print_stuff
00413068 T s_client_main
00414d5c t ocsp_resp_cb
004160ec t get_dh512
00416170 t s_server_init
004161e0 t sv_usage
004166fc t ssl_servername_cb
004167b8 t cert_status_cb
00416af0 t print_stats
00416d48 t close_accept_socket
00416d94 t init_ssl_connection
00416fc4 t sv_body
004177cc t load_dh_param
00417830 T s_server_main
00418d40 t www_body
00419758 t tmp_rsa_cb
00419898 t generate_session_id
0041b2d4 T verify_callback
0041b47c T set_cert_stuff
0041b544 T set_cert_key_stuff
0041b604 T bio_dump_callback
0041b694 T apps_ssl_info_callback
0041b7a4 T msg_cb
0041beac T tlsext_cb
0041c6dc t init_client_ip
0041c814 t init_server_long
0041c944 t init_server
0041c950 T extract_port
0041c9c8 t GetHostByName
0041cad8 t host_ip
0041cc1c T extract_host_port
0041ccc0 T init_client
0041cd14 t do_accept
0041cea0 T do_server
0041d100 t s_time_init
0041d150 t s_time_usage
0041d218 t parseArgs
0041d550 t tm_Time_F
0041d5e4 t doConnection
0041d758 T s_time_main
0041e0ec T ciphers_main
0041e4bc t ipssl_setup_ssl_ctx
0041e590 t ipssl_cmd_init_args
0041e5e4 t ipssl_cmd_parse_args
0041e76c t ipssl_get_elapsed_msecs
0041e798 T ipssl_cmd_ssl_clt
0041ebd8 T ipssl_cmd_ssl_srv
0041f51c t add_ocsp_cert
0041f5d4 t add_ocsp_serial
0041f6e4 t print_ocsp_summary
0041f8f8 t lookup_serial
0041f9ac t make_ocsp_response
0041fc38 t init_responder
0041fce4 t do_responder
0041fe10 t send_ocsp_response
0041fed0 t query_responder
00420158 T process_responder
00420270 T ocsp_main
00422b34 T BIO_f_ssl
00422b40 t ssl_new
00422bd0 t ssl_free
00422c70 t ssl_read
00422df8 t ssl_write
00422f64 t ssl_ctrl
0042353c t ssl_callback_ctrl
00423594 t ssl_puts
004235e0 T BIO_new_ssl
00423668 T BIO_new_ssl_connect
004236e4 T BIO_new_buffer_ssl_connect
00423770 T BIO_ssl_copy_session_id
00423808 T BIO_ssl_shutdown
00423884 T DTLSv1_client_method
00423890 t dtls1_get_client_method
004238ac T dtls1_client_hello
00423b80 t dtls1_get_hello_verify
00423cb4 T dtls1_send_client_key_exchange
00424010 T dtls1_send_client_verify
004241c4 T dtls1_send_client_certificate
004243c8 T dtls1_connect
00424e90 T dtls1_default_timeout
00424e98 T dtlsv1_base_method
00424ea4 T dtls1_new
00424ffc T dtls1_free
00425118 T dtls1_clear
00425150 T dtls1_get_cipher
00425200 t dtls1_copy_record
00425284 t dtls1_buffer_record
004253f0 t dtls1_retrieve_buffered_record
00425458 t have_handshake_fragment
00425508 T do_dtls1_write
004257fc T dtls1_write_bytes
004258a8 T dtls1_write_app_data_bytes
004259a0 T dtls1_dispatch_alert
00425ac0 t dtls1_get_bitmap
00425b1c T dtls1_reset_seq_numbers
00425bbc t bytes_to_long_long
00425c58 t dtls1_record_bitmap_update
00425d38 t dtls1_process_record
00425f0c t dtls1_process_buffered_records
00425fdc t dtls1_record_replay_check
004260a0 t dtls1_clear_timeouts
004260b4 T dtls1_get_record
0042638c T dtls1_read_bytes
00426ce8 T DTLSv1_server_method
00426cf4 t dtls1_get_server_method
00426d10 T dtls1_send_hello_request
00426d84 t dtls1_send_hello_verify_request
00426ec4 T dtls1_send_server_hello
00427074 T dtls1_send_server_done
004270f0 T dtls1_send_server_key_exchange
00427750 T dtls1_send_certificate_request
00427984 T dtls1_send_server_certificate
00427a30 T dtls1_accept
00428628 t ssl23_get_client_method
00428678 T SSLv23_client_method
00428684 t ssl23_client_hello
00428af0 t ssl23_get_server_hello
00428e48 T ssl23_connect
0042915c T ssl23_default_timeout
00429164 T sslv23_base_method
00429170 T ssl23_num_ciphers
004291a4 T ssl23_get_cipher
004291ec T ssl23_get_cipher_by_char
00429230 T ssl23_put_cipher_by_char
00429258 T ssl23_read
00429304 T ssl23_peek
004293b0 T ssl23_write
004294a4 t ssl23_get_method
004294d0 T SSLv23_method
004294dc T ssl23_write_bytes
00429554 T ssl23_read_bytes
004295d4 t ssl23_get_server_method
00429624 T SSLv23_server_method
00429630 T ssl23_get_client_hello
00429cd8 T ssl23_accept
00429f44 T SSLv2_client_method
00429f50 t ssl2_get_client_method
00429f6c t client_hello
0042a114 t client_finished
0042a1c0 t client_certificate
0042a58c t get_server_verify
0042a73c t get_server_finished
0042a944 T ssl2_set_certificate
0042ab04 t get_server_hello
0042b078 t ssl_rsa_public_encrypt
0042b150 t client_master_key
0042b470 T ssl2_connect
0042b938 T ssl2_enc_init
0042bb40 T ssl2_enc
0042bbbc T ssl2_mac
0042bd48 T ssl2_default_timeout
0042bd50 T sslv2_base_method
0042bd5c T ssl2_num_ciphers
0042bd64 T ssl2_get_cipher
0042bd8c T ssl2_pending
0042bdd4 T ssl2_free
0042be48 T ssl2_clear
0042bea4 T ssl2_new
0042bf94 T ssl2_ctrl
0042bfac T ssl2_callback_ctrl
0042bfb4 T ssl2_ctx_ctrl
0042bfbc T ssl2_ctx_callback_ctrl
0042bfc4 T ssl2_get_cipher_by_char
0042c03c T ssl2_put_cipher_by_char
0042c07c T ssl2_generate_key_material
0042c1fc T ssl2_write_error
0042c2bc T ssl2_return_error
0042c2f4 T ssl2_shutdown
0042c46c T SSLv2_method
0042c478 t ssl2_get_method
0042c494 t read_n
0042c6b8 t ssl2_read_internal
0042caa4 T ssl2_peek
0042caac T ssl2_read
0042cab4 t write_pending
0042cbcc t do_ssl_write
0042ce78 T ssl2_write
0042cf9c T ssl2_do_write
0042d05c t ssl_mt_error
0042d078 T ssl2_part_read
0042d1c4 T SSLv2_server_method
0042d1d0 t ssl2_get_server_method
0042d1ec t get_client_hello
0042d66c t server_hello
0042d8a0 t get_client_finished
0042da88 t server_verify
0042db34 t server_finish
0042dbe0 t request_certificate
0042e110 t ssl_rsa_private_decrypt
0042e1dc t get_client_master_key
0042e640 T ssl2_accept
0042ebd0 T ssl3_do_write
0042eca0 T ssl3_send_finished
0042ed5c T ssl3_get_finished
0042ee80 T ssl3_send_change_cipher_spec
0042eeb4 T ssl3_output_cert_chain
0042f1ac T ssl3_get_message
0042f51c T ssl_cert_type
0042f598 T ssl_verify_alarm_type
0042f5b8 T ssl3_setup_buffers
0042f738 T SSLv3_client_method
0042f744 t ssl3_get_client_method
0042f760 T ssl3_client_hello
0042f9dc T ssl3_get_server_hello
0042feac T ssl3_get_server_certificate
00430324 T ssl3_get_key_exchange
00430aa8 T ssl3_get_certificate_request
00430e00 t ca_dn_cmp
00430e28 T ssl3_get_new_session_ticket
00430fe0 T ssl3_get_cert_status
0043117c T ssl3_get_server_done
00431218 T ssl3_send_client_key_exchange
004315a0 T ssl3_send_client_verify
0043174c T ssl3_check_cert_and_algorithm
00431a4c t ssl3_check_finished
00431af4 T ssl_do_client_cert_cb
00431b88 T ssl3_send_client_certificate
00431d84 T ssl3_connect
00432848 t ssl3_generate_key_block
004329fc T ssl3_change_cipher_state
00432e54 T ssl3_cleanup_key_block
00432eb8 T ssl3_setup_key_block
00433024 T ssl3_enc
004331c8 T ssl3_init_finished_mac
0043322c T ssl3_finish_mac
0043327c t ssl3_handshake_mac
0043339c T ssl3_final_finish_mac
004333f8 T ssl3_cert_verify_mac
00433408 T ssl3_record_sequence_update
00433434 T ssl3_mac
004335a8 T ssl3_generate_master_secret
004336c4 T ssl3_alert_code
004339cc T ssl3_default_timeout
004339d4 T sslv3_base_method
004339e0 T ssl3_num_ciphers
004339e8 T ssl3_get_cipher
00433a10 T ssl3_pending
00433a44 T ssl3_new
00433ad0 T ssl3_free
00433ba0 T ssl3_clear
00433c94 T ssl3_ctrl
00434124 T ssl3_callback_ctrl
004341c4 T ssl3_ctx_ctrl
00434560 T ssl3_ctx_callback_ctrl
004345d0 T ssl3_get_cipher_by_char
0043463c T ssl3_put_cipher_by_char
00434674 T ssl3_choose_cipher
0043475c T ssl3_get_req_cert_type
004347d0 T ssl3_shutdown
004348c4 T ssl3_renegotiate
00434908 T ssl3_renegotiate_check
004349a4 t ssl3_read_internal
00434a84 T ssl3_peek
00434a8c T ssl3_read
00434a94 T ssl3_write
00434edc T SSLv3_method
00434ee8 t ssl3_get_method
00434f04 T ssl3_read_n
004350f4 T ssl3_do_uncompress
00435160 T ssl3_do_compress
004351cc T ssl3_write_pending
00435310 t do_ssl3_write
004355c0 T ssl3_write_bytes
004356d4 T ssl3_do_change_cipher_spec
004357f4 T ssl3_send_alert
004358a8 t ssl3_get_record
00435ca0 T ssl3_read_bytes
00436518 T ssl3_dispatch_alert
004366b0 T SSLv3_server_method
004366bc t ssl3_get_server_method
004366d8 T ssl3_send_hello_request
00436738 T ssl3_check_client_hello
004367d4 T ssl3_get_client_hello
00436fcc T ssl3_send_server_hello
00437188 T ssl3_send_server_done
004371ec T ssl3_send_server_key_exchange
00437854 T ssl3_send_certificate_request
00437a7c T ssl3_get_client_key_exchange
00437e04 T ssl3_get_cert_verify
00438128 T ssl3_get_client_certificate
00438548 T ssl3_send_server_certificate
004385ec T ssl3_send_newsession_ticket
00438928 T ssl3_send_cert_status
00438a18 T ssl3_accept
0043950c T i2d_SSL_SESSION
00439c08 T d2i_SSL_SESSION
0043aacc T SSL_get_ex_data_X509_STORE_CTX_idx
0043ab90 T ssl_cert_new
0043ac14 T ssl_cert_dup
0043aedc T ssl_cert_free
0043af84 T ssl_cert_inst
0043b018 T ssl_sess_cert_new
0043b09c T ssl_sess_cert_free
0043b144 T ssl_set_peer_cert_type
0043b150 T ssl_verify_cert_chain
0043b2a4 t set_client_CA_list
0043b2f4 T SSL_dup_CA_list
0043b384 T SSL_set_client_CA_list
0043b38c T SSL_CTX_set_client_CA_list
0043b394 T SSL_CTX_get_client_CA_list
0043b39c T SSL_get_client_CA_list
0043b3f0 t add_client_CA
0043b484 T SSL_add_client_CA
0043b48c T SSL_CTX_add_client_CA
0043b494 t xname_cmp
0043b4a0 T SSL_load_client_CA_file
0043b638 T SSL_add_file_cert_subjects_to_stack
0043b778 T SSL_add_dir_cert_subjects_to_stack
0043b9e0 T SSL_load_error_strings
0043ba00 t ssl_set_pkey
0043bb14 T SSL_use_RSAPrivateKey
0043bbf4 T SSL_use_RSAPrivateKey_file
0043bd38 T SSL_use_RSAPrivateKey_ASN1
0043bdc0 T SSL_use_PrivateKey
0043be5c T SSL_use_PrivateKey_file
0043bfa0 T SSL_use_PrivateKey_ASN1
0043c028 t ssl_set_cert
0043c174 T SSL_CTX_use_certificate
0043c210 T SSL_use_certificate
0043c2ac T SSL_use_certificate_ASN1
0043c334 T SSL_use_certificate_file
0043c478 T SSL_CTX_use_certificate_file
0043c5b8 T SSL_CTX_use_certificate_ASN1
0043c644 T SSL_CTX_use_RSAPrivateKey
0043c724 T SSL_CTX_use_RSAPrivateKey_file
0043c864 T SSL_CTX_use_RSAPrivateKey_ASN1
0043c8ec T SSL_CTX_use_PrivateKey
0043c988 T SSL_CTX_use_PrivateKey_file
0043cac8 T SSL_CTX_use_PrivateKey_ASN1
0043cb50 T SSL_CTX_use_certificate_chain_file
0043cd38 T SSL_state_string_long
0043dc40 T SSL_rstate_string_long
0043dc90 T SSL_state_string
0043e990 T SSL_alert_type_string_long
0043e9c8 T SSL_alert_type_string
0043ea00 T SSL_alert_desc_string
0043ece0 T SSL_alert_desc_string_long
0043efc0 T SSL_rstate_string
00440180 T SSL_SESSION_print
004405e4 T SSL_SESSION_print_fp
00440858 T TLSv1_client_method
00440864 t tls1_get_client_method
00440880 t tls1_P_hash
004409f8 t tls1_PRF
00440aa0 t tls1_generate_key_block
00440b38 T tls1_change_cipher_state
00441004 T tls1_setup_key_block
004411a0 T tls1_enc
00441448 T tls1_cert_verify_mac
004414ac T tls1_final_finish_mac
00441580 T tls1_mac
00441740 T tls1_generate_master_secret
004417d8 T tls1_alert_code
00441a48 T ipssl_tls1_PRF
00441b54 T TLSv1_server_method
00441b60 t tls1_get_server_method
00441b7c t dtls1_hm_fragment_new
00441bfc t dtls1_hm_fragment_free
00441c38 t dtls1_preprocess_fragment
00441d54 t dtls1_retrieve_buffered_fragment
00441e3c t dtls1_process_out_of_seq_message
00441f94 T dtls1_buffer_message
004420dc T dtls1_clear_record_buffer
00442134 t dtls1_set_message_header_int
00442150 T dtls1_set_message_header
004421ac T dtls1_output_cert_chain
00442458 t dtls1_fix_message_header
00442468 t dtls1_write_message_header
004424e8 t dtls1_guess_mtu
00442528 T dtls1_do_write
004428f8 T dtls1_retransmit_message
00442a0c t dtls1_retransmit_buffered_messages
00442aac T dtls1_read_failed
00442bb8 T dtls1_send_change_cipher_spec
00442c94 T dtls1_send_finished
00442d58 T dtls1_get_message_header
00442e18 t dtls1_get_message_fragment
0044309c T dtls1_get_message
004432c0 T dtls1_get_ccs_header
00443580 T dtls1_enc
0044390c T ERR_load_SSL_strings
00445e64 t iptcp_at_mark
00445ecc t iptcp_option_len
00445f1c t iptcp_get_mss
00445fe8 t iptcp_usr_async_notification
00446058 t iptcp_flag_count
00446090 t iptcp_segment_new
004460f4 t iptcp_segment_delete
00446138 t iptcp_timeout_ptr
004461c4 t iptcp_timer_remove
00446260 t iptcp_timer_add
00446464 t iptcp_timer_remove_retransmit
004465a8 t iptcp_timer_remove_all
00446628 t iptcp_append_recv_data
00446710 t iptcp_queue_out_of_order_recv_segment
00446888 t iptcp_queue_recv_segment
00446a34 t iptcp_usr_peek_recv_queue
00446acc t iptcp_usr_get_from_recv_queue
00446ee4 t iptcp_cleanup_receive_buffer
00446f70 t iptcp_cleanup
00447070 t iptcp_calc_md5_digest
00447170 t iptcp_process_md5_opt
004471f0 t iptcp_add_sack_opt
004473f0 t iptcp_process_sack_opt
00447504 t iptcp_process_options
004477e4 t iptcp_sendto
00447c54 t iptcp_is_addr_valid
00447d04 t iptcp_server_add_to_backlog
00447d64 t iptcp_server_remove_from_backlog
00447e4c t iptcp_server_handshake_done
00447ed0 t iptcp_update_send_window
00447fd0 t iptcp_update_roundtrip_estimate
004480d4 t iptcp_process_syn
004480fc t iptcp_deliver_state_listen
00448138 t iptcp_sock_kclose
004481b0 t iptcp_output
0044853c t iptcp_create_output_seg
004487dc T iptcp_drop_connection
00448894 t iptcp_change_state
00448b80 t iptcp_schedule_delayed_ack
00448c20 t iptcp_timeout_dack
00448c9c t iptcp_timeout_lope
00448cdc t iptcp_timeout_rsrt
00448ce8 t iptcp_timeout_lngr
00448cf0 t iptcp_timeout_tiwa
00448cf8 t iptcp_deliver_data
00448f10 t iptcp_drop_oldest_closed_socket
00448f68 T iptcp_send_reset
00449174 t iptcp_deliver_state_syn_rcvd_or_higher
0044949c t iptcp_deliver_state_syn_sent
00449578 t iptcp_deliver
00449950 t iptcp_resend
00449af8 t iptcp_fast_retransmit
00449c24 t iptcp_notify_cb
00449ca4 t iptcp_gap_fast_retransmit
00449d74 t iptcp_timeout_perskeep
00449e50 t iptcp_timeout_pers
00449e58 t iptcp_timeout_keep
00449e60 t iptcp_timeout_retr
00449ee4 t iptcp_timeout_conn
00449f38 t iptcp_server_dos_avoidance
00449fb0 t iptcp_server_socket_new
0044a278 t iptcp_handle_passive_open
0044a404 t iptcp_resize_backlog
0044a588 t iptcp_fast_ack
0044a71c t iptcp_fast_deliver_data
0044a96c t iptcp_bytes_in_send_queue
0044a99c t iptcp_last_urgent_octet_offset
0044a9f4 T iptcp_window_update
0044aaac T iptcp_pkt_drain
0044ab70 T iptcp_input
0044b2e0 T iptcp_sock_init
0044b4c4 T iptcp_connect
0044b5b4 T iptcp_shutdown
0044b700 T iptcp_close
0044b800 T iptcp_sock_free
0044b8fc T iptcp_send
0044b9e8 T iptcp_usr_recv
0044bb34 T iptcp_listen
0044bc40 T iptcp_accept
0044bd18 T iptcp_getsockopt
0044bf00 T iptcp_setsockopt
0044c1e0 t iptcp_drop_connection_on_icmp_error
0044c294 T iptcp_icmp4_report
0044c358 T iptcp_ioctl
0044c3d0 T iptcp_get_rto
0044c3f0 T iptcp_change_state_global
0044c3f4 T iptcp_get_state
0044c400 T iptcp_create
0044c4b0 T iptcp_start
0044c4b8 T iptcp_version
0044c734 t ipwlan_printf
0044c7f0 t ipwlan_print_usage
0044cbac t ipwlan_print_usage_acl
0044cc08 t ipwlan_print_usage_auth
0044cc78 t ipwlan_print_usage_bi
0044ccc0 t ipwlan_print_usage_bss
0044cd1c t ipwlan_print_usage_channel
0044cd78 t ipwlan_print_usage_country
0044cdc0 t ipwlan_print_usage_encr
0044ce58 t ipwlan_print_usage_fragthresh
0044cea0 t ipwlan_print_usage_lrl
0044cee8 t ipwlan_print_usage_mbss
0044cf30 t ipwlan_print_usage_wme
0044cf78 t ipwlan_print_usage_wmeac
0044cfc0 t ipwlan_print_usage_mode
0044d044 t ipwlan_print_usage_pm
0044d08c t ipwlan_print_usage_ps
0044d0d4 t ipwlan_print_usage_quality
0044d11c t ipwlan_print_usage_radiomode
0044d1a0 t ipwlan_print_usage_rate
0044d1fc t ipwlan_print_usage_regulatory
0044d244 t ipwlan_print_usage_rtsthresh
0044d28c t ipwlan_print_usage_scan
0044d2ec t ipwlan_print_usage_srl
0044d334 t ipwlan_print_usage_ssid
0044d390 t ipwlan_print_usage_statistics
0044d3d8 t ipwlan_print_usage_status
0044d420 t ipwlan_print_usage_vlan
0044d468 t ipwlan_get_next_iwap
0044d498 t ipwlan_get_next_iwe
0044d4c8 t ipwlan_parse_ether_addr
0044d568 t ipwlan_parse_key
0044d634 t ipwlan_ioctl
0044d6d4 t ipwlan_cmd_wlan_en
004509fc T ipwlan_cmd_wlan
00450a0c T ipwlan_cmd_wlan_silent
00450a1c T convertDecimalToKeycode
00452eb8 T ftpLibInit
00452f0c T ftpReplyGetEnhanced
004531bc T ftpReplyGet
004531ec T ftpCommandEnhanced
00453390 T ftpCommand
004533c4 T ftpHookup
004535f4 T ftpLogin
004536f4 T ftpDataConnInit
00453958 T ftpDataConnGet
00453a44 T ftpLibDebugOptionsSet
00453a4c T ftpTransientConfigSet
00453a5c T ftpTransientConfigGet
00453a84 t ftpTransientFatal
00453ab8 T ftpTransientFatalInstall
00453ad4 t ftpPasvReplyParse
00453c50 T ftpDataConnInitPassiveMode
00453e38 T ftpXfer
004542fc T ftpLs
004549d4 T remLibInit
004549f0 T remCurIdGet
00454a68 T remCurIdSet
00454b74 T iam
00454bdc T whoami
00454c38 T bindresvport_af
00454d24 T bindresvport
00454d6c T bindresvportCommon
00454d70 T rresvport_af
00454e44 T rresvportCommon
00454e48 T rcmd_af
0045532c T rcmd
00455334 T rresvport
004553f8 T applLoggerInit
00455448 T applUtilInstInit
004554e8 T applLoggerStop
00455528 T logLevelChange
00455584 T logDecorationChange
004555d8 T loggerInfoShow
00455644 T initApplLogger
00455648 T stopApplLogger
0045564c T changeLogLevel
00455654 T showLoggerInfo
00455658 T _applLog
00455a20 T etherMultiAdd
00455b64 T etherMultiDel
00455bf8 T etherMultiGet
00455c8c T hostTblInit
00455cf0 T _hostDelete
00455e54 T hostDelete
00455eac T hostTblSearchByName
00455f6c t getSingleAddrInfo
00456060 T _hostGetByName
00456110 T hostGetByName
0045614c T hostTblSearchByAddr
004561f4 T hostTblSearchByAddr2
004562e0 T _hostGetByAddr
004563a8 T hostGetByAddr
004563dc t hostNameFill
00456430 t _hostBootAdd
004565f4 T hostAdd
00456650 T hostTblSetup
0045673c T _hostAdd
00456744 t aifree
0045679c T _hostTblSearchByName2
00456c44 T hostTblSearchByName2
00456c88 T getlhostbyname
00456d54 T getlhostbyaddr
00456d70 T hostentFree
00456e58 T hostentAlloc
00456f14 T sethostname
00456f5c T hostnameSetup
00457024 T gethostname
00457080 T inet_lnaof
004570c8 T inet_makeaddr_b
00457128 T inet_makeaddr
00457150 T inet_netof
0045719c T in_netof
00457284 T inet_network
004573f0 T inet_ntoa_b
00457438 T inet_netof_string
0045748c T sockLibInit
00457578 T sockLibAdd
00457618 T socket
004576dc T bind
0045776c T listen
004577ec T accept
004578d0 T connect
0045794c T connectWithTimeout
004579d0 T sendto
00457a8c T send
00457b18 T sendmsg
00457b94 T recvfrom
00457c68 T recv
00457cf4 T recvmsg
00457d7c T setsockopt
00457e18 T getsockopt
00457eb0 T getsockname
00457f38 T getpeername
00457fc0 T shutdown
00458038 t socketClose
0045809c t socketWrite
004580d0 t socketRead
00458104 t socketIoctl
00458240 T panic
00458348 T rpcInit
004583f8 T rpcTaskInit
00458498 t rpcTaskDeleteHook
0045859c T rpcClntErrnoSet
004585a4 T rpcErrnoGet
004585d4 T getaddrinfo
004585f4 T gai_strerror
00458630 T freeaddrinfo
004587a0 T getnameinfo
004587e8 T if_nametoindex
0045881c T if_indextoname
00458820 T if_nameindex
00458824 T if_freenameindex
00458834 T inet_addr
004589b0 T inet_ntoa
004589b4 T inet_aton
00458a0c T inet_ntop
00458a4c T inet_pton
00458ab0 T ipAttach
00458b08 T ipDetach
00458c58 T ifconfig
00458d58 T routec
00458e94 t strduparr
00458ee8 t freestrarr
00458f30 t deleteHook
00458f7c T pingtask
00459044 T ping
00459548 T cbioLibInit
004595a8 T cbioDevVerify
0045960c T cbioRdyChk
004596d8 T cbioShow
004598e0 T cbioParamsGet
00459950 T cbioUnlock
00459994 T cbioLock
004599e8 T cbioRdyChgdSet
00459a48 T cbioRdyChgdGet
00459ae8 T cbioModeSet
00459b7c T cbioModeGet
00459c08 T cbioIoctl
00459c5c T cbioBlkCopy
00459cb8 T cbioBytesRW
00459d2c T cbioBlkRW
00459d98 T cbioDevCreate
00459e94 t shiftCalc
00459eb4 T cbioWrapBlkDev
0045a018 t cbioWrapOk
0045a020 t cbioBlkWrapBufCreate
0045a0e4 t blkWrapBlkRW
0045a2e8 t blkWrapIoctl
0045a81c t blkWrapBlkCopy
0045a9d0 t blkWrapBytesRW
0045ac24 t blkWrapBlkRWbuf
0045afb8 T fsEventUtilLibInit
0045b020 t fsPathAddedHandler
0045b094 T fsPathAddedEventSetup
0045b12c T fsPathAddedEventRaise
0045b144 T fsWaitForPath
0045b1bc T fsMonitorInit
0045b28c t fsmProbe
0045b318 T fsmProbeInstall
0045b3b4 T fsmProbeUninstall
0045b464 T fsmNameUninstall
0045b528 T fsmGetDriver
0045b5bc T fsmUnmountHookAdd
0045b604 T fsmUnmountHookDelete
0045b64c T fsmUnmountHookRun
0045b694 t strncpy_z
0045b6dc T fsmGetVolume
0045b770 T fsmNameInstall
0045b868 T fsmNameMap
0045b8f4 t fsmHandler
0045baf4 T print64
0045bc70 T print64Fine
0045bcb4 T print64Row
0045bccc T print64Mult
0045bdd8 t rawFsEject
0045be70 t rawFsFdFlush
0045bec0 t rawFsFdFree
0045bf20 t rawFsDevDelete
0045bfbc t rawFsClose
0045c07c t rawFsFdGet
0045c0f4 T rawFsInit
0045c220 T rawFsDevInit
0045c3dc t rawFsOpen
0045c510 t rawFsSeek
0045c55c t rawFsVolFlush
0045c5e4 t rawFsFlush
0045c638 T rawFsVolUnmount
0045c6c4 t rawFsIoctl
0045ca98 t rawFsSplitIo
0045cba0 t blockxfer_done
0045cba8 t blockxfer
0045cc2c t rawFsRead
0045ce54 t rawFsWrite
0045d0d8 T utfLibInit
0045d160 T proofUtf8
0045d344 T utf8ToCP
0045d3b0 T CPToUtf8
0045d4b8 T utf16ToCP
0045d58c T CPToUtf16
0045d664 T utflen8
0045d68c T utflen16
0045d6b4 T proofUtf8String
0045d72c T utf8ToUtf16String
0045d7c8 T utf16ToUtf8String
0045d864 T utf8ToUtf16StringBOM
0045d8cc T utf16ToUtf8StringBOM
0045d934 t dosChkFinish
0045d990 t dosChkEntryMark
0045db18 t dosChkEntryFind
0045dc94 t dosChkIsClean
0045dd04 T dosChkLibInit
0045dd14 t dosChkEntryMarkSet
0045dd70 t dosChkChainStartGet
0045dddc t dosChkBuildPath
0045df80 t dosChkMsg
0045e020 t dosChkInit
0045e1a4 t dosChkChainUnmark
0045e22c t dosChkEntryDel
0045e304 t dosChkChainMark
0045e534 t dosChkDirStruct
0045e65c t dosChkStartCrossProc
0045e76c t dosChkChainVerify
0045e9e8 t dosFsChkTree
0045ed64 t dosChkLostFind
0045eefc t dosChkLostFree
0045f0a8 T dosChkDsk
0045f8fc T dosFsCacheLibInit
0045f93c T dosFsDefaultDataCacheSizeGet
0045f944 T dosFsDefaultDirCacheSizeGet
0045f94c T dosFsDefaultFatCacheSizeGet
0045f954 T dosFsDefaultCacheSizeSet
0045f964 T dosFsCacheOptionsSet
0045f968 T dosFsCacheOptionsGet
0045f96c t dosFsCacheCreateInternal
0045fc50 t dosFsCacheMount
0045fd2c T dosFsCacheCreate
0045fee0 t dosFsCacheListAddSort
0045ff60 t dosFsCacheDone
0045ff68 t dosFsCacheBlkXfer
004600a0 t dosCacheBlockFind
004601a4 t dosCacheHashRemove
00460268 t dosFsCacheFlushInternal
00460478 t dosFsCacheInvalidate
004604ec t dosFsCacheFlush
00460554 t dosFsCacheUnmount
00460658 t _dosFsCacheDelete
00460868 T dosFsCacheDelete
004608c0 t dosCacheBlockFree
00460960 t dosFsCacheDiscard
00460a24 t dosCacheHashInsert
00460a80 t dosCacheBlockAlloc
00460bc8 t dosFsCacheBlkWrite
00460e64 t dosFsCacheBlkRead
00461318 t dosFsCacheBytesRW
00461554 t dosFsCacheDataBytesRW
0046156c t dosFsCacheDirBytesRW
00461584 t dosFsCacheFatBytesRW
0046159c t dosFsCacheBlkCopy
004617d4 t dosFsCacheIoctl
00461a28 t dosFsCacheFatIoctl
00461a38 t dosFsCacheDirIoctl
00461a48 t dosFsCacheDataIoctl
00461a58 T dosFsCacheTune
00461c28 T dosFsCacheInfo
00461f40 t dosDirOldFillFd
004620c4 t dosDirOldRewindDir
00462148 t dosDirOldTDDecode
00462240 t dosDirOldTDEncode
004623dc t dosDirOldNameEncode
00462568 t dosDirOldDirentGet
004626f8 t dosDirOldForceUppercase
00462734 t dosDirOldLkupInDir
004628ac t dosDirOldClustAdd
0046295c t dosDirOldUpdateEntry
00462ad4 t dosDirOldFileCreateInDir
00462f2c t dosDirOldNameDecode
0046300c t dosDirOldReaddir
00463188 t dosDirOldPathLkup
004632e8 t dosDirOldDateGet
00463398 t dosDirOldVolLabel
004635d4 t dosDirOldNameChk
00463644 t dosDirOldVolUnmount
00463648 t dosDirOldVolMount
00463a44 T dosDirOldLibInit
00463bac t fatMirrorSect
00463cf8 t fatSyncToggle
00463dc4 t fat12RawEntRead
00463ed0 t fat12EntRead
00463f2c t fat12RawEntWrite
004640ec t fat12EntWrite
004641e0 t fat16RawEntRead
00464270 t fat16EntRead
004642cc t fat16RawEntWrite
00464364 t fat16EntWrite
00464454 t fat32RawEntRead
004644fc t fat32EntRead
00464580 t fat32RawEntWrite
00464628 t fat32EntWrite
00464778 t fatContigGet
00464900 t fat16MarkAlloc
004649b8 t fatGetNext
00464c6c t fatTruncate
00464eb8 t fatSeek
00465064 t fatNFree
00465118 t fatContigChk
004651d4 t fat16MaxContigClustersGet
004652a4 t fatContigAlloc
004653f4 t fatMaxContigSectors
00465430 T fat16ClustValueSet
004655e0 T fat16ClustValueGet
00465698 t fatMarkClean
0046573c t fatMountActivate
00465744 t fatVolUnmount
00465754 T fat16VolMount
00465adc T dosFsFatInit
00465b50 t dosFsFmtShow
00465bfc t dosFsFmtAutoParams
00466124 t dosFsSdhcFmtAutoParams
00466764 t dosFsBootSecInvalidate
00466844 t dosFsFmtReadBootBlock
00466c64 t dosFsFmtNonFsBootInit
00466ca4 t dosFsFmtVolInit
00467414 t _dosFsVolFormat
004676dc T dosFsVolFormatFd
00467898 T dosFsVolFormat
00467a28 t _dosFsSdhcVolFormat
00467d30 T dosFsSdhcVolFormat
00467ebc T dosFsFmtLibInit
00468378 T dosfsHostToDisk32
00468398 T dosfsHostToDisk16
004683a8 T dosfsDiskToHost32
004683d4 T dosfsDiskToHost16
004683ec T dosSetVolCaseSens
00468440 T dosFsVolDescGet
00468500 T dosFsVolumeOptionsGet
00468558 T dosFsVolumeOptionsSet
004685e8 t dosFsFSemTake
00468634 t dosFsFSemGive
00468680 T dosFsVolUnmount
004687c4 T dosFsChkDsk
004688cc t dosFsBadBootMsg
00468920 T dosFsVolIsFat12
00468ae8 T dosFsFdFree
00468b48 T dosFsFdGet
00468c5c t dosFsHdlDeref
00468d20 t dosFsSeek
00468ff0 t dosFsSeekDir
004690d8 t dosFsIsDirEmpty
004691d0 T dosPathParse
00469344 T dosFsClose
004695a4 t dosFsDeleteByFd
004696e4 t dosFsStatGet
004697ec t dosFsFSStatGet
00469894 t dosFsCheckDirRename
00469984 t dosFsOptUpdate
00469adc t dosFsContigAlloc
00469d24 T dosFsLastAccessDateEnable
00469d70 T dosFsLibInit
00469e18 T dosFsDevDelete
00469ea0 t dosFsFinishDevDelete
0046a044 t dosFsEject
0046a0dc T findDeviceInArray
0046a140 T dosFsDiskProbe
0046a2b4 T dosFsHdlrInstall
0046a3fc t dosFsBioGet
0046a4e0 t dosFsBioRelease
0046a554 t dosFsFillGap
0046a760 t dosFsFileRW
0046ae64 t dosFsRead
0046ae6c t dosFsTrunc
0046b088 t dosFsXbdDone
0046b090 t dosFsBlkXfer
0046b1c8 T dosFsXbdBlkWrite
0046b400 t dosFsSingleBlkXfer
0046b55c T dosFsXbdBlkRead
0046b838 T dosFsXbdBytesRW
0046bab8 t dosFsBootSecGet
0046c080 t dosFsVolMountPart1
0046c1d8 t dosFsVolMount
0046c21c t dosFsVolMountPart2
0046c330 T dosFsOpen
0046c668 t dosFsMakeDir
0046c6f0 t dosFsRename
0046cac0 t dosFsDelete
0046cb1c T dosFsIoctl
0046d684 t dosFsWrite
0046d708 t dosFsCreate
0046d7bc t dosFsVolBufCreate
0046d840 T dosFsDevCreate
0046dddc T dosFsMonitorDevCreate
0046df40 T dosFsXbdBlkCopy
0046e184 t dosFsXbdDiscard
0046e23c T dosFsXbdIoctl
0046e4d4 T dosFsVolumeReadOnlySet
0046ebac t dosVDirFillFd
0046ed58 t dosVDirRewindDir
0046eddc t dosVDirChkSum
0046ee0c t dosVDirTDDecode
0046ef04 t dosVDirTDEncode
0046f094 t dosVDirCheckRaw8dot3
0046f1ac t dosVDirBlankPad
0046f214 t dosVDirCvtTo8dot3
0046f2b8 t dosVDirUnpad
0046f35c t dosVDirFromUTF8
0046f564 t dosVDirToUTF8
0046f620 t dosVDirBuildSynthName
0046f790 t dosVDirNameExplode
0046f8b8 t dosVDirNameImplode
0046fac4 t dosVDirBuildUtf8
0046fba8 t dosVDirClustNext
0046fc70 t dosVDirDirentGet
0046fe04 t dosVDirDeStore
0046ff08 t dosVDirEntryDel
00470070 t dosVDirWriteDEs
00470108 t dosVDirFullEntGet
0047037c t dosVDirNameEq
00470418 t dosVDirFileLookup
0047065c t dosVDirUpdateEntry
004707dc t dosVDirFileCreate
00470b34 t dosVDirReaddir
00470e00 t dosVDirPathLkup
00470ffc t dosVDirDateGet
004710ac t dosVDirVolLabel
00471278 t dosVDirVolUnmount
004712d8 t dosVDirVolMount
00471688 T dosVDirLibInit
00471864 T dosFsShowInit
00471898 T dosFsShow
00471e24 t dosFsFatShow
00471edc t dosVDirShow
00471fb4 t dosDirOldShow
0047206c t dosFsCacheShowInternal
004722dc T dosFsCacheShow
004723a8 t dosChkStatPrint
00472558 T dosFsUsageDataGet
00472620 T dosFsUsageDataShow
00473108 T nfs3StableWriteGet
00473110 T nfs3StableWriteSet
0047312c T nfs3DirMount
004731e8 T nfs3DirUnmount
00473234 T nfs3MntUnmountAll
00473270 T nfs3ExportRead
004732dc T nfs3MntDump
004733a8 T nfs3ExportShow
00473498 T nfs3DecodeWcc
0047352c T nfs3FileWrite
00473698 t nfs3FileReadInternal
004737dc T nfs3FileRead
00473868 t nfs3LinkGet
00473920 T nfs3FileAttrGet
00473a0c T nfs3FsAttrGet
00473b14 T nfs3FsAttrGet64
00473c44 T nfs3FsInfoGet
00473ce4 T nfs3PathconfGet
00473da0 T nfs3DirReadOne
0047400c T nfs3RpcAttrSet
004740d0 T nfs3RpcAttrGet
00474188 T nfs3LookUpByName
00474484 T nfs3ThingCreate
004747dc T nfs3Rename
00474a14 T nfs3FileRemove
00474be8 T nfs3Drv
00474cd0 T nfs3DrvNumGet
00474d04 T nfs3Mount
00474e88 t nfs3DevFind
00474f0c T nfs3UnmountAll
00474f88 T nfs3DevInfoGet
00475014 t nfs3Delete
004750e0 t nfs3ChkFilePerms
00475180 t nfs3Open
00475674 t nfs3Create
004756c4 t nfs3Close
004757a8 t nfs3Read
004758c8 t nfs3Write
004759f4 t nfs3Seek
00475ac4 t nfs3PathConf
00475bc4 t nfs3Ioctl
00475f98 T nfs2Drv
00476080 T nfs2DrvNumGet
004760b4 T nfs2Mount
004761ac T nfs2DevFind
00476230 T nfs2UnmountAll
004762a4 T nfs2DevInfoGet
00476330 t nfs2Delete
004763d0 t nfs2ChkFilePerms
00476460 t nfs2Open
00476840 t nfs2Create
00476890 t nfs2Close
00476950 t nfs2Read
00476a70 t nfs2Write
00476b98 t nfs2Seek
00476c78 t nfs2Ioctl
00476f1c T nfs2DirMount
00476fe4 T nfs2DirUnmount
00477030 T nfs2MntUnmountAll
0047706c T nfs2MntDump
0047714c T nfs2ExportShow
0047723c T nfs2ExportRead
004772a8 T nfs2FileWrite
004773f0 T nfs2FileRead
0047753c t nfs2LinkGet
004775e4 T nfs2LookUpByName
004778a4 T nfs2ThingCreate
00477b38 T nfs2Rename
00477d80 T nfs2FileRemove
00477f24 T nfs2DirReadOne
00478144 T nfs2FileAttrGet
00478234 T nfs2FsAttrGet
00478308 T nfs2RpcAttrSet
004783d0 T nfs2RpcAttrGet
00478490 T nfsDevShow
004785e8 T nfsDevInfoGet
00478678 T nfsDevListGet
004786f4 T nfsDrvNumGet
00478768 T nfsHelp
004787c8 T nfsComponentInit
00478818 T nfsInit
004788bc t nfsClientCacheCleanUp
004789e4 t nfsDeleteHook
00478a34 T nfsClientClose
00478a50 t nfsClientCacheSetUp
00478c8c T nfsClientCall
00478d68 t nfsPmapDump
00478e60 t nfsFindRemoteVersionDetails
00478fe4 T nfsExportShow
00479148 T nfsMntDump
00479204 T nfsUnMountAll
004792c0 T nfsMountAll
0047943c T nfsMount
00479510 T nfsAuthUnixSet
004795c8 T nfsAuthUnixGet
00479674 T nfsAuthUnixShow
00479730 T nfsIdSet
0047977c t printClear
004797e8 t promptParamString
00479894 t promptParamNum
00479944 T nfsAuthUnixPrompt
00479a60 T nfsChkFilePerms
00479b4c T nfsErrnoSet
00479b54 T nfsCacheFileInvalidate
00479ba0 T nfsCacheFileFlush
00479cb8 T nfsCacheLineFlush
00479d38 T nfsCacheAlloc
00479e78 T nfsCacheFree
00479ef0 T nfsUnmount
0047a040 T nfsWhichCacheLine
0047a098 T nfsCacheLineWrite
0047a380 T nfsCacheLineRead
0047ab84 T romfsBlkDevCreate
0047ac2c t romfsBlkRd
0047ace8 t romfsFsOpen
0047ad94 t romfsFsClose
0047adf0 t romfsFsWrite
0047ae18 t romfsFsRead
0047ae68 t romfsFsDirRead
0047af74 t romfsFsIoctl
0047b054 T romfsFsInit
0047b0d0 t romfsFsDevDelete
0047b174 T romfsFsDevCreate
0047b23c T vxBlkIO
0047b2f4 T partLibCreate
0047b77c T xbdCreatePartition
0047b910 T xbdCreatePartitionSz
0047bc18 T xbdBlkDevLibInit
0047bc24 t getNextBio
0047bc98 t execBio
0047bdb4 t xbd_bd_service
0047be50 t xbd_bd_dump
0047be58 T xbdBlkDevDelete
0047bf24 t xbd_bd_test
0047bfa8 t xbd_bd_eject
0047c0ac t xbd_bd_strategy
0047c190 t xbd_bd_ioctl
0047c3c0 t xbd_bd_media_detect
0047c458 T xbdBlkDevCreate
0047c614 t xbdBlkDevCreateSyncHandler
0047c68c T xbdBlkDevCreateSync
0047c6f8 t deletePart
0047c77c t ejectHandler
0047c854 t partName
0047c8e4 t xpBioDone
0047c8ec t readSectorN
0047c98c t validatePartitionTable
0047ca94 t xpInitialize
0047cbfc t loadPartitionTable
0047cd68 T xbdPartitionDevCreate
0047cfbc t xpStrategy
0047d0c8 t xpIoctl
0047d33c t xpDump
0047d3a0 T xbdRamDiskDevCreate
0047d514 T xbdRamDiskDevCreateMemAligned
0047d6b8 T xbdRamDiskDevCreateFromMem
0047d834 t xrd_ioctl
0047d9c8 t xrd_strategy
0047db00 t xrd_dump
0047db5c T xbdRamDiskDevDelete
0047dbf8 T classLibInit
0047dc34 T classInit
0047dcec T classCreateConnect
0047dd1c T classOpenConnect
0047dd4c T classDestroyConnect
0047dd7c T classShowConnect
0047ddac T classMemPartIdSet
0047de20 T clockLibInit
0047dea4 T clock_getres
0047df6c T clock_setres
0047df74 T clock_gettime
0047e124 T clock_settime
0047e2a0 T clock_nanosleep
0047e680 T coprocLibInit
0047e84c T coprocTaskCreateHook
0047e9d0 T coprocTaskDeleteHook
0047eab4 T coprocSave
0047eb24 T coprocTaskSwapHook
0047ebcc T coprocShowOnDebug
0047ec10 t coprocAction
0047ece8 T coprocDisable
0047ecf4 T coprocEnable
0047ed00 t coprocTaskRegsAccess
0047ee4c T coprocTaskRegsSet
0047ee60 T coprocTaskRegsGet
0047ee74 T coprocCtxStorageSizeGet
0047eec8 T coprocShowInit
0047eee4 T getSymNames
0047f034 T coprocShow
0047f188 T coprocTaskRegsShow
0047f22c T coprocRegListShow
0047f280 T coprocCtxReplicate
0047f340 T coprocMRegs
0047f620 T edrLogBaseGet
0047f670 T edrLogSizeGet
0047f6c0 T edrStatusMsg
0047f78c T edrLibInit
0047f884 T edrErrorLogClear
0047f8d8 T edrErrorRecordCount
0047f92c T edrErrorInjectHookAdd
0047f990 T edrErrorInjectHookDelete
0047f9f4 T edrErrorInjectPrePostHookAdd
0047fa58 T edrErrorInjectPrePostHookDelete
0047fabc T edrErrorInjectTextHookAdd
0047fb20 T edrErrorInjectTextHookDelete
0047fb84 T edrBootCountGet
0047fbd8 t edrAnnotateCodeDump
0047fcb0 t codePrintToEDRbuf
0047fcb8 t edrCodePrint
0047fdec t edrStackTracePrint
00480108 t moduleDisplayEDR
004801b0 t rtpSigStackGet
0048021c t isRtpSigStack
00480284 t edrTrcPcValidate
004802e8 t edrGenerateStackTrace
004805bc t edrGenerateDisassembly
00480698 t edrGenerateMemoryMap
004807ec t edrGenerateExcInfo
00480994 t edrGenerateRegisters
00480a7c T edrErrorInject
00481444 T printToEDRbuf
004814d8 T edrShowInit
004814e0 T edrErrorRecordDecode
00481870 T edrShow
00481d38 T edrFatalShow
00481d44 T edrInfoShow
00481d50 T edrIntShow
00481d5c T edrInitShow
00481d68 T edrRebootShow
00481d74 T edrBootShow
00481d80 T edrKernelShow
00481d8c T edrUserShow
00481d98 T edrRtpShow
00481da4 T edrClear
00481dd8 T edrInjectHookShow
00481e20 T edrInjectTextHookShow
00481e68 T edrInjectPrePostHookShow
00481eb0 T edrHookShow
00481f0c T edrHelp
00482b1c t edrSystemDebugFlagExtract
00482b74 T edrSystemDebugModeInit
00482ba4 T edrSystemDebugModeGet
00482bbc T edrSystemDebugModeSet
00482bcc T edrFlagsGet
00482bf8 T edrIsDebugMode
00482c1c T envLibInit
00482cfc t envDestroy
00482d48 t envDuplicate
00482e00 t envCreateHook
00482ee8 t envDeleteHook
00482f54 T envPrivateCreate
004830e8 T envPrivateDestroy
004831a8 t envFind
0048324c T getenv
00483334 T putenv
0048352c T envShow
00483608 T envGet
0048370c T __errno
00483748 T errnoGet
00483770 T errnoOfTaskGet
004837a4 T errnoSet
004837dc T errnoOfTaskSet
00483820 T excInit
0048399c T jobExcAdd
00483a4c T jobAdd
00483ae8 T excJobAdd
00483aec t excTask
00483bc0 T excHookAdd
00483c3c T handleInit
00483c58 T handleTerminate
00483c70 T handleVerify
00483c9c T handleTypeGet
00483cec T handleContextGetBase
00483d00 T handleContextGet
00483d6c T handleContextSet
00483dd4 T handleShowConnect
00483e00 T handleShow
00483ebc T hashLibInit
00483ec4 T hashTblInit
00483f84 T hashTblCreate
00483ff4 T hashTblDestroy
00484068 T hashTblTerminate
00484070 T hashTblDelete
00484078 T hashTblPut
004840fc T hashTblFind
004841a0 T hashTblRemove
00484224 T hashTblEach
004842ac T hashFuncIterScale
004842e4 T hashFuncModulo
00484300 T hashFuncMultiply
0048434c T hashKeyCmp
00484364 T hashKeyStrCmp
00484394 T intContext
004843a8 T intRestrict
004843ec T intCount
004843f4 T intConnect
0048447c T intDisconnect
00484504 T jobLibInit
0048460c t jobTaskWorkAdd
00484824 t jobTask
00484954 T logMsg
004849fc T logFdAdd
00484a68 T logFdDelete
00484b14 T logFdSet
00484ba0 T logInit
00484c88 t lprintf
00484d34 T logTask
00484e78 T logShow
00484fd4 T nbioLogServerInit
004850ac T nbioLogInfoTerminate
0048512c t nbioLogMsgAdd
0048518c T nbioBegin
00485234 T nbioFlush
004852ac T nbioEnd
004852f0 T nbioLogInfoSync
00485398 T nbioSync
004853a4 t writeIt
00485454 t nbioBufChainFree
00485498 T nbioDrop
004854f0 T nbioLogInfoMsgsAdd
004855bc T nbioLogInfoInit
0048562c T nbioLogInit
00485728 t nbioBufFree
0048573c t nbioLogServer
00485858 t nbioBufAlloc
004858c8 T nbioOutput
00485990 T nbioFormatV
00485ae4 T nbioLog
00485ba8 T nbioFdPrint
00485c78 T nbioAppend
00485d54 T objLibInit
00485d68 T objGenericVerify
00485e38 T objShow
00485ebc T objAllocExtra
00485fb0 T objAlloc
00485fbc T objMemAlloc
00486010 T objMemFree
00486064 T objFree
00486110 T objCoreInit
004861e8 T objCoreInvalidate
004861ec T objCoreReclaim
0048625c T objCoreUnlink
004862c8 T objOwnerGet
00486314 T objOwnerSetBase
00486354 T objOwnerSet
00486394 T objClassTypeGet
004863d8 T objNamePtrGet
0048642c T objNameLenGet
004864b8 T objNameGet
00486594 t objNamePtrSetBase
00486690 T objNamePtrSet
00486718 T objNameSet
00486810 T objCoreTerminate
004868d4 T objClassIdGet
0048691c T objContextGet
004869a0 T objContextSet
004869fc t pmPageProtect
00486acc t pmArenaChecksum
00486b1c t pmArenaFreeSpace
00486b2c t pmArenaFindFreeRegion
00486b8c t pmArenaFindRegion
00486c0c t pmArenaUnprotect
00486c6c t pmArenaProtect
00486ccc t pmArenaValidateBasic
00486d44 t pmArenaValidate
00486e48 t pmArenaRegionValidate
00486ec0 T pmLibInit
00486ec8 T pmInit
00487008 T pmFreeSpace
00487050 T pmRegionOpen
00487098 T pmRegionClose
00487140 T pmRegionAddr
0048718c T pmRegionSize
004871d4 T pmRegionProtect
0048725c T pmRegionCreate
004873d4 T pmValidate
0048741c T pmInvalidate
004874ac T pmShow
00487724 T reboot
00487968 T kernelBaseInit
00487a48 T getpid
00487a64 T kernelIdGet
00487a6c T sigeventLibInit
00487a80 T sigeventInit
00487c58 T sigeventCreate
00487ce0 T sigeventNotify
00487ee0 T sigeventDelete
00487fd8 T sigeventSigOverrunGet
00487ffc T sigInit
00488080 T sigqueueInit
00488100 t sigDeleteHook
004881bc t sigTimeoutRecalc
00488204 T sigemptyset
00488218 T sigfillset
0048822c T sigaddset
004882c0 T sigdelset
00488354 T sigismember
004883f4 T pause
00488554 t sigTcbGet
00488610 T sigpending
00488688 T sigaction
00488818 T sigvec
004888a4 T signal
004888f4 T sigPendInit
0048890c T sigPendDestroy
00488a0c t sigWindRestart
00488b30 T sigFfsMsb
00488b6c t sigPendGet
00488cac T sigtimedwait
00488f5c T sigwaitinfo
00488f64 T sigwait
00488fb4 T sigprocmask
004890d4 T sigreturn
004890f0 t sigWrapper
00489198 t sigPendRun
0048929c T sigsetmask
004892d8 T sigblock
00489314 t sigWindPendKill
0048968c t sigWindKill
004896c8 T kill
0048982c T raise
0048983c T sigqueue
00489a0c t sigqueueWrapper
00489a34 T sigPendKill
00489b0c t sigExcSend
00489b80 t sigExcKill
00489bec T sigsuspend
00489d8c T taskHookShowInit
00489d90 T taskCreateHookShow
00489da0 T taskSwitchHookShow
00489db0 T taskSwapHookShow
00489dc0 T taskDeleteHookShow
00489dd0 T timerLibInit
00489e58 t timerConHandler
00489ee8 T timer_connect
00489f9c T timer_create
0048a25c t _timer_destroy
0048a378 T timer_delete
0048a430 T timer_destroy
0048a4cc T timer_gettime
0048a644 T timer_getoverrun
0048a6b4 T timerWdHandler
0048a84c T timer_settime
0048acf4 T timer_cancel
0048ad3c T nanosleep
0048af64 T sleep
0048af9c T alarm
0048b038 T timer_modify
0048b164 T timerShowInit
0048b190 t timerDisplay
0048b354 T timer_show
0048b5c0 t trcStackLvlUser
0048b668 t trcStackLvl
0048b74c T trcStackCtxTrace
0048b7f0 T trcStackTrace
0048b9f4 t trcPcValidate
0048bad8 T vxAtomicAdd
0048bb10 T vxAtomicSub
0048bb48 T vxAtomicInc
0048bb50 T vxAtomicDec
0048bb58 T vxAtomicOr
0048bb90 T vxAtomicXor
0048bbc8 T vxAtomicAnd
0048bc00 T vxAtomicNand
0048bc38 T vxAtomicSet
0048bc6c T vxAtomicGet
0048bc74 T vxAtomicClear
0048bcbc T vxCas
0048bd04 T vxMemProbeInit
0048bd40 T vxMemProbe
0048bd80 T vxMemCommonProbe
0048be08 T vxCpuEnabledGet
0048be10 T vxCpuConfiguredGet
0048be18 T classListLibInit
0048be68 t classListTblInitialize
0048beb8 t classListInitialize
0048bf00 t classListAdd
0048bf78 t classListRemove
0048bff0 t classListUnlockInitial
0048bff8 t classListLock
0048c008 t classListLockInitial
0048c038 t classListUnlock
0048c044 T classShowInit
0048c054 t classShowSymbol
0048c108 T classShow
0048c684 T objShowInit
0048c688 T objClassTypeShow
0048c7b4 T objShowAll
0048cc90 t objShowOwnedObjects
0048cde8 T objHandleShow
0048ce88 T objHandleTblShow
0048d638 T objInfoInit
0048d64c T objInfo
0048d778 t objNameCmpRtn
0048d808 T objEach
0048d8c4 T objNameToId
0048d918 t objNameVerifiedSet
0048d9d8 T _objClose
0048dc08 T objClose
0048dd14 T objUnlink
0048df84 t objAttrSet
0048e0c8 T objOpen
0048e558 T timerOpenInit
0048e568 t vTimerCreate
0048e5f4 T timer_open
0048e65c T timer_close
0048e664 T timer_unlink
0048e66c T objOwnershipInit
0048e6cc t objOwnerListAdd
0048e724 t objOwnerListRemove
0048e77c t objOwnerRtpUpdate
0048e7ec t objOwnerSetBaseInternal
0048e938 t objOwnerReclaim
0048ea6c t objOwnerCheck
0048eb20 t objOwnerSetInternal
0048ec58 t objOwnerListLock
0048ec64 t objOwnerListUnlock
0048ec6c t objOwnerListLockInitial
0048ec9c t objOwnerListUnlockInitial
0048eca4 T taskVarInit
0048ed08 t taskVarDeleteHook
0048eda0 t taskVarSwitchHook
0048eebc T taskVarAdd
0048efe8 T taskVarDelete
0048f0cc T taskVarGet
0048f190 T taskVarSet
0048f260 T taskVarInfo
0048f344 T taskCreateHookInit
0048f360 T taskCreateHookAdd
0048f3c4 T taskCreateHookDelete
0048f428 T taskDeleteHookAdd
0048f48c T taskDeleteHookDelete
0048f4f0 T taskSwapHookAdd
0048f578 T taskSwapHookDelete
0048f62c t taskSwapMaskSet
0048f6d8 T taskSwapHookAttach
0048f794 t taskSwapMaskClear
0048f840 T taskSwapHookDetach
0048f8f8 T taskSwitchHookAdd
0048f95c T taskSwitchHookDelete
0048f9c0 T readdir
0048fa2c T readdir_r
0048fab8 T rewinddir
0048fac4 T closedir
0048fb1c T fstat
0048fb2c T opendir
0048fc04 T stat
0048fc90 T fstatfs
0048fca0 T fstatfs64
0048fcb0 T statfs
0048fd3c T statfs64
0048fdc8 T utime
0048fe40 T close
0048feb8 t ioReadWrite
0048ff34 T read
0048ff60 T write
0048ff7c T ioctl
00490028 T lseek
00490164 T readv
0049022c T writev
004902ec T ioFullFileNameGet
004903bc t ioCreateOrOpen
004906bc T creat
004906c8 T open
004906d0 T ioGlobalStdSet
00490774 T ioGlobalStdGet
004907b4 T ioTaskStdSet
00490850 T ioTaskStdGet
004908e4 T isatty
0049091c T fcntl
00490b24 T remove
00490cc0 T getcwd
00490d54 T getwd
00490d90 T ioDefPathSetInternal
00490e9c T ioDefPathSet
00490eac T ioDefPathGet
00490ebc T ioDefPathCat
00491000 T chdir
00491008 T iosDevMatch
00491078 T iosCreate
004910ac T iosDelete
00491110 T iosOpen
00491144 T iosLock
00491194 T iosUnlock
0049119c T iosDevFind
00491264 T iosDevDelDrv
00491300 T iosDrvRemove
00491418 T iosDevDelete
0049151c T iosDevAdd
00491658 T iosDrvInstall
0049173c T iosFdTableLock
00491798 T iosFdTableUnlock
004917a0 T iosRtpFdInvalid
00491830 T iosFdEntryIoctl
0049198c T iosDrvIoctl
004919e4 T iosFdEntrySet
00491a74 T iosNonRmvFdEntrySet
00491aac T iosFdMap
00491b70 T iosIoctlInternal
00491c5c T iosIoctl
00491c64 T iosWrite
00491d08 T iosRead
00491db4 T iosFdDrvValue
00491e2c T iosFdValue
00491e60 T iosFdMaxFiles
00491e70 T iosFdEntryGet
00491eb4 T iosFdEntryReturn
00491ee8 T iosRtpFdUnmap2
00492100 T iosClose
00492160 t iosFdDestroy
004921e8 T iosRtpDevCloseOrInvalidate
004922b4 t iosNonRmvDevClose
004922e8 t iosNonRmvFdInvalid
0049231c T iosRtpFdReserve
004923b4 T iosInit
00492680 T iosRtpFdEntryMap
0049276c T iosRtpFdSetup
00492848 T iosFdDevFind
0049287c T iosRtpFdTableSizeGet
00492880 T iosFdFree
00492894 T iosFdSet
004928dc T iosFdNew
00492960 T iosNextDevGet
00492978 T iosPathLibInit
00492988 T iosPathFdEntryIoctl
00492b70 T iosRtpDefPathGet
00492be8 T iosRtpDefPathSet
00492bec T iosPxLibInit
00492ca4 T dup
00492d5c T dup2
00492e88 T iosRtpIoTableSizeGet
00492f14 T iosRtpFdReserveCntrl
00492fa4 t iosPosixFdEntryIoctl
00493048 T iosRmvLibInit
004930d8 T iosDevReplaceExt
00493208 T iosDevReplace
0049324c t iosRmvFdInvalid
004932a0 T iosRmvFdEntrySet
00493320 T iosDevSuspend
004933f4 T iosDevDelCallback
004934a4 T iosDevCheck
00493548 T unmount
004935e8 t iosFdValid
004936b8 T iosDevResume
00493774 t iosRmvDevClose
004937c8 t iosDrvRefCntInc
0049383c t iosDrvRefCntDec
004938d4 t iosRmvDrvWaitSuspend
004939b0 t iosDrvRemovableRead
00493a4c t iosDrvRemovableWrite
00493ae8 t iosDrvRemovableIoctl
00493b84 t iosDrvRemovableIoctlMemValidate
00493c20 t iosDrvRemovableClose
00493cc0 t iosDrvSuspendedCreate
00493d18 t iosDrvRemovableCreate
00493dcc t iosDrvSuspendedOpen
00493e2c t iosDrvRemovableOpen
00493ef0 t iosDrvSuspendedDelete
00493f5c t iosDrvRemovableDelete
00494008 t iosDrvSuspendedRead
00494078 t iosDrvSuspendedWrite
004940e8 t iosDrvSuspendedIoctl
00494158 t iosDrvSuspendedIoctlMemValidate
004941c8 t iosDrvSuspendedClose
00494234 T iosRtpLibInit
00494238 T iosRtpFdTableGet
00494240 T iosRtpFdTblEntryGet
004942c0 T iosRtpIoTableSizeSet
00494390 T iosRtpTableSizeSet
004943a4 t nullWrite
004943ac t nullOpen
004943f8 t nullIoctl
00494480 t iosDrvDeleted
004944ac t iosFdInvalidClose
004944b4 t iosDrvDefault
004944e0 t iosDrvDefaultIoctl
00494520 t iosDrvDefaultIoctlMemValidate
004945a8 T iosDrvIoctlMemValSet
00494618 T iosDrvInit
004946e8 T pathParse
004947e0 T pathCondense
00494954 T pathBuild
00494a58 t pathSlashRindex
00494ab0 T pathLastNamePtr
00494af0 T pathLastName
00494b20 T pathSplit
00494bc0 t strcatlim
00494c38 T pathCat
00494dc8 T pipeDrv
00494e3c T pipeDevCreate
00494f74 T pipeDevDelete
004950e4 t pipeOpen
00495144 t pipeClose
00495170 t pipeRead
004951d0 t pipeWrite
004952c4 t pipeFileStatGet
0049534c t pipeIoctl
004955c8 T ptyDrv
004956a0 T ptyDevCreate
004957e4 T ptyDevRemove
00495914 t ptyMasterOpen
00495980 t ptySlaveOpen
004959f8 t ptySlaveRead
00495a8c t ptyMasterRead
00495b18 t ptySlaveWrite
00495ba4 t ptyMasterWrite
00495c1c t ptySlaveIoctl
00495c78 t ptySlaveClose
00495d2c t ptyMasterIoctl
00495dfc t ptyMasterClose
00495e94 t ptyMasterStartup
00495ef0 T selTaskDeleteHookAdd
00495f5c t selDoIoctls
00496028 T select
00496674 t selUnselectForTask
00496814 T selWakeup
00496870 T selWakeupAll
00496924 T selNodeAdd
004969d4 T selNodeDelete
00496ac4 T selWakeupListInit
00496b0c t selWakeupTerm
00496b6c T selWakeupListTerm
00496bf0 T selWakeupListLen
00496bf8 T selWakeupType
00496c00 t selTaskCreateHook
00496cf0 T selectInit
00496e18 t selTaskDeleteHook
00496f5c t selTyAdd
00496fe0 t selTyDelete
00496fe8 t selPtyAdd
0049706c t selPtyDelete
00497120 T ttyDrv
004971a8 T ttyDevCreate
004972c4 t ttyOpen
00497328 t ttyClose
00497384 t ttyIoctl
00497418 t ttyStartup
00497450 T tyLibInit
0049748c T tyDevRemove
00497548 T tyDevTerminate
004975e0 t tyFlushWrt
0049765c T tyAbortFuncSet
00497664 T tyAbortFuncGet
0049766c T tyAbortSet
00497674 T tyAbortGet
0049767c T tyBackspaceSet
00497684 T tyDeleteLineSet
0049768c T tyEOFSet
00497694 T tyEOFGet
0049769c T tyMonitorTrapSet
004976a4 T tyITx
00497868 t tyRdXoff
0049791c T tyRead
00497ab8 t tyFlushRd
00497b58 T tyDevInit
00497c74 t tyWrtXoff
00497d00 T tyIoctl
00498140 t tyTxStartup
004981b4 T tyIRd
00498784 T tyWrite
00498864 T tyXoffHookSet
004988d4 T ramDrv
004988dc T ramDevCreate
004989f8 t ramIoctl
00498a34 t ramBlkRd
00498a80 t ramBlkWrt
00498acc T cacheLibInit
00498adc T cacheEnable
00498b28 T cacheDisable
00498b74 T cacheLock
00498bc0 T cacheUnlock
00498c0c T cacheFlush
00498c58 T cacheInvalidate
00498ca4 T cacheClear
00498d18 T cachePipeFlush
00498d64 T cacheTextLocalUpdate
00498dc0 T cacheTextUpdate
00498dd4 T cacheDmaMalloc
00498e44 T cacheDmaFree
00498e90 T cacheFuncsSet
00498fa4 T cacheDrvFlush
00498ff0 T cacheDrvInvalidate
0049903c T cacheDrvVirtToPhys
00499084 T cacheDrvPhysToVirt
004990cc T cacheForeignFlush
0049910c T cacheForeignClear
0049914c T cacheForeignInvalidate
0049918c T memEdrConfigInit
00499214 T memEdrMemInit
0049931c T memEdrConfigClear
004993c4 t memEdrBlockMatch
004993f8 T memEdrBlockFind
00499498 T memEdrLocalFind
00499528 T memEdrErrorLog
004996bc t memEdrFreePatternValidate
004997d4 t memEdrFreeQueuePartFlush
00499904 T memEdrFreeQueueFlush
0049990c t memEdrCheckPartitionStatus
00499994 t memEdrPartDeleteHook
00499b64 t memEdrTaskCreateHook
00499bc8 t memEdrTaskDeleteHook
00499c50 t memEdrLocalReturn
00499c60 t memEdrTrcPcValidate
00499ce8 t memEdrTrace
00499db4 T memEdrItemGet
00499dec t memEdrFreeAndCopy
0049a37c t memEdrFreeHook
0049a448 t memEdrAllocHook
0049a83c t memEdrReallocHook
0049a924 t memEdrPartCreateHook
0049aa5c T memEdrPartInfoGet
0049ab48 t memPartInfoCallback
0049abac T memEdrBlockInfoGet
0049ac20 t memEdrBlkInfoCallback
0049adf0 T memEdrBlockMark
0049ae78 t memEdrBlkMarkCallback
0049b400 T memEdrShowInit
0049b404 T memEdrPartShow
0049b47c T memEdrBlockShow
0049b5a0 t memEdrTaskRegister
0049b62c T memEdrShowUtilInit
0049b6bc t memEdrTaskUidRegister
0049b708 t memEdrTaskNameGet
0049b778 T memEdrTaskUidGet
0049b828 t memEdrSymNameGet
0049b934 T memEdrUserStopGet
0049b9a8 T memEdrPartInfoPrint
0049b9f0 T memEdrBlockInfoPrint
0049bbbc T memEdrPartHdrPrint
0049bbcc T memEdrBlockHdrPrint
0049be38 T memInfoInit
0049be40 T memPartInfoGet
0049bf00 T memPartFindMax
0049bf74 T memInfoGet
0049bf80 T memFindMax
0049bf88 T memPartFreeListWalk
0049c048 T memInit
0049c0a4 T memPartOptionsSet
0049c190 T memPartOptionsGet
0049c23c T memalign
0049c248 T valloc
0049c2c4 T memPartAlignedRealloc
0049c3a0 T memPartReallocInternal
0049c8d8 T memPartRealloc
0049c974 t memPartAllocError
0049c9cc t memPartBlockError
0049ca58 T memOptionsSet
0049ca64 T memOptionsGet
0049ca70 T memPartHooksInstall
0049cad4 T memPartBlockValidate
0049cb84 T memShowInit
0049cb94 t memPartOptionsPrint
0049cc8c t memPartSizeNodeInfoGet
0049cd54 t memPartFreeListGet
0049cdb0 t memPartSectionListGet
0049cdec t memPartFreeListPrint
0049cf5c T memPartShow
0049d338 T memShow
0049d770 t taskMemLibInit
0049d7d8 T taskStackGuardPageEnable
0049d814 T taskStackNoExecEnable
0049d854 T taskStackAlloc
0049dbac T taskStackFree
0049de88 T vmBaseLibInit
0049df74 t vmBaseFuncsSet
0049e034 t vmEnable
0049e060 T vmPageSizeGet
0049e08c T vmBasePageSizeGet
0049e0b8 T vmCurrentGet
0049e0c8 T vmPhysTranslate
0049e13c T vmTranslate
0049e1a8 T vmStateSet
0049e28c T vmPgMap
0049e430 T vmMap
0049e450 T vmPageMap
0049e470 T vmBaseStateSet
0049e474 T vmTextProtect
0049e514 t vmTextPageProtect
0049e56c T vmBufferWrite
0049e66c T vmPageOptimize
0049e764 T vmPageLock
0049e85c T vmPageUnlock
0049e930 T vmMaxPhysBitsGet
0049e974 T convertAttrFromArchDepToIndep
0049ea98 T vmStateGet
0049eb48 T vmKernelContextIdGet
0049eb54 T vmContigBlockEach
0049ed88 t vmNonExecSupported
0049ee20 T vmInfoGet
0049ef3c t vmBaseGlobalMap
0049f008 T convertAttrFromArchIndepToDep
0049f1c8 T vmGlobalMapInit
0049f3ac T vmBaseGlobalMapInit
0049f45c T vmShowInit
0049f4cc T vmContextRangeShow
0049f5ac T vmAttrStringGet
0049f87c t vmContextShowNewBlock
0049f9a8 T vmContextHeaderPrint
0049fa30 T vmContextShow
0049faac T vmAttrShow
0049fd54 T sysctlInit
0049ff54 t sysctl_find_oidname
0049ffb8 T sysctl_register_oid
004a00d4 T sysctl_unregister_oid
004a0120 T sysctl_ctx_init
004a0144 T sysctl_ctx_entry_add
004a01e4 T sysctl_ctx_entry_find
004a0220 T sysctl_remove_oid
004a0384 T sysctl_ctx_free
004a0478 T sysctl_add_oid_internal
004a0684 T kernSysctlInit
004a08e4 T sysctl_add_oid
004a0974 t sysctlTransparentExit
004a09ec T sysctl_sysctl_debug_dump_node
004a0bf0 t sysctl_sysctl_debug
004a0c38 t sysctl_sysctl_name
004a0e48 t sysctl_sysctl_next_ls
004a10a0 t sysctl_sysctl_next
004a1128 t name2oid
004a1358 t sysctl_sysctl_name2oid
004a143c T sysctl_handle_int
004a14c0 T sysctl_handle_long
004a1534 T sysctl_handle_string
004a15d0 T sysctl_handle_opaque
004a1638 T sysctl_handle_reg
004a16f4 t sysctl_old_kernel
004a1788 t sysctl_new_kernel
004a1800 T sysctl_find_oid
004a1964 t sysctl_sysctl_oidfmt
004a1a04 t sysctl_root
004a1b24 T kernel_sysctl
004a1c18 T sysctl
004a1cc4 T sysctlbyname
004a1d48 T sysctlnametomib
004a1ef8 T trcStack
004a1f58 t trcDefaultPrint
004a2054 t trcPrint
004a20a0 T symLibInit
004a2138 T symTblCreate
004a21ec t symInit
004a2208 t symEachRtn
004a225c t symHFuncName
004a22cc t symKeyCmpName
004a233c t symNameValueCmp
004a235c T symNameGet
004a2384 T symValueGet
004a23ac T symTypeGet
004a23d4 t symTblIdVerify
004a242c T symEach
004a24ac T symName
004a24e8 T symFindSymbol
004a275c T symFindByValueAndType
004a282c T symFindByValue
004a2838 T symByValueAndTypeFind
004a2904 T symByValueFind
004a2910 T symFindByNameAndType
004a29b4 T symFindByName
004a29c0 T symByCNameFind
004a2a54 T symTblRemove
004a2b20 T symTblAdd
004a2bfc T symFree
004a2c44 T symTblSymSetRemove
004a2da0 T symRemove
004a2e14 t symCreate
004a2ecc T symRegister
004a2f68 T symAdd
004a2fa4 T symTblDelete
004a304c T symTblShutdown
004a30bc T symShowInit
004a30cc T symShow
004a3248 t strMatch
004a32b4 t symPrint
004a332c T symTypeToStringConvert
004a33b4 t symRtpTblPrint
004a34f4 t symSysTblPrint
004a3788 T spyLibInit
004a3854 t spyCreateHook
004a3870 t spyDeleteHook
004a3880 t spyClkInt
004a3978 T spyClkStartCommon
004a3b08 T spyClkStopCommon
004a3b38 T spyStopCommon
004a3b80 T spyCommon
004a3c40 t spyTaskIdListSort
004a3cd0 T spyReportCommon
004a416c T spyComTask
004a43b4 T timexInit
004a43b8 T timexHelp
004a441c t timexAddCall
004a44b0 t timexClrArrays
004a4514 t timexMakeCalls
004a4580 t timexNull
004a4584 t timexScale
004a465c t timexShowCalls
004a4834 T timexShow
004a48b0 T timexClear
004a48d0 T timexFunc
004a4938 T timexPost
004a49a0 T timexPre
004a4a08 t timexTime
004a4aa0 t timexAutoTime
004a4b44 t timexCal
004a4ba4 T timexN
004a4c90 T timex
004a5374 T tipLibInit
004a54d0 t tipWrite
004a556c t tipLineBufferedRead
004a56f0 t tipLineUnbufferedRead
004a5864 t tipLineRead
004a58d0 t tipCmdProcess
004a5940 t tipUserInputRead
004a5b98 t tipInstanceInit
004a5c4c t tipConnIdInit
004a5e88 t tipSerialLineOpen
004a5ef0 t tipNetLineOpen
004a6198 t tipLineOpen
004a61c0 t tipConnSetup
004a624c t tipTagToColorEscConvert
004a63d0 t tipStdInConfigure
004a6480 t tipStdInRestore
004a6514 t tipExit
004a66cc t tipLineReserve
004a67e0 t tipTaskDeleteHook
004a6858 t tipCfgStringArgGet
004a69c4 t tipCfgStringArgRemove
004a6a84 t tipAttrFromCfgLineGet
004a6b24 t tipLineAttrFromAliasGet
004a6c64 t tipArgsParse
004a6e44 t tipQuitCmd
004a6e54 t tipListCmd
004a6f18 t tipHelpCmd
004a6f94 t tipSessionStatusChange
004a7088 t tipSwitchCmd
004a7440 T tipStart
004a7e08 T loadElfInit
004a7e1c t loadElfSectionStringTableRead
004a7eb8 t loadElfSegmentInfoGet
004a8038 t loadElfSymbolEntryRead
004a8184 t loadElfSymbolTypeGet
004a821c t loadElfSymbolTableProcess
004a843c t loadElfTargetSymbolTableBuild
004a8538 t loadElfSectionIsLoadable
004a8568 t loadElfSectionsRelocate
004a8614 t loadElfUtilityArraysAlloc
004a86cc t loadElfSymtabSectionHeaderFind
004a86f4 t loadElfTextSegmentProtect
004a88e0 t loadElfFullyLinkedSegAndSectRegister
004a8984 t loadElfSectionTypeGet
004a8a00 t loadElfSectionsIntoSegmentsSort
004a8b78 t loadElfSectionHeaderReadAndCheck
004a8d04 t loadElfObjectLoad
004a927c t loadElfProgramHeaderCheck
004a92c0 t loadElfFileHeaderCheck
004a93e4 T loadElfFileHeaderReadAndCheck
004a95a0 T loadElfRelaEntryRead
004a962c T loadElfRelEntryRead
004a96a0 T loadElfProgramHeaderTableReadAndCheck
004a9800 T loadElfSectionHeaderCheck
004a9844 T loadModuleInfoInit
004a9950 T loadModuleInfoRelease
004a99c0 T loadModuleInfoFromFilenameOpen
004a9a5c T loadModuleInfoFromFilenameClose
004a9aac T loadModuleInfoFromFd
004a9b38 T loadModuleSeek
004a9bd4 T loadModuleStringRead
004a9d20 T loadModuleValueRead
004a9d24 T loadLibInit
004a9d30 T loadSegInfoDescAllocate
004a9dc0 T loadSegInfoDescFree
004a9e38 T loadSegmentsAllocate
004aa1e4 T loadSectionsInstall
004aa29c T moduleUndefSymAdd
004aa2ec t symbolLookup
004aa360 t existingSymbolUse
004aa37c t symbolActionSelect
004aa3dc t symbolIsVisible
004aa428 t symbolInternalProcess
004aa58c T loadDefinedSymbolProcess
004aa5a8 T loadCommonSymbolProcess
004aa5c8 T loadUndefinedSymbolProcess
004aa620 t loadFlagsCheck
004aa6bc t loadInternalModuleLoadAt
004aa8d0 t loadSegDirectivesFill
004aa988 T loadSysSymTblLoad
004aaa24 T loadModuleAt
004aabc4 T loadModule
004aacc4 T loadShareTgtMemAlign
004aacc8 T loadShareTgtMemSet
004aaccc T loadShareTgtMemFree
004aacd0 T moduleLibInit
004aadc0 t moduleInsert
004aae88 T moduleIdFigure
004aaf94 t segGet
004aafe8 t sectionDescGet
004ab048 T moduleSegNext
004ab094 T moduleCreateHookAdd
004ab144 T moduleCreateHookDelete
004ab1b8 T moduleFindByName
004ab274 T moduleInit
004ab40c T moduleCreate
004ab488 T moduleFindByNameAndPath
004ab540 T moduleEach
004ab5e8 T moduleFindByGroup
004ab694 T moduleIdListGet
004ab724 t scnChecksumCompare
004ab780 T moduleIdVerify
004ab7d8 T moduleFlagsGet
004ab818 T moduleNameGet
004ab85c T moduleFirstSectionGet
004ab8cc T moduleSegFirst
004ab92c T moduleSegInfoGet
004aba40 T moduleInfoGet
004abac4 T moduleSegEach
004abb50 T moduleSectionDescGet
004abb94 T moduleSegGet
004abbd8 T moduleSegAdd
004abc6c T moduleSectionRegister
004abd50 t sectionIdVerify
004abda8 T moduleNextSectionGet
004abe18 t moduleChecksumIsOk
004abf80 t modulesInListCheck
004ac00c T moduleCheck
004ac018 T moduleSectionDescFree
004ac068 T moduleDescDestroy
004ac144 T moduleDelete
004ac14c t kernelModuleListIdGet
004ac154 t moduleChecksum
004ac1ec T moduleSectionChecksumSet
004ac308 T moduleShowInit
004ac318 t moduleDisplayGeneric
004ac560 T moduleShow
004ac794 T unldLibInit
004ac7bc t moduleSymUnld
004ac854 t textScnIsUsedByHook
004ac998 t moduleTextInUseCheck
004aca00 T unldByModuleId
004acc30 T unldByGroup
004acc74 T unldByNameAndPath
004acce8 T dbgShellCmdInit
004acdf0 t taskTraceCmd
004ace40 t taskContinueCmd
004acf7c t taskStepoverCmd
004ad014 t taskStepCmd
004ad118 t memListCmd
004ad1e0 t cmdDpWrapper
004ad298 t bpDpErrCheck
004ad408 t dprintfCmd
004ad660 t bpCmd
004ae6b4 T edrShellCmdInit
004ae740 t edrShowCmd
004ae7c4 t edrShowFatalCmd
004ae848 t edrShowInfoCmd
004ae8cc t edrShowIntCmd
004ae950 t edrShowInitCmd
004ae9d4 t edrShowRebootCmd
004aea58 t edrShowBootCmd
004aeadc t edrShowKernelCmd
004aeb60 t edrShowUserCmd
004aebe4 t edrShowRtpCmd
004aec68 t edrClearCmd
004af594 T fppMRegs
004af6cc T ledLibInit
004af754 T ledRead
004af7f8 T ledModeRegister
004af8cc T ledInactivityDelaySet
004af8e0 T ledModeDefaultNameGet
004af8fc T ledModeSet
004af9b0 T ledModeNameGet
004af9cc T ledHistCurrentNumGet
004af9f0 T ledHistorySet
004afa08 T ledHistoryFree
004afa44 T ledClose
004afaa4 T ledHistoryAdd
004afc60 T ledCompletionSet
004afc70 T ledComplete
004afcb0 T ledDfltComplete
004afed4 T ledPreemptSet
004afedc T ledPreempt
004aff38 T ledSearch
004b0184 t find
004b01e0 T ledFwdFind
004b023c T ledBwdFind
004b0298 T ledCDelete
004b06c4 T ledChange
004b08bc T ledReplace
004b0948 T ledBeep
004b0954 t ledCtrlWrite
004b09d4 T ledNWrite
004b0a6c T ledRedraw
004b0c48 T ledHistNumGet
004b0d10 T ledHistNextGet
004b0df0 T ledHistPrevGet
004b0e98 T ledHistFind
004b1088 t histAll
004b117c t histLineAllocate
004b11c8 T ledHistoryLineAllocate
004b12c8 T ledHistoryCreate
004b1350 T ledHistoryClone
004b1408 T ledOpen
004b14b8 T ledHistResize
004b15e8 T ledControl
004b165c t ledLibGlobalSemRelease
004b176c T moduleShellCmdInit
004b17f4 t moduleCmd
004b1824 t moduleInfoCmd
004b18d4 t moduleLoadCmd
004b1f20 T memEdrShellCmdInit
004b1f94 t memEdrPartCmd
004b203c t memEdrBlockCmd
004b221c t memEdrMarkCmd
004b22cc t memEdrUnmarkCmd
004b237c t memEdrFlushCmd
004b28ec T shellConfigLibInit
004b2988 t shellConfigLibDynamicInit
004b29c8 t variableStringGet
004b2a7c t configListGet
004b2b3c t configListFinalize
004b2bac t configNodeGet
004b2c1c t configStringGet
004b2e08 T shellConfigGet
004b2ef0 T shellConfigDefaultGet
004b2f88 t configValueGet
004b3004 T shellConfigValueGet
004b30a8 T shellConfigDefaultValueGet
004b3120 t configNodeAdd
004b31e4 t configValueSet
004b32bc T shellConfigValueSet
004b3340 T shellConfigDefaultValueSet
004b33ac t configStringParse
004b35b4 T shellConfigSet
004b3644 T shellConfigDefaultSet
004b36bc t configValueUnset
004b37b8 T shellConfigDefaultValueUnset
004b3874 T shellConfigValueUnset
004b3918 t shellConfigLibGlobalSemRelease
004b39dc T shellDataAdd
004b3ac0 T shellDataFromNameAdd
004b3b18 T shellDataRemove
004b3bd4 T shellDataAllRemove
004b3c74 T shellDataGet
004b3d24 T shellDataFromNameGet
004b3d88 T shellDataFirst
004b3dd8 T shellDataNext
004b3e48 T shellInOutInputUniqueCheck
004b3ee0 T shellInOutInputHookUnset
004b3f38 T shellInOutInputHookAdd
004b3fb8 T shellInOutInputHookSet
004b4078 T shellInOutInputHookDelete
004b40b0 T shellInOutGet
004b4178 T shellInOutInitialGet
004b41fc T shellInOutBgndIoClose
004b4260 T shellInOutBgndGet
004b42e8 T shellInOutBgndClose
004b44b0 T shellInOutBgndRegister
004b4560 T shellInOutSlavePtyGet
004b4594 T shellInOutMasterPtyGet
004b45c8 T shellInOutBlockingGet
004b466c T shellInOutBlockingDataSet
004b4694 T shellInOutBlockingBlock
004b48c8 T shellOutputLock
004b4940 T shellOutputUnlock
004b49b4 T shellInOutRedirectOpen
004b4c48 t shellVFdPrint
004b4cdc T shellPrint
004b4e34 T shellPrintErr
004b4f84 t taskFromShellInOutSet
004b4fd4 T shellInOutUse
004b5030 T shellInOutSet
004b519c T shellInOutRedirectRestore
004b528c T shellInOutRedirectClose
004b53cc T shellInOutRedirectSet
004b5510 T shellInOutRedirectScript
004b55a0 t shellIoPtyOpen
004b574c T shellInOutBlockingOpen
004b5884 T shellInOutBgndOpen
004b58fc t shellExcPrint
004b5ab0 t blockingStructGet
004b5b3c T shellInOutBlockingBlockedDataGet
004b5b9c T shellInOutBlockingUnblock
004b5c30 T shellInOutBlockingClose
004b5d70 T shellInOutBlockingOnDataClose
004b5dc8 t inputHook
004b5e74 t ctrlCCheckHook
004b5f4c t shellMemFree2
004b5f8c T shellInternalSymTblFromRtpGet
004b60b4 T shellInternalSymTblFromTaskGet
004b60ec T shellInternalArgStackAllocate
004b612c T shellInternalFuncIntArgAdd
004b615c T shellInternalFuncLLongArgAdd
004b61b8 T shellInternalFuncFloatArgAdd
004b6214 T shellInternalFuncDoubleArgAdd
004b626c T shellInternalFunctionCall
004b6464 T shellInternalKernelSymbolCreate
004b6570 T shellInternalSymbolDisplay
004b6670 T shellInternalDecValueDisplay
004b6854 T shellInternalHexValueDisplay
004b6a1c T shellInternalValueDisplay
004b6b80 T shellInternalArgumentEval
004b6bd0 T shellInternalTaskNameMatch
004b6c80 T shellInternalStrToChar
004b6de0 T shellInternalStrUnquote
004b6f20 T shellInternalStrTokenize
004b7024 T shellInternalStrSpaceTokenize
004b7050 T shellInternalStrToInt
004b74a0 T shellInternalStrToInt32
004b752c T shellInternalStrToInt2
004b7770 T shellInternalStrToFloat
004b78a8 T shellInternalOptFree
004b7910 t argumentStrCrack
004b7c3c T shellInternalOptGet
004b7ec4 t symbolTypeConvert
004b7ee0 t shellInternalCSymbolGet
004b7fac t matchingCplusSymbolCheck
004b80d8 t demangleSymbolGet
004b839c t shellInternalCppSymbolGet
004b8460 t adaIdMatch
004b84f4 t countAdaIdMatch
004b8540 t numAdaIdMatches
004b85bc t shellInternalAdaSymbolGet
004b8670 T shellInternalSymbolGet
004b8760 T shellInternalDataSymbolGet
004b87b4 T shellInternalTextSymbolGet
004b8810 T shellInternalSymbolsResolve
004b8b0c t printAdaIdMatch
004b8e28 t __yy_memcpy
004b8e4c t yy_get_previous_state
004b8f58 t yy_try_NUL_trans
004b902c T shellInterpC_load_buffer_state
004b9058 T shellInterpC_switch_to_buffer
004b90b0 T shellInterpC_flush_buffer
004b9108 T shellInterpC_init_buffer
004b9144 t yy_fatal_error
004b9190 t yyunput
004b9248 T shellInterpC_scan_buffer
004b92f0 T shellInterpC_scan_bytes
004b938c T shellInterpC_scan_string
004b93d0 T shellInterpC_create_buffer
004b9448 T shellInterpCrestart
004b949c t yy_get_next_buffer
004b9630 t input
004b96fc T shellInterpC_delete_buffer
004b9758 t flexContextSave
004b97e0 T shellInterpCInit
004b9848 t cInterpCtxInitialize
004b989c t cInterpCtxRestart
004b9934 t cInterpCtxFinalize
004b997c t redirGet
004b9adc t cInterpRedirGet
004b9b70 t errorSet
004b9c40 t valueCastTypeGet
004b9c5c t valueIntegerCheck
004b9cb8 t valueFloatCheck
004b9cf4 t valueConvert
004b9f24 t convChar
004b9f84 t convShort
004b9fe4 t convInt
004ba048 t convLong
004ba0b4 t convLLong
004ba114 t convFloat
004ba164 t convDouble
004ba1b8 t sizeofGet
004ba240 t shellTypeGet
004ba280 t cTypeGet
004ba2c0 t symbolValueAddrGet
004ba3cc t shellCMalloc
004ba420 t interpStrdup
004ba488 t valueRead
004ba540 t symbolResolve
004ba6b0 t functionEval
004ba828 t rightValueGet
004ba910 t leftValueCheck
004ba968 t valueCast
004bab28 t valueDisplay
004bacc8 t arithmeticOp
004bb950 t integerOp
004bbc08 t relationalOp
004bbcac t assignFunc
004bbeb8 t assignOp
004bc000 t incrementValue
004bc0d4 t unaryOp
004bc2a0 t sizeofValue
004bc324 t functionArgumentAdd
004bc448 t functionDefine
004bc534 t valueArrayDefine
004bc684 t valueStructDefine
004bc7ac t interpStatementInit
004bc7cc t commentParse
004bc86c T shellInterpClex
004bd7e8 T shellInterpCparse
004be570 t cInterpParse
004be8c0 t cInterpEvaluate
004be954 t symbolCompleteGet
004bebfc t cInterpComplete
004bee0c t staticStringsFree
004bf5a4 T shellInterpCmdInit
004bf64c t cmdInterpCtxInitialize
004bf698 t cmdInterpCtxRestart
004bf6ec t cmdInterpCtxFinalize
004bf760 t cmdInterpRedirGet
004bfa50 t stringCompletionGet
004bfc00 t statementGet
004bfd20 t backquotedStringGet
004bfe14 t pipeStatementsGet
004bfefc t shellCmdBgndBquoteEval
004bff6c t backquoteParse
004c01b0 t shellCmdBgndPipeEval
004c0208 t statementExec
004c05ac t cmdInterpParse
004c0678 t cmdInterpEvaluate
004c06c4 t contextNamePrint
004c06d8 t symbolCompleteGet
004c092c t cmdInterpComplete
004c103c T shellCmdMemRegister
004c10cc T shellCmdMemUnregister
004c115c T shellCmdPreParsedGet
004c12c8 T shellCmdAliasDelete
004c1368 T shellCmdMatchingAliasListGet
004c1424 T shellCmdSymTabIdGet
004c145c T shellCmdTaskIdConvert
004c15c0 T shellCmdAliasShow
004c1660 t shellInterpCmdLibBasicInit
004c1794 t shellInterpCmdLibDynamicInit
004c17d4 t shellCmdAliasGet
004c1858 t shellTopicGet
004c18c4 T shellCmdTopicAdd
004c19bc t shellSimpleCmdGet
004c1a90 t shellCmdGet
004c1b60 T shellCmdAliasAdd
004c1d4c T shellCmdAliasArrayAdd
004c1db0 T shellCmdMatchingCmdListGet
004c1df0 T shellCmdCheck
004c1e60 T shellCmdAdd
004c2088 T shellInterpCmdLibInit
004c20fc T shellCmdArrayAdd
004c215c T shellCmdPreParseAdd
004c21ec t cmdInfoFinalize
004c2238 t cmdInfoStructGet
004c2300 T shellCmdInfoGet
004c2384 T shellCmdInfoCmdLineStore
004c2408 T shellCmdInfoArgsStore
004c248c T shellCmdInfoFinalNameStore
004c2510 T shellCmdInfoInitialNameStore
004c2594 T shellCmdStatementSplit
004c2a64 t optionsPreprocess
004c2b44 T shellCmdExec
004c2e64 T shellCmdStatementExec
004c3044 t formatedPrint
004c32bc t cmdNodeDisplay
004c34e0 t topicDisplay
004c3634 t commandDisplay
004c3730 t helpCmd
004c3a50 t shellInterpCmdLibGlobalSemRelease
004c40c0 T shellInterpLibInit
004c4148 T shellInterpRegister
004c4280 T shellInterpByNameFind
004c42ec T shellInterpCtxGet
004c434c T shellInterpDefaultNameGet
004c4368 T shellInterpNameGet
004c43e8 T shellInterpPromptGet
004c4434 T shellInterpPromptSet
004c455c T shellInterpDelete
004c45f4 T shellInterpRestart
004c4654 t interpreterGet
004c46ac T shellInterpCtxCreate
004c481c T shellInterpSwitch
004c4900 T shellInterpSet
004c494c T shellInterpEvaluate
004c4b08 T shellInterpPromptDftSet
004c4b94 t shellInterpLibGlobalSemRelease
004c4d94 T shellLineLenGet
004c4e0c T shellLoginInstall
004c4e18 T shellLogoutInstall
004c4e24 T shellFirst
004c4e4c T shellNext
004c4e7c T shellFromTaskGet
004c4edc T shellIdVerify
004c4f58 T shellTaskGet
004c4fb8 T shellBackgroundRead
004c51a0 T shellFromNameGet
004c51d4 T shellErrnoSet
004c522c T shellErrnoGet
004c5280 T shellCompatibleCheck
004c5288 T shellTaskIdDefault
004c5380 T shellTaskDefaultOptionsSet
004c53bc T shellTaskDefaultOptionsGet
004c5460 T shellTaskDefaultStackSizeSet
004c5494 T shellTaskDefaultStackSizeGet
004c549c T shellTaskDefaultPrioritySet
004c54d0 T shellTaskDefaultPriorityGet
004c54d8 T shellTaskDefaultBaseNameSet
004c550c T shellTaskDefaultBaseNameGet
004c5514 t stringTrimRight
004c557c t configCheck
004c5800 t inputLineAlloc
004c5874 t inputLineFree
004c58d4 t inputLineGet
004c5a10 t shellLedModeSet
004c5ad0 t configSet
004c5d20 t shellLedCompletion
004c5db0 T shellContextListLock
004c5df0 T shellContextListUnlock
004c5e2c T shellContextInit
004c60cc T shellCompatibleSet
004c62a8 T shellResourceReleaseHookAdd
004c630c T shellLibInit
004c64cc T shellFromTaskParentContextGet
004c6560 t shellContextCompatibleGet
004c65d0 T shellLock
004c6630 T shellHistory
004c6688 T shellScriptNoAbort
004c66c8 T shellScriptAbort
004c6708 T shellPromptSet
004c67f8 T shellLogout2
004c6900 T shellLogout
004c6924 T shellExitWrapper
004c69ec t sessionInOutClose
004c6a38 T shellContextFinalize
004c6b5c T shellBackgroundInit
004c6e7c t consoleLogout
004c6f08 t shellLogin
004c7068 T shellGenericInit
004c73e8 T shellConsoleInit
004c7458 T shellSecureInit
004c7494 t shellTaskCreateHook
004c755c t shellTaskDeleteHook
004c76ec t shellLibResourceRelease
004c77a8 t sessionTerminate
004c7844 T shellRestart
004c7a20 T shellTerminate
004c7b40 T shellExec
004c7d64 T shellTask
004c8274 t taskShellAbort
004c8434 T shellAbort
004c8500 t shellSigHandler
004c864c t consoleLogin
004c8758 t shellDefaultAbort
004c875c T shellAbortHandledByShell
004c90c4 T shellMemLibInit
004c9160 T shellMemFree
004c917c T shellMemStringShow
004c9308 t shellMemRegFind
004c9354 T shellMemUnregister
004c93c0 T shellMemAllRegFree
004c9444 T shellMemRegAllFree
004c9454 T shellMemRegFree
004c94a4 t allocatedStringGet
004c9518 T shellMemStringFree
004c95d8 T shellMemStringIsAllocated
004c9600 t stringListFinalize
004c964c t shellMemPartIncrease
004c96d0 T shellMemMalloc
004c974c T shellMemStrdup
004c97a4 T shellMemStringAdd
004c98a0 T shellMemRegister
004c9920 T shellMemRegMalloc
004c9970 T shellMemRealloc
004c9a04 T shellMemCalloc
004c9af0 T shellPromptGet
004c9b38 T shellPromptFmtSet
004c9b3c T shellPromptFmtDftSet
004c9b40 t shellPromptLibBasicInit
004c9c00 T shellPromptFmtStrAdd
004c9cb8 T shellPromptLibInit
004c9d74 t fmtRtnGet
004c9de0 T shellPromptPrint
004c9f04 t currentPathPrint
004c9f40 t currentHistNumPrint
004c9f9c t targetNamePrint
004c9ffc t percentPrint
004ca010 t userNamePrint
004ca070 t shellPromptLibGlobalSemRelease
004ca188 t remLogout
004ca1cc t dataFinalize
004ca1d4 T shellParserControl
004ca498 t memCtxAttachStructFinalize
004ca510 t memCtxAttachNodeCreate
004ca558 t memCtxAttachStructAdd
004ca630 t memCtxAttachStructGet
004ca704 t memCtxAttachNodeAdd
004ca804 t memCtxAttachNodeGet
004ca878 T shellWorkingMemCtxAttach
004ca908 t memCtxAttachedFromNumGet
004ca984 T shellWorkingMemCtxDuplicate
004caa98 T shellWorkingMemCtxCurrentSet
004caae0 T shellWorkingMemCtxLastGet
004cab14 T shellWorkingMemCtxCurrentGet
004cab48 T shellWorkingMemCtxIdConvert
004caca4 T shellWorkingMemCtxDetach
004cada0 T shellWorkingMemCtxGet
004cae54 T shellWorkingMemCtxAttachedShow
004cafd8 T shellWorkingMemCtxRtnSet
004cb0b0 T symShellCmdInit
004cb128 t lookupCmd
004cb23c t printfCmd
004cb3e0 t setSymbolCmd
004cb8bc t demangleCmd
004cb980 t symLkupPgSzRestore
004cc104 T taskShellCmdInit
004cc1f8 t taskCmd
004cc298 t taskInfoCmd
004cc2f0 t taskSpawnCmd
004cc7f0 t taskStackCmd
004cc878 t taskDeleteCmd
004cc9bc t taskDefaultCmd
004cca60 t taskRegsCmd
004ccae0 t taskSuspendCmd
004ccb68 t taskStopCmd
004ccbf8 t taskResumeCmd
004ccc88 t taskHooksCmd
004ccd08 t taskWaitCmd
004cdba8 T unloadShellCmdInit
004cdbfc t moduleUnloadCmd
004cdeb0 T usrFsShellCmdInit
004cdf34 t cdCmd
004cdf70 t lsCmd
004cdfa8 t pwdCmd
004cdfcc t rmCmd
004ce104 t fileCreateCmd
004ce1bc t bufferPagingWrite
004ce40c t fileDisplay
004ce578 t catCmd
004ce628 t moreCmd
004ce744 t nameIsDir
004ce7cc t mvCmd
004ce8bc t cpCmd
004cf574 T viLedLibInit
004cf594 t viLedRead
004d0690 T vmShowShellCmdInit
004d0704 t vmCtxCmd
004d0868 T mlockall
004d0870 T munlockall
004d0878 T mlock
004d0880 T munlock
004d0888 t sll_ins
004d08b4 t sll_head
004d08e0 T mqPxLibInit
004d0980 t mq_terminate
004d0a90 t mqPxDestroy
004d0b98 t mq_init
004d0c9c t mqPxCreateRtn
004d0d54 T mq_create
004d0e10 T mq_open
004d1034 T _mq_receive
004d138c T mq_receive
004d14d0 t mq_work
004d1578 T _mq_send
004d19b0 T mq_send
004d1b1c T mq_close
004d1be8 T mq_unlink
004d1c70 T _mq_notify
004d1e90 T mq_notify
004d1f48 T mq_setattr
004d208c T mq_getattr
004d2098 T mqPxDescObjIdGet
004d20fc T mqPxShow
004d22a8 T mqPxShowInit
004d239c T pthreadLibInit
004d252c T pthread_sigmask
004d2560 T pthread_mutexattr_init
004d2594 T pthread_mutexattr_destroy
004d25b4 T pthread_mutexattr_setprotocol
004d2604 T pthread_mutexattr_getprotocol
004d2638 T pthread_mutexattr_setprioceiling
004d2670 T pthread_mutexattr_getprioceiling
004d26a4 T pthread_mutex_getprioceiling
004d277c T pthread_mutex_setprioceiling
004d28d8 T pthread_mutex_init
004d294c T pthread_mutex_destroy
004d2a94 T pthread_condattr_init
004d2ab8 T pthread_condattr_destroy
004d2ac8 T pthread_cond_init
004d2b28 T pthread_cond_destroy
004d2c34 T pthread_cond_signal
004d2d38 T pthread_cond_broadcast
004d2e24 T pthread_attr_setscope
004d2e68 T pthread_attr_getscope
004d2e9c T pthread_attr_setinheritsched
004d2edc T pthread_attr_getinheritsched
004d2f10 T pthread_attr_setschedpolicy
004d2f58 T pthread_attr_getschedpolicy
004d2f8c T pthread_attr_setschedparam
004d2fd8 T pthread_attr_getschedparam
004d3014 T pthread_attr_init
004d3078 T pthread_attr_destroy
004d3098 T pthread_attr_setopt
004d30c8 T pthread_attr_getopt
004d3104 T pthread_attr_setname
004d3134 T pthread_attr_getname
004d3180 T pthread_attr_setstacksize
004d31c0 T pthread_attr_getstacksize
004d31fc T pthread_attr_setstackaddr
004d322c T pthread_attr_getstackaddr
004d3268 T pthread_attr_setdetachstate
004d32b0 T pthread_attr_getdetachstate
004d32ec T pthread_create
004d3308 T pthread_equal
004d3318 T pthread_once
004d34a4 t pthread_key_allocate_data
004d34e8 T pthread_setcanceltype
004d34ec T pthread_cleanup_pop
004d354c t cleanupPrivateData
004d3644 t threadExitCleanup
004d36ac t self_become_pthread
004d3764 T pthread_key_create
004d3818 T pthread_self
004d384c T pthread_cleanup_push
004d3898 T pthread_mutex_lock
004d3a58 T pthread_key_delete
004d3b0c T pthread_mutex_trylock
004d3ccc T pthread_mutex_unlock
004d3e34 T pthread_getspecific
004d3eb8 T pthread_setspecific
004d3fac t pthreadValidateAndLock
004d4070 t pthread_abnormal_exit
004d4140 T pthread_setcancelstate
004d41f0 T pthread_exit
004d4328 T pthread_testcancel
004d43d4 T pthread_testandset_canceltype
004d4418 T pthread_join
004d45bc T pthread_cond_timedwait
004d4a04 T pthread_cond_wait
004d4c68 t sigCancelHandler
004d4ce4 t wrapperFunc
004d4d50 T pthread_detach
004d4dc0 T pthread_setschedparam
004d4e94 T pthread_getschedparam
004d4f1c T pthread_kill
004d4f98 T pthread_cancel
004d5240 T semPxShowInit
004d5270 T semPxShow
004d5444 T sched_setparam
004d54e0 T sched_getparam
004d554c T sched_setscheduler
004d55c4 T sched_getscheduler
004d5628 T sched_yield
004d5630 T sched_get_priority_max
004d5684 T sched_get_priority_min
004d56d8 T sched_rr_get_interval
004d577c T _schedPxKernelIsTimeSlicing
004d5794 T unlink
004d5888 T link
004d594c T fsync
004d59d0 T fdatasync
004d5a54 T rename
004d5b18 T fpathconf
004d5b9c T pathconf
004d5c84 T access
004d5d20 T chmod
004d5dd0 T fchmod
004d5de0 t usrPathCat
004d5e64 t usrPathSplit2
004d5ee4 T cd
004d5f30 t dirNameWildcard
004d5f8c t usrFsPathQuery
004d5ff8 t nameIsDir
004d6068 t usrPathSplit
004d6128 T pwd
004d6160 T mkdir
004d619c T rmdir
004d6280 T rm
004d6284 T copyStreams
004d639c T chkdsk
004d643c t dirListPattern
004d654c t dirListEnt
004d682c T dirList
004d6bbc T ls
004d6bd0 T ll
004d6be4 T lsr
004d6bf8 T llr
004d6c0c t mvFile
004d6ca8 T mv
004d6fec t recursiveXDelete
004d720c T xdelete
004d72f8 T attrib
004d7574 T xattrib
004d773c T dosfsDiskFormat
004d77a0 T diskFormat
004d77ec T hrfsDiskFormat
004d786c T diskInit
004d78ac T commit
004d7914 T ioHelp
004d79f4 T copy_blk
004d7c9c T copy
004d7ca0 T cp_blk
004d7f28 T cp
004d7f2c T xcopy_blk
004d816c T xcopy
004d8d38 t useFdiskPartParse
004d90d0 T usrFdiskPartRead
004d91a4 T usrFdiskPartCreate
004d9670 T usrFdiskPartShow
004d9ad0 T usrFdiskPartCreateFloat
004db06c T tarHelp
004db11c t mtChecksum
004db144 t tarRdBlks
004db220 t mtAccess
004db300 t tarSetMtime
004db378 t tarExtractFile
004db8b8 t tarProcDirs
004dba1c T tarExtract
004dbce4 t tarWrtBlks
004dbde0 t tarCreateHdr
004dbefc t tarArchDo
004dc380 T tarArchive
004dc534 t tarTocFile
004dc6f4 T tarToc
004dd14c T help
004dd22c T netHelp
004dd30c T shConfig
004dd3a0 T strFree
004dd400 T bootChange
004dd43c T periodRun
004dd4a0 T repeatRun
004dd524 T sp
004dd608 T repeat
004dd66c T period
004dd6d0 T taskIdFigure
004dd778 T tw
004dd818 T w
004dd8a8 t printStackSummary
004ddad8 T checkStack
004ddc38 T objectShow
004ddd7c T show
004ddda4 T i
004dde24 T ti
004dde98 T version
004ddf14 t getHex
004de0a8 T memoryModify
004de47c T m
004de4a4 T memoryDump
004dea2c T d
004dea54 T usrModuleLoad
004deb00 T ld
004debd4 T devs
004debf4 T lkup
004dec3c T lkAddrInternal
004ded44 T lkAddr
004ded68 t vxOffsetNameMatches
004dedd0 t lkAddrPrintSame
004dee88 t lkAddrNext
004deeec t lkAddrFind
004def88 T substrcmp
004df020 T changeReg
004df250 T taskRegsModify
004df47c T mRegs
004df4dc T changeFpReg
004df59c T pc
004df5f8 T printErrno
004df704 T td
004df794 T tr
004df808 T ts
004df898 T printLogo
004df954 T logout
004df980 T h
004df9a0 T spyReport
004df9f4 T spyTask
004dfa48 T spy
004dfa9c T spyClkStart
004dfaf4 T spyClkStop
004dfb40 T spyStop
004dfb8c T spyHelp
004dfc00 T unld
004dfc88 T reld
004dfd70 T tip
004e1ca0 T avlUintSearch
004e1cdc T avlUintSuccessorGet
004e1d24 T avlUintPredecessorGet
004e1d6c T avlUintMinimumGet
004e1d9c T avlUintMaximumGet
004e1dcc T avlUintTreeWalk
004e1f94 t avlUintRebalance
004e2160 T avlUintDelete
004e2298 T avlUintInsert
004e2354 T bcmp
004e23a0 T binvert
004e23d4 T bswap
004e2400 T uswab
004e2434 T bzero
004e243c T index
004e247c T rindex
004e24d0 T bitFirstGet
004e2564 t addAssignNum
004e25c8 t addAssignString
004e2618 T bootStructToString
004e2894 t printClear
004e2900 t printParamNum
004e2934 t printParamString
004e2998 T bootParamsShow
004e2b14 t promptRead
004e2bd4 t promptParamNum
004e2cbc t promptParamString
004e2d5c t promptParamBootDevice
004e2ed8 T bootParamsPrompt
004e323c T checksum
004e32a4 T dllInit
004e32b8 T dllTerminate
004e32c0 T dllInsert
004e32fc T dllAdd
004e3308 T dllRemove
004e3344 T dllGet
004e337c T dllCount
004e339c T dllEach
004e33ec T lstLibInit
004e33f0 T lstInit
004e3404 T lstConcat
004e3480 T lstCount
004e3488 T lstDelete
004e34d0 T lstExtract
004e354c T lstFirst
004e3554 T lstGet
004e3598 T lstInsert
004e35e0 T lstAdd
004e35ec T lstLast
004e35f4 T lstNext
004e35fc T lstNth
004e3664 T lstPrevious
004e366c T lstNStep
004e36dc T lstFind
004e3714 T lstFree2
004e3770 T lstFree
004e377c T poolLibInit
004e37bc T poolDelete
004e38ec T poolIncrementSet
004e3930 T poolIncrementGet
004e3970 T poolTotalCount
004e39b0 T poolFreeCount
004e39f4 T poolIdListGet
004e3a80 t poolBlockBuild
004e3b54 T poolItemGet
004e3c34 T poolBlockAdd
004e3d1c T poolCreate
004e3eb4 t poolItemIsValid
004e3f44 T poolItemReturn
004e404c t poolBlockIsFree
004e40c0 T poolUnusedBlocksFree
004e41ec T qFifoInit
004e4240 T qFifoPut
004e4278 T qFifoRestore
004e4284 T qFifoGet
004e429c T qFifoRemove
004e42c0 T qFifoInfo
004e431c T qFifoEach
004e43a4 T qFifoNext
004e43ac T qInit
004e44cc T qTerminate
004e451c T qFirst
004e4524 T qPut
004e4558 T qGet
004e458c T qRemove
004e45c0 T qResort
004e45f4 T qAdvance
004e4628 T qGetExpired
004e465c T qKey
004e4698 T qCalibrate
004e46cc T qInfo
004e4700 T qEach
004e4734 T qNullRtn
004e473c T qPriBMapInit
004e47d8 T qTradPriBMapSetCompatible
004e47f0 T qPriBMapNext
004e48e0 T qPriBMapKey
004e48e8 T qPriBMapInfo
004e49d0 T qPriBMapEach
004e4a58 T qPriBMapSet
004e4a90 T qPriBMapRestore
004e4b10 T qPriBMapPut
004e4b78 T qPriBMapRemove
004e4cc4 t qPriBMapReadyQResort
004e4da0 T qPriBMapResort
004e4e00 T qPriBMapGet
004e4e3c T qPriDeltaInit
004e4e60 T qPriDeltaTerminate
004e4e68 T qPriDeltaPut
004e4f0c T qPriDeltaGet
004e4f24 T qPriDeltaRemove
004e4f64 T qPriDeltaResort
004e4fd8 T qPriDeltaAdvance
004e4ff4 T qPriDeltaGetExpired
004e505c T qPriDeltaKey
004e5084 T qPriDeltaInfo
004e50e0 T qPriDeltaEach
004e5168 T qPriDeltaNext
004e5170 T qPriListInit
004e51c4 T qTradPriListSetCompatible
004e51d8 T qPriListTerminate
004e51e0 T qPriListPut
004e5220 T qPriListPutFromTail
004e525c T qPriListGet
004e5274 T qPriListRemove
004e5298 T qPriListResort
004e532c t qPriListReadyQResort
004e5414 T qPriListAdvance
004e5418 T qPriListGetExpired
004e545c T qPriListCalibrate
004e5484 T qPriListKey
004e54a4 T qPriListInfo
004e5500 T qPriListEach
004e5588 T qPriListNext
004e5590 T rngDelete
004e55c4 T rngFlush
004e55d4 T rngCreate
004e5654 T rngBufGet
004e573c T rngBufPut
004e5860 T rngIsEmpty
004e5878 T rngIsFull
004e58ac T rngFreeBytes
004e58d0 T rngNBytes
004e58f0 T rngPutAhead
004e5914 T rngMoveAhead
004e5934 T sllInit
004e5948 T sllTerminate
004e5950 T sllPutAtHead
004e596c T sllPutAtTail
004e5998 T sllGet
004e59c8 T sllRemove
004e5a04 T sllPrevious
004e5a48 T sllCount
004e5a68 T sllEach
004e5abc T setLibInit
004e5b88 T setInit
004e5c00 T setCreate
004e5c6c T setDestroy
004e5d24 T setTerminate
004e5d2c T setDelete
004e5d34 T setItemAdd
004e5db4 T setItemDelete
004e5e88 T setItemFirst
004e5ee8 T setItemLast
004e5f48 T setItemNext
004e5fc0 T setItemPrev
004e6038 T setLock
004e60a0 T setUnlock
004e60f8 T setSize
004e6150 T setDuplicate
004e6238 T setIsNull
004e62a8 T rBuffLibInit
004e6314 t rBuffNewBuffHookAdd
004e634c t rBuffNewBufferHookExecute
004e63b0 T rBuffFlush
004e6424 T rBuffNBytes
004e642c t rBuffLock
004e6450 t rBuffUnlock
004e6458 T rBuffReadReserve
004e64b8 t rBuffElementCreate
004e651c t rBuffInsert
004e6594 t rBuffRecycle
004e65f8 t rBuffOverflowHandle
004e6794 T rBuffWrite
004e6954 t rBuffFree
004e6a04 T rBuffReset
004e6b08 T rBuffDestroy
004e6ba0 T rBuffCreate
004e6e50 T rBuffSetFd
004e6e5c t rBuffHandleEmpty
004e6f64 T rBuffReadCommit
004e7028 T rBuffRead
004e70fc T wvRBuffMgr
004e7284 T wvRBuffMgrPrioritySet
004e730c T rBuffUpload
004e74d0 T rBuffShowInit
004e74e0 T rBuffShow
004e7868 T rBuffInfoGet
004e7be4 t symNodeAdd
004e7cac T symListGet
004e7e5c t symSimpleMatchAdd
004e7ebc T hookAddToTail
004e7f5c T hookAddToHead
004e8010 T hookDelete
004e80e8 T hookFind
004e8178 T hookShow
004e8310 T getoptInit
004e833c T getopt_r
004e8554 T getopt
004e85d8 T getOptServ
004e8708 T bootParamsErrorPrint
004e873c t skipSpace
004e8770 T bootScanNum
004e8888 t bootSubfieldExtract
004e8910 T bootBpAnchorExtract
004e8918 T bootLeaseExtract
004e8a04 T bootNetmaskExtract
004e8a9c t getWord
004e8b2c t getConst
004e8bcc t getNum
004e8c58 t getAssign
004e8ce0 t getAssignNum
004e8d84 T bootStringToStructAdd
004e9118 T bootStringToStruct
004e91c8 T xdr_ftype
004e91f0 T xdr_nfs_fh2
004e921c T xdr_nfscookie
004e9248 T xdr_nfstime
004e92a4 T xdr_fattr
004e9450 T xdr_sattr
004e951c T xdr_attrstat
004e9590 T xdr_diropargs
004e95ec T xdr_diropokres
004e9648 T xdr_diropres
004e96bc T xdr_sattrargs
004e9718 T xdr_readlinkres
004e978c T xdr_readargs
004e9820 T xdr_data
004e985c T xdr_readokres
004e98b8 T xdr_readres
004e992c T xdr_writeargs
004e99dc T xdr_createargs
004e9a38 T xdr_renameargs
004e9a94 T xdr_linkargs
004e9af0 T xdr_symlinkargs
004e9b68 T xdr_readdirargs
004e9be0 T xdr_entry
004e9c80 T xdr_dirlist
004e9ce8 T xdr_readdirres
004e9d5c T xdr_statfsokres
004e9e0c T xdr_statfsres
004e9e80 T xdr_uint64
004e9ea8 T xdr_uint32
004e9ed0 T xdr_int64
004e9ef8 T xdr_int32
004e9f20 T xdr_fileid3
004e9f48 T xdr_cookie3
004e9f70 T xdr_uid3
004e9f98 T xdr_gid3
004e9fc0 T xdr_size3
004e9fe8 T xdr_offset3
004ea010 T xdr_mode3
004ea038 T xdr_count3
004ea060 T xdr_cookieverf3
004ea08c T xdr_createverf3
004ea0b8 T xdr_writeverf3
004ea0e4 T xdr_ftype3
004ea10c T xdr_specdata3
004ea168 T xdr_nfs_fh3
004ea1a4 T xdr_nfstime3
004ea200 T xdr_fattr3
004ea390 T xdr_post_op_attr
004ea418 T xdr_wcc_attr
004ea490 T xdr_pre_op_attr
004ea504 T xdr_wcc_data
004ea560 T xdr_post_op_fh3
004ea5e8 T xdr_time_how
004ea610 T xdr_set_mode3
004ea684 T xdr_set_uid3
004ea6f8 T xdr_set_gid3
004ea76c T xdr_set_size3
004ea7e0 T xdr_set_atime
004ea854 T xdr_set_mtime
004ea8c8 T xdr_diropargs3
004ea924 T xdr_GETATTR3args
004ea94c T xdr_GETATTR3resok
004ea974 T xdr_GETATTR3res
004ea9e8 T xdr_sattr3
004eaab4 T xdr_sattrguard3
004eab3c T xdr_SETATTR3args
004eabb4 T xdr_SETATTR3resok
004eabdc T xdr_SETATTR3resfail
004eac04 T xdr_SETATTR3res
004eac8c T xdr_LOOKUP3args
004eacb4 T xdr_LOOKUP3resok
004ead2c T xdr_LOOKUP3resfail
004ead54 T xdr_LOOKUP3res
004eaddc T xdr_ACCESS3args
004eae38 T xdr_ACCESS3resok
004eae94 T xdr_ACCESS3resfail
004eaebc T xdr_ACCESS3res
004eaf44 T xdr_READLINK3args
004eaf6c T xdr_READLINK3resok
004eafc8 T xdr_READLINK3resfail
004eaff0 T xdr_READLINK3res
004eb078 T xdr_READ3args
004eb0f0 T xdr_READ3resok
004eb18c T xdr_READ3resfail
004eb1b4 T xdr_READ3res
004eb23c T xdr_stable_how
004eb264 T xdr_WRITE3args
004eb31c T xdr_WRITE3resok
004eb3b0 T xdr_WRITE3resfail
004eb3d8 T xdr_WRITE3res
004eb460 T xdr_createmode3
004eb488 T xdr_createhow3
004eb534 T xdr_CREATE3args
004eb590 T xdr_CREATE3resok
004eb608 T xdr_CREATE3resfail
004eb630 T xdr_CREATE3res
004eb6b8 T xdr_MKDIR3args
004eb714 T xdr_MKDIR3resok
004eb78c T xdr_MKDIR3resfail
004eb7b4 T xdr_MKDIR3res
004eb83c T xdr_symlinkdata3
004eb898 T xdr_SYMLINK3args
004eb8f4 T xdr_SYMLINK3resok
004eb96c T xdr_SYMLINK3resfail
004eb994 T xdr_SYMLINK3res
004eba1c T xdr_devicedata3
004eba78 T xdr_mknoddata3
004ebb24 T xdr_MKNOD3args
004ebb80 T xdr_MKNOD3resok
004ebbf8 T xdr_MKNOD3resfail
004ebc20 T xdr_MKNOD3res
004ebca8 T xdr_REMOVE3args
004ebcd0 T xdr_REMOVE3resok
004ebcf8 T xdr_REMOVE3resfail
004ebd20 T xdr_REMOVE3res
004ebda8 T xdr_RMDIR3args
004ebdd0 T xdr_RMDIR3resok
004ebdf8 T xdr_RMDIR3resfail
004ebe20 T xdr_RMDIR3res
004ebea8 T xdr_RENAME3args
004ebf04 T xdr_RENAME3resok
004ebf60 T xdr_RENAME3resfail
004ebfbc T xdr_RENAME3res
004ec044 T xdr_LINK3args
004ec0a0 T xdr_LINK3resok
004ec0fc T xdr_LINK3resfail
004ec158 T xdr_LINK3res
004ec1e0 T xdr_READDIR3args
004ec274 T xdr_entry3
004ec314 T xdr_dirlist3
004ec37c T xdr_READDIR3resok
004ec3f4 T xdr_READDIR3resfail
004ec41c T xdr_READDIR3res
004ec4a4 T xdr_READDIRPLUS3args
004ec554 T xdr_entryplus3
004ec62c T xdr_dirlistplus3
004ec694 T xdr_READDIRPLUS3resok
004ec70c T xdr_READDIRPLUS3resfail
004ec734 T xdr_READDIRPLUS3res
004ec7bc T xdr_FSSTAT3args
004ec7e4 T xdr_FSSTAT3resok
004ec8e8 T xdr_FSSTAT3resfail
004ec910 T xdr_FSSTAT3res
004ec998 T xdr_FSINFO3args
004ec9c0 T xdr_FSINFO3resok
004ecb18 T xdr_FSINFO3resfail
004ecb40 T xdr_FSINFO3res
004ecbc8 T xdr_PATHCONF3args
004ecbf0 T xdr_PATHCONF3resok
004eccd8 T xdr_PATHCONF3resfail
004ecd00 T xdr_PATHCONF3res
004ecd88 T xdr_COMMIT3args
004ece00 T xdr_COMMIT3resok
004ece5c T xdr_COMMIT3resfail
004ece84 T xdr_COMMIT3res
004ecf0c T xdr_nfsstat
004ecf34 T xdr_filename
004ecf60 T xdr_nfspath
004ecf8c T xdr_fhandle
004ecfb8 T xdr_fhstatus
004ed02c T xdr_fhandle3
004ed068 T xdr_mountstat3
004ed090 T xdr_mountres3_ok
004ed100 T xdr_mountres3
004ed174 T xdr_dirpath
004ed1a0 T xdr_name
004ed1cc T xdr_mountlist
004ed200 T xdr_mountbody
004ed278 T xdr_groups
004ed2ac T xdr_groupnode
004ed308 T xdr_exports
004ed33c T xdr_exportnode
004ed3b4 T rfsread
004ed4b8 T rfs_read
004ed574 T rfs_seek
004ed5d8 T rfs_close
004ed624 T rfs_write
004ed630 T rfs_stat
004ed6a8 T rfs_ls
004ed780 T romfs_ntoh
004ed784 T rfs_open
004edabc T edrErrLogValidate
004edb2c t edrErrLogNodeIsFree
004edb58 t edrErrLogAllocPP
004edcc0 T edrErrLogIterCreate
004edda4 T edrErrLogIterNext
004ede28 T edrErrLogNodeCount
004ede6c T edrErrLogMaxNodeCount
004edeb0 T edrErrLogSize
004edef4 T edrErrLogNodePosition
004edf60 T edrErrLogHeaderProtect
004ee07c T edrErrLogHeaderUnprotect
004ee180 T edrErrLogNodeProtect
004ee2c8 T edrErrLogNodeCommit
004ee384 T edrErrLogNodeUnprotect
004ee4b8 T edrErrLogNodeAlloc
004ee5f0 t edrErrLogNodeListInit
004ee6f0 T edrErrLogClear
004ee758 t edrErrLogNodeListProtect
004ee7c4 T edrErrLogAttach
004ee8c0 T edrErrLogCreate
004eeab8 T fcntl_dup
004eebac T ioPxCreateOrOpen
004eec90 T iosShowInit
004eec94 T iosDrvShow
004eede8 T iosDevShow
004eee74 T iosFdShow
004ef06c T iosRtpFdShow
004ef2e0 t semTypeStrGet
004ef374 t taskWaitSmObjGet
004ef524 t taskWaitShowInternal
004ef8c4 T taskWaitShowCoreRtn
004ef9f8 T taskWaitShow
004efc88 t findXtors
004efd44 T cplusLoadFixup
004efdec T cplusUnloadFixup
004efe78 T completionSymListGet
004f00f8 t listPrint
004f0298 T completionPathShow
004f0444 t pathComplete
004f05a4 T completionPathComplete
004f0710 t pathSplit
004f07c0 T completionPathListGet
004f09d0 t symbolStrGet
004f0a10 t symbolComplete
004f0b0c T completionSymShow
004f0ca0 T completionSymComplete
004f0de4 T shellCmdInit
004f0fac t cCmd
004f10b4 t setHistoryCmd
004f1114 t showHistoryCmd
004f1140 t showLasterrorCmd
004f119c t aliasCmd
004f130c t unaliasCmd
004f138c t setPromptCmd
004f1424 t setConfigCmd
004f1548 t echoCmd
004f1614 t unsetConfigCmd
004f1680 t exprCmd
004f17f4 t repeatCmd
004f1bbc t setEnvCmd
004f1cd0 t setBootlineCmd
004f1d70 t showBootlineCmd
004f1d98 t rebootCmd
004f1dec t showDevicesCmd
004f1e10 t showDriversCmd
004f1e34 t showFdsCmd
004f1e58 t versionCmd
004f1e7c t sleepCmd
004f1efc t exitCmd
004f1f64 t logoutCmd
004f1f98 t setDeployCmd
004f2084 t printErrnoCmd
004f20e0 t funcCallCmd
004f23a0 t memDumpCmd
004f2480 t memModifyCmd
004f2530 t memInfoCmd
004f25a0 t stringFreeCmd
004f2648 t objectInfoCmd
004f274c t objectHandleCmd
004f28b8 t interpCmdPreParse
004f4f88 T shellCompletionPathnameGet
004f51c4 t authunix_nextverf
004f51c8 t authunix_marshal
004f5218 t authunix_destroy
004f529c t marshal_new_auth
004f5340 t authunix_refresh
004f5444 t authunix_validate
004f5508 T authunix_create
004f56f8 T xdr_authunix_parms
004f57ac T clnt_genericInclude
004f57b0 T clnt_create
004f58d0 T clnt_rawInclude
004f58d4 t clnt_rawInit
004f59a8 t clnt_rawExit
004f5a00 T clntraw_create
004f5adc t clntraw_call
004f5ce8 t clntraw_geterr
004f5cec t clntraw_freeres
004f5d38 t clntraw_abort
004f5d3c t clntraw_control
004f5d44 t clntraw_destroy
004f5d98 T clnt_simpleInclude
004f5d9c T callrpc
004f5f2c T clnttcp_create
004f61a4 t clnttcp_call
004f6480 t clnttcp_geterr
004f64a0 t clnttcp_freeres
004f64dc t clnttcp_abort
004f64e0 t clnttcp_control
004f6564 t clnttcp_destroy
004f65d8 t clnt_readtcp
004f6710 t clnt_writetcp
004f67bc T clntudp_bufcreate
004f6a74 T clntudp_create
004f6ab0 t clntudp_call
004f6e54 t clntudp_geterr
004f6e74 T clntudp_freeres
004f6ec0 t clntudp_abort
004f6ec4 t clntudp_control
004f6f80 t clntudp_destroy
004f7034 T pmap_getmapsInclude
004f7038 T pmap_getmaps
004f7134 T pmap_getport
004f7270 T xdr_pmap
004f72ec T xdr_pmaplist
004f73a8 T portmapd
004f752c t find_service
004f7574 t xdr_encap_parms
004f7590 t xdr_rmtcall_args
004f760c t xdr_rmtcall_result
004f7664 t xdr_opaque_parms
004f7684 t xdr_len_opaque_parms
004f7744 t callit
004f78c4 T reg_service_internal
004f7be4 T reg_service
004f7db4 T xdr_opaque_auth
004f7e10 T xdr_des_block
004f7e18 T xdr_deskey
004f7e6c T xdr_accepted_reply
004f7f30 T xdr_rejected_reply
004f7fc0 T xdr_replymsg
004f8044 T xdr_callhdr
004f80f0 T accepted
004f818c T rejected
004f81d0 T _seterr_reply
004f8294 T xprt_register
004f82d8 T xprt_unregister
004f833c T svc_unregisterall
004f8388 T svc_find
004f83d0 T svc_unregister
004f8458 T svc_register
004f8518 T svc_sendreply
004f858c T svcerr_noproc
004f85f4 T svcerr_decode
004f865c T svcerr_systemerr
004f86c4 T svcerr_auth
004f8718 T svcerr_weakauth
004f8720 T svcerr_noprog
004f878c T svcerr_progvers
004f87fc T svc_getreqset
004f8a54 T svc_getreq
004f8a94 T svc_run
004f8b74 T _authenticate
004f8bec T _svcauth_null
004f8bf4 T _svcauth_unix
004f8d94 T _svcauth_short
004f8dc0 T svc_rawInclude
004f8dc4 t svc_rawInit
004f8e98 t svc_rawExit
004f8ef0 T svcraw_create
004f8f5c t svcraw_stat
004f8f64 t svcraw_recv
004f8fd0 t svcraw_reply
004f9058 t svcraw_getargs
004f90a0 t svcraw_freeargs
004f90ec t svcraw_destroy
004f9110 T svc_simpleInclude
004f9114 T registerrpc
004f9254 t universal
004f9500 T svctcp_create
004f96ac t makefd_xprt
004f97b4 T svcfd_create
004f97b8 t rendezvous_request
004f9840 t rendezvous_stat
004f9848 t svctcp_destroy
004f98cc t readtcp
004f99e8 t writetcp
004f9a50 t svctcp_stat
004f9a98 t svctcp_recv
004f9af0 t svctcp_getargs
004f9b28 t svctcp_freeargs
004f9b68 t svctcp_reply
004f9c7c T svcudp_bufcreate
004f9e5c T svcudp_create
004f9e68 t svcudp_stat
004f9e70 t svcudp_getargs
004f9ea8 t svcudp_freeargs
004f9ee8 t svcudp_destroy
004fa01c T svcudp_enablecache
004fa14c t cache_commitset
004fa258 t svcudp_reply
004fa31c t cache_partialset
004fa4b8 t cache_get
004fa610 t svcudp_recv
004fa728 T cache_fillparams
004fa7e0 T xdr_free
004fa818 T xdr_void
004fa820 T xdr_u_longlong_t
004fa88c T xdr_longlong_t
004fa8f8 T xdr_long
004fa964 T xdr_u_long
004fa9d0 T xdr_short
004faa78 T xdr_u_int
004faa7c T xdr_int
004faa80 T xdr_u_short
004fab28 T xdr_char
004fab7c T xdr_u_char
004fabd0 T xdr_bool
004fac88 T xdr_enum
004fac8c T xdr_opaque
004fad9c T xdr_bytes
004faea4 T xdr_netobj
004faec0 T xdr_union
004faf6c T xdr_string
004fb090 T xdr_wrapstring
004fb0f4 T xdr_array
004fb284 T xdr_vector
004fb338 T xdr_floatInclude
004fb33c T xdr_float
004fb3bc T xdr_double
004fb4c0 T xdrmem_create
004fb4e0 t xdrmem_destroy
004fb4e4 t xdrmem_getlonglong
004fb52c t xdrmem_putlonglong
004fb56c t xdrmem_getlong
004fb5a4 t xdrmem_putlong
004fb5dc t xdrmem_getbytes
004fb648 t xdrmem_putbytes
004fb6b8 t xdrmem_putwords
004fb728 t xdrmem_putlongs
004fb798 t xdrmem_getpos
004fb7a8 t xdrmem_setpos
004fb7e0 t xdrmem_inline
004fb810 t xdrrec_getpos
004fb8a0 t xdrrec_setpos
004fb95c t xdrrec_inline
004fb9d4 t xdrrec_destroy
004fba10 t flush_out
004fbaa4 T xdrrec_endofrecord
004fbb24 t xdrrec_putbytes
004fbbbc t xdrrec_putlong
004fbc54 t fill_input_buf
004fbcb0 t get_input_bytes
004fbd38 t set_input_fragment
004fbdac t xdrrec_getbytes
004fbe58 t xdrrec_getlong
004fbeec t skip_input_bytes
004fbf70 T xdrrec_eof
004fbffc T xdrrec_skiprecord
004fc07c t fix_buf_size
004fc094 T xdrrec_create
004fc204 T xdr_reference
004fc2d4 T xdr_pointer
004fc374 T authnone_create
004fc438 t authnone_marshal
004fc488 t authnone_verf
004fc48c t authnone_validate
004fc494 t authnone_refresh
004fc49c t authnone_destroy
004fc4a0 T clnt_sperrno
004fc4d8 T clnt_perrno
004fc508 T clnt_spcreateerror
004fc648 T clnt_pcreateerror
004fc678 t auth_errmsg
004fc6ac T clnt_sperror
004fc89c T clnt_perror
004fcc28 T get_myaddress
004fcdd8 T pmap_set
004fcee0 T pmap_unset
004fcfc0 T pmapUnset
004fd050 T xdr_callmsg
004fd420 T findEndpoint
004fd49c T linksyswusb54EndStop
004fd610 T linksyswusb54ListenForInput
004fd804 T linksyswusb54EndStart
004fd93c T linksyswusb54Send
004fdb48 T linksyswusb54MuxTxRestart
004fdb74 T linksyswusb54TxCallback
004fde40 T dump_buffer
004fdf90 T dump_buffer_enhanced
004fe0e0 T linksyswusb54Mchash
004fe168 T linksyswusb54MCastFilterSet
004fe1d4 T linksyswusb54FindDevice
004fe2a0 T linksyswusb54OutIrpInUse
004fe318 T linksyswusb54DestroyDevice
004fe40c T linksyswusb54Shutdown
004fe4a4 T usbLinksysWusb54EndInit
004fe6c8 T linksyswusb54EndParse
004fe8f0 T wusb54_80211_hdrlen
004fe964 T linksyswusb54Dot11EndRecv
004ff094 T linksyswusb54RxCallback
004ff2a4 T linksyswusb54EndMemInit
004ff5d0 T linksyswusb54EndConfig
004ff608 T usbLinksysWusb54EndUnload
004ff738 T notifyAttach
004ff818 T linksyswusb54AttachCallback
004ffd10 T usbLinksysWusb54DynamicAttachRegister
004ffe24 T usbLinksysWusb54DynamicAttachUnregister
004fff40 T usbLinksysWusb54DevLock
004fff9c T usbLinksysWusb54DevUnlock
005000c0 T usbLinksysWusb54ReadReg
005000ec T usbLinksysWusb54WritePhy
00500118 T usbLinksysWusb54ReadSrom
00500144 T usbLinksysWusb54EndUninit
005001a0 T linksyswusb54Show
005001c0 T linksyswusb54BufferWrite
00500234 T linksyswusb54MacRegRead
00500318 T linksyswusb54MacRegWrite
005003fc T linksyswusb54RegRead
005004cc T linksyswusb54RegWrite
0050059c T linksyswusb54EepromRead
00500608 T linksyswusb54FirmwareRun
00500678 T linksyswusb54LedSet
0050080c T linksyswusb54FirmwareUpload
00500ae4 T linksyswusb54BBPRegRead
00500c70 T linksyswusb54BBPRegWrite
00500d6c T linksyswusb54AsicInit
00500fc0 T linksyswusb54EepromParamRead
00501284 T linksyswusb54FromEepromInit
00501598 T RT73WriteTXRXCSR0
00501624 T AsicSetRxAnt
005018b4 T AsicAntennaSetting
00501a6c T AsicAntennaSelect
00501d60 T RTUSBWriteRFRegister
00501e60 T sysWusb54ChannelSet
00502160 T linksyswusb54MacAddrSet
00502298 T usbLinksysWusb54Init
005025cc T linksyswusb54DevInit
00502dc0 T usbLinksysWusb54EndLoad
00503258 t sysLinksyswusb54BssidSet
00503328 t rum_scan_start
005033c8 t rum_scan_end
00503440 t rum_enable_tsf_sync
005034e0 T wusb54BringUp
00503538 T wusb54TakeDown
00503590 T wusb54PsPollSend
005035e8 T wusb54StaBeaconSync
00503640 T wusb54ChannelGet
00503698 T wusb54EncryptionKeySet
005042c8 T wusb54EncryptionKeyDel
00504320 T wusb54EncryptionKeyMaxGet
00504378 T wusb54RtsCtsThresholdSet
005043d0 T wusb54ProbStateSet
00504428 T wusb54RtsCtsThresholdGet
00504480 T wusb54NextDtimGet
005044d8 T wusb54MulticastAddressAdd
00504530 T wusb54MulticastAddressDel
00504588 T wusb54CountryCodeChange
005045e0 T wusb54DtimPacketAdd
00504638 T wusb54DtimPacketFlush
00504690 T wusb54BeaconStop
005046f4 T wusb54TsfGet
00504768 T wusb54TsfSet
005047c4 T wusb54TsfReset
00504850 T wusb54TxParamsSet
005048a8 T wusb54ControlRateSet
0050490c T wusb54FrameLongRetrySet
00504964 T wusb54FrameLongRetryGet
005049bc T wusb54FrameShortRetrySet
00504a14 T wusb54FrameShortRetryGet
00504a6c T wusb54TxPowerScaleGet
00504ac4 T wusb54TxPowerScaleSet
00504b1c T wusb54CountryCodeIeGet
00504b74 T wusb54Start
00504c08 T wusb54Stop
00504c9c T wusb54PShow
00504d10 T rum_ack_rate
00504e10 T rum_txtime
00504ee0 T wusb54RxMapInit
00504fc4 T wusb54RxMapSet
005050f4 T wusb54macAddrGet
005051f8 T wusb54ChannelSet
005052a8 T wusb54ChannelListGet
0050539c T wusb54PmStateSet
00505410 T wusb54PmStateGet
00505468 T wusb54BssidSet
0050551c T wusb54SuppRatesGet
00505660 T wusb54RxFilterSet
00505898 T wusb54MacAddrChange
0050593c T wusb54CardTypeGet
00505994 T wusb54Free
00505a88 T dot11HddWusb54Initialize
00505e8c T dbgw54chanset
00505ed0 T dbgw54scan
00505f34 t rum_plcp_signal
00506058 T linksyswusb54TxDescSetup
00506578 T wusb54RawSend
00506978 T wusb54BeaconStart
00506abc t wlanXlatNonIsoCcode
00506b3c T wlanGetCountryCodeByName
00506bdc T wusb54CountryCodeNumGet
00508f0c T gsmEventCallback
00508f50 T gsmEventListenerTask
0050906c T startListenerTask
005090ec T usbCallbackInit
00509164 T usbDataServicesSendMsg
005092a4 T usbDataServicesSendMsgInt
0050933c T usbDevEventRegister
005094b4 T eventRegister
00509508 T usbDevEventUnregister
005095dc T eventUnregister
00509630 T usbDevClearCallbacks
00509700 T usbDevCallbackShow
00509800 T usbDevCountMonitorCallback
00509878 T usbGsmDeviceAttachReNotify
005098dc T read_modem
005099c4 T write_modem
00509a20 T waitForAnswer
00509b14 T read_modem_response
00509be8 T validate_modem_command
00509cb0 T open_modem
00509da8 T execute_modem_command
00509e74 T dtest
00509f78 T get_lineCoding
0050a028 T send_break
0050a0c8 T set_baudRate
0050a1a0 T get_baudRate
0050a278 T set_ctrlinestate
0050a320 T verify_signal
0050a370 T usbGsmParameterGet
0050a664 T usbGsmChangePinState
0050a720 T usbGsmChangePin
0050a7d4 T usbGsmCheckStatusPin
0050a858 T usbGsmValidateRoaming
0050a900 T ddtest
0050a944 T usbGsmMTEnterCode
0050aa08 T usbGsmMTAccess
0050aaf0 T usbGsmPPPUserSet
0050ab4c T usbGsmPPPPasswordSet
0050aba8 T usbGsmAPNSet
0050abf4 T usbGsmAPNGet
0050ac40 T usbGsmOpenConnection
0050b0b0 T usbGsmCloseConnection
0050b134 T getInterfaceCounters
0050b244 T printInterfaceCounters
0050b2b8 T printInterfaceCounters_wifi
0050b32c T connectionUptimeEventCallback
0050b368 T connectionTerminatedEventCallback
0050b38c T getConnectionUptime
0050b3e0 T operatorChangedEventCallback
0050b4e8 T usbGsmMonitorTask
0050b76c T startMonitorTask
0050b7ec T stopMonitorTask
0050bec8 t translateError
0050bf30 t translatePriority
0050bf7c t threadHead
0050bfb0 T ossStatus
0050bfe4 T ossShutdown
0050bfec T ossThreadCreate
0050c098 T ossThreadDestroy
0050c0d4 T ossThreadSleep
0050c124 T ossSemCreate
0050c188 T ossSemDestroy
0050c1c4 T ossSemGive
0050c200 T ossSemTake
0050c284 T ossMutexCreate
0050c2e4 T ossMutexDestroy
0050c320 T ossMutexTake
0050c3a4 T ossMutexRelease
0050c3e0 T ossPartSizeGet
0050c3e8 T ossPartSizeSet
0050c404 T ossPartIdGet
0050c40c T ossMemUsedGet
0050c430 T ossMalloc
0050c458 T ossPartMalloc
0050c5a8 T ossOldMalloc
0050c5d4 T ossCalloc
0050c630 T ossFree
0050c658 T ossPartFree
0050c6a8 T ossOldFree
0050c6b8 T ossOldInstall
0050c6dc T ossTime
0050c720 T ossInitialize
0050c874 T usbTransferTime
0050c920 T usbRecurringTime
0050c9d0 T usbDescrParseSkip
0050ca50 T usbDescrParse
0050ca80 T usbConfigCountGet
0050cb24 T usbConfigDescrGet
0050cc58 T usbHidReportSet
0050ccc8 T usbHidIdleSet
0050cd10 T usbHidProtocolSet
0050cd50 T usbListUnlink
0050cd88 T usbListUnlinkProt
0050cdd4 T usbListFirst
0050cdf8 T usbListNext
0050ce1c T usbListLink
0050ced4 T usbListLinkProt
0050cf78 T usbdInitialize
0050d018 T usbdShutdown
0050d0d0 T usbdClientRegister
0050d228 T usbdClientUnregister
0050d328 T usbdMngmtCallbackSet
0050d3b0 T usbdBusStateSet
0050d3b8 T usbdDynamicAttachRegister
0050d4c0 T usbdDynamicAttachUnRegister
0050d57c T usbtuInitFindDriverInfo
0050d90c T usbtuInitHandleClientEvent
0050dab8 T usbtuInitHandleDeviceEvent
0050dfa8 T usbtuInitClientIrpCompleteThreadFn
0050dff8 T usbtuInitDeviceAdd
0050e034 T usbtuInitDeviceRemove
0050e068 T usbtuInitDeviceSuspend
0050e09c T usbtuInitDeviceResume
0050e23c T usbdPipeCreate
0050e330 t flushIrpQueueCallback
0050e34c t abortIrpCallback
0050e36c T usbdTransferAbort
0050e50c T usbdTransfer
0050eb1c T usbdPipeDestroy
0050ed20 T usbdVendorSpecific
0050ef24 T usbtuDataUrbCompleteCallback
0050f1c4 T usbtuDataVendorSpecificCallback
0050f2e0 T usbdFeatureClear
0050f370 T usbdFeatureSet
0050f404 T usbdFastCharge
0050f498 T usbdConfigurationGet
0050f53c T usbdDescriptorGet
0050f618 T usbdConfigurationSet
0050f7a8 T usbdDescriptorSet
0050f848 T usbdInterfaceGet
0050f8e0 T usbdInterfaceSet
0050f990 T usbdStatusGet
0050fa48 T usbdSynchFrameGet
0050fc14 T usbdBusCountGet
0050fc54 T usbdRootNodeIdGet
0050fca4 T usbdHubPortCountGet
0050fcf0 T usbdNodeIdGet
0050fda8 T usbdAddressGet
0050fdc4 T usbdAddressSet
0050fddc T usbdVersionGet
0050fe34 T usbdStatisticsGet
0050fe64 T usbdCurrentFrameGet
0050fee4 t HubEnumerate
0050ffc4 T usbdNodeInfoGet
005100a4 T usb2FindInterface
005102a8 T usb2FindEndpoint
00510698 t usb2GetFreeIndex
00510840 T usb2DriverIsEmpty
005108a0 T usb2ClassDeviceDelete
00510a2c T usb2ClassDeviceCreate
00510f4c T usb2ClassDeviceIsValid
00511088 T usb2TakeDevice
00511320 T usb2ReleaseDevice
0051137c T usb2TakeDriver
005113dc T usb2ReleaseDriver
00511438 t usb2ClassSpecificCallback
005114cc T usb2VendorClassSpecific
0051185c T usb2ClassDeviceAddCallbackSet
00511888 T usb2ClassDeviceDelCallbackSet
005118b4 T usb2ClassDriverDelete
0051194c T usb2ClassDriverCreate
00511c7c t usb2DeviceDeleteHelperTask
00511f98 T usb2DeviceDeleteMsgPost
00512228 T usb2DeviceDeleteHelperInit
00512464 T usb2DeviceDeleteHelperDeInit
00513858 t usb2PgsGetRegisters
0051399c t usb2PgsSetSingleRegister
00513a5c t usb2PgsSetMultiRegisters
00513b30 t usb2PgsEEPROMWordRead
00513cb0 t usb2PgsPhyWrite
00513e0c t usb2PgsDataPacking
00513e68 t usb2PgsDataUnPacking
00513f18 t usb2PgsHWConfig
00514728 t usb2PgsMchash
005147b0 t usb2PgsMCastFilterSet
00514880 t usb2PgsSetFlag
00514a28 T usb2PgsInit
00514a9c T usb2PgsDeInit
00515410 t usb2EndUrbCompleteCallback
005154a0 t usb2EndInterruptUrbSubmit
00515690 t usb2EndBulkUrbSubmit
005158c4 t usb2EndInterruptInTransfer
00515bb4 t usb2EndStop
00515c98 t usb2EndUnload
00515d20 t usb2EndSend
00516130 t usb2EndMCastAdd
005162d8 t usb2EndMCastDel
005163f8 t usb2EndMCastGet
00516434 t usb2EndIoctl
00516b2c t usb2EndRecv
00516eb0 t usb2EndMemInit
005172ac T usb2EndLoad
005175b4 t usb2EndMuxConnect
00517704 t usb2EndIpAttach
005178f4 t usb2EndBind
00517a28 t usb2EndUnbind
00517c4c t usb2EndCommonTaskFeeder
00517f14 t usb2EndLinkStatusChecking
0051810c t usb2EndStart
005181f8 t usb2EndBulkInTransfer
00518830 t usb2EndCommonTask
00518bdc t usb2EndCommonTaskInit
00518e00 t usb2EndDelete
00518ff4 t usb2EndDeleteCallback
005192b8 t usb2EndCreate
005198d8 t usb2EndDeviceRemove
00519ad4 t usb2EndSuspendResume
00519b10 T usb2EndInit
00519e54 T usb2EndDeInit
00519f98 T usb2EndDeviceListAdd
0051a1bc T usb2EndDeviceListRemove
0051a3ac t usb2EndAdaptorMatch
0051a524 t usb2EndDeviceAdd
0051d698 t usb2AsixGetRegisters
0051d7a0 t usb2AsixSetRegisters
0051d800 t usb2AsixPhyReadWord
0051dab0 t usb2AsixStatusCheck
0051dbb4 t usb2Asix88772DataPacking
0051dc28 t usb2Asix88772DataUnPacking
0051dcdc t usb2Asix8717xHWConfig
0051e420 t usb2AsixMchash
0051e4a8 t usb2AsixMCastFilterSet
0051e61c t usb2Asix88772HWConfig
0051ef74 t usb2AsixSetFlag
0051f214 T usb2AsixInit
0051f288 T usb2AsixDeInit
0051fd28 t usb2Dm960xGetRegisters
0051fe28 t usb2Dm960xSetSingleRegister
0051fea4 t usb2Dm960xSetMultiRegisters
0051ff78 t usb2Dm960xPhyWrite
0052026c t usb2Dm960xReadEEPROMWord
00520540 t usb2Dm960xDataPacking
0052059c t usb2Dm960xDataUnPacking
00520630 t usb2Dm960xMchash
005206b8 t usb2Dm960xMCastFilterSet
005207e0 t usb2Dm960xHWConfig
00520c88 t usb2Dm960xSetFlag
00520cd4 T usb2Dm960xInit
00520d48 T usb2Dm960xDeInit
00521514 t usb2CdcEEMDeviceAdd
005219c8 t usb2CdcACMDeviceAdd
00521e7c t usb2CdcDeviceAdd
0052212c t cdcDeleteCallback
00522218 t usb2CdcDeviceRemove
005223bc t usb2CdcDeviceSuspend
005223d8 t usb2CdcDeviceResume
005223f4 T usb2CdcInit
00522908 T cdcFindDescriptor
00522eb4 t usb2CdcEemJobProcess
005231ec T usb2CdcEemPush2net
00523910 t inUrbCallback
00523a34 t outUrbCallback
00523bb0 t eemDelete
00523eb0 t eemRemove
00523fa0 t eemSend
0052445c t eemRecv
0052482c T usb2CdcEemDeviceAdd
00524fb4 t eemEchoCommand
00525438 T eemIoctl
005262ac T cdcEndMsg
005263c0 t cdcEndBind
005265f4 t cdcEndUnbind
00526810 T pRcvTask
00526984 t cdcEndRecv
00526b2c t cdcEndStart
00526bf4 t cdcEndStop
00526cd8 t cdcEndIoctl
0052722c T EemIoctlSendShutdown
00527298 t cdcEndSend
00527464 t cdcEndMCastAdd
005275c0 t cdcEndMCastDel
005276d4 t cdcEndMCastGet
00527754 t cdcEndCommonTask
005278d8 t cdcEndMemInit
00527d00 T usb2CdcEndCreate
00528058 T usb2CdcEndDelete
005280dc t cdcEndLoad
0052836c t cdcEndUnload
00528e18 t acmDelete
00528f4c t acmSetLineCoding
0052906c t acmSetOptions
00529250 T usb2CdcAcmDeviceAdd
00529ef8 t acmTxStartup
00529f80 t acmIoctl
0052a074 t acmCallbackInstall
0052a120 t urbRxCallback
0052a360 t urbIntrCallback
0052a54c t urbTxCallback
0052a5e0 t acmTx
0052a854 T ttyDevDelete
0052a914 t acmRemove
0052afec t listenForInput
0052b14c t usb2Serial3GSendSetup
0052b16c T usb2SerialInit
0052b31c T usb2SerialDriverListAdd
0052b400 t activateHuaweiModemInterface
0052b4c4 t usb2SerialDeviceRemove
0052b600 t usb2SerialDeviceSuspend
0052b61c t usb2SerialDeviceResume
0052b638 t usb2SerialIosOpen
0052b75c t usb2SerialIosClose
0052b808 t usb2SerialIosRead
0052b898 t usb2SerialIosWrite
0052b928 t usb2SerialIosIoctl
0052b998 t usb2SerialInUrbCompleteCallback
0052ba8c t usb2SerialOutUrbCompleteCallback
0052bb10 T usb2SerialSubmitSetupUrb
0052bb48 t usb2SerialVendorMatch
0052bbc0 t usb2SerialDelete
0052bd80 t usb2SerialCreate
0052c0fc t usb2SerialDeleteCallback
0052c130 t usb2SerialDeviceAdd
0052c5e0 T usb2Serial3GInit
0052c64c t usb2Serial3GOpen
0052c6e8 t usb2Serial3GRead
0052c7ac t usb2Serial3GWrite
0052c900 t usb2Serial3GIoctl
0052ca7c t usb2Serial3GClose
0052cb84 T usb2MscFixupAsciiString
0052cc08 t usb2MscUrbCompleteCallback
0052cdb8 T usb2MscBulkTransfer
0052d044 T usb2MscBulkOutTransfer
0052d0a0 T usb2MscBulkInTransfer
0052d0fc T usb2MscInterruptInTransfer
0052d318 T usb2MscIsEndpointHalted
0052d3a4 T usb2MscResetEndpoint
0052d46c T usb2MscResetDevice
0052d4d0 T usb2MscGetTotalLun
0052d518 T usb2MscTransport
0052d8b0 t usb2MscLunDeviceDelete
0052da0c t usb2MscLunDeviceCreate
0052dcc8 t usb2MscDeviceMount
0052dee8 t usb2MscDeviceUnmount
0052e0d8 t usb2MscDeviceDelete
0052e254 t usb2MscDeviceCreate
0052e608 T usb2MscCheckOptimalInterface
0052e7b8 T usb2MscFindOptimalInterface
0052e9a4 t activateHuaweiModemInterface
0052ea4c t usb2MscDeviceAdd
0052f470 t usb2MscDeviceRemove
0052f624 t usb2MscDeviceSuspend
0052f69c t usb2MscDeviceResume
0052f714 T usb2MscDrvInit
0052f9e4 T usb2MscDrvUnInit
00530be8 T usb2MscBulkOnlyMassStorageReset
00530d94 T usb2MscBulkOnlyGetMaxLun
00530eb0 T usb2MscBulkOnlyResetEndpoints
00530f18 T usb2MscBulkOnlyResetRecovery
00530f78 T usb2MscBulkOnlyTransport
00531cd0 T usb2MscCBICommandTransfer
00531d64 T usb2MscCBIStatusTransfer
00531e2c T usb2MscCBICommandBlockReset
00531f7c T usb2MscCBIResetRecovery
00532034 T usb2MscCBITransport
00532d58 t usb2MscBlkDevRead
00532e1c t usb2MscBlkDevWrite
00532f9c t usb2MscBlkDevGeometryCheck
00533058 T usb2MscBlkDevIoctl
0053327c t usb2MscBlkDevReset
00533304 T usb2MscBlkDevStatusCheck
005335e0 t usb2MscBlkDevDelete
00533628 T usb2MscBlkDevCreate
0053392c T usb2MscBlkDevMount
00533afc T usb2MscBlkDevUnmount
00534294 T usb2MscScsiHandleSenseData
00534a70 T usb2MscScsiRequestSense
00534c40 T usb2MscCommandSetTransport
00534ca8 T usb2MscScsiInquiry
00535240 T usb2MscScsiStartStopUnit
0053543c T usb2MscScsiTestUnitReady
00535638 T usb2MscScsiCheckReady
00535bcc T usb2MscStatusCheck
00535d28 T usb2MscScsiReadFormatCapacities
00535f90 T usb2MscScsiReadCapacity10
005362bc T usb2MscScsiFormatUnit
00536528 T usb2MscScsiModeSense10
005367c8 T usb2MscScsiModeSense6
00536a58 T usb2MscScsiModeSense
00536b40 T usb2MscWriteProtectionCheck
00536ba8 T usb2MscScsiRead10Internal
00536ea8 T usb2MscScsiWrite10Internal
005371a8 T usb2MscScsiRead10
00537270 T usb2MscScsiWrite10
005380c8 t usb2MscXbdRead
00538180 t usb2MscXbdWrite
005382f4 t usb2MscXbdDelete
005383d4 t usb2MscXbdCreate
00538890 t usb2MscXbdCreateSyncHandler
00538a60 t usb2MscXbdRunBio
00538cb4 t usb2MscXbdGetNextBio
00538d3c t usb2MscXbdHotPlug
00539010 t usb2MscXbdIdleCheck
00539080 t usb2MscXbdService
00539214 t usb2MscXbdGeometryCheck
005392c8 T usb2MscXbdMediaTest
0053933c T usb2MscXbdEject
0053969c T usb2MscXbdTest
005397b4 t usb2MsxXbdIoctl
00539f50 t usb2MscXbdStrategy
0053a1f0 t usb2MscXbdDump
0053a290 T usb2MscXbdMount
0053a92c T usb2MscXbdUnmount
0053b800 T usb2MscDirectAccessOpen
0053bc1c t usb2MscDirectAccessClose
0053bd48 t usb2MscDirectAccessRead
0053bf54 t usb2MscDirectAccessWrite
0053c0e0 T usb2MscDirectAccessScsiPassThrough
0053c374 t usb2MscGetSerial
0053c730 t usb2MscDirectAccessIoctl
0053ca54 T usb2MscDirectAccessDeviceAdd
0053cc84 T usb2MscDirectAccessDeviceRemove
0053ce7c T usb2MscDirectAccessInit
0053cf3c T usb2MscDirectAccessUnInit
0053d82c T usb2MscComplianceLogLangId
0053d8c8 T usb2MscComplianceLogCBW
0053daa4 T usb2MscComplianceLogCSW
0053daf8 T usb2MscComplianceLogInfo
0053dbbc T usb2MscComplianceLogWarning
0053dc98 T usb2MscComplianceLogError
0053dd74 T usb2MscComplianceLogCurrentStatistics
0053de04 T usb2MscComplianceLogFinalStatistics
0053de48 T usb2MscComplianceLogHstStatus
0053e0c0 T usb2MscComplianceTransportCommon
0053e48c T usb2MscComplianceRequestSense
0053e68c T usb2MscComplianceTransport
0053e720 T usb2MscCompliancePreliminaryProcedure
0053ec4c T usb2MscComplianceRecoveryProcedure
0053ed78 T usb2MscComplianceInterfaceDescriptorTest
0053f570 T usb2MscComplianceVerifySerialNumber
0053f73c T usb2MscComplianceSerialNumberTest
0053fdbc T usb2MscComplianceClassSpecificRequestTest
005406a4 T usb2MscComplianceErrorRecoveryTest
00541480 T usb2MscComplianceCase1Test
005417cc T usb2MscComplianceCase2Test
00541c38 T usb2MscComplianceCase3Test
005420a4 T usb2MscComplianceCase4Test
00542514 T usb2MscComplianceCase5Test
005429e0 T usb2MscComplianceCase6Test
00542e9c T usb2MscComplianceCase7Test
0054337c T usb2MscComplianceCase8Test
005438d4 T usb2MscComplianceCase9Test
00543dac T usb2MscComplianceCase10Test
00544304 T usb2MscComplianceCase11Test
00544758 T usb2MscComplianceCase12Test
00544b78 T usb2MscComplianceCase13Test
00545038 T usb2MscCompliancePowerUpTest
005450f8 T usb2MscCompliancebCBLengthTest
00545314 T usb2MscComplianceInquiryTest
005454f4 T usb2MscComplianceRequestSenseTest
005456cc T usb2MscComplianceTestUnitReadyTest
00545870 T usb2MscComplianceRead10Test
00545a94 T usb2MscComplianceRead12Test
00545c88 T usb2MscComplianceReadCapacityTest
00545e2c T usb2MscComplianceWrite10Test
00546050 T usb2MscComplianceWrite12Test
00546244 T usb2MscComplianceModeSelect6Test
005463e8 T usb2MscComplianceModeSelect10Test
0054658c T usb2MscComplianceModeSense6Test
00546740 T usb2MscComplianceModeSense10Test
00546904 T usb2MscCompliancePreventAllowMediumRemovalTest
00546aa8 T usb2MscComplianceStartStopUnitTest
00546c4c T usb2MscComplianceReadTOCTest
00546e34 T usb2MscComplianceVerify10Test
00547058 t usb2MscComplianceSaveTestSectors
00547140 t usb2MscComplianceTestTask
00547600 T usb2MscComplianceTestDeviceAdd
00547a68 T usb2MscComplianceTestDeviceRemove
0054c6e0 t usbEhcdHostBusInitialize
0054cc00 T usbEhcdDestroyInterruptTree
0054cca0 T usbEhcdCreateInterruptTree
0054d3bc t usbEhcdHostBusUninitialize
0054d43c t usbEhcdDataUninitialize
0054d610 t usbEhcdDataInitialize
0054e3d8 T usbEhcdInstantiate
0054e3dc T usbEhcdInit
0054e5c4 T usbEhcdDisableHC
0054e698 t usbHcdEhciDeviceInit
0054e75c t usbHcdEhciDeviceConnect
0054eca0 t usbHcdEhciDeviceRemove
0054ee48 T vxbUsbEhciRegister
0054ee98 t vxbUsbHcdEhciDevDeregister
0054ef0c T usbEhcdExit
0054efac t usbVxbHcdEhciDeviceProbe
0054f050 t usbVxbNullFunction
0054f054 t usbHcdEhciPlbInit
0054f3a4 t usbEhcdPipeReturnAll
0054f41c T usbEhcdDeletePipe
0054fcc0 T usbEhcdCreatePipe
00550ee0 T usbEhcdModifyDefaultPipe
0055141c T usbEhcdIsBandwidthAvailable
005515e4 T usbEhcdSubmitURB
00552aa4 T usbEhcdCancelURB
005534bc T usbEhcdIsRequestPending
00553538 T usbEhcdGetFrameNumber
005535dc T usbEhcdSetBitRate
00553610 T usbEhcdClearTTRequestComplete
00553900 T usbEhcdResetTTRequestComplete
00553a14 T usbEhcdAlign
00553a44 T usbEhcdAddToFreeQHList
00553ac0 T usbEhcdAddToFreeQTDList
00553b3c T usbEhcdAddToFreeITDList
00553bb8 T usbEhcdAddToFreeSITDList
00553c34 T usbEhcdGetFreeQTD
00553ce8 T usbEhcdGetFreeQH
00553d9c T usbEhcdGetFreeITD
00553e50 T usbEhcdGetFreeSITD
00553f04 T usbEhcdFreeAllLists
00554008 T usbEhcdFormEmptyQH
005541b8 T usbEhcdFormEmptyQTD
005543e0 T usbEhcdFillQTDBuffer
00554798 T usbEhcdCreateQTDs
00554b0c T usbEhcdUpdateNonIsochStatusAndBytes
00554dc4 T usbEhcdUpdateITDData
00554f7c T usbEhcdUpdateSITDData
005550b4 T usbEhcdCalculateBusTime
00555170 T usbEhcdCheckBandwidth
00555858 T usbEhcdCopyRHInterruptData
00555a80 T usbEhcdUpdateBandwidth
00555b80 t usbEhcdFormEmptyITD
00555fa4 t usbEhcdFillITD
005565d4 T usbEhcdGenerateITDs
00556784 T usbEhcdLinkITDs
00556cd4 T usbEhcdLinkSITDs
005571e0 T usbEhcdUnLinkSITD
005579f0 T usbEhcdUnLinkITD
00558200 t usbEhcdFormEmptySITD
0055879c t usbEhcdFillSITD
00558c38 T usbEhcdGenerateSITDs
00558e1c T usbEhcdAsynchScheduleEnable
00558f4c T usbEhcdAsynchScheduleDisable
0055904c T usbEhcdSubBandwidth
005593ec T usbEhcdSubDeviceBandwidth
00559688 T usbEhcdAddBandwidth
005598a4 T usbHubUrbTimeoutSet
00559900 t usbHubFindPortNumber
00559958 t usbHubFindParentHub
00559a18 t usbHubFindParentHubInBuses
00559a78 t usbHubCreateBusStructure
00559bbc t usbHubDeleteBusStructure
00559c54 t usbHubRemoveDevice
00559d90 t usbHubResetPort
00559f7c t usbHubHandleDeviceConnection
0055a068 t usbHubRetryDeviceConfiguration
0055a15c t usbHubSubmitControlRequest
0055a2d4 t usbHubPowerOnPort
0055a37c t usbHubGetStatus
0055a534 t usbHubGetPortStatus
0055a710 t usbHubPortDebounceHandler
0055a910 t usbHubGetDescriptor
0055aa5c t usbHubSubmitInterruptRequest
0055ab28 t usbHubResetCallback
0055ac20 t usbHubBlockingCallback
0055ac4c t usbHubInterruptRequestCallback
0055ae3c t usbHubFindNearestParent
0055af58 t usbHubValidateDescriptor
0055b11c t usbHubConfigure
0055baf8 t usbHubClearTTRequestCallback
0055bb6c t usbHubResetTTRequestCallback
0055bbe0 T SearchDumpHub
0055bcec T alexDumpHub
0055be88 T SearchDumpHubDevice
0055bf90 T DumpAllHubs
0055bfdc T PortFromDevice
0055c03c T Node2Port
0055c0b0 T usbGetLowestHub
0055c154 T disconnectPort
0055c1c4 t usbHubPortConnectChangeHandler
0055c468 t usbHubPortEnableChangeHandler
0055c584 t usbHubPortSuspendChangeHandler
0055c670 t usbHubPortResetChangeHandler
0055c8f8 t usbHubPortOverCurrentChangeHandler
0055c9e0 t usbHubPortEventHandler
0055ccc4 t usbHubEventHandler
0055ce38 t usbHubStatusChangeHandler
0055d05c t usbHubThread
0055d0e8 T userHubRemoveDummy
0055d10c T SetUsbHub_Eventfunc
0055d128 t usbHubAdd
0055d1ec t usbHubRemove
0055d368 t usbHubSuspend
0055d45c t usbHubResume
0055d570 t usbHubSelectiveSuspendDevice
0055d634 t usbHubSelectiveResumeDevice
0055d730 t usbHubAddRoot
0055d7e8 t usbHubRemoveRoot
0055d95c t usbHubCheckPower
0055da18 t usbHubResetDevice
0055daac t usbHubClearTT
0055dbf4 t usbHubResetTT
0055dd24 T usbHubPortCntGet
0055de04 T usbHubNodeIDGet
0055df58 T usbHubGetRootHubHandle
0055dfd0 T usbHubInit
0055e134 T usbHubExit
0055ef9c t usbdLinkDeviceInfo
0055eff8 t usbdUlinkDeviceInfo
0055f0ac t usbdGenerateDeviceHandle
0055f0bc T usbdTranslateDeviceHandle
0055f128 t usbdGetFreeAddress
0055f208 t usbdReserveAddress
0055f2c0 t usbdReleaseAddress
0055f37c t usbdIsValidEndpoint
0055f4fc t usbdParseConfiguration
0055f98c t usbdGetInterfaceOffset
0055fa0c t usbdCreatePipeForInterface
0055fb38 t usbdResetPipe
0055fdc4 t usbHstDeviceRemove
00560034 t usbHstDeviceSuspend
00560100 t usbHstDeviceResume
005601d0 T usbHstSelectiveSuspend
00560264 T usbHstSelectiveResume
005602f8 T usbHstResetDevice
0056038c t usbdReverseHold16
005603c4 t usbdComputeCRCForByte
0056044c t usbdComputeCRC
005604ac t usbHstCompletionCallback
005604ec T usbHstSetInterface
005609c0 T usbHstSetBitRate
00560a60 T usbHstURBSubmit
00560bf8 T usbHstURBCancel
00560d70 T usbHstGetFrameNumber
00560e08 t usbdSubmitRequest
005610ac T usbHstSetSynchFrame
00561168 T usbHstSetDescriptor
005612bc T usbHstSetFeature
005613c8 t usbdSetAddress
00561480 T usbHstFastCharge
00561528 T usbHstGetInterface
005615fc T usbHstGetConfiguration
005616c8 T usbHstClearFeature
005617e0 T usbHstGetStatus
005618e0 T usbHstGetDescriptor
00561b28 T usbHstSetConfiguration
00562284 t usbHstDeviceNew
00562864 t usbHstDeviceConfigure
00562b74 t usbHstClearTTRequest
00562c8c t usbHstResetTTRequest
00562d9c t usbHstClearTTComplete
00562e60 t usbHstResetTTComplete
00562f24 T usbdBusCntGet
00562f68 T usbdRootNodeIDGet
00562f9c T usbdFrameWindowGet
00562fbc T usbdInit
00563130 T usbdExit
0056323c t usbdCheckSupportedDevicesList
005632a0 t usbdMatchDriver
005633f8 t usbdFindDriver
00563570 T usbHstDriverRegister
005638b0 T usbHstDriverDeregister
00563a20 T usbHstHCDRegister
00563c5c T usbHstHCDDeregister
00563d10 T usbHstBusRegister
00563f6c T usbHstBusDeregister
00564074 T usbVxbRootHubAdd
005640c8 T usbVxbRootHubRemove
00564110 t usbVxbDeviceAdd
00564214 t usbVxbDeviceRemove
005642f4 t usbVxbDriverDeviceMatch
005642fc t usbVxbDeviceDriverInstInit
0056430c t usbVxbNullFunction
005649e4 T usbEhcdISR
00564b74 t usbEhcdPortChangeHandler
00564c94 t usbEhcdProcessTransferCompletion
00565d44 t usbEhcdCleanupAsynchPipes
00566088 t usbEhcdCleanupPeriodicPipes
005663d8 t usbEhcdHostSystemErrorHandler
00566474 T usbEhcdInterruptHandler
00566864 T usbEhcdRhCreatePipe
005669d8 T usbEhcdRHDeletePipe
00566ac4 T usbEhcdRhProcessInterruptRequest
00566c40 T usbEhcdRhProcessStandardRequest
00566f58 T usbEhcdRhClearPortFeature
0056768c T usbEhcdRhGetHubDescriptor
00567804 T usbEhcdRhGetPortStatus
00567ca4 T usbEhcdRhSetPortFeature
00568614 T usbEhcdRhProcessClassSpecificRequest
005687c8 T usbEhcdRhProcessControlRequest
00568834 T usbEhcdRHSubmitURB
005688e4 T usbEhcdRHCancelURB
00568ab4 T ifLibInit
00568ab8 t ifIoctlCall
00568b38 t ifIoctlSet
00568bcc t ifIoctlGet
00568c68 t ifIoctl
00568e2c t ifAddrParamGet
00568ea4 T ifAddrGet
00568eb4 T ifAddrAdd
00568fbc T ifAddrDelete
00568fcc T ifBroadcastSet
00568fdc T ifBroadcastGet
00568fec T ifDstAddrGet
00568ffc T ifDstAddrSet
0056900c T ifMaskGet
0056904c T ifAddrSet
005690f0 T ifMaskSet
00569194 T ifFlagSet
005691a4 T ifFlagGet
005691b4 T ifFlagChange
005692b0 T ifMetricSet
005692c0 T ifMetricGet
005692d0 T ifIndexToIfName
00569304 T ifNameToIfIndex
00569328 T ipcom_proxy_sys_var
005693c4 T ifProxyArpDisable
00569434 T ifProxyArpEnable
005694a4 T ifRouteDelete
005695d4 T ifAllRoutesDelete
0056971c t ifRouteDeleteCallback
00569794 t ifAllRoutesDeleteCallback
005698e0 t in_netof
00569944 T oldRouteLibInit
00569948 t routeRtmSendReply
00569b80 t routeCmdExecute
00569c50 T mRouteEntryDelete
00569ca8 T mRouteDelete
00569cf8 T routeDelete
00569df0 t routeExistsOnIf
00569f24 t routeExistsInTable
00569fc8 T mRouteEntryAdd
0056a190 T mRouteAdd
0056a200 T routeNetAdd
0056a4bc T routeAdd
0056a528 T netDaemonsStart
0056a688 t netTaskIdSet
0056a6ac t netTask
0056a6d4 T netLibInitialize
0056a7c4 T netJobAdd
0056a7e8 T netErrnoSet
0056a7ec T netDaemonQ
0056a81c T netDaemonQnum
0056a880 T netDaemonsCount
0056a8f0 T jobQueuePriorityMask
0056a954 T jobQueueInit
0056a9fc T jobQueueCreate
0056aa70 T jobQueueTask
0056aa88 T jobQueueStdPoolInit
0056aab4 T jobQueueStdJobsAlloc
0056ab84 t _linkMemReq
0056abd0 t _linkMblkFree
0056ac90 t _linkClFree
0056ac94 t _linkClBlkGet
0056ac9c t _linkClusterGet
0056aca4 t _linkMclGet
0056acac t _linkClPoolIdGet
0056acb4 t linkMblkCarve
0056ae64 t linkMblkFill
0056af0c t _linkPoolInit
0056b160 t _linkPoolEmptyCheck
0056b1d0 t _linkPoolRelease
0056b228 t _linkMBlkFreeRel
0056b258 t _linkClBlkFreeRel
0056b288 t _linkClFreeRel
0056b28c t _linkMBlkClFreeRel
0056b2d0 t _linkTupleFreeRel
0056b31c t _linkTupleListFreeRel
0056b370 T netBufLibInit
0056b378 t netPoolInitWrapper2
0056b444 T netPoolInitWrapper
0056b554 T netPoolInit
0056b560 T netPoolKheapInit
0056b56c T netMblkFree
0056b5e4 T netClBlkFree
0056b660 T netClFree
0056b6c4 T netMblkGet
0056b75c T netClBlkGet
0056b7ec T netClusterGet
0056b87c T netMblkClGet
0056b924 T netTupleFree
0056b9d0 T netClBlkJoin
0056ba30 T netMblkClJoin
0056ba88 T netClPoolIdGet
0056bb08 T netMblkToBufCopy
0056bb88 T netMblkDup
0056bc78 T netMblkChainDup
0056bec0 T netMblkOffsetToBufCopy
0056bfd4 T netMblkFromBufCopy
0056c1c8 T _netMemReqDefault
0056c22c t netPoolReleaseStart
0056c3a8 t netPoolReleaseStartStub
0056c3d4 t netPoolReleaseEndStub
0056c400 T netPoolIdGetWork
0056c474 T netPoolIdGet
0056c4e8 T netPoolNameGet
0056c538 t _netPoolDelete
0056c604 T netPoolDelete
0056c66c t _netPoolDestroy
0056c7a8 T netPoolCreate
0056cc14 T netPoolCreateValidate
0056cc48 T netPoolRelease
0056ce14 t netPoolDestroy
0056cedc t netPoolReleaseTask
0056cf1c t netPoolReleaseEnd
0056cf88 t netTupleGetReleaseStub
0056cfb4 t netTupleListGetReleaseStub
0056cfe0 t netTupleMigrateReleaseStub
0056d018 t _netPoolMemReq
0056d06c t _mBlkCarve
0056d0c0 t _clBlkCarve
0056d10c t _clPoolCarve
0056d14c t _memPoolInit
0056d1c8 t _poolInit
0056d6ac t _mBlkFree
0056d754 t _clBlkGet
0056d7ec t _mClGet
0056da84 t _clPoolIdGet
0056db64 t _netBufPoolEmptyCheck
0056dc14 t _netPoolRelease
0056dc6c t _mBlkFreeRel
0056dc9c t _clBlkFreeRel
0056dccc t _clFreeRel
0056dd08 t _mBlkClFreeRel
0056dd4c t _netTupleFreeRel
0056dd9c t _netTupleListFreeRel
0056de00 t clPoolShow
0056df58 T netPoolShow
0056e090 T netStackDataPoolShow
0056e098 T netStackSysPoolShow
0056e0a0 T mbufShow
0056e2a8 T m_prepend
0056e3a0 T muxCommonInit
0056e44c t muxEndFind
0056e508 t muxEndRemove
0056e604 T muxDevAcquire
0056e6a8 T muxDevRelease
0056e7f8 T muxDevLoad
0056eb94 t muxDevUnloadWakeup
0056eba0 t muxMibStatusUpdate
0056ec90 T muxEndListGet
0056ed44 T muxProtoInfoGet
0056ede4 t muxProtoListGetHelper
0056ee80 T muxTxRestart
0056ef24 T muxErrorSkip
0056effc t muxEndFlagsNotify
0056f07c T muxError
0056f084 t muxErrorPostInt
0056f0b8 T muxLinkUpNotify
0056f10c T muxLinkDownNotify
0056f14c t muxOutputFilterPushHelper
0056f198 t muxOutputFilterRemoveHelper
0056f208 T muxIoctl
0056f4d0 T muxMCastAddrAdd
0056f540 T muxMCastAddrDel
0056f5b0 T muxMCastAddrGet
0056f620 T muxDevStopAll
0056f6a8 t muxDevStopAllImmediate
0056f6b0 t muxEndProtoRegisterHelper
0056f924 t muxEndProtoFreeHelper
0056fa24 T muxEndJobQDoJob
0056fa68 T muxEndRxJobQueue
0056fb14 T muxEndJobQDo
0056fbf4 T muxProtoListGet
0056fc38 t muxShowEnd
0056fd38 T muxShow
0056fe34 t muxOutputFilterPush
0056fedc t muxOutputFilterRemove
0056ff6c t muxEndProtoFree
0056ffe4 T muxUnbind
00570068 t muxDevUnloadHelper
00570158 t muxEndProtoRegister
005701c0 T muxErrorPost
00570218 T muxDevStart
005702c4 T muxDevStop
0057034c T muxDevUnloadAsync
005704ac T muxDevUnload
00570574 T muxEndQnumGet
005705f4 T endFindByName
0057063c T muxTkCookieGet
00570674 T muxIfTypeGet
0057068c T muxBindCommon
00570d58 T muxLibInit
00570d74 t muxOutputFilter
00570e4c T muxBind
00570eb4 T muxSend
00570eec T muxPollSend
00570f44 T muxPollReceive
00570fa8 T muxLinkHeaderCreate
00571158 T muxAddressForm
005712d8 T muxPacketDataGet
00571358 T muxPacketAddrGet
005713f0 T endFirstUnitFind
0057142c T muxDevExists
00571454 T muxTkDrvCheck
005714fc T muxTkLibInit
00571518 t muxTkOutputFilter
00571594 T muxTkBind
005715ec T muxTkSend
00571624 T muxTkPollSend
0057166c T muxTkPollReceive
00571714 T muxTkOverEndInit
00571770 t muxTkTypedOverEndReceive
005717f8 t muxTkOverEndOutputFilter
005718d8 t muxTkSnarfOverEndReceive
00571918 t _muxTkSendOverEnd
00571a80 t muxTkSendOverEnd
00571a94 t muxTkPollSendOverEnd
00571aa8 t muxTkPollReceiveOverEnd
00571b6c T mux2LibInit
00571b80 t mux2OutputFilter
00571bd4 T mux2Bind
00571c3c T mux2Send
00571c70 T mux2PollSend
00571ca4 T mux2PollReceive
00571cd8 T mux2OverEndInit
00571d28 t mux2OverEndOutputFilter
00571db8 t mux2OverEndReceive
00571f4c t mux2SendOverEnd
00571fc4 t mux2PollSendOverEnd
00571fcc t mux2PollReceiveOverEnd
0057205c T vxmux_mux_mblk_init
00572060 T muxMblkToIpcomPktTx
005721d4 T muxIpcomPktToMblkTx
00572384 t muxIpcomFreeOtherPkt
005723b8 T muxIpcomPktFreeMblk
005723c0 T muxMblkFreeIpcomPktOutDone
005723f0 t _nullMemReq
0057243c t _nullPoolInit
005724f0 t _nullMblkFree
005724f4 t _nullClFree
005724f8 t _nullClBlkGet
00572500 t _nullClusterGet
00572508 t _nullMclGet
00572510 t _nullClPoolIdGet
00572518 t vxmux_init_null_pool
005725bc T vxmux_null_buf_init
005725d8 T vxmux_calculate_transport_checksum
00572844 T __vxmux_assert
0057288c T wdbFuncCallLibInit
005728c8 t callRetEvtDeq
00572904 t callRetEvtGet
00572934 t wdbCallPost
0057297c t funcCallWrapperFlt
00572a78 t funcCallWrapperInt
00572b18 t wdbFuncCall
00572d54 T wdbConnectLibInit
00572e58 T wdbTargetIsConnected
00572e60 t wdbTargetPing
00572e68 t wdbTargetModeSet
00572ea0 t wdbTargetModeGet
00572ec0 T wdbCnctModePost
00572ed4 t wdbCnctModeEvtGet
00572ef0 T wdbConnectHookAdd
00572f3c t wdbTargetConnectHook
00572f9c t wdbTargetDisconnectionDo
00572fd0 t wdbTargetDisconnect
00572fd8 t wdbTargetConnect2
00573060 T wdbCtxExitLibInit
005730a8 T wdbCtxExitEventGet
005730f0 T wdbCtxExitNotifyHook
005731c0 t ctxExitEvtptAdd
005732c4 t ctxExitEvtptDelete
00573450 T wdbCtxLibInit
0057350c t wdbCtxCreate
00573598 t wdbCtxKill
0057363c t wdbCtxSuspend
00573718 t wdbCtxResume
005737f4 t wdbCtxStatusGet
00573898 T wdbCtxStartLibInit
005738fc T wdbCtxStartEventGet
00573948 t wdbCtxStartNotifyHook
00573a64 t wdbCtxStartEvtptAdd
00573b14 t wdbCtxStartEvtptDelete
00573c18 T wdbDirectCallLibInit
00573c38 t wdbDirectCall
00573da8 T wdbEventLibInit
00573de0 T wdbEventNodeInit
00573df8 T wdbEventPost
00573ee8 T wdbEventDeq
00573fc4 t wdbEventGet
0057409c t _wdbEventListIsEmpty
005740b4 T wdbEvtptLibInit
00574140 T wdbEvtptClassConnect
00574160 t wdbEvtptAdd
005741c4 t wdbEvtptDeleteAll
00574228 t wdbEvtptDelete
00574290 T wdbExcLibInit
00574330 t wdbExcHook
00574594 t wdbExcEventGet
00574728 t wdbExcEventDeq
005747d0 T gopherHookAdd
005747d8 T wdbGopherLibInit
0057488c t wdbTransferGopher
005749f0 t gopherByteReorder
00574a84 t gopherNewTapeAllocate
00574b48 T gopherWriteChar
00574ba0 t gopherCtxSwitchBack
00574c18 t gopherCtxSwitchTo
00574c74 T gopherWriteScalar
00574d40 t gopherWriteString
00574e68 t gopher
00575900 t wdbEvaluateGopher
00575bb4 T wdbInstallRtIf
00575bbc T wdbInstallCommIf
00575bcc T wdbCommMtuGet
00575bd4 T wdbInfoGet
00575bfc T wdbModeSet
00575ca4 T wdbRunsExternal
00575cb8 T wdbIsNowExternal
00575cc4 T wdbRunsTasking
00575cd8 T wdbCmdLoop
00575d3c T wdbNotifyHost
00575d9c T wdbSystemSuspend
00575e14 T wdbModeSetHookAdd
00575e48 T wdbMemCoreLibInit
00575f00 T wdbCksum
00575fa8 t wdbMemWrite
005760d8 t wdbMemFill
0057620c t wdbMemChecksum
005762b8 t wdbMemTxtUpdate
005763f0 t wdbMemRead
005764d4 T wdbMemLibInit
0057652c t wdbMemMove
005765e8 t wdbMemScan
005766dc T wdbRegsLibInit
00576734 t wdbRegGet
005767f8 t wdbRegSet
005768f8 T wdbRpcXportInit
0057695c T wdbRpcRcv
005769f8 T wdbRpcReply
00576aa4 T wdbRpcReplyErr
00576b18 T wdbRpcResendReply
00576b88 T wdbRpcNotifyConnect
00576bac T wdbRpcNotifyHost
00576c4c T wdbRpcGetArgs
00576ca0 T wdbSvcLibInit
00576cbc T wdbSvcHookAdd
00576cc8 t wdbSvcGetSvc
00576d28 T wdbSvcAdd
00576dc8 T wdbSvcDispatch
00576f98 T wdbTgtInfoLibInit
00576fb8 t wdbTgtInfoGet
00577054 T wdbUserEvtLibInit
00577058 T wdbUserEvtPost
005771a8 t wdbUsrSysEvtPost
005771d0 t wdbUserEvtGet
0057720c t wdbUserEvtMemFree
00577284 T wdbXdrCreate
00577298 T wdbXdrSetpos
005772d0 T wdbXdrGetpos
005772e0 T wdbXdrPutVal
00577374 T wdbXdrGetVal
00577400 T wdbXdrPutbytes
00577444 T wdbXdrInline
00577474 T xdr_WDB_CONNECT_PARAMS
005774d0 T xdr_WDB_CONNECT_INFO
00577580 T xdr_WDB_CTX
0057760c T xdr_WDB_CTX_CREATE_DESC
00577a64 T xdr_WDB_CTX_KILL_DESC
00577ac0 T xdr_WDB_CTX_STEP_DESC
00577b38 T xdr_WDB_DIRECT_CALL_RET
00577b94 T xdr_WDB_EVT_INFO
00577c18 t xdr_DOUBLE
00577c7c T xdr_WDB_CALL_RETURN_INFO
00577d7c T xdr_WDB_EVT_DATA
00577e54 t xdr_WDB_ACTION
00577ee8 T xdr_WDB_EVTPT_ADD_DESC
00577fac T xdr_WDB_EVTPT_DEL_DESC
00578008 T xdr_WDB_MEM_REGION
0057809c T xdr_WDB_MEM_XFER
00578134 T xdr_WDB_MEM_SCAN_DESC
00578190 T xdr_WDB_REG_READ_DESC
00578208 T xdr_WDB_REG_WRITE_DESC
00578280 T xdr_WDB_RT_INFO
00578524 T xdr_WDB_AGENT_INFO
005785b8 T xdr_WDB_TGT_INFO
00578614 T xdr_WDB_TGT_INFO_2
00578690 T xdr_WDB_PARAM_WRAPPER
00578784 T xdr_WDB_REPLY_WRAPPER
00578868 T xdr_UINT32
005788b8 T xdr_WDB_OPQ_DATA_T
005789f0 T xdr_WDB_STRING_T
00578a50 T xdr_TGT_LONG_T
00578aa0 T xdr_TGT_ADDR_T
00578af0 T xdr_ARRAY
00578be8 T xdr_WDB_CORE
00578c70 T xdr_WDB_STRING_ARRAY
00578d94 T xdr_VOID
00578d9c T xdr_BOOL
00578e3c T xdr_ENUM
00578e40 T wdbBpSyncLibInit
00578eb4 t wdbBpSyncEvtGet
00578fa8 t wdbBpSyncEvtDeq
00578ff0 t wdbBpSyncEvtPost
005790a4 t wdbBpDeleteSyncEvtPost
005790ac t wdbBpAddSyncEvtPost
005790b4 t wdbBpSyncStart
00579150 t wdbBufPoolInit
005791b8 t wdbBufAlloc
00579220 t wdbBufFree
005792b4 T wdbMbufInit
00579318 T wdbMbufFree
005793a0 T wdbMbufAlloc
0057941c T wdbMdlSymSyncLibInit
0057953c t wdbModInfoGet
00579590 t wdbSymListAdd
005795e4 t wdbSymInfoGet
00579640 t wdbModuleAdd
00579694 t wdbModuleRemove
005796d8 t wdbMdlSymSyncEvtGet
005796f4 t wdbMdlSymSyncEvtDeq
00579730 t wdbMdlSymSyncEvtPost
005797a0 t wdbModuleLoadEvtPost
005797ac t wdbSymAddEvtPost
005797b8 t wdbModuleUnloadEvtPost
005797c4 T wdbRtLibInit
005798e4 t wdbRtMemTest
00579a98 t wdbRtMemCacheTextUpdate
00579af8 t wdbRtMemProtect
00579c04 t wdbRtMemCtxSwitch
00579c68 t wdbRtMemAccess
00579e50 t wdbRtMemWrite
00579e68 t wdbRtMemFill
00579f4c t wdbRtMemRead
00579f64 t wdbRtMemMove
0057a018 t wdbRtMemScan
0057a0fc t wdbRtMemCksum
0057a218 t wdbRtResourceLock
0057a318 t wdbRtResourceUnlock
0057a3a8 t wdbTaskCreate
0057a524 t wdbTaskDelete
0057a574 t wdbTaskRtIfInit
0057a640 T wdbTask
0057a644 t wdbTaskInit
0057a6f4 t wdbTaskRestart
0057a80c T wdbTaskModeInit
0057a894 t wdbTaskIdVerify
0057a918 t __wdbTaskDeleteHook
0057aa54 T wdbTaskDeleteHookAdd
0057aad0 t __wdbTaskCreateHook
0057ab88 T wdbTaskCreateHookAdd
0057aba4 T wdbTaskHookInit
0057abec t wdbTaskRegsSet
0057acc8 t wdbTaskRegsGet
0057adbc T wdbTaskRegLibInit
0057adfc T wdbUdpSockIfInit
0057af44 t wdbUdpSockModeSet
0057af5c t wdbUdpSockRcvfrom
0057b090 t wdbUdpSockCancel
0057b0d4 t wdbUdpSockSendto
0057b140 T wdbVioLibInit
0057b19c T wdbVioChannelUnregister
0057b204 T wdbVioChannelRegister
0057b2b8 t wdbVioWrite
0057b384 T mdlSymSyncModuleRemove
0057b38c t mdlSymSyncFirstSymGet
0057b3d4 t mdlSymSyncNextSymGet
0057b428 t mdlSymSyncSymbolFind
0057b520 t mdlSymSyncSymDescClear
0057b598 T mdlSymSyncSymListAdd
0057b800 t mdlSymSyncModDescClear
0057b894 T mdlSymSyncModInfoGet
0057bc08 T mdlSymSyncModAdd
0057bf2c T mdlSymSyncStop
0057bf74 T mdlSymSyncLibInit
0057bfc0 t mdlSymSyncSymCheck
0057c010 T mdlSymSyncSymListGet
0057c2c8 T wdbVioDrv
0057c36c t vioOpen
0057c458 t vioClose
0057c4d4 t vioIoctl
0057c4f4 t vioStartup
0057c4fc t vioWriteEventGet
0057c5e8 t vioWriteEventDeq
0057c60c t vioInput
0057c694 T wdbTsfsDrv
0057c730 t tsfsErrnoMap
0057c908 t tsfsRwHandle
0057cad4 t tsfsWrite
0057cadc t tsfsRead
0057cae4 t tsfsClose
0057cbc8 t tsfsDelete
0057ccf4 t tsfsOpen
0057cf2c t tsfsIoctl
0057d4d8 t tsfsCreate
0057d4e4 t tsfsEventGet
0057d58c t tsfsEventDeq
0057d590 T wdbCtxEvtLibInit
0057d5b4 t wdbCtxEvtGet
0057d6b8 t wdbCtxEvtDeq
0057d700 t wdbCtxSysEvtPost
0057d728 t wdbCtxEvtAdd
0057d7dc t wdbCtxEvtRemove
0057d808 T wdbCtxCreateNotify
0057d880 T wdbCtxDeleteNotify
0057d9a4 T xdr_REFERENCE
0057da14 T xdr_WDB_SYM_INFO
0057db4c T xdr_WDB_SYM_LIST
0057dc2c T xdr_WDB_SECT_INFO
0057dd64 T xdr_WDB_SEG_INFO
0057ddf8 T xdr_WDB_MOD_INFO
0057e040 T xdr_WDB_SYM_MOD_DESC
0057e0b8 T xdr_WDB_SYM_ID_LIST
0057e13c T xdr_WDB_SYM_ID
0057e198 T xdrCksum
0057e228 T xdr_CHECKSUM
0057e3ec T cpuPwrFrameWorkInit
0057e450 T cpuPwrTaskSwapRtn
0057e48c t idleEnter
0057e520 T cpuPwrIntEnter
0057e5b0 T cpuPwrIntExit
0057e5ec T cpuPwrTaskCreateRtn
0057e60c T cpuPwrEventHandlersSet
0057e798 T cpuPwrWdUpRtn
0057e840 T cpuPwrWdDownRtn
0057e8e8 T cpuPwrThermIntHandler
0057e948 T cpuPwrCStateSet
0057e9d8 T cpuPwrPStateGet
0057ea1c T cpuPwrCheckHotRtn
0057ea60 T cpuPwrTaskPStateGet
0057eaa8 T cpuPwrPStateSet
0057eb64 T cpuPwrTaskPStateSet
0057ec08 T cpuPwrTempThreshSet
0057ec4c T cpuPwrTempThreshGet
0057ec90 T cpuPwrUtilPeriodSet
0057ed30 T cpuPwrCStateHookSet
0057ed3c T cpuPwrThermIntConnect
0057ed88 T cpuPwrMgrEnable
0057eda8 T cpuPwrLightMgrInit
0057edf0 T cpuPwrMgrIsEnabled
0057edf8 t idleHandler
0057ee18 T eventLibInit
0057ee6c T eventInit
0057ee80 T eventTerminate
0057ef44 T eventReceive
0057f2a8 T eventSend
0057f454 t eventPendQRemove
0057f4b8 T eventRsrcSend
0057f5ec T eventClear
0057f638 T eventStart
0057f744 T isrLibInit
0057f814 T isrInit
0057f90c T isrCreate
0057fa94 T isrDestroy
0057fbb4 T isrTerminate
0057fbbc T isrDelete
0057fbc4 T isrInvoke
0057fc14 T isrIdSelf
0057fc1c T isrInfoGet
0057fcd4 T isrHandlerSet
0057fd4c T isrCpuTimeSet
0057fdb0 T isrCpuTimeGet
0057fe10 t isrDispatcher
0057fef0 t isrConnect
0057ff70 t intDisconnectRtn
0057ffb0 t isrDisconnect
00580070 T kernelInit
00580338 T kernelVersion
00580344 T kernelTimeSlice
005803b8 t kernelRoundRobinHook
0058048c T kernelRoundRobinInstall
005804bc T kernelCpuEnable
005804c4 T kernelIsCpuIdle
005804cc T kernelIsSystemIdle
0058057c T msgQCreateLibInit
00580590 T msgQCreate
005806dc t _msgQDestroy
005807a0 t msgQLocalIdVerify
005808f8 T msgQDestroy
00580950 T msgQDelete
0058099c T msgQTerminate
005809e8 T msgQLibInit
00580a80 T msgQNumMsgs
00580aec t msgQNodeGet
00580c6c t msgQNodeInsert
00580cc4 t msgQSenderCheck
00580dfc T msgQReceive
005810a8 T msgQInit
00581254 T msgQInitialize
0058129c t msgQFreeQNodeObtain
0058130c t msgQTaskDeleteHook
005813b4 t msgQEventSend
00581450 t msgQSendComplete
005815a0 T msgQSend
005819ec T msgQEvStart
00581ad8 t msgQEvIsFree
00581ae8 T msgQEvStop
00581bb0 t msgQInfoEach
00581c08 T msgQInfoGet
00581d4c T msgQShowInit
00581d84 T msgQShow
00582508 T reschedule
005827b8 T semBInit
00582894 T semBInitialize
005828d8 T semBGive
00582a38 T semBGiveNoLock
00582b3c T semBTake
00582c7c T semBTakeNoLock
00582d28 T semBGiveDefer
00582de4 T semBGiveScalable
00583004 T semBTakeScalable
005831d4 T semCInit
00583298 T semCInitialize
005832dc T semCGive
00583458 T semCTake
00583598 T semCGiveDefer
0058364c T semDeleteLibInit
00583660 t _semDestroy
0058374c T semLocalIdVerify
0058385c T semDestroy
005838bc T semTerminate
00583910 T semDelete
00583964 T semEvStart
00583a5c t semEvCIsFree
00583a6c t semEvBMIsFree
00583a7c T semEvStop
00583b3c T semInfo
00583c38 T semInfoGet
00583e1c T semLibInit
00583ea0 T semTake
00583f74 T semGiveDefer
00583ff4 T semGive
005840d4 T semFlushDefer
00584154 T semFlush
005841fc T semInvalid
00584240 T semIntRestrict
00584284 T semQInit
00584360 T semQFlush
0058441c T semQFlushDefer
005844c8 T semMInit
00584578 T semMInitialize
005845bc T semMGiveKernWork
00584748 T semMGive
00584a6c T semMGiveNoLock
00584d14 T semMTakeByProxy
00584df8 T semMGiveForce
0058517c T semMPendQPut
00585280 T semMTake
00585460 T semMTakeNoLock
005855e4 T semMGiveScalable
00585860 T semMTakeScalable
00585a70 T semOpenInit
00585a80 t vSemCreate
00585b14 T semOpen
00585b7c T semClose
00585b84 T semUnlink
00585b8c T semRWInitialize
00585ce0 t semRWPendQIndex
00585d08 T semRWGive
00586230 T semRWGiveForce
00586834 T semRTake
00586b88 T semWTake
00586e74 T semShowInit
00586e84 T semShow
005876f0 T semBCreate
005877b4 T semCCreate
00587874 T semExchange
00587ad8 T semMCreate
00587b8c T semRWCreate
00587c6c T taskOptionsSet
00587d2c T taskOptionsGet
00587d74 T taskBpHookSet
00587d7c T taskRegsGet
00587df4 T taskRegsSet
00587e44 T taskName
00587e88 T taskIdDefault
00587e9c T taskIsReady
00587edc T taskIsSuspended
00587f1c T taskIsStopped
00587f5c T taskIsPended
00587f9c T taskIsDelayed
00588020 T taskPriNormalGet
0058807c T taskCreateLibInit
0058809c T taskInit
00588270 T taskCreateWithGuard
0058858c T taskCreate
00588628 T taskCreat
0058867c T taskSpawn
005886e8 t taskDestroyComplete
00588b4c T taskDestroy
00588fa8 T exit
00589010 T taskDelete
00589020 T taskDeleteForce
00589030 T taskTerminate
00589098 T taskLibInit
00589174 T taskSuspend
005893ec T taskResume
005894f4 T taskActivate
005894f8 t _taskStop
00589618 T taskStop
00589620 T taskStopForce
00589628 T taskCont
00589734 T taskPrioritySet
00589884 T taskCpuUnlockNoResched
00589900 T taskSafe
00589968 T taskUnsafe
00589a2c T taskDelay
00589b34 T taskUndelay
00589bec T taskIdSelf
00589bf4 T taskIdVerify
00589bfc T taskTcb
00589c4c T taskStackSizeGet
00589cc0 T taskPriorityGet
00589d2c T taskStackAllot
00589dc8 T taskInitialize
0058a228 T taskInitExcStk
0058a2b8 T taskCpuAffinitySet
0058a3d4 T taskCpuAffinityGet
0058a48c T taskCpuLock
0058a48c T taskLock
0058a4dc T taskCpuUnlockInternal
0058a558 T taskCpuUnlock
0058a558 T taskUnlock
0058a5c8 T taskIdListGet
0058a61c T taskNameToId
0058a668 T taskEach
0058a724 T taskListCount
0058a798 T taskRestart
0058aa10 T taskReset
0058ad64 T taskShowInit
0058ad9c T taskInfoGet
0058b058 t taskRegsGetNoUpdate
0058b0b8 T taskIdListSort
0058b148 T regsShowOutput
0058b254 T regsShow
0058b260 T taskRegsShow
0058b2e0 T taskStatusString
0058b4c4 t taskSummary
0058b694 t taskDisplay
0058b7a0 T taskOptionsString
0058b984 T taskShow
0058c05c T tickAnnounce
0058c0d0 T tickSet
0058c108 T tickGet
0058c110 T tick64Set
0058c150 T tick64Get
0058c194 T tickAnnounceHookAdd
0058c1b4 T wdCreateLibInit
0058c1c8 T wdCreate
0058c260 T wdDestroy
0058c3bc T wdTerminate
0058c3c4 T wdDelete
0058c3cc T wdLibInit
0058c41c T wdInit
0058c450 T wdInitialize
0058c498 T wdStart
0058c5a4 T wdCancel
0058c6b8 T wdTick
0058c6bc T wdShowInit
0058c6f4 T wdShow
0058c8e0 T windSuspend
0058c96c T windResume
0058c9fc T windStop
0058ca88 T windCont
0058cb18 T windPrioritySet
0058ccd8 T windPriNormalSet
0058cd00 T windDelay
0058cda8 T windUndelay
0058ce80 T windWdCancel
0058cf08 T windPendQGet
0058cfd4 T windReadyQPut
0058d068 T windPendQFlush
0058d174 T windPendQRemove
0058d210 T windTickAnnounce
0058d49c T windDelete
0058d5e0 T windPendQTerminate
0058d6e4 T windSemDelete
0058d844 T windTickAnnounceN
0058d910 T windTickWaitGet
0058d960 t windCalibrateTickQ
0058d9b0 T windPendQPut
0058db48 T windReadyQRemove
0058dc48 T windWdStart
0058dd58 T windNullReturn
0058dd60 T windSemRWDelete
0058deb0 T workQInit
0058df20 T workQDoWork
0058dfd8 T workQPanic
0058e0e8 T workQAdd2
0058e180 T workQAdd1
0058e210 T workQAdd0
0058e2ec T isrShowInit
0058e330 t isrSymNameGet
0058e3f4 T isrShow
0058e504 t isrInternalShow
0058e9bc T msgQOpenInit
0058e9cc t vMsgQCreate
0058ea50 T msgQOpen
0058eab8 T msgQClose
0058eac0 T msgQUnlink
0058eac8 T taskOpenInit
0058ead8 t vTaskOpen
0058ee34 T taskOpen
0058ef34 T taskClose
0058ef3c T taskUnlink
0058ef44 T eventTaskShow
0058f020 T eventRsrcShow
0058f338 T wvTmrMuxEnable
0058f384 T wvTmrMuxDisable
0058f3cc T traceTmrMuxEnable
0058f418 T traceTmrMuxDisable
0058f460 t timestampMuxRollover
0058f4b0 t wvTmrMuxConnect
0058f4e8 t traceTmrMuxConnect
0058f530 T wvTmrRegister
0058f574 T traceTmrRegister
0058f5bc t ticksToTime
0058f6cc T traceTimestampGet
0058f764 T traceTmrResolutionGet
0058f7d0 T eventPointStubLibInit
0058f7d8 T eventPointSwStubConnect
0058f7e4 T eventPointSwHandle
0058f81c T wvLibInit
0058f820 T wvLibInit2
0058f824 T wvEvtLogStop
0058f868 T wvEvtClassSet
0058f958 T wvEvtClassGet
0058f960 T wvEvtClassClear
0058f96c T wvEvtClassClearAll
0058f974 T wvObjInstModeSet
0058fa18 t wvObjInstEachRtn
0058fa84 T wvObjInst
0058fb8c T wvAllObjsSet
0058fbdc T wvSigInst
0058fc30 T wvSalInst
0058fc84 T wvEventInst
0058fcd8 T wvEdrInst
0058fd2c T wvMemScopeInst
0058fd80 T wvEvent
0058fde8 t uploadPathWrite
0058fec4 T wvUploadStop
0058ff48 T wvUploadTaskConfig
0058ff54 t rolloverHandler
0058ff74 t wvLogConfigUpload
0058ffe0 t wvObjNameBuffAdd
005901b4 t wvTaskNamesPreserve
00590274 T wvUploadStart
0059043c t wvIsrInfoBufAdd
005904fc t wvIsrInfoPreserve
0059056c t wvRtpInfoBufAdd
00590634 t wvRtpInfoPreserve
005906fc t wvLogHeaderPopulate
00590a58 T wvHashTblIterNextEvent
00590aa0 t wvHashTableUpload
00590b50 t wvLogHeaderUpload
00590bb8 t wvUpload
00590db4 T wvPartitionGet
00590dbc T wvPartitionSet
00590dc4 T wvCurrentLogGet
00590dcc T wvObjNameCurrentBuffAdd
00590e28 T wvEvtLogStart
00590ebc T wvCurrentLogSet
00590ec4 T wvCurrentLogListSet
00590ecc T wvCurrentLogListGet
00590ed4 T wvLogFirstGet
00590ef0 T wvLogNextGet
00590f08 T wvLogCountGet
00590f20 T wvLogListChksum
00590f58 T wvLogListValidate
00590fd0 t wvLogListMakeValid
0059101c T wvLogListCreate
005910f8 T wvLogDelete
005911ec T wvLogListDelete
0059130c T wvLogCreate
00591820 T evtLogLibInit
00591844 T evtObjLogFuncBind
00591848 T evtLogFuncBind
00591888 T evtBufferBind
005918d0 T evtLogSyscall
005919a0 T evtLogPoint
00591ac4 T evtsched
00591c40 T evtLogT1_noTS
00591cbc T evtEdrErrorInject
00591e18 T evtLogPayload
00591f3c T evtLogPayloadString
005920b4 T wvTsfsUploadPathLibInit
005920f8 T wvTsfsUploadPathCreate
005921dc T wvTsfsUploadPathClose
00592218 T wvTsfsUploadPathWrite
005922cc T wvFileUploadPathLibInit
00592310 T wvFileUploadPathCreate
005923dc T wvFileUploadPathClose
00592418 T wvFileUploadPathWrite
005924c0 t nodeActivate
00592500 t nodeDeactivate
00592540 t nodeInsert
00592610 t listFirstGet
00592640 t listNextGet
00592670 T dataCollectorLibInit
00592740 T dataCollectorFirstGet
005927c4 T dataCollectorNextGet
0059281c T dataCollectorRegister
005928c0 T dataCollectorCreate
00592934 T dataCollectorUnregister
00592a00 T dataCollectorDelete
00592a24 T dataCollectorStateSet
00592a30 T dataCollectorEach
00592aa8 T svDataCollectorLibInit
00592b0c t svDataCollectorIntEnt
00592b5c t svDataCollectorTypeST
00592bb0 t svDataCollectorType0
00592bf8 t svDataCollectorType2
00592c40 t svDataCollectorType1
00592ce8 t svDataCollectorType6
00592d88 t svDataCollectorType3
00592de4 t svDataCollectorType4
00592e3c t svDataCollectorType5
00592e84 t svDataCollectorTypeUser
00592ee4 t svDataCollectorTypeEdr
00592f3c t svDataCollectorTypeStrN
00592fa0 t svDataCollectorTypeSalStr
00593000 t svDataCollectorTypeObj
00593048 t eventIdCompare
00593060 t svEnabled
00593078 T svDataCollectorsAdd
005931b0 T svDataCollectorsRemoveAll
0059325c T svDataCollectorsRemove
00593308 t objInstFilter
00593368 T eventPointLibInit
00593394 t eventPointSwExec
00593484 T wvHashTblCreate
00593588 t wvHash
005935a0 T wvHashTblInsert
00593688 T wvHashTblIterInit
005936ec T wvHashTblIterDone
005936fc T wvHashTblIterNext
00593770 T wvHashTblDestroy
00593880 t dot11EndStop
00593980 T dot11DebugLevelGet
00593994 T dot11DebugLevelSet
005939e0 t dot11Parse
00593d7c t dot11MemInit
00594060 t dot11MemFree
00594114 t dot11EndUnload
00594268 T dot11EndLoad
00594970 T dot11Show
00595138 T dot11BcopySwap
00595168 t dot11StatsTimerInit
005951ec t dot11EndStart
005953a4 t dot11StatsTimer
0059545c t dot11StatsTimer16
00595544 T dot11PoolShow
005955ac T dot11Ioctl
005966f8 T dot11RsnInit
005969d0 t dot11RsnFree
005969fc t dot11RsnSecIeNegotiate
00596e4c t dot11RsnSecIeProcess
005975b0 t dot11RsnGroupPolicyRecalc
0059790c t dot11RsnBitCount
00597930 t dot11RsnIeCreate
00597c4c t dot11RsnGroup2Process
00597d48 t dot11RsnPrf
00597eb8 t dot11RsnPwKeyGenerate
0059813c t dot11RsnPbkdf2
00598374 t dot11RsnPskSet
005983e4 t dot11RsnPmkSet
00598624 t dot11RsnPassphraseSet
00598710 t dot11RsnKeyDataEncrypt
005989ec t dot11RsnKeyMicCalc
00598bac T dot11RsnDeauth
00598cc8 t dot11RsnFourwayTimeout
00598d8c T dot11TkipCountermeasures
00598f38 t dot11RsnEapolPktSend
005999f4 t dot11RsnMicFailureProcess
00599e1c t dot11Rsn4WayBProcess
0059a1c0 t dot11Rsn4WayCProcess
0059a8e0 t dot11RsnGroup1Process
0059ad20 t dot11RsnGroupTimeout
0059af1c t dot11RsnFourwayMsgTimeout
0059b334 t dot11RsnGtkRecalc
0059b7e4 t dot11RsnMicReenable
0059b878 t dot11Rsn4WayDProcess
0059bcdc t dot11RsnFourwayStart
0059bee4 t dot11RsnEapolReqProcess
0059bfec t dot11RsnGroupRekey
0059bff0 t dot11Rsn4WayAProcess
0059c224 t dot11RsnEapolPktReceive
0059e4d0 t dot11SmeEssUpdateRssiProbationAve
0059e508 t dot11SmeEssResetRssiProbationAve
0059e53c t dot11SmeEssGetRssiProbationAve
0059e588 t dot11SmeEssShow
0059e8d8 t dot11SmeEssRxMapInit
0059e9ac t dot11SmeEssReset
0059ea0c t dot11SmeEssIoctl
0059f13c t dot11SmeEssAuthReceive
0059f568 t dot11SmeEssDeauthReceive
0059f638 t dot11SmeEssStateInit
0059f878 t dot11SmeEssStateFree
0059f918 t dot11SmeEssFree
0059fb4c t dot11SmeEssStateTask
005a0180 t dot11SmeEssAuthSuccessProcess
005a03c0 t dot11SmeEssAuthTimeoutProcess
005a05ac t dot11SmeEssAuthFailProcess
005a0728 t dot11SmeEssAssocSuccessProcess
005a08a4 t dot11SmeEssAssocFailProcess
005a09f8 t dot11SmeEssLqProbationProcess
005a0d04 t dot11SmeEssProbationWakeup
005a0e08 t dot11SmeEssLqMakeDoProcess
005a0ee4 t dot11SmeEssSharedKeyProcess
005a0f74 t dot11SmeEssLinkEventNotify
005a1008 t dot11SmeEssStateGet
005a1014 t dot11SmeEssKslApUpdate
005a13cc t dot11SmeEssScanReceive
005a1a98 t dot11SmeEssBeaconPMReceive
005a1fa8 t dot11SmeEssScanTaskInit
005a2168 T dot11SmeEssInit
005a23c4 t dot11SmeEssAuthExpire
005a2494 t dot11SmeEssAssocExpire
005a255c t dot11SmeEssApLeave
005a2774 t dot11SmeEssJoin
005a29c8 t dot11SmeEssLqNoSignalProcess
005a2b8c t dot11SmeEssDisassocProcess
005a2d58 t dot11SmeEssDeauthProcess
005a2f38 t dot11SmeEssAssocTimeoutProcess
005a3118 t dot11SmeEssBssDiscoveredProcess
005a35f0 t dot11SmeEssJoinReqProcess
005a3794 t dot11SmeEssResetReqProcess
005a3944 t dot11SmeEssAssocReceive
005a3f9c t dot11SmeEssCcChoose
005a4278 t dot11SmeEssApChoose
005a45a8 t dot11SmeEssChannelIndexGet
005a45f0 t dot11SmeEssNextChannel
005a4804 t dot11SmeEssScanTask
005a6c74 t dot11SmeIbssShow
005a6d24 t dot11SmeIbssRxMapInit
005a6e08 t dot11SmeIbssStateTaskInit
005a6f64 t dot11SmeIbssLinkEventNotify
005a6fec t dot11SmeIbssStateTaskFree
005a7120 t dot11SmeIbssAuthReceive
005a7188 t dot11SmeIbssNullDataReceive
005a71f0 t dot11SmeIbssAtimReceive
005a7258 t dot11SmeIbssBeaconStart
005a734c t dot11SmeIbssSyncIbssProcess
005a7510 t dot11SmeIbssBeaconStop
005a75a8 t dot11SmeIbssResetProcess
005a7654 t dot11SmeIbssBeaconCreate
005a780c t dot11SmeIbssBeaconUpdate
005a7974 t dot11SmeIbssIoctl
005a805c t dot11SmeIbssJoinIbssProcess
005a8298 t dot11SmeIbssCreateIbssProcess
005a83e8 t dot11SmeIbssBeaconFree
005a84a8 t dot11SmeIbssFree
005a857c T dot11SmeIbssInit
005a8898 t dot11SmeIbssBssidCreate
005a892c t dot11SmeIbssJoinReqProcess
005a8c78 t dot11SmeIbssStateTask
005a8f24 t dot11SmeIbssProbeRespSend
005a90a0 t dot11SmeIbssKslUpdate
005a9278 t dot11SmeIbssProbeReqReceive
005a9628 t dot11SmeIbssDataReceive
005a9720 t dot11SmeIbssCompareTSF
005a9774 t dot11SmeIbssBeaconReceive
005ab0c4 t dot11SmeModeStart
005ab380 t dot11SmeModeStop
005ab530 T setProtectionBit
005ab5f8 t dot11SmeIoctl
005ab6d4 t dot11SmeNullDataSend
005ab924 t dot11SmeProbeReqSend
005abbac t dot11SmeAuthSend
005abf60 t dot11SmeDeauthSend
005ac1a8 t dot11SmeDisassocSend
005ac404 t dot11SmeAssocReqSend
005ac860 t dot11SmeAssocRspSend
005acb20 t dot11SmeRateFind
005acb78 t dot11SmeBRateFind
005acbd0 t dot11SmeRCInit
005acd00 t dot11SmeRCDestroy
005acd84 t dot11SmeFree
005acdf8 t dot11SmeRCTask
005ad1a4 t dot11SmeTxMultiRateSet
005ad308 t dot11SmeTxMultiRateGet
005ad32c t dot11SmeTxUniRateSet
005ad3ac t dot11SmeTxUniRateGet
005ad40c T dot11SmeRateSort
005ad4a0 T dot11SmeActualRateCalc
005ad744 t dot11SmeScanListBuild
005ad80c T dot11SmeInit
005addf4 t dot11SmeLinkStatusGet
005ade0c t dot11SmeMCastAddrAdd
005adea4 t dot11SmeMCastAddrDel
005adf0c t dot11SmeMCastAddrGet
005adf14 t dot11SmeScanReceive
005ae49c t dot11SmeAssocCallback
005ae790 t dot11SmeIoctlModeStartTimer
005aea2c t dot11SmeBssScanDo
005af29c T dot11SmeBssidToBss
005af32c t dot11SmeBssAdd
005af584 t dot11SmeBssDel
005af620 t dot11SmeBssAddrBitsSet
005af844 t dot11SmeBssAssocLimitSet
005af8d8 t dot11SmeAclAdd
005afb60 t dot11SmeAclRemove
005afd8c t dot11SmeAclSet
005affe4 t dot11SmeAclGetList
005b011c t dot11SmeCommonIoctl
005b61f8 T dot11TimerInit
005b636c T dot11TimerAdd
005b644c T dot11TimerDel
005b64c0 T dot11TimerShow
005b65dc t dot11TimerCalloc
005b664c t dot11TimerOpAdd
005b6748 t dot11TimerFree
005b67ac t dot11TimerFlush
005b6804 T dot11TimerDestroy
005b68e8 t dot11TimerOpDel
005b6990 t dot11TimerTask
005b6bbc T dot11DpeInit
005b6d48 t dot11DpeFree
005b6d9c t dot11DpeFragmentSend
005b767c t dot11DpeEndSendBss
005b79ac t dot11DpeEndSend
005b7cc0 t dot11DpeTransmitQueueFlush
005b7ddc t dot11DpeFragThresholdSet
005b7e50 t dot11DpeFragThresholdGet
005b7e84 t dot11DpeEndPollSend
005b7e8c t dot11DpeEndPollRcv
005b7e94 t dot11DpeMblkCoalesce
005b7f68 t dot11DpeReassemblePktGet
005b801c t dot11DpeReassembleTimeout
005b8144 t dot11DpeReassemblePktCreate
005b834c t dot11DpeReassemble
005b865c t dot11DpeEndReceive
005b9b40 T dot11HddInit
005b9de0 T dot11KslInit
005ba020 t dot11KslEntryAlloc
005ba108 t dot11KslLock
005ba1b8 t dot11KslUnlock
005ba21c t dot11KslEntryFree
005ba620 t dot11KslFlush
005ba99c t dot11KslFree
005baa10 t dot11KslLookup
005bab4c t dot11KslAdd
005bad00 t dot11KslDelete
005bae68 t dot11KslSSIDLookup
005bb210 t dot11KslRxUpdate
005bb30c t dot11KslTxUpdate
005bb430 t dot11KslCleanup
005bb5d8 t dot11KslLastAttemptReset
005bb614 t dot11KslPmQCount
005bb6b8 t dot11KslPrint
005bbbd0 T dot11KslShow
005bc71c T xbdInit
005bc7e8 T xbdAttach
005bc824 T xbdDetach
005bc828 T xbdIoctl
005bc894 T xbdStrategy
005bc910 T xbdDump
005bc98c T xbdSize
005bc9fc T xbdNBlocks
005bca58 T xbdBlockSize
005bcaac T bioInit
005bcab4 T bio_done
005bcaf0 T bio_alloc
005bcb48 T bio_free
005bcb4c T spinLockIsrInit
005bcb5c T spinLockIsrTake
005bcb94 T spinLockIsrGive
005bcba4 T spinLockTaskInit
005bcbac T spinLockTaskTake
005bcbf4 T spinLockTaskGive
005bcbf8 T spinLockRestrict
005bcc00 T FfxNfcVersion
005bcc0c t nfcISR
005bcc8c t nfcRamCtlGet
005bccd0 t nfcRamCtlRelease
005bccec t nfcFreeRamCtlGet
005bcd20 t nfctlDataOutID
005bceac t nfctlNandStsGet
005bd1fc t nfctlNandWrite
005bd738 t nfctlNandErase
005bdb44 t drvCtlReset
005bdd90 t drvNandIdGet
005be108 T drvNandEccDisable
005be5a4 T drvNandEccEnable
005bea44 T drvNandFeatureGet
005beec8 T GetNandUniqueId
005bf35c t drvPageErase
005bf3c8 t drvPageWrite
005bf428 t drvPageRead
005bf6f0 t drvSpareTagRead
005bf748 T FfxHookNTADS5121ECreate
005bf758 t PageRead
005bf898 t PageWrite
005bf9c4 t RawPageRead
005bfa34 t RawPageWrite
005bfaa4 t SpareRead
005bfb84 t SpareWrite
005bfc64 t HiddenRead
005bfd58 t HiddenWrite
005bfe38 t GetPageStatus
005bfecc t GetBlockStatus
005bff9c t SetBlockStatus
005c005c t EraseBlock
005c00f4 t BlockErase
005c01c4 T nandEraseBlock
005c0208 T SpareRead64Native
005c028c t SpareWrite64Native
005c0318 t PageRead2KNoEcc
005c03d4 T nandPageRead2KNoEcc
005c0420 t SpareRead64
005c04dc T nandSpareRead64
005c0528 t SpareWrite64
005c05e4 T nandSpareWrite64
005c0630 t GetPageStatus2K
005c0700 T nandGetPageStatus2K
005c076c t GetBlockStatus2K
005c0838 T nandGetBlockStatus2K
005c08a8 t SetBlockStatus2K
005c09b0 T nandSetBlockStatus2K
005c09fc t ParameterGet
005c0a50 t ParameterSet
005c0ad8 T ffx_board_nand_test
005c0b50 t InitController
005c0c34 t ConfigController
005c0cd0 t IdentifyFlash
005c0d98 t Destroy
005c0dec t Create
005c0fcc t EncodeTagHwEcc
005c1004 t TagWrite64
005c10f8 T nandTagWrite64
005c1144 t PageWrite2KEcc
005c1248 T nandPageWrite2KEcc
005c1298 t DecodeTagHwEcc
005c12e8 t TagRead64
005c1398 T nandTagRead64
005c13e4 t PageRead2KEcc
005c155c T nandPageRead2KEcc
005c15ac t PageOut
005c1644 t PageWrite2KNoEcc
005c1760 T nandPageWrite2KNoEcc
005c17ac T FfxNfcErasePage
005c18c0 T nandBadBlockNumGet
005c1920 t nfctlAddrSend
005c1a24 t nfctlCommandIn
005c1b40 t waitInt
005c1c34 t nfcInWord
005c1e84 T FfxHookOptionGet
005c1ed0 T FfxDclMemAlloc
005c1f1c T FfxDclMemFree
005c1f20 T FfxDclMemAllocZero
005c1f6c T FfxDclMemPoolVerify
005c1f78 T FfxDclMemStatsQuery
005c1f84 T FfxDclMemPoolDump
005c1f90 T usrFlashFXInit62
005c2014 T usrFlashFXToolsInit62
005c2060 T usrFlashFXTestsInit62
005c20a4 T usrFlashFXDeviceInit62
005c2418 T FlashFXTestFMSL
005c2604 T FlashFXTestFMSLLibInit
005c2704 T FlashFXTestDCL
005c276c T FlashFXTestDCLLibInit
005c27d0 T FlashFXTestFSIO
005c2838 T FlashFXTestFSIOLibInit
005c28a4 T FlashFXStressMT
005c2954 T FlashFXStressMTLibInit
005c29ec T FlashFXTestVBF
005c2a48 T FlashFXTestVBFLibInit
005c2aac T FlashFXCheck
005c2b08 T FlashFXCheckLibInit
005c2b80 T FlashFXDump
005c2bdc T FlashFXDumpLibInit
005c2c40 T FlashFXImage
005c2c9c T FlashFXImageLibInit
005c2d04 T FlashFXInfo
005c2d60 T FlashFXInfoLibInit
005c2dcc T FlashFXReclaim
005c2e28 T FlashFXReclaimLibInit
005c2e94 T FlashFXRemount
005c2ef0 T FlashFXRemountLibInit
005c2f58 T FlashFXShell
005c2fc4 T FlashFXShellLibInit
005c3034 T FfxToolFramework
005c32b0 T FfxDriverLock
005c3308 T FfxDriverUnlock
005c3340 T FfxDriverOptionGet
005c34d4 T FfxDevGetArrayBounds
005c3588 T FfxDevApplyArrayBounds
005c3658 T FfxFmlCreate
005c38b8 T FfxFmlDestroy
005c39c8 T FfxFmlHandle
005c39ec T FfxFmlDeviceInfo
005c3b50 T FfxFmlDiskInfo
005c3c00 T FfxFmlParameterGet
005c3c4c T FfxFmlParameterSet
005c3c70 t ReadPages
005c3d38 t WritePages
005c3e00 t EraseBlocks
005c3ed4 T FfxFmlIORequest
005c41c8 T FfxFmlNandReadCorrectedPages
005c4290 T FfxFmlNandReadTaggedPages
005c4360 T FfxFmlNandWriteTaggedPages
005c4430 T FfxFmlNandReadRawPages
005c4500 T FfxFmlNandWriteRawPages
005c45d0 T FfxFmlNandReadSpares
005c4698 T FfxFmlNandWriteSpares
005c4760 T FfxFmlNandReadTags
005c4828 T FfxFmlNandWriteTags
005c48f0 T FfxFmlNandGetPhysicalBlockStatus
005c4998 T FfxNandDecodeID
005c4a38 t STMicroFindChip
005c4a90 t SamsungFindChip
005c4acc t SpansionFindChip
005c4b18 t HynixFindChip
005c4b54 t MicronFindChip
005c4bd8 t ToshibaFindChip
005c4c14 T OneNANDFindChip
005c4c84 t ShowUsage
005c4d18 t VerifyUnit
005c4e14 t StressUnit
005c52b4 t IdentifyandTestSpareUnit
005c5468 t CheckSpareUnits
005c5498 T FfxCheckUnits
005c5828 t ShowUsage
005c5940 t DisplayDevType
005c59f8 t ReportFlashFXConfigInfo
005c5f14 t ScaleKB
005c5fec t ReportFmlInfo
005c645c t ScalePages
005c653c t ReportVBFInfo
005c6b18 t MediaCheck
005c6f90 T FfxDiskInfo
005c8b98 t VerifyFileSize
005c8c30 t DumpRawSpares
005c8d64 t DumpRawPages
005c8f24 t SetSwitches
005c9314 t ShowUsage
005c9450 T FfxDump
005c9c78 t GetChar
005c9cbc t RetrieveHeader
005c9e88 T FfxBbmDump
005ca3bc t ReadImage
005ca610 t WriteImage
005caa40 t ProcessParameters
005cad70 t ShowUsage
005caf7c T FfxImage
005cc37c T FfxShell
005ccba8 T FfxShellAddTraceCommands
005ccc70 T FfxShellAddCommands
005ccd44 t ShellCmdTraceMaskGet
005ccdc4 t ShellCmdTraceMaskSet
005ccee8 t ShellCmdFfxDebug
005ccfa0 t ShellCmdFfxDump
005cd100 t ShellCmdFfxStressMT
005cd260 t ParseDriveNumber
005cd364 t ShellCmdFfxTestVBF
005cd508 t ShellCmdFfxTestFMSL
005cd6ac t ShellCmdFfxInfo
005cd850 t ShellCmdFfxRemount
005cd9f4 t ShellCmdFfxParamSet
005cdd54 t ShellCmdFfxImage
005cdef8 t ShellCmdFfxFormat
005ce09c t ShellCmdFfxCompact
005ce240 t ShellCmdFfxCheck
005ce3e4 t DisplayParamValue
005ce510 t ShellCmdFfxParamGet
005cf38c t DebugECC
005cf534 t DebugInfo
005cf6b0 t DebugFMLBlockStatus
005cf8e0 t DebugFMLErase
005cfac4 t DebugFMLWrite
005cffb4 t DebugFMLSpareRead
005d02ec t DebugFMLSpareWrite
005d060c t DebugAllocWrite
005d0900 t DebugAllocDiscard
005d0b48 t InitDisk
005d0d7c t DebugDisk
005d0ee8 T FfxDebug
005d1084 t ParseBufferName
005d11d0 t DebugFMLTagWrite
005d1518 t DebugFMLTagRead
005d18bc t DebugFillDWords
005d1c5c t DebugFillWords
005d204c t DebugFillBytes
005d2420 t CalculateHexDumpWidth
005d250c t ParseDisplayArgs
005d274c t DebugDisplayBytes
005d2900 t DebugDisplayWords
005d2ab4 t DebugDisplayDWords
005d2c68 t DebugAllocRead
005d2f7c t DebugFMLRead
005d5e34 t ShowUsage
005d5ecc t CleanDisk
005d5f78 T FfxReclaim
005d621c t ShowUsage
005d62a4 t RemountDisk
005d6344 T FfxRemount
005d65b4 t GeneralTests
005d6a94 t ReadEraseAndVerify
005d6cdc t EraseMedia
005d6de4 t EraseAndVerify
005d6fb4 t AlignmentTests
005d74bc t HugeOperationTests
005d7928 t GetReadPerform
005d7a6c t GetWritePerform
005d7bcc t GetErasePerform
005d7cec t Performance
005d8038 t Verify
005d81b4 t ReadAndVerify
005d829c t WriteAndVerify
005d837c t ExtensiveWrites
005d86fc t FillBuffer
005d8880 t IntensiveWrites
005d8b98 t ButterflyWrites
005d8cdc t BlockWrites
005d9114 t VerifyZoneSize
005d93fc t TestFMSL
005d95e8 t ShowUsage
005d9750 t SetSwitches
005d9bf0 T FfxTestFMSL
005db6dc t drivestart
005db828 t driveshutdown
005db88c t MountSync
005db8d8 t TestCompact
005db964 t FillBuffer
005db9d0 t CheckBuffer
005dba50 t RandomRange
005dbaf4 t ParseTestProbabilities
005dbc18 t TestType
005dbcac t InitBlockMap
005dbcd0 t drivesetup
005dbda8 t GetBlockSequence
005dbdb8 t SetBlockSequence
005dbdcc t GetSequenceNumber
005dbe30 t ClaimOwnership
005dbf20 t ReleaseOwnership
005dbfb0 t ShowUsage
005dc184 t SetSwitches
005dc824 t AtomicPrintf
005dc8e8 t DiscardBlocks
005dca04 t TestDiscard
005dcad8 t WriteBlocks
005dcc4c t TestWrite
005dcd20 t ReadBlocks
005dce28 t VerifyBlocks
005dd028 t TestRead
005dd124 t TestThread
005dd25c t TestMount
005dd35c t driverun
005dd6b8 t DiscardMedia
005dd740 t drivesummary
005ddf2c t DriveThread
005de054 T FfxStressMT
005df60c t ShowUsage
005df784 t SetSwitches
005dfd40 t FormatPartition
005dfdfc t RemountVBF
005dfe88 t TestPartitionInfo
005e0000 A wrs_kernel_rom_size
005e0144 t TestUnitInfo
005e0344 t TestHugeBlocks
005e06e4 t TestHugeOperations
005e0b44 t TestExercise
005e0d78 t TestDiscard
005e1274 t TestDiscardSet
005e1744 t TestCompaction
005e18ec t TestErrors
005e1aa0 t ResourceUsage
005e1c74 t PremountRegions
005e1d6c t GetWritePerform
005e1eb0 t GetReadPerform
005e1fd0 t GetDiscardPerform
005e20e8 t GetCompactionPerf
005e2180 t GetDiskMountPerf
005e2214 t Benchmark
005e2488 t TestFillDisk
005e2d90 t FillPattern
005e2e1c t ValidateSerializedBuffer
005e2f5c t SerializeBuffer
005e3038 t TestSmallBlocks
005e32f0 t TestBigBlocks
005e3468 t TestRegionBoundaries
005e38d0 t GatherEraseCounts
005e3a30 t TestWearLeveling
005e3f0c t TestVbfLayer
005e43ec T FfxTestVBF
005e606c T FfxDclAtoI
005e6070 T FfxDclAtoL
005e60d0 T FfxDclMemCpyAligned
005e60f4 T FfxDclMemSetAligned
005e6138 T FfxDclNtoUL
005e621c T FfxDclVPrintf
005e62a0 T FfxDclPrintf
005e6330 T FfxDclRand
005e63c0 T FfxDclVSNPrintf
005e6b3c T FfxDclSNPrintf
005e6bd4 T FfxDclStrCat
005e6c1c T FfxDclStrChr
005e6c58 T FfxDclStrCmp
005e6c98 T FfxDclStrICmp
005e6d08 T FfxDclStrNICmp
005e6d88 T FfxDclStrNCpy
005e6dfc T FfxDclStrCpy
005e6e24 T FfxDclStrLen
005e6e4c T FfxDclStrNCat
005e6eec T FfxDclULLtoA
005e7050 T FfxDclULtoA
005e7164 T FfxDclHexDump
005e7480 T FfxDclOsFileOpen
005e74a0 T FfxDclOsFileClose
005e74a4 T FfxDclOsFileEOF
005e74dc T FfxDclOsFileFlush
005e74e0 T FfxDclOsFileSeek
005e751c T FfxDclOsFileTell
005e7520 T FfxDclOsFileRead
005e7524 T FfxDclOsFileWrite
005e7528 T FfxDclOsMemAlloc
005e7550 T FfxDclOsMemFree
005e7574 T FfxDclOsSleep
005e75d0 T FfxDclOsThreadID
005e75f0 T FfxDclOsThreadAttrDestroy
005e75f4 T FfxDclOsThreadAttrSetStackSize
005e7600 T FfxDclOsThreadAttrCreate
005e7640 t vxworks_thread_startup
005e7674 T FfxDclOsThreadCreate
005e7738 T FfxDclOsThreadDestroy
005e77a0 T FfxDclOsThreadTerminate
005e7834 T FfxDclOsThreadWait
005e78b4 T FfxDclOsThreadSuspend
005e78f0 T FfxDclOsThreadResume
005e792c t DclPriorityToVxWorksPriority
005e79b4 T FfxDclOsThreadPrioritySet
005e7a1c T FfxDclOsThreadAttrSetPriority
005e7a68 T FfxDclOsTickCount
005e7a6c T FfxDclOsTickModulus
005e7a74 T FfxDclOsTickResolution
005e7aa0 T FfxDclPerfLogOpen
005e7be8 T FfxDclPerfLogString
005e7cb8 T FfxDclPerfLogHex16
005e7d28 T FfxDclPerfLogHex32
005e7d98 T FfxDclPerfLogInt
005e7df8 T FfxDclPerfLogNum
005e7e5c T FfxDclPerfLogNum64
005e7ecc T FfxDclPerfLogCopy
005e7fc4 T FfxDclPerfLogWrite
005e8094 T FfxDclPerfLogClose
005e8130 t PressEnter
005e817c t DisplayTestDescription
005e8714 t ShowHelp
005e8b48 t BoundaryRoundUp
005e8b80 t ParseNumber
005e8c58 t SetSwitches
005e9b58 t RangeNext
005e9b80 t ResourceUsage
005e9d28 t PrimCreate
005e9dcc t CreateTempFile
005e9e84 t PrimOpen
005e9f28 t PrimWrite
005ea004 t PrimRead
005ea090 t PrimSeek
005ea104 t PrimFlush
005ea198 t PrimClose
005ea22c t SequentialTestInit
005ea390 t PopulateTempFile
005ea498 t PrimDelete
005ea540 t CloseAndDeleteFile
005ea5a0 t StressFill
005ea78c t FileDelete
005ea7ec t DeleteFileSet
005ea8d8 t PrimDirCreate
005ea970 t PrimDirRemove
005eaa08 t CreateAndAppendTestDir
005eaacc t DestroyAndRemoveTestDir
005eab58 t AppSleep
005eabfc t CreateUncachedFile
005ead28 t GetKBPerSecond
005eada8 t CreateNumberedFile
005eae18 t FileCreate
005eaf54 t CreateFileSet
005eb064 t OpenNumberedFile
005eb0d4 t VerifyFile
005eb1e4 t VerifyFileSet
005eb2f0 t TestCreateAndDelete
005eb494 t GetSmallFileIOPerf
005eb748 t DTCreateFiles
005eb99c t DTOpenSeekClose
005ebb64 t DTDeleteFileSet
005ebc68 t FreeDiskBlocks
005ebccc t StatsReset
005ebd24 t StatsDump
005ebec0 t DirTest
005ec424 t SequentialRewrite
005ec778 t SequentialWrite
005ecacc t SequentialRead
005ece30 t GetFragPerf
005ed848 t RandomWrite
005edd70 t RandomRead
005ee184 t RunTests
005eee60 T FfxDclTestFSIOMain
005f3efc t ProcessParameters
005f41ec t TestDataTypes
005f44b0 t TestAlignment
005f45fc t TestMisaligned
005f48a4 t TestByteOrder
005f4a94 t TestBitOperations
005f4c00 t TestStringFuncs
005f4c50 t TestTimers
005f5228 t TestSleep
005f5328 t HammingburgerHelper
005f54d0 t TestHamming
005f57f8 t TestCrc32
005f5970 t CalculatePeriod
005f5acc t TestTickers
005f619c t SprintfHelper
005f62e8 t TestSprintf
005f6678 t DelayHelper
005f67f0 t TestDelay
005f6ae4 T FfxDclTestMain
005f8cb4 t MemSetHelper
005f8ea0 t TestMemSet
005f8fa0 t MemCpyHelper
005f919c t TestMemCpy
005f92dc t MemSetPerfHelper
005f9380 t MemSetPerf
005f9578 t MemCpyPerfHelper
005f9608 t MemCpyPerf
005f98a0 T FfxDclTestMemFuncs
005f9cb8 t LocalMemSet
005f9cbc t LocalDclMemSet
005f9cc4 t LocalDclMemSetAligned
005f9cc8 t LocalMemCpy
005f9ccc t LocalDclMemCpy
005f9cd0 t LocalDclMemCpyAligned
005f9cd4 t TestMemTracking
005f9e14 T FfxDclTestMemTracking
005fa900 T FfxDclTestPath
005fabc8 T FfxDclShellDestroy
005fac48 T FfxDclShellAddCommand
005fad68 T FfxDclShellCreate
005fae90 T FfxDclShellRemoveCommand
005faf34 T FfxDclShellParams
005faf50 T DclShellConsoleInput
005fb0f8 t exec_help
005fb230 t exec_ShellHelp
005fb2f4 t exec_echo
005fb3d0 t exec_goto
005fb5ec t exec_pause
005fb688 t exec_run
005fb8e0 t exec_set
005fbb6c t exec_status
005fbbac t exec_time
005fbbf8 t exec_TimeStamp
005fbcb0 t exec_dcltest
005fbd54 t exec_stats
005fbdf8 t exec_MemDump
005fc018 t exec_DebugBreak
005fc27c t GetCommand
005fc430 t DisplayPrompt
005fc544 T FfxDclShellRun
005fc7f8 t ParseNumericValue
005fc858 t exec_MemChain
005fc99c t exec_exit
005fca80 t exec_Width
005fcb18 t exec_wait
005fcc00 t exec_if
005fe8d0 t ProcessParameters
005febf4 T FfxDclStats
005ff3b0 t EatWhiteSpace
005ff3ec t FindArgLen
005ff46c T FfxDclArgClear
005ff4f4 T FfxDclArgRetrieve
005ff5b0 T FfxDclArgCount
005ff620 T FfxDclAssertFired
005ff748 T FfxDclBitCount
005ff770 T FfxDclBitHighest
005ff790 T FfxDclCrc32Update
005ff7d0 T FfxDclDateTimeDecode
005ffae8 T FfxDclDateTimeString
005ffb90 T FfxDclTimeFormat
005ffca4 t ValidateDateTime
005ffdd0 T FfxDclDateTimeEncode
00600060 t Initialize
006000e4 T FfxDclNanosecondDelay
006001fc T FfxDclNanosecondDelayMinimum
00600248 T FfxDclReverseInPlace
00600288 T FfxDclCopyAndReverse
006002b8 T DclEnvCreate
006003e0 T DclEnvDestroy
0060041c T DclEnvDisplay
00600524 T DclEnvVarDelete
00600608 T DclEnvVarLookup
006006b0 T DclEnvVarAdd
00600808 t LocalMemMove
00600850 T DclEnvSubstitute
00600a04 T FfxDclHammingCalculate
00600a74 T FfxDclHammingCorrect
00600adc T FfxDclLogOpen
00600c38 t WriteLogData
00600d64 t OutputString
00600e8c T FfxDclLogWrite
00600ee0 T FfxDclLogVPrintf
00600f80 T FfxDclLogPrintf
00601020 T FfxDclLogFlush
006010cc T FfxDclLogClose
00601258 T FfxDclMutexAcquire
006012a8 T FfxDclMutexCreate
00601324 T FfxDclMutexDestroy
00601370 T FfxDclMutexRelease
006013a8 T FfxDclMutexStatsQuery
006013b4 T FfxDclOutputFunction
006013e8 T FfxDclOutputString
00601430 T FfxDclAbsolutePath
00601688 T FfxDclRatio
006017b4 T FfxDclSemaphoreRdWrAcquireRead
00601828 T FfxDclSemaphoreRdWrAcquireWrite
00601920 T FfxDclSemaphoreRdWrCreate
00601a0c T FfxDclSemaphoreRdWrDestroy
00601a7c T FfxDclSemaphoreRdWrRelease
00601b20 T FfxDclSemaphoreRdWrStatsQuery
00601b34 T FfxDclSemaphoreAcquire
00601b84 T FfxDclSemaphoreCreate
00601c10 T FfxDclSemaphoreDestroy
00601c5c T FfxDclSemaphoreRelease
00601cac T FfxDclSemaphoreStatsQuery
00601cb8 T FfxDclSignOn
00601d1c T FfxDclSystemStatsDisplay
006021c0 T FfxDclMemStatsDisplay
006022d0 T FfxDclMutexStatsDisplay
00602440 T FfxDclSemaphoreStatsDisplay
006025e8 T FfxDclSemaphoreRdWrStatsDisplay
006031ac T FfxDclSystemStatsQuery
00603300 T FfxDclHighResTimeStamp
00603304 t initialize
00603390 T FfxDclHighResTimePassed
0060345c T FfxDclHighResTimePassedMS
006034b0 T FfxDclTimeStamp
006034b4 t update_timer
00603554 T FfxDclTimerElapsed
006035a0 T FfxDclTimerRemaining
0060360c T FfxDclTimerExpired
00603648 T FfxDclTimePassed
00603704 T FfxDclTimerSet
00603798 T FfxDclVersionFormat
0060399c T FlashFXFileSystemFormat
00603aac T FlashFXFormat
00603cb4 T FfxRegisterExtraCommands
0060404c T FlashFX
0060411c T flashfx
00604120 T FlashFXRegisterCommand
00604160 t CreateDevices
006041ec T FlashFXDriverInit
006042d0 T FlashFXDiskCreate
00604464 T FlashFXFindValidPartitions
006044cc t FlashFXBlkRd
00604560 t FlashFXBlkWrt
006045f4 t FlashFXBlkReset
00604634 T FlashFXBlkDisc
006046a8 T FlashFXLibInit
006047fc T FlashFXIoctl
00604858 T FfxOsOptionGet
00604884 T FfxGetDriveFormatString
00604890 T FfxParseDriveNumber
00604958 T FfxProjMain
006049a0 T FfxConfigurationInfo
00604abc T FfxDriverDeviceCreate
00604bc4 T FfxDriverDeviceDestroy
00604c44 T FfxDriverDeviceHandle
00604c78 T FfxDriverDeviceSettings
00604d68 T FfxDriverSectorDiscard
00604dcc T FfxDriverDiskDestroy
00604e38 T FfxDriverDiskHandle
00604e9c T FfxDriverDiskGeometry
00604ed0 T FfxDriverDiskAdjust
00604f94 T FfxDriverDiskSettings
00605020 T FfxDriverDiskFormatSettings
006050ac t ValidateFormatSettings
00605154 T FfxDriverDiskCreate
00605380 T FfxDriverDiskCompSettings
00605658 T FfxDriverCreate
00605710 T FfxDriverDestroy
0060576c T FfxDriverHandle
00605778 T FfxDriverReadData
006057fc T FfxDriverSectorRead
00605838 t FfxDriverWritePages
00605910 T FfxDriverSectorWrite
00605984 T FfxDriverDiskCalcParams
00605a70 T FfxDriverDiskParameterGet
00605ae8 T FfxDriverDiskParameterSet
00605b24 T FfxDriverAllocatorDestroy
00605bb8 T FfxDriverAllocatorFormat
00605c98 t FixVbfSizeChange
00605de4 T FfxDriverAllocatorCreate
00606298 T FfxOptionGet
006062a0 T FfxVbfTestRegionMountPerf
0060634c T FfxVbfDiskInfo
006063d4 T FfxVbfParameterGet
00606438 T FfxVbfParameterSet
00606460 T FfxVbfReadPages
006066a4 T FfxVbfWritePages
006069d8 T FfxVbfDiscardPages
00606be8 T FooFFXVbfBarl598
00606c10 T FooFFXVbfBarl552
00606c44 T FooFFXVbfBarl1130
00606c6c T FooFFXVbfBarl1026
00606cb8 t FooFFXVbfBarl1243
00606cdc T FooFFXVbfBarl970
00606dec T FfxVbfCompact
00606fa0 T FfxVbfCompactIfIdle
0060705c t FooFFXVbfBarl1485
00607224 T FfxVbfFormat
00607568 t FooFFXVbfBarl1642
00607608 T FfxVbfCreate
00607960 T FfxVbfDestroy
00607a60 T FfxVbfHandle
00607b60 T FfxVbfDiskMetrics
00607c04 t FooFFXVbfBarl1349
00607cd0 T FfxVbfUnitMetrics
00607ee0 T FooFFXVbfBarl668
00607f4c T FooFFXVbfBarl296
00607f70 T FooFFXVbfBarl307
00607f94 T FooFFXVbfBarl240
00607ffc t FooFFXVbfBarl1546
006080a4 t FooFFXVbfBarl1515
00608144 t FooFFXVbfBarl1268
00608178 T FooFFXVbfBarl458
0060821c T FooFFXVbfBarl623
006083cc t FooFFXVbfBarl1845
006084e4 t FooFFXVbfBarl1689
006085f4 t FooFFXVbfBarl1433
006086a0 T FooFFXVbfBarl640
006086b8 t FooFFXVbfBarl1430
00608764 T FooFFXVbfBarl238
00608780 T FooFFXVbfBarl432
0060882c T FooFFXVbfBarl613
006088b4 T FooFFXVbfBarl654
006088f0 T FooFFXVbfBarl269
00608900 T FooFFXVbfBarl310
00608910 t FooFFXVbfBarl1419
00608a20 t FooFFXVbfBarl1479
00608b54 T FooFFXVbfBarl376
00608bdc t FooFFXVbfBarl1202
00608c34 t FooFFXVbfBarl1518
00609320 t FooFFXVbfBarl1436
00609500 t FooFFXVbfBarl1366
0060960c t FooFFXVbfBarl1212
006097cc T FooFFXVbfBarl283
00609898 T FooFFXVbfBarl638
00609938 T FooFFXVbfBarl312
00609a00 T FooFFXVbfBarl651
00609b58 T FooFFXVbfBarl340
00609b70 T FooFFXVbfBarl415
00609b88 T FooFFXVbfBarl237
00609b90 T FooFFXVbfBarl372
00609b98 T FooFFXVbfBarl135
00609ba0 T FooFFXVbfBarl280
00609ba8 T FooFFXVbfBarl387
00609bb0 t FooFFXVbfBarl1472
00609c48 t FooFFXVbfBarl1523
00609d94 T FooFFXVbfBarl625
00609fc4 T FooFFXVbfBarl489
0060a0ec T FooFFXVbfBarl370
0060a114 T FooFFXVbfBarl368
0060a13c T FooFFXVbfBarl289
0060a168 t FooFFXVbfBarl1266
0060a284 t FooFFXVbfBarl1508
0060a4cc T FooFFXVbfBarl671
0060a5fc t FooFFXVbfBarl1286
0060a67c t FooFFXVbfBarl1362
0060a770 t FooFFXVbfBarl1441
0060ab08 t FooFFXVbfBarl1205
0060adc8 t FooFFXVbfBarl1374
0060af2c t FooFFXVbfBarl1191
0060b008 T FooFFXVbfBarl390
0060b1a4 t FooFFXVbfBarl1714
0060b304 T FooFFXVbfBarl635
0060b414 t FooFFXVbfBarl1209
0060b578 T FooFFXVbfBarl645
0060b7a4 t Checksum
0060b7f0 t PrintVbfEuh
0060b9e8 t SetStats
0060bc10 t PrintSummary
0060bdd0 t PrintNORAllocs
0060bf9c t PrintNANDAllocs
0060c268 t SetSwitches
0060c328 T FfxVbfDumpUsage
0060c338 t GetChar
0060c37c t RetrieveAllocations
0060c504 t RetrieveEUH
0060c7c0 t GetVbfUnitHeader
0060c938 T FfxVbfDump
0060d0f4 T FfxVbfCompactionStatsDisplay
0060d390 T FfxVbfRegionStatsDisplay
0060ddd4 T FfxDevCreate
0060e03c T FfxDevDestroy
0060e0b8 T FfxDevHandle
0060e0dc T FfxDevInfo
0060e190 T FfxDevParameterGet
0060e1c8 T FfxDevParameterSet
0060e200 T FfxDevEraseProlog
0060e2a0 T FfxDevEraseEpilog
0060e2e8 T FfxDevIOEpilog
0060e350 t ErasePoll
0060e39c t EraseSuspend
0060e40c T FfxDevIOProlog
0060e4ac t GenericRead
0060e768 t GenericWrite
0060ea20 T FfxDevErasePoll
0060eab8 t EraseBlocks
0060ec3c t GetPhysicalBlockStatus
0060ed18 T FfxDevIORequest
0060eed0 T FfxFmlFormat
0060ef48 T FfxHookAccessBegin
0060ef8c T FfxHookAccessEnd
0060efd0 T FfxHookDeviceCreate
0060f070 T FfxHookDeviceDestroy
0060f078 T FfxHookDiskCreate
0060f16c T FfxHookDiskDestroy
0060f174 T FfxHookDriverCreate
0060f17c T FfxHookDriverDestroy
0060f180 T FfxCalcPhysicalDiskParams
0060f1f4 T FfxGetPhysicalDiskParams
0060f304 T FfxEccGenerate
0060f350 T FfxEccCorrectData
0060f540 T FfxPerfLogFormatDiskIOStats
0060f690 T FfxPerfLogWriteDiskIOStats
0060f6dc T FfxPerfLogFormatDiskCompactionStats
0060f6e4 T FfxPerfLogWriteDiskCompactionStats
0060f6f0 T FfxPerfLogFormatVbfCompactionStats
0060f958 T FfxPerfLogWriteVbfCompactionStats
0060f9a4 T FfxPerfLogFormatVbfRegionStats
0060faa0 T FfxPerfLogWriteVbfRegionStats
0060faec T FfxPerfLogFormatFmlIOStats
0060fce4 T FfxPerfLogFormatFmlIONandStats
0061002c T FfxPerfLogWriteFmlIOStats
006100b0 T FfxPerfLogFormatBbmStats
006101ac T FfxPerfLogWriteBbmStats
006105b8 T FfxDriverDiskCompStatsDisplay
006105bc T FfxDriverDiskIOStatsDisplay
00610690 T FfxFmlStatsDisplay
00610914 T FfxBbmStatsDisplay
00610de4 T FfxSignOn
00610e60 T FfxDecodeIOStatus
00610ff4 T FfxDebugPrintf
00611090 T FfxTracePrintf
0061112c T FfxTraceMaskGet
00611138 T FfxTraceMaskSwap
0061115c T FfxFatGetDiskParamsFromBootRecord
00611230 T FfxFatMonGetBPB
00611324 t FatMonInstanceCreate
00611444 T FfxFatMonInit
00611600 t FatMonInstanceDestroy
00611694 T FfxFatMonDeinit
00611740 t FatMonGetFatEntry
00611780 t FatMonGetFat32Entry
00611790 t FatMonDiscardClusters
00611a64 t FatMonWriteFatSectors
00611b78 t FatMonWriteSectors
00611cfc T FfxFatMonWrite
00611f18 t ShowUsage
00611ff8 t DisplayStatistics
006120b4 t FormatDisk
0061232c t SetSwitches
006127b8 T FfxFormat
00612d18 T FfxFmslNANDTestReadPerform
00612e40 T FfxFmslNANDTestWritePerform
00612fb4 t SpareAreaTest
0061301c t PagePattern
0061317c T FfxFmslNANDPageFill
006131f4 t SingleBitError
006132dc t VerifyError
00613398 T FfxFmslNANDPageVerify
006134a8 t BlankVerify
0061359c t EraseAndVerify
0061376c T FfxFmslNANDFindTestBlocks
00613860 t BlockStatusTest
006139c8 t TagTest
006140f0 t RawPageTest
006146f0 t TaggedPageTest
00614cf0 t CommonTest
00615b18 T FfxFmslNANDTest
00616b98 t VerifyData
00616c3c t ReadPageAndVerify
00616d74 t StressNAND
00617294 T FfxFmslStress
006177e4 t Test504
00617aac T FfxTestVBFQA
00617d94 T FfxDclHtoUL
00617e18 T FfxDclLtoA
00617f60 T FfxDclStrNCmp
00617fb0 T DclTraceIndentGet
00617fbc T DclTraceIndentSet
00617fc8 T DclTraceMaskGet
00617fd4 T DclTraceMaskSwap
00617ff8 T FfxDclTraceVPrintf
00618338 T DclTracePrintf
006183d4 T DclDebugPrintf
00618470 T FfxDclTraceToggle
0061851c T FfxDclOsGetDateTime
006185a4 T FfxDclOsDebugBreak
0061860c T FfxDclOsDirOpen
00618640 T FfxDclOsDirRead
00618674 T FfxDclOsDirGetName
006186b4 T FfxDclOsDirClose
006186e8 T FfxDclOsDirCreate
0061871c T FfxDclOsDirRemove
00618750 T FfxDclOsDirRename
00618754 T FfxDclOsDirSetWorking
00618788 T FfxDclOsDirGetWorking
006187c4 T FfxDclOsFileDelete
00618804 T FfxDclOsStatFs
00618890 T FfxDclOsFileRename
006188e4 T FfxDclOsBecomeFileUser
006188e8 T FfxDclOsReleaseFileUser
006188ec t NativeTimeToDclTime
0061893c T FfxDclOsStat
006189f0 T FfxDclOsHalt
00618a10 T FfxDclOsHighResTickCount
00618a48 T FfxDclOsHighResTickModulus
00618a54 T FfxDclOsHighResTickResolution
00618aa4 T FfxDclOsGetChar
00618b50 T FfxDclOsMutexAcquire
00618b90 T FfxDclOsMutexCreate
00618bdc T FfxDclOsMutexDestroy
00618c04 T FfxDclOsMutexInfo
00618c1c T FfxDclOsMutexRelease
00618c58 T FfxDclOsOutputString
00618c6c T DclOsRequestorDispatch
00618ca0 T DclOsRequestorOpen
00618ca8 T DclOsRequestorClose
00618cec T FfxDclOsSemaphoreAcquire
00618d2c T FfxDclOsSemaphoreCreate
00618d7c T FfxDclOsSemaphoreDestroy
00618db8 T FfxDclOsSemaphoreInfo
00618dd0 T FfxDclOsSemaphoreRelease
00618e0c t TestUint64IsEqualUint64
00618ef4 t TestUint64AssignUint16
00618fd4 t TestUint64AssignUint32
006190c4 t TestUint64AssignUint64
0061917c t TestUint64AddUint16
006192a4 t TestUint64AddUint32
006193cc t TestUint64AddUint64
006194e0 t TestUint64SubUint16
00619608 t TestUint64SubUint32
00619730 t TestUint64SubUint64
00619844 t TestUint64MulUint16
00619970 t TestUint64MulUint32
00619a9c t TestUint64DivUint32
00619bb0 t TestUint64ModUint32
00619cc4 t TestUint64GreaterUint32
00619dc0 t TestUint64GreaterUint64
00619ed4 t TestUint64LessUint32
00619fd0 t TestUint64LessUint64
0061a0e4 T FfxDclTest64BitMath
0061a758 T TestCompileTimeBugs
0061a7a8 T TestRunTimeBugs
0061a7d8 T DclTestCompilerBugs
0061a8c0 T FfxDclTestDateTime
0061b328 T FfxDclTestByteOrderConversion
0061c834 T FfxDclEccGenerate
0061c924 T FfxDclFatMoveBPB
0061cb6c T FfxDclFatDeriveFSIDFromBootRecord
0061cd00 T FfxDclFatDeriveFSIDFromBPB
0061ce74 T FfxDriverCompactionSuspend
0061cf08 T FfxDriverCompactionDeinit
0061cff8 T FfxDriverCompactionResume
0061d060 T FfxDriverCompactionInit
0061d20c t CompactionThread
0061d2e4 T FfxDriverFormatFileSystem
0061d360 T FfxMediaMgrInstanceCreate
0061d47c T FfxMediaMgrInstanceDestroy
0061d480 T FfxMediaMgrWriteToLnu
0061d4d4 T FfxMediaMgrReadFromLnu
0061d528 T FfxMediaMgrReadHeader
0061d5c0 T FfxMediaMgrReadLnuHeader
0061d5f4 T FfxMediaMgrFormatUnit
0061d67c T FfxMediaMgrFormatLnu
0061d6a0 T FfxMediaMgrCalcEUHDataUnitBlocks
0061d708 T FfxMediaMgrReadLnuAllocations
0061d73c T FfxMediaMgrDiscardLnuAllocations
0061d7b8 T FfxMediaMgrExpendLnuAllocations
0061d868 T FfxMediaMgrParameterGet
0061d88c T FfxMediaMgrParameterSet
0061d8b0 T FfxMediaMgrBlankCheck
0061d914 T FfxMediaMgrVerify
0061d978 T FfxMediaMgrIsNand
0061d9c4 T FfxMMIsErasedAlloc
0061d9f4 T FfxMMDataBlockNum
0061da10 t checksum
0061da5c T FfxMMParseEUH
0061dc78 T FfxMMBuildEUH
0061dec4 t ReadBlocks
0061df5c t WriteBlocks
0061e0a4 t DiscardAllocations
0061e0d4 t BlankCheck
0061e240 t Verify
0061e2ac t AllocEntryPage
0061e2c0 t ExpendAllocations
0061e418 t ReadAllocations
0061e600 T FfxMMNandReadHeader
0061e70c T FfxMMNandFormatEraseUnit
0061e8d0 T FfxMMNandCalcEUHDataUnitBlocks
0061e8dc T FfxMMNandDeviceInit
0061e984 T FfxDevLatencyInit
0061e99c t Create
0061eb8c t Destroy
0061ebdc t ParameterGet
0061ec84 t ParameterSet
0061ecf4 t PageWrite
0061ee68 t HiddenRead
0061ef4c t HiddenWrite
0061f0d8 t SpareRead
0061f1dc t SpareWrite
0061f2e4 t EraseStart
0061f3e4 t ErasePoll
0061f3f4 t GetPageStatus
0061f42c t SetBlockStatus
0061f464 t GetBlockStatus
0061f49c t ReadData
0061f5e4 t ValidatedRead
0061f62c t PageRead
0061f680 t Read
0061f6e0 t WriteData
0061f864 t Write
0061f88c t ReadRawPages
0061f9b0 t WriteRawPages
0061fad8 t IORequest
0061fde8 T FfxCalculateCHS
0061fee4 T FfxFatFormat
006201c8 t TestSetup
006204e8 t TestCleanup
006205d8 t MakeBitErrors
00620654 t WriteBitErrors
00620964 t TestSpare
00620bb0 t TestMain
00620df0 T FfxFmslNANDTestEcc
00620f18 t Test_FMLREAD_CORRECTEDPAGES
0062104c t Test_FMLREAD_TAGGEDPAGES
006211b4 t Test_FMLREAD_TAGS
00621848 T FfxBbmMapBlock
006218f4 T FfxBbmStatsQuery
00621954 t FooFFXBbmBarl1197
0062198c T FfxBbmDestroy
006219c4 t FooFFXBbmBarl1163
00621a5c t FooFFXBbmBarl1002
00621c98 t FooFFXBbmBarl1103
00621dd8 T FooFFXBbmBarl321
00621ec0 T FfxBbmCreate
006220ec T FfxBbmAddBadBlock
0062237c T FooFFXBbmBarl329
006223c8 T FooFFXBbmBarl360
006224e4 t FooFFXBbmBarl975
00622534 t FooFFXBbmBarl417
0062254c t FooFFXBbmBarl948
0062258c t FooFFXBbmBarl368
00622634 t FooFFXBbmBarl966
006227ec t FooFFXBbmBarl954
00622820 t FooFFXBbmBarl1050
00622a00 T FooFFXBbmBarl327
00622b34 t FooFFXBbmBarl1180
00622fb8 t FooFFXBbmBarl431
006230f8 t FooFFXBbmBarl956
00623204 t FooFFXBbmBarl1012
006233b4 T FooFFXBbmBarl177
00623580 t FooFFXBbmBarl1119
00623668 t FooFFXBbmBarl345
006237bc T FooFFXBbmBarl310
00623870 t FooFFXBbmBarl1056
006238d0 T FfxBbmProcessBadBlock
00623d10 t FooFFXBbmBarl1257
00623fdc t FooFFXBbmBarl1212
00624108 t FooFFXBbmBarl1236
006241ec T FooFFXBbmBarl319
00624470 T FooFFXBbmBarl137
006244a0 T FooFFXBbmBarl316
006245ac T FfxHookBbmFormatBlock
006245b4 T FfxFatBuildBPB
006247d4 T FfxFatBuildBootRecord
00624ae0 T cpuPwrArchLibInit
00624b0c t vxArchCStateSet
00624b1c T vxC1StateSet
00624b58 t elfPpcRel24Reloc
00624c44 t elfPpcAddr32Reloc
00624c58 t elfPpcAddr24Reloc
00624d14 t elfPpcAddr16Reloc
00624d90 t elfPpcAddr16LoReloc
00624da4 t elfPpcAddr16HiReloc
00624dbc t elfPpcAddr16HaReloc
00624ddc t elfPpcAddr14Reloc
00624e98 t elfPpcRel14Reloc
00624f58 t elfPpcUaddr32Reloc
00624f6c t elfPpcUaddr16Reloc
00624fe8 t elfPpcRel32Reloc
00625000 t elfPpcEmbNaddr32Reloc
00625014 t elfPpcEmbNaddr16Reloc
00625090 t elfPpcEmbNaddr16LoReloc
006250a4 t elfPpcEmbNaddr16HiReloc
006250bc t elfPpcEmbNaddr16HaReloc
006250dc t elfArchRelocationSelect
00625524 T elfArchReloc
006256d4 T elfArchVerify
006259b4 T ffsLsb
006259bc T ffsMsb
006259c8 T objArchLibInit
006259e4 t objVerifyTrap
00625ab8 t trcFuncStartGet
00625be0 t trcLvlInfoGet
00625cc8 t trcPrologueFrameAllocated
00625d10 t trcTopInfoGet
00626068 t trcArgsGet
00626138 t trcSyscallCheck
006261c4 T _sigCtxRtnValSet
006261cc T _sigCtxStackEnd
006261d4 T _sigCtxSetup
006262f8 T vxIOArchProbe
006262fc T vxbSwap16
00626310 T vxbSwap32
00626328 T vxbSpecialRead8
00626358 T vxbSpecialRead16
00626388 T vxbSpecialRead32
006263b8 T vxbSpecialWrite8
006263e8 T vxbSpecialWrite16
00626418 T vxbSpecialWrite32
00626448 T vxbSwap64
006264b8 T vxbWrite64
00626588 T vxbRead64
00626680 T _archIORead8
0062668c T _archIOWrite8
006266a0 T _archIORead16
006266ac T _archIOWrite16
006266c0 T _archIORead32
006266cc T _archIOWrite32
006266e0 T vxbRead8
006266f8 t _vxbMemRead8
00626700 t _vxbIoRead8
00626710 t _vxbOrderedRead8
00626728 t _vxbMemSwapRead8
00626730 t _vxbIoSwapRead8
00626740 t _vxbOrderedSwapRead8
0062674c t _vxbSpecialRead8
00626760 T vxbRead16
00626778 t _vxbMemRead16
00626780 t _vxbIoRead16
00626790 t _vxbOrderedRead16
006267a8 t _vxbMemSwapRead16
006267b0 t _vxbIoSwapRead16
006267c0 t _vxbOrderedSwapRead16
006267cc t _vxbSpecialRead16
006267e0 T vxbRead32
006267f8 t _vxbMemRead32
00626800 t _vxbIoRead32
00626810 t _vxbOrderedRead32
00626828 t _vxbMemSwapRead32
00626830 t _vxbIoSwapRead32
00626840 t _vxbOrderedSwapRead32
0062684c t _vxbSpecialRead32
00626860 T vxbWrite8
00626878 t _vxbMemWrite8
00626880 t _vxbIoWrite8
00626890 t _vxbOrderedWrite8
006268a8 t _vxbMemSwapWrite8
006268b0 t _vxbIoSwapWrite8
006268c0 t _vxbOrderedSwapWrite8
006268cc t _vxbSpecialWrite8
006268e0 T vxbWrite16
006268f8 t _vxbMemWrite16
00626900 t _vxbIoWrite16
00626910 t _vxbOrderedWrite16
00626928 t _vxbMemSwapWrite16
00626930 t _vxbIoSwapWrite16
00626940 t _vxbOrderedSwapWrite16
0062694c t _vxbSpecialWrite16
00626960 T vxbWrite32
00626978 t _vxbMemWrite32
00626980 t _vxbIoWrite32
00626990 t _vxbOrderedWrite32
006269a8 t _vxbMemSwapWrite32
006269b0 t _vxbIoSwapWrite32
006269c0 t _vxbOrderedSwapWrite32
006269cc t _vxbSpecialWrite32
006269d0 T vxMemArchProbeInit
00626a00 t vxMemProbeTrap
00626b34 T vxMemArchProbe
00626c70 T vxMemProbeSup
00626c90 T vmpxx
00626c98 T _vmpByte
00626c98 T _vmpByteRead
00626ca4 T _vmpByteWrite
00626cb0 T _vmpByteEnd
00626cb8 T _vmpShort
00626cb8 T _vmpShortRead
00626cc4 T _vmpShortWrite
00626cd0 T _vmpShortEnd
00626cd8 T _vmpWord
00626cd8 T _vmpWordRead
00626ce4 T _vmpWordWrite
00626cf0 T _vmpWordEnd
00626cf8 T cacheArchLibInit
00626f40 T cacheTypeChk
00626f88 t cacheAim60xEnableI
00626fcc t cacheAim60xEnableD
006270e0 T cacheArchEnable
00627130 T cacheAim60xDisableIFromMmu
0062716c t cacheAim60xDisableI
00627194 T cacheAim60xDisableDFromMmu
0062722c t cacheAim60xDisableD
00627254 T cacheArchDisableFromMmu
006272a4 t cacheIsOnI
006272d0 t cacheIsOnD
006272fc t cacheAim60xInv_I
00627350 t cacheAim60xInv_AllI
006273a4 t cacheAim60xTextUpdt
006273f8 T cacheArchDmaMalloc
006274f8 T memPartcacheArchDmaMalloc
006275fc T cacheArchDmaFree
006276a8 T memPartcacheArchDmaFree
0062775c T cachePpcDisable
00627760 T cachePpcEnable
00627764 T cacheAim60xEnableI_Impl
0062778c T cacheAim60xEnableD_Impl
006277b4 T cacheAim60xDisableI_Impl
006277d8 T cacheAim60xDisableD_Impl
006277e0 T cacheAim60xClearAllD
006277e8 T cacheAim60xFlushAllD
006277f0 T cacheAim60xInvalidateAllD
006277f4 t cacheAim60xGlobalOps
00627830 t cachePpcDisableLoadDtlb
00627844 t cachePpcDisableLoad
00627854 t cachePpcDisableStore
00627868 t cachePpcInvalidateD
0062787c t cachePpcFlashInv
0062788c t cachePpcGlobalDone
00627894 t cachePpcDisableLoadItlb
00627898 t cacheArchOK
006278a4 T cacheAim60xInvalidateAllI
006278c8 t endInvalidateI
006278d0 T cacheAim60xInvalidateI
006278f0 T cacheAim60xInvalidateD
0062790c T cacheAim60xClearD
00627928 T cacheAim60xFlushD
00627944 T cacheAim60xPipeFlush
00627954 T cacheAim60xTextUpdate
0062795c t ctuLoop
00627984 T cplusXtorGet
0062798c T cplusXtorSet
00627994 T cplusDtors
00627a4c t callAllDtors
00627a7c T cplusCtors
00627b34 t callAllCtors
00627b64 t aimCacheValid
00627b98 t aimCacheRoundAddrDown
00627bac t aimCacheRoundAddrUp
00627be0 t aimCacheFuncCall
00627c38 T aimCacheInit
00628228 t aimCacheEnable
006282bc t aimCacheDisable
00628354 t aimCacheVirtFlush
00628464 t aimCacheVirtInvalidate
00628570 t aimCacheVirtClear
0062867c t aimCacheVirtClearCombined
006286ec t aimCacheTextUpdate
006287c0 t aimCacheTextUpdateCombined
00628844 T _d_dtoll
0062894c T __dtoll
00628978 T _d_lltod
006289fc T __lltod
00628a38 T sfpDoubleNormalize
00628ca4 T sfpDoubleNormalize2
00628ea0 T __lsl64
00628edc T __asr64
00628f24 T __lsr64
00628f6c T ipcom_in_checksum_update2_asm
00628fac t chk_loop
00628fb4 t chk3
00628fbc t chk2
00628fc4 t chk1
00628fcc t chk0
00628fe8 t no_halfword
00628ffc t no_byte
00629018 T ipcom_memcpy_asm
0062904c t check_hword_align
00629068 t hword_loop
006290bc t word_align
006290dc t word_copy
006290e4 t word_copy_cont
00629108 t word_loop
00629110 t wcopy3
00629118 t wcopy2
00629120 t wcopy1
00629128 t wcopy0
00629140 t byte_copy
00629148 t byte_copy_cont
0062916c t byte_loop
00629174 t bcopy3
0062917c t bcopy2
00629184 t bcopy1
0062918c t bcopy0
00629194 T ipcom_in_checksum_memcpy_asm
006291d8 t scpy_check_hword_align
0062920c t scpy_hword_loop
00629218 t scpy_hwcopy3
00629224 t scpy_hwcopy2
00629230 t scpy_hwcopy1
0062923c t scpy_hwcopy0
00629254 t scpy_word_align
00629278 t scpy_word_copy
00629280 t scpy_word_copy_cont
006292a4 t scpy_word_loop
006292b0 t scpy_wcopy3
006292bc t scpy_wcopy2
006292c8 t scpy_wcopy1
006292d4 t scpy_wcopy0
006292ec t scpy_byte_copy
00629308 t scpy_byte_loop
00629318 t scpy_bcopy3
00629324 t scpy_bcopy2
00629334 t scpy_bcopy1
00629340 t scpy_bcopy0
00629344 t scpy_trailing_bytes
00629348 t trailing_loop
00629368 t no_shift
00629374 t scpy_end
00629374 t scpy_trailing_end
006293a4 t ipcom_heap_sort_downheap
00629494 T ipcom_heap_sort
00629564 T ipcom_ipproto_name
0062978c T ipcom_cmsg_nxthdr
00629818 t ipcom_create_ipproduct
006299fc T ipcom_start
00629b40 T ipcom_mask_to_prefixlen
00629ba0 T ipcom_sockaddr_to_prefixlen
00629bdc t ipcom_pkt_copy
00629c48 T ipcom_pkt_alloc_info
00629ca0 T ipcom_pkt_get_info
00629ce8 T ipcom_pkt_set_info
00629d44 T ipcom_pkt_get_info_safe
00629d74 T ipcom_pkt_copy_info
00629df8 T ipcom_pkt_get_length
00629e20 T ipcom_pkt_get_data
00629e64 T ipcom_pkt_make_linear
00629eec t ipcom_patricia_search
00629f64 t ipcom_route_walk_subtree
0062a048 t ipcom_route_init_subtree_mask_cb
0062a094 t ipcom_route_init_subtree_mask2
0062a0a8 t ipcom_route_free_subtree_cb
0062a100 T ipcom_route_next_entry
0062a164 T ipcom_route_first_entry
0062a1a8 T ipcom_route_new_table
0062a2b4 T ipcom_route_free_table
0062a2fc T ipcom_route_remove
0062a430 T ipcom_route_walk_tree
0062a4d0 T ipcom_route_walk_tree_backwards
0062a6b4 T ipcom_route_key_cmp
0062a818 T ipcom_route_lookup
0062a970 t ipcom_patricia_insert
0062abe0 T ipcom_route_add
0062ac40 T ipcom_route_init_subtree_mask
0062ac48 t ipcom_set_index
0062acac T ipcom_set_new
0062ad00 T ipcom_set_delete
0062ad3c T ipcom_set_clone
0062adf0 T ipcom_set_remove
0062aea4 T ipcom_set_remove_all
0062aee4 T ipcom_set_contains
0062af20 T ipcom_set_add
0062afc8 T ipcom_set_equal
0062b05c T ipcom_set_subtract
0062b0b4 T ipcom_set_union
0062b120 T ipcom_set_intersection
0062b194 T ipcom_set_for_each
0062b1ec T ipcom_inet_ntoa
0062b230 T ipcom_inet_addr
0062b270 T ipcom_inet_aton
0062b280 T ipcom_getprotobyname
0062b288 T ipcom_getprotobynumber
0062b290 T ipcom_sysvar_get_conf
0062b3ac T ipcom_sysvar_set_conf
0062b450 T ipcom_sysvar_get_conf_as_int
0062b4c4 T ipcom_usr_create
0062b558 T ipcom_parse_argstr
0062b714 T ipcom_str_in_list
0062b814 T ipcom_proc_free
0062b850 T ipcom_proc_malloc
0062b8bc t ipcom_getline_getone
0062b92c t ipcom_getline_putraw
0062b9c4 t ipcom_getline_putone
0062ba9c t ipcom_getline_putbuf
0062baf4 t ipcom_getline_left_arrow
0062bbdc t ipcom_getline_right_arrow
0062bcbc t ipcom_getline_cursor_home
0062bd20 t ipcom_getline_cursor_end
0062bd8c t ipcom_getline_backspace
0062bea0 t ipcom_getline_ctrl_d
0062bf18 t ipcom_getline_paste_clipboard
0062c04c t ipcom_getline_right_kill
0062c154 t ipcom_getline_window_resize
0062c3d4 t ipcom_getline_up_arrow
0062c4c4 t ipcom_getline_down_arrow
0062c594 t ipcom_getline_add_history
0062c66c t ipcom_getline_restore_history
0062c700 t ipcom_getline_save_history
0062c790 T ipcom_getline_init
0062c804 T ipcom_getline_exit
0062c880 T ipcom_getline
0062cd08 t ipcom_tmo2_pqueue_cmp_func
0062cd74 t ipcom_tmo2_pqueue_store_index
0062cd7c T ipcom_tmo2_new
0062cd90 T ipcom_tmo2_delete
0062cd94 T ipcom_tmo2_request_timeval
0062ce40 T ipcom_tmo2_request
0062ce88 T ipcom_tmo2_cancel
0062cec4 T ipcom_tmo2_reset
0062cf20 T ipcom_tmo2_get
0062cfb4 T ipcom_tmo2_select
0062d280 t ipcom_pipe_register_type_int
0062d33c t ipcom_pipe_init
0062d3ec T ipcom_pipe_attr_init
0062d3f8 T ipcom_pipe_new
0062d4e0 T ipcom_pipe_free
0062d524 T ipcom_pipe_register_type
0062d570 T ipcom_free
0062d580 T ipcom_calloc
0062d584 T ipcom_realloc
0062d588 T ipcom_malloc
0062d5a8 T ipcom_cache_line_size
0062d5b0 T ipcom_socketpair_udp
0062d700 t ipcom_drv_ppp_open
0062d7a0 t ipcom_drv_ppp_init
0062d920 T ipcom_drv_ppp_exit
0062d998 t ipcom_drv_ppp_ioctl
0062dbb4 T ipcom_drv_ppp_inputd
0062df24 t ipcom_drv_ppp_output
0062dfc0 T ipcom_drv_ppp_outputd
0062e0a0 T ipcom_drv_ppp_if_init
0062e1dc t ipcom_drv_ppp_create_cb
0062e248 T ipcom_drv_ppp_create
0062e314 T ipcom_qsort
0062e318 T ipcom_bsearch
0062e31c T ipcom_isascii
0062e334 T ipcom_abort
0062e338 T ipcom_exit
0062e33c T ipcom_getuid
0062e344 t ipcom_ifaddrs_free
0062e3b0 t ipcom_create_ifaddrs_entry
0062e490 t ipcom_create_ifaddrs_inet
0062e544 T ipcom_getifaddrs
0062e710 T ipcom_freeifaddrs
0062e7ac t ipcom_job_queue_pipe_try_recv_locked
0062e83c t ipcom_job_queue_pipe_try_send_locked
0062e8ac t ipcom_job_queue_pipe_dtor_helper
0062e914 t ipcom_job_queue_pipe_dtor
0062e91c t ipcom_job_queue_pipe_new
0062e9d4 t ipcom_job_queue_pipe_send
0062ea64 t ipcom_job_queue_pipe_try_send
0062eaac t ipcom_job_queue_pipe_try_recv
0062eb08 t ipcom_job_queue_pipe_recv
0062eb10 T ipcom_pipe_job_queue_create
0062eb74 T ipcom_job_queue_pipe_schedule
0062eb80 T ipcom_perror
0062eb84 T ipcom_signal
0062eb8c T ipcom_times
0062ec14 t ipcom_generic_pipe_try_recv_locked
0062eca4 t ipcom_generic_pipe_try_send_locked
0062ed24 t ipcom_generic_pipe_dtor_helper
0062ed68 t ipcom_generic_pipe_dtor
0062ed70 t ipcom_generic_pipe_new_fifo
0062ee0c t ipcom_generic_pipe_send
0062ee9c t ipcom_generic_pipe_try_send
0062eee4 t ipcom_generic_pipe_recv_with_tmo
0062ef90 t ipcom_generic_pipe_recv
0062efdc T ipcom_pipe_generic_create
0062f030 t ipcom_lockless_pipe_dtor_helper
0062f064 t ipcom_lockless_pipe_dtor
0062f06c t ipcom_lockless_pipe_new_fifo
0062f0f8 t ipcom_lockless_pipe_poll_send
0062f184 t ipcom_lockless_pipe_send
0062f18c t ipcom_lockless_pipe_try_send
0062f194 t ipcom_lockless_pipe_poll_recv
