04c00000 T _Z18InitializeMetaPostv
04c001b4 T _GLOBAL__D__Z16InitializePkgWWWv
04c001ec T _GLOBAL__I__Z16InitializePkgWWWv
04c00224 T _Z16InitializePkgWWWv
04c00338 T _ZN20C_BCM_BROWSER_SERVER20DBUS_ReadFaviconPathERSs
04c00390 T _ZN20C_BCM_BROWSER_SERVER17DBUS_ReadUniverseERl
04c003e8 T _ZN20C_BCM_BROWSER_SERVER25DBUS_DoPostInitializationEv
04c00430 T _ZN20C_BCM_BROWSER_SERVER28DBUS_GetLastOpenedPageStatusERbRSs
04c00498 T _ZN20C_BCM_BROWSER_SERVER28DBUS_SetLastOpenedPageStatusERKbRKSs
04c00500 T _ZN20C_BCM_BROWSER_SERVER23DBUS_SetHistorySortTypeERKl
04c00558 T _ZN20C_BCM_BROWSER_SERVER25DBUS_SetBookmarksSortTypeERKl
04c005b0 T _ZN20C_BCM_BROWSER_SERVER27DBUS_RestoreFactorySettingsEv
04c005f8 T _ZN20C_BCM_BROWSER_SERVER19DBUS_ReadMapVersionERSs
04c00650 T _ZN20C_BCM_BROWSER_SERVER19DBUS_ReadSupplierIdERSs
04c006a8 T _ZN20C_BCM_BROWSER_SERVER24DBUS_ReadHardwareReleaseERSs
04c00700 T _ZN20C_BCM_BROWSER_SERVER24DBUS_ReadSoftwareReleaseERSs
04c00758 T _ZN20C_BCM_BROWSER_SERVER18DBUS_ReadOffsetUTCERm
04c007b0 T _ZN20C_BCM_BROWSER_SERVER13DBUS_ReadTimeERmS0_Rb
04c00828 T _ZN20C_BCM_BROWSER_SERVER17DBUS_ReadTripDataERKmRmRbS2_S3_S2_S3_
04c008e0 T _ZN20C_BCM_BROWSER_SERVER21DBUS_ReadInstTripDataERmRbS0_S1_
04c00968 T _ZN20C_BCM_BROWSER_SERVER18DBUS_ReadInstSpeedERm
04c009c0 T _ZN20C_BCM_BROWSER_SERVER14DBUS_ReadUnitsERlS0_S0_S0_Rb
04c00a58 T _ZN20C_BCM_BROWSER_SERVER17DBUS_ReadFuelTypeERl
04c00ab0 T _ZN20C_BCM_BROWSER_SERVER24DBUS_ReadNextWaypointETAERmS0_
04c00b18 T _ZN20C_BCM_BROWSER_SERVER23DBUS_ReadDestinationETAERmS0_
04c00b80 T _ZN20C_BCM_BROWSER_SERVER21DBUS_ReadNextWaypointERdS0_S0_RSsS1_S1_
04c00c28 T _ZN20C_BCM_BROWSER_SERVER20DBUS_ReadDestinationERdS0_S0_RSsS1_S1_
04c00cd0 T _ZN20C_BCM_BROWSER_SERVER23DBUS_ReadCurrentCountryERSs
04c00d28 T _ZN20C_BCM_BROWSER_SERVER20DBUS_ReadCurrentCityERSs
04c00d80 T _ZN20C_BCM_BROWSER_SERVER22DBUS_ReadCurrentStreetERSs
04c00dd8 T _ZN20C_BCM_BROWSER_SERVER27DBUS_ReadCurrentCoordinatesERdS0_S0_Rm
04c00e60 T _ZN20C_BCM_BROWSER_SERVER28DBUS_GetInternetAvailabilityERbS0_
04c00ec8 T _ZN20C_BCM_BROWSER_SERVER24DBUS_SaveLastVisitedPageERKb
04c00f20 T _ZN20C_BCM_BROWSER_SERVER18DBUS_SaveUserAgentERKSs
04c00f78 T _ZN20C_BCM_BROWSER_SERVER24DBUS_SavePopupAcceptanceERKb
04c00fd0 T _ZN20C_BCM_BROWSER_SERVER26DBUS_SaveCookiesAcceptanceERKb
04c01028 T _ZN20C_BCM_BROWSER_SERVER18DBUS_DeleteCookiesEv
04c01070 T _ZN20C_BCM_BROWSER_SERVER15DBUS_SaveCookieERKSsS1_RKbS3_S1_S1_S1_
04c01128 T _ZN20C_BCM_BROWSER_SERVER30DBUS_DeleteAllUsernamePasswordEv
04c01170 T _ZN20C_BCM_BROWSER_SERVER27DBUS_DeleteUsernamePasswordERKm
04c011c8 T _ZN20C_BCM_BROWSER_SERVER25DBUS_SaveUsernamePasswordERKSsS1_S1_RKl
04c01250 T _ZN20C_BCM_BROWSER_SERVER26DBUS_DeleteAllVisitedSitesEv
04c01298 T _ZN20C_BCM_BROWSER_SERVER22DBUS_DeleteVisitedSiteERKm
04c012f0 T _ZN20C_BCM_BROWSER_SERVER20DBUS_SaveVisitedSiteERKSsS1_S1_
04c01368 T _ZN20C_BCM_BROWSER_SERVER23DBUS_DeleteAllBookmarksEv
04c013b0 T _ZN20C_BCM_BROWSER_SERVER19DBUS_DeleteBookmarkERKm
04c01408 T _ZN20C_BCM_BROWSER_SERVER19DBUS_UpdateBookmarkERKmRKSsS3_
04c01480 T _ZN20C_BCM_BROWSER_SERVER17DBUS_SaveBookmarkERKSsS1_S1_
04c014f8 T _ZN20C_BCM_BROWSER_SERVER25DBUS_SavePortalConfiguredERKb
04c01550 T _ZN20C_BCM_BROWSER_SERVER17DBUS_SaveHomePageERKSs
04c015a8 T _ZN20C_BCM_BROWSER_SERVER17DBUS_GetPortalURLEv
04c015f0 T _ZN20C_BCM_BROWSER_SERVER16DBUS_GetHomePageEv
04c01638 T _ZN20C_BCM_BROWSER_SERVER21DBUS_ReadDrivingStateERb
04c01690 T _ZN20C_BCM_BROWSER_SERVER17DBUS_ReadProxyURLERSs
04c016e8 T _ZN20C_BCM_BROWSER_SERVER16DBUS_ResetPortalEv
04c01730 T _ZN20C_BCM_BROWSER_SERVER12DBUS_ReadVINERSs
04c01788 T _ZN20C_BCM_BROWSER_SERVER18DBUS_ReadReInitURLERSs
04c017e0 T _ZN20C_BCM_BROWSER_SERVER16DBUS_SaveSmegKeyERKSs
04c01838 T _ZN20C_BCM_BROWSER_SERVERD1Ev
04c018dc T _ZN20C_BCM_BROWSER_SERVERC1EPKcS1_
04c01988 T _ZN20C_BCM_BROWSER_SERVERC2EPKcS1_
04c01a34 T _ZN20C_BCM_BROWSER_SERVERD2Ev
04c01ad8 T _ZN20C_BCM_BROWSER_SERVERD0Ev
04c01b90 T _ZN16BRO_Configurator22C_BCM_BRO_ConfiguratorC2Ev
04c01ba8 T _ZN16BRO_Configurator22C_BCM_BRO_Configurator7DestroyEv
04c01bfc T _ZN16BRO_Configurator22C_BCM_BRO_Configurator12ExecuteQueryER13CMMSQLRequest
04c01c40 T _ZN16BRO_Configurator22C_BCM_BRO_ConfiguratorD2Ev
04c01c50 T _ZN16BRO_Configurator22C_BCM_BRO_Configurator19SaveBrowserDatabaseEv
04c01dbc T _GLOBAL__I__ZN16BRO_Configurator22C_BCM_BRO_ConfiguratorC2Ev
04c01df4 T _ZN16BRO_Configurator22C_BCM_BRO_ConfiguratorC1Ev
04c01e0c T _ZN16BRO_Configurator22C_BCM_BRO_ConfiguratorD0Ev
04c01e44 T _ZN16BRO_Configurator22C_BCM_BRO_ConfiguratorD1Ev
04c01e54 T _ZN16BRO_Configurator22C_BCM_BRO_Configurator8PopErrorEv
04c01f94 T _ZN16BRO_Configurator22C_BCM_BRO_Configurator9SaveErrorERKN10BRO_Common18C_BCM_ErrorHandlerEb
04c02204 T _ZN16BRO_Configurator22C_BCM_BRO_Configurator11RemoveErrorEi
04c0238c T _ZN16BRO_Configurator22C_BCM_BRO_Configurator11EmptyErrorsEv
04c024cc T _ZN16BRO_Configurator22C_BCM_BRO_Configurator20GetWelcomePageFromUPERSs
04c026f0 T _ZN16BRO_Configurator22C_BCM_BRO_Configurator12EmptyCookiesEv
04c02830 T _ZN16BRO_Configurator22C_BCM_BRO_Configurator22RemoveUsernamePasswordEi
04c029b8 T _ZN16BRO_Configurator22C_BCM_BRO_Configurator22EmptyUsernamePasswordsEv
04c02af8 T _ZN16BRO_Configurator22C_BCM_BRO_Configurator13DBMaintenanceEv
04c02c38 T _ZN16BRO_Configurator22C_BCM_BRO_Configurator4InitEv
04c02d84 T _ZN16BRO_Configurator22C_BCM_BRO_Configurator20SaveUsernamePasswordERKSsS2_S2_N4DBus16E_DBUS_AUTH_TYPEE
04c03da8 T _ZN16BRO_Configurator22C_BCM_BRO_Configurator18SetHistorySortTypeEi
04c03f60 T _ZN16BRO_Configurator22C_BCM_BRO_Configurator20SetBookmarksSortTypeEi
04c04118 T _ZN16BRO_Configurator22C_BCM_BRO_Configurator19SetPortalConfiguredEb
04c042d0 T _ZN16BRO_Configurator22C_BCM_BRO_Configurator22SetSaveLastVisitedPageEb
04c04488 T _ZN16BRO_Configurator22C_BCM_BRO_Configurator13SaveUserAgentERKSs
04c04648 T _ZN16BRO_Configurator22C_BCM_BRO_Configurator14UpdateBookmarkEiRKSsS2_
04c048b4 T _ZN16BRO_Configurator22C_BCM_BRO_Configurator16SetPopupAcceptedEb
04c04a74 T _ZN16BRO_Configurator22C_BCM_BRO_Configurator18SetCookiesAcceptedEb
04c04c34 T _ZN16BRO_Configurator22C_BCM_BRO_Configurator12SetOffsetUTCEi
04c04df4 T _ZN16BRO_Configurator22C_BCM_BRO_Configurator11SetHomePageERKSs
04c04fb4 T _ZN16BRO_Configurator22C_BCM_BRO_Configurator10SetSMEGKeyERKSs
04c0516c T _ZN16BRO_Configurator22C_BCM_BRO_Configurator11AddBookmarkERKSsS2_S2_
04c05bf4 T _ZN16BRO_Configurator22C_BCM_BRO_Configurator19GetPortalConfiguredERb
04c05e2c T _ZN16BRO_Configurator22C_BCM_BRO_Configurator22RemoveFaviconBookmarksERKSs
04c0622c T _ZN16BRO_Configurator22C_BCM_BRO_Configurator17RemoveVisitedSiteEi
04c06714 T _ZN16BRO_Configurator22C_BCM_BRO_Configurator23DeleteOldestVisitedSiteEv
04c06994 T _ZN16BRO_Configurator22C_BCM_BRO_Configurator14AddVisitedSiteERKSsS2_S2_
04c07130 T _ZN16BRO_Configurator22C_BCM_BRO_Configurator17EmptyVisitedSitesEv
04c077e8 T _ZN16BRO_Configurator22C_BCM_BRO_Configurator10GetSMEGKeyERSs
04c07a20 T _ZN16BRO_Configurator22C_BCM_BRO_Configurator16GetPopupAcceptedERb
04c07c90 T _ZN16BRO_Configurator22C_BCM_BRO_Configurator18GetCookiesAcceptedERb
04c07ed0 T _ZN16BRO_Configurator22C_BCM_BRO_Configurator12GetOffsetUTCERi
04c08128 T _ZN16BRO_Configurator22C_BCM_BRO_Configurator11GetHomePageERSs
04c08364 T _ZN16BRO_Configurator22C_BCM_BRO_Configurator10SaveCookieERKSsmbbS2_S2_S2_
04c0898c T _ZN16BRO_Configurator22C_BCM_BRO_Configurator20RemoveFaviconHistoryERKSs
04c08d8c T _ZN16BRO_Configurator22C_BCM_BRO_Configurator21DeleteBookmarkFaviconEi
04c09164 T _ZN16BRO_Configurator22C_BCM_BRO_Configurator14RemoveBookmarkEi
04c09308 T _ZN16BRO_Configurator22C_BCM_BRO_Configurator14EmptyBookmarksEv
04c099c0 T _ZN16BRO_Configurator22C_BCM_BRO_Configurator22RestoreFactorySettingsEv
04c09ef4 T _ZN4DBus21C_BCM_BRO_DBusClients7DestroyEv
04c09ff8 T _ZNK4DBus21C_BCM_BRO_DBusClients16ReadDrivingStateERb
04c0a008 T _ZNK4DBus21C_BCM_BRO_DBusClients13ReadOffsetUTCERi
04c0a018 T _ZNK4DBus21C_BCM_BRO_DBusClients19GetInstSpeedChangedEv
04c0a020 T _ZNK4DBus21C_BCM_BRO_DBusClients22GetInstTripDataChangedEv
04c0a028 T _ZNK4DBus21C_BCM_BRO_DBusClients19GetTrip1DataChangedEv
04c0a030 T _ZNK4DBus21C_BCM_BRO_DBusClients19GetTrip2DataChangedEv
04c0a038 T _ZN4DBus21C_BCM_BRO_DBusClients12SetOffsetUTCEi
04c0a0c8 T _ZNK4DBus21C_BCM_BRO_DBusClients12ReadUniverseERi
04c0a15c T _ZNK4DBus21C_BCM_BRO_DBusClients19ReadNextWaypointETAERiS1_
04c0a204 T _ZNK4DBus21C_BCM_BRO_DBusClients18ReadDestinationETAERiS1_
04c0a2ac T _ZNK4DBus21C_BCM_BRO_DBusClients22ReadCurrentCoordinatesERdS1_S1_Rm
04c0a37c T _ZNK4DBus21C_BCM_BRO_DBusClients8ReadTimeERiRbS1_S2_
04c0a44c T _ZNK4DBus21C_BCM_BRO_DBusClients12ReadTripDataEiRiRbS1_S2_S1_S2_
04c0a5dc T _ZNK4DBus21C_BCM_BRO_DBusClients16ReadInstTripDataERiRbS1_S2_
04c0a6ac T _ZNK4DBus21C_BCM_BRO_DBusClients13ReadInstSpeedERi
04c0a740 T _ZNK4DBus21C_BCM_BRO_DBusClients9ReadUnitsERNS_17E_DBUS_UNITS_FUELERNS_21E_DBUS_UNITS_DISTANCEERNS_18E_DBUS_UNITS_SPEEDERNS_24E_DBUS_UNITS_CONSUMPTIONERb
04c0a824 T _ZNK4DBus21C_BCM_BRO_DBusClients14ReadEnergyTypeERNS_22E_DBUS_UNITS_FUEL_TYPEE
04c0a8b8 T _ZN4DBus21C_BCM_BRO_DBusClients8GetUnitsEv
04c0aae8 T _ZN4DBus21C_BCM_BRO_DBusClients15GetInstTripDataEv
04c0ac9c T _ZN4DBus21C_BCM_BRO_DBusClients17GetDestinationETAEv
04c0ae44 T _ZN4DBus21C_BCM_BRO_DBusClients12GetOffsetUTCEv
04c0b024 T _ZN4DBus21C_BCM_BRO_DBusClients21GetCurrentCoordinatesEv
04c0b498 T _ZN4DBus21C_BCM_BRO_DBusClients14CheckInstSpeedEv
04c0b6ec T _ZN4DBus21C_BCM_BRO_DBusClients12GetInstSpeedEv
04c0b718 T _ZNK4DBus21C_BCM_BRO_DBusClients17DeletePortalCacheEv
04c0b758 T _ZN4DBus21C_BCM_BRO_DBusClients7GetTimeEv
04c0b930 T _ZN4DBus21C_BCM_BRO_DBusClients18GetNextWaypointETAEv
04c0ba40 T _ZNK4DBus21C_BCM_BRO_DBusClients16IsRamSizeLimitedEv
04c0ba74 T _ZNK4DBus21C_BCM_BRO_DBusClients14IsDUNAvailableEv
04c0baa8 T _ZNK4DBus21C_BCM_BRO_DBusClients13IsBTAvailableEv
04c0badc T _ZNK4DBus21C_BCM_BRO_DBusClients23IsInternetFlagAvailableEv
04c0bb10 T _ZN4DBus21C_BCM_BRO_DBusClients4InitEv
04c0be24 T _GLOBAL__I__ZN4DBus21C_BCM_BRO_DBusClientsC2Ev
04c0be5c T _ZN4DBus21C_BCM_BRO_DBusClients14CheckUTCOffsetEv
04c0c0a4 T _ZN4DBus21C_BCM_BRO_DBusClients14AddressDetailsEllRSsS1_S1_
04c0c520 T _ZN4DBus21C_BCM_BRO_DBusClients14getGPSRoadCodeERNS_6StructIhhhttNS_7InvalidES2_S2_S2_S2_EERl
04c0c854 T _ZN4DBus21C_BCM_BRO_DBusClients17CheckInstTripDataEv
04c0ca7c T _ZNK4DBus21C_BCM_BRO_DBusClients16ReadPSAPortalUrlERSs
04c0cb28 T _ZNK4DBus21C_BCM_BRO_DBusClients15ReadFaviconPathERSs
04c0cbd4 T _ZN4DBus21C_BCM_BRO_DBusClients14ReadSupplierIdERSs
04c0cc80 T _ZNK4DBus21C_BCM_BRO_DBusClients18ReadCurrentCountryERSs
04c0cd2c T _ZNK4DBus21C_BCM_BRO_DBusClients15ReadDestinationERdS1_S1_RSsS2_S2_
04c0ce64 T _ZNK4DBus21C_BCM_BRO_DBusClients19ReadHardwareReleaseERSs
04c0cf10 T _ZN4DBus21C_BCM_BRO_DBusClients19ReadSoftwareReleaseERSs
04c0cfbc T _ZNK4DBus21C_BCM_BRO_DBusClients16ReadNextWaypointERdS1_S1_RSsS2_S2_
04c0d0f4 T _ZNK4DBus21C_BCM_BRO_DBusClients7ReadVINERSs
04c0d1a0 T _ZNK4DBus21C_BCM_BRO_DBusClients14ReadMapVersionERSs
04c0d24c T _ZNK4DBus21C_BCM_BRO_DBusClients18ReadURLWelcomePageERSs
04c0d2f8 T _ZNK4DBus21C_BCM_BRO_DBusClients15ReadCurrentCityERSs
04c0d3a4 T _ZNK4DBus21C_BCM_BRO_DBusClients12ReadURLProxyERSs
04c0d450 T _ZNK4DBus21C_BCM_BRO_DBusClients17ReadCurrentStreetERSs
04c0d4fc T _ZN4DBus21C_BCM_BRO_DBusClients12GetReinitUrlEv
04c0d688 T _ZNK4DBus21C_BCM_BRO_DBusClients13ReadReinitUrlERSs
04c0d828 T _ZN4DBus21C_BCM_BRO_DBusClientsC1Ev
04c0dae8 T _ZN4DBus21C_BCM_BRO_DBusClientsC2Ev
04c0dda8 T _ZN4DBus21C_BCM_BRO_DBusClients13CheckTripDataEv
04c0e1f0 T _ZN4DBus21C_BCM_BRO_DBusClients11GetTripDataEv
04c0e520 T _ZN4DBus21C_BCM_BRO_DBusClients15GetNextWaypointEv
04c0eb30 T _ZN4DBus21C_BCM_BRO_DBusClients14GetDestinationEv
04c0f250 T _ZN4DBus21C_BCM_BRO_DBusClients17GetCurrentCountryEv
04c0f4b4 T _ZN4DBus21C_BCM_BRO_DBusClients14GetCurrentCityEv
04c0f67c T _ZN4DBus21C_BCM_BRO_DBusClients16GetCurrentStreetEv
04c0f844 T _ZN4DBus21C_BCM_BRO_DBusClients13GetEnergyTypeEv
04c0fac0 T _ZNK4DBus21C_BCM_BRO_DBusClients19ReadPSAPortalActiveERb
04c0fc34 T _ZNK4DBus21C_BCM_BRO_DBusClients13ReadWebActiveERb
04c0fda8 T _ZN4DBus21C_BCM_BRO_DBusClients17GetURLWelcomePageEv
04c0ffec T _ZN4DBus21C_BCM_BRO_DBusClients20GetSpeedInternetLockEv
04c101f4 T _ZN4DBus21C_BCM_BRO_DBusClients11GetURLProxyEv
04c10438 T _ZN4DBus21C_BCM_BRO_DBusClients15GetPSAPortalUrlEv
04c1067c T _ZN4DBus21C_BCM_BRO_DBusClients13GetMapVersionEv
04c11664 T _ZN4DBus21C_BCM_BRO_DBusClients6GetVINEv
04c12370 T _ZN4DBus21C_BCM_BRO_DBusClients14GetFaviconPathEv
04c12614 T _ZN4DBus21C_BCM_BRO_DBusClients18GetSoftwareReleaseEv
04c12744 T _ZN4DBus21C_BCM_BRO_DBusClients18GetHardwareReleaseEv
04c12e9c T _ZN4DBus21C_BCM_BRO_DBusClients13HandleMessageERKN10BRO_Common17C_BCM_BRO_MessageE
04c14a4c T _ZN4DBus21C_BCM_BRO_DBusClients11GetUniverseEv
04c14c54 T _ZN4DBus21C_BCM_BRO_DBusClients13GetSupplierIdEv
04c152c0 T _ZN4DBus21C_BCM_BRO_DBusClients10TestJSDataEb
04c15530 T _ZN4DBus21C_BCM_BRO_DBusClientsD2Ev
04c15c50 T _ZN4DBus21C_BCM_BRO_DBusClientsD0Ev
04c16304 T _ZN4DBus21C_BCM_BRO_DBusClientsD1Ev
04c1659c T _ZN4DBus21C_BCM_BRO_DBusWrapperC1Ev
04c165b4 T _ZN4DBus21C_BCM_BRO_DBusWrapper7DestroyEv
04c16608 T _ZN4DBus21C_BCM_BRO_DBusWrapperD2Ev
04c16618 T _ZN4DBus21C_BCM_BRO_DBusWrapper20DBUS_ReadFaviconPathERSs
04c16664 T _ZN4DBus21C_BCM_BRO_DBusWrapper17DBUS_ReadUniverseERi
04c166b0 T _ZN4DBus21C_BCM_BRO_DBusWrapper25DBUS_DoPostInitializationEv
04c166ec T _ZN4DBus21C_BCM_BRO_DBusWrapper28DBUS_GetLastOpenedPageStatusERbRSs
04c16768 T _ZN4DBus21C_BCM_BRO_DBusWrapper19DBUS_ReadMapVersionERSs
04c167b4 T _ZN4DBus21C_BCM_BRO_DBusWrapper19DBUS_ReadSupplierIdERSs
04c16800 T _ZN4DBus21C_BCM_BRO_DBusWrapper24DBUS_ReadHardwareReleaseERSs
04c1684c T _ZN4DBus21C_BCM_BRO_DBusWrapper24DBUS_ReadSoftwareReleaseERSs
04c16898 T _ZN4DBus21C_BCM_BRO_DBusWrapper18DBUS_ReadOffsetUTCERi
04c168e4 T _ZN4DBus21C_BCM_BRO_DBusWrapper13DBUS_ReadTimeERiS1_Rb
04c16950 T _ZN4DBus21C_BCM_BRO_DBusWrapper17DBUS_ReadTripDataEiRiRbS1_S2_S1_S2_
04c169fc T _ZN4DBus21C_BCM_BRO_DBusWrapper21DBUS_ReadInstTripDataERiRbS1_S2_
04c16a78 T _ZN4DBus21C_BCM_BRO_DBusWrapper18DBUS_ReadInstSpeedERi
04c16ac4 T _ZN4DBus21C_BCM_BRO_DBusWrapper14DBUS_ReadUnitsERNS_17E_DBUS_UNITS_FUELERNS_21E_DBUS_UNITS_DISTANCEERNS_18E_DBUS_UNITS_SPEEDERNS_24E_DBUS_UNITS_CONSUMPTIONERb
04c16b50 T _ZN4DBus21C_BCM_BRO_DBusWrapper17DBUS_ReadFuelTypeERNS_22E_DBUS_UNITS_FUEL_TYPEE
04c16b9c T _ZN4DBus21C_BCM_BRO_DBusWrapper24DBUS_ReadNextWaypointETAERiS1_
04c16bf8 T _ZN4DBus21C_BCM_BRO_DBusWrapper23DBUS_ReadDestinationETAERiS1_
04c16c54 T _ZN4DBus21C_BCM_BRO_DBusWrapper21DBUS_ReadNextWaypointERdS1_S1_RSsS2_S2_
04c16cf0 T _ZN4DBus21C_BCM_BRO_DBusWrapper20DBUS_ReadDestinationERdS1_S1_RSsS2_S2_
04c16d8c T _ZN4DBus21C_BCM_BRO_DBusWrapper23DBUS_ReadCurrentCountryERSs
04c16dd8 T _ZN4DBus21C_BCM_BRO_DBusWrapper20DBUS_ReadCurrentCityERSs
04c16e24 T _ZN4DBus21C_BCM_BRO_DBusWrapper22DBUS_ReadCurrentStreetERSs
04c16e70 T _ZN4DBus21C_BCM_BRO_DBusWrapper27DBUS_ReadCurrentCoordinatesERdS1_S1_Rm
04c16eec T _ZN4DBus21C_BCM_BRO_DBusWrapper28DBUS_GetInternetAvailabilityERbS1_
04c16f48 T _ZN4DBus21C_BCM_BRO_DBusWrapper18DBUS_DeleteCookiesEv
04c16fb0 T _ZN4DBus21C_BCM_BRO_DBusWrapper30DBUS_DeleteAllUsernamePasswordEv
04c17018 T _ZN4DBus21C_BCM_BRO_DBusWrapper26DBUS_DeleteAllVisitedSitesEv
04c17080 T _ZN4DBus21C_BCM_BRO_DBusWrapper23DBUS_DeleteAllBookmarksEv
04c170e8 T _ZN4DBus21C_BCM_BRO_DBusWrapper16DBUS_GetHomePageEv
04c17150 T _ZN4DBus21C_BCM_BRO_DBusWrapper16DBUS_ResetPortalEv
04c171b8 T _ZN4DBus21C_BCM_BRO_DBusWrapper17DBUS_GetPortalURLEv
04c17220 T _ZN4DBus21C_BCM_BRO_DBusWrapper21DBUS_ReadDrivingStateERb
04c1726c T _ZN4DBus21C_BCM_BRO_DBusWrapper17DBUS_ReadProxyURLERSs
04c172b8 T _ZN4DBus21C_BCM_BRO_DBusWrapper12DBUS_ReadVINERSs
04c17304 T _ZN4DBus21C_BCM_BRO_DBusWrapper18DBUS_ReadReInitURLERSs
04c17350 T _ZN4DBus21C_BCM_BRO_DBusWrapper4InitEv
04c1741c T _ZN4DBus21C_BCM_BRO_DBusWrapper11sendMessageEN10BRO_Common14E_MESSAGE_TYPEERKNS1_13ContentValuesE
04c17520 T _GLOBAL__I__ZN4DBus21C_BCM_BRO_DBusWrapper11sendMessageEN10BRO_Common14E_MESSAGE_TYPEERKNS1_13ContentValuesE
04c17558 T _ZN4DBus21C_BCM_BRO_DBusWrapperC2Ev
04c17570 T _ZN4DBus21C_BCM_BRO_DBusWrapperD0Ev
04c175a8 T _ZN4DBus21C_BCM_BRO_DBusWrapperD1Ev
04c175b8 T _ZN4DBus21C_BCM_BRO_DBusWrapper27DBUS_RestoreFactorySettingsEv
04c17620 T _ZN4DBus21C_BCM_BRO_DBusWrapper33DBUSSignal_NextWaypointETAChangedEii
04c177a0 T _ZN4DBus21C_BCM_BRO_DBusWrapper23DBUS_SetHistorySortTypeENS_16E_DBUS_SORT_TYPEE
04c17874 T _ZN4DBus21C_BCM_BRO_DBusWrapper25DBUS_SetBookmarksSortTypeENS_16E_DBUS_SORT_TYPEE
04c17948 T _ZN4DBus21C_BCM_BRO_DBusWrapper24DBUS_SaveLastVisitedPageEb
04c17a1c T _ZN4DBus21C_BCM_BRO_DBusWrapper18DBUS_SaveUserAgentERKSs
04c17af0 T _ZN4DBus21C_BCM_BRO_DBusWrapper24DBUS_SavePopupAcceptanceEb
04c17bc4 T _ZN4DBus21C_BCM_BRO_DBusWrapper26DBUS_SaveCookiesAcceptanceEb
04c17c98 T _ZN4DBus21C_BCM_BRO_DBusWrapper15DBUS_SaveCookieERKSsS2_bbS2_S2_S2_
04c17f98 T _ZN4DBus21C_BCM_BRO_DBusWrapper27DBUS_DeleteUsernamePasswordEi
04c1806c T _ZN4DBus21C_BCM_BRO_DBusWrapper25DBUS_SaveUsernamePasswordERKSsS2_S2_NS_16E_DBUS_AUTH_TYPEE
04c1825c T _ZN4DBus21C_BCM_BRO_DBusWrapper22DBUS_DeleteVisitedSiteEi
04c18330 T _ZN4DBus21C_BCM_BRO_DBusWrapper20DBUS_SaveVisitedSiteERKSsS2_S2_
04c184c4 T _ZN4DBus21C_BCM_BRO_DBusWrapper19DBUS_DeleteBookmarkEi
04c18598 T _ZN4DBus21C_BCM_BRO_DBusWrapper19DBUS_UpdateBookmarkEiRKSsS2_
04c1872c T _ZN4DBus21C_BCM_BRO_DBusWrapper17DBUS_SaveBookmarkERKSsS2_S2_
04c188c0 T _ZN4DBus21C_BCM_BRO_DBusWrapper25DBUS_SavePortalConfiguredEb
04c18980 T _ZN4DBus21C_BCM_BRO_DBusWrapper17DBUS_SaveHomePageERKSs
04c18a40 T _ZN4DBus21C_BCM_BRO_DBusWrapper16DBUS_SaveSmegKeyERKSs
04c18b00 T _ZN4DBus21C_BCM_BRO_DBusWrapper30DBUSSignal_DrivingStateChangedEb
04c18c78 T _ZN4DBus21C_BCM_BRO_DBusWrapper29DBUSSignal_ResetPortalSuccessEv
04c18de8 T _ZN4DBus21C_BCM_BRO_DBusWrapper37DBUSSignal_PostInitializationCompleteEv
04c18f58 T _ZN4DBus21C_BCM_BRO_DBusWrapper22DBUSSignal_SaveSuccessENS_19E_DBUS_OPERATION_IDE
04c190d0 T _ZN4DBus21C_BCM_BRO_DBusWrapper22DBUSSignal_TimeChangedEiib
04c19258 T _ZN4DBus21C_BCM_BRO_DBusWrapper24DBUSSignal_UpdateSuccessENS_19E_DBUS_OPERATION_IDE
04c193d0 T _ZN4DBus21C_BCM_BRO_DBusWrapper23DBUSSignal_UnitsChangedENS_17E_DBUS_UNITS_FUELENS_21E_DBUS_UNITS_DISTANCEENS_18E_DBUS_UNITS_SPEEDENS_24E_DBUS_UNITS_CONSUMPTIONEb
04c19568 T _ZN4DBus21C_BCM_BRO_DBusWrapper24DBUSSignal_DeleteSuccessENS_19E_DBUS_OPERATION_IDE
04c196e0 T _ZN4DBus21C_BCM_BRO_DBusWrapper27DBUSSignal_InstSpeedChangedEi
04c19858 T _ZN4DBus21C_BCM_BRO_DBusWrapper27DBUSSignal_OffsetUTCChangedEi
04c199d0 T _ZN4DBus21C_BCM_BRO_DBusWrapper26DBUSSignal_TripDataChangedEiibibib
04c19b78 T _ZN4DBus21C_BCM_BRO_DBusWrapper23DBUSSignal_GetPortalURLERKSs
04c19cfc T _ZN4DBus21C_BCM_BRO_DBusWrapper30DBUSSignal_InstTripDataChangedEibib
04c19e8c T _ZN4DBus21C_BCM_BRO_DBusWrapper36DBUSSignal_CurrentCoordinatesChangedEdddm
04c1a01c T _ZN4DBus21C_BCM_BRO_DBusWrapper32DBUSSignal_DestinationETAChangedEii
04c1a19c T _ZN4DBus21C_BCM_BRO_DBusWrapper29DBUSSignal_DestinationChangedEdddRKSsS2_S2_
04c1a360 T _ZN4DBus21C_BCM_BRO_DBusWrapper31DBUSSignal_CurrentStreetChangedERKSs
04c1a4e4 T _ZN4DBus21C_BCM_BRO_DBusWrapper30DBUSSignal_NextWaypointChangedEdddRKSsS2_S2_
04c1a6a8 T _ZN4DBus21C_BCM_BRO_DBusWrapper32DBUSSignal_CurrentCountryChangedERKSs
04c1a82c T _ZN4DBus21C_BCM_BRO_DBusWrapper27DBUSSignal_GetHomePageReadyERKSs
04c1a9b0 T _ZN4DBus21C_BCM_BRO_DBusWrapper32CDDSignal_NewStatusCodeAvailableEbRKSs
04c1b724 T _ZN4DBus21C_BCM_BRO_DBusWrapper28DBUS_SetLastOpenedPageStatusEbRKSs
04c1b7c8 T _ZN4DBus21C_BCM_BRO_DBusWrapper29DBUSSignal_CurrentCityChangedERKSs
04c1b94c T _ZN7Manager17C_BCM_BRO_Manager21EnqueueErrorProtectedERKN10BRO_Common18C_BCM_ErrorHandlerE
04c1b954 T _ZN7Manager17C_BCM_BRO_Manager25GetLastPageLoadSuccessfulERb
04c1b960 T _ZN7Manager17C_BCM_BRO_Manager25SetLastPageLoadSuccessfulEb
04c1b968 T _ZNK7Manager17C_BCM_BRO_Manager16IsRamSizeLimitedEv
04c1b998 T _ZN7Manager17C_BCM_BRO_Manager23DBUS_DeleteAllBookmarksEv
04c1b9c8 T _ZN7Manager17C_BCM_BRO_Manager26DBUS_DeleteAllVisitedSitesEv
04c1b9f8 T _ZN7Manager17C_BCM_BRO_Manager28DBUS_GetInternetAvailabilityERbS1_
04c1ba28 T _ZN7Manager17C_BCM_BRO_Manager27DBUS_RestoreFactorySettingsEv
04c1ba58 T _ZN7Manager17C_BCM_BRO_Manager28DBUS_GetLastOpenedPageStatusERbRSs
04c1ba88 T _ZNK7Manager17C_BCM_BRO_Manager12ReadTripDataEiRiRbS1_S2_S1_S2_
04c1babc T _ZN7Manager17C_BCM_BRO_Manager21ManageTripDataChangedEi
04c1bb6c T _ZNK7Manager17C_BCM_BRO_Manager16ReadInstTripDataERiRbS1_S2_
04c1bba0 T _ZN7Manager17C_BCM_BRO_Manager25ManageInstTripDataChangedEv
04c1bc28 T _ZNK7Manager17C_BCM_BRO_Manager16ReadDrivingStateERb
04c1bc5c T _ZNK7Manager17C_BCM_BRO_Manager13ReadInstSpeedERi
04c1bc90 T _ZN7Manager17C_BCM_BRO_Manager22ManageInstSpeedChangedEv
04c1bd58 T _ZN7Manager17C_BCM_BRO_Manager15ReadFaviconPathERSs
04c1bd8c T _ZN7Manager17C_BCM_BRO_Manager12ReadUniverseERi
04c1bdc0 T _ZN7Manager17C_BCM_BRO_Manager14ReadSupplierIdERSs
04c1bdf4 T _ZN7Manager17C_BCM_BRO_Manager19ReadSoftwareReleaseERSs
04c1be28 T _ZN7Manager17C_BCM_BRO_Manager19ReadHardwareReleaseERSs
04c1be5c T _ZN7Manager17C_BCM_BRO_Manager20DoPostInitializationEv
04c1bf58 T _ZNK7Manager17C_BCM_BRO_Manager9ReadUnitsERN4DBus17E_DBUS_UNITS_FUELERNS1_21E_DBUS_UNITS_DISTANCEERNS1_18E_DBUS_UNITS_SPEEDERNS1_24E_DBUS_UNITS_CONSUMPTIONERb
04c1bf8c T _ZNK7Manager17C_BCM_BRO_Manager8ReadTimeERiS1_Rb
04c1bffc T _ZNK7Manager17C_BCM_BRO_Manager17ReadCurrentStreetERSs
04c1c030 T _ZNK7Manager17C_BCM_BRO_Manager15ReadDestinationERdS1_S1_RSsS2_S2_
04c1c064 T _ZNK7Manager17C_BCM_BRO_Manager16ReadNextWaypointERdS1_S1_RSsS2_S2_
04c1c098 T _ZNK7Manager17C_BCM_BRO_Manager15ReadCurrentCityERSs
04c1c0cc T _ZNK7Manager17C_BCM_BRO_Manager18ReadCurrentCountryERSs
04c1c100 T _ZNK7Manager17C_BCM_BRO_Manager22ReadCurrentCoordinatesERdS1_S1_Rm
04c1c134 T _ZNK7Manager17C_BCM_BRO_Manager18ReadDestinationETAERiS1_
04c1c168 T _ZNK7Manager17C_BCM_BRO_Manager19ReadNextWaypointETAERiS1_
04c1c19c T _ZNK7Manager17C_BCM_BRO_Manager13ReadOffsetUTCERi
04c1c1d0 T _ZNK7Manager17C_BCM_BRO_Manager14ReadMapVersionERSs
04c1c204 T _ZNK7Manager17C_BCM_BRO_Manager12ReadFuelTypeERN4DBus22E_DBUS_UNITS_FUEL_TYPEE
04c1c238 T _ZNK7Manager17C_BCM_BRO_Manager23GetInternetAvailabilityERbS1_
04c1c36c T _ZNK7Manager17C_BCM_BRO_Manager12ReadProxyURLERSs
04c1c3a0 T _ZNK7Manager17C_BCM_BRO_Manager7ReadVINERSs
04c1c3d4 T _ZNK7Manager17C_BCM_BRO_Manager13ReadReinitUrlERSs
04c1c408 T _ZN7Manager17C_BCM_BRO_Manager7DestroyEv
04c1c470 T _ZN7Manager17C_BCM_BRO_Manager14DequeueMessageEv
04c1c518 T _ZN7Manager17C_BCM_BRO_Manager21GetLastPageStatusCodeERSs
04c1c558 T _ZN7Manager17C_BCM_BRO_ManagerD2Ev
04c1c7c8 T _ZN7Manager17C_BCM_BRO_Manager4InitEv
04c1cc80 T _ZN7Manager17C_BCM_BRO_Manager21SetLastPageStatusCodeERKSs
04c1cea4 T _ZN7Manager17C_BCM_BRO_ManagerD0Ev
04c1d1a4 T _ZN7Manager17C_BCM_BRO_ManagerC1Ev
04c1d470 T _ZN7Manager17C_BCM_BRO_Manager9getHandleEv
04c1d508 T _ZN7Manager17C_BCM_BRO_ManagerC2Ev
04c1d7d4 T _ZN7Manager17C_BCM_BRO_Manager14EnqueueMessageERKN10BRO_Common17C_BCM_BRO_MessageE
04c1d808 T _ZN7Manager17C_BCM_BRO_Manager13HandleMessageERKN10BRO_Common17C_BCM_BRO_MessageE
04c1f69c T _ZN7Manager17C_BCM_BRO_Manager10HandleTickEv
04c206ac T _ZN7Manager17C_BCM_BRO_ManagerD1Ev
04c209d4 T _ZNK10BRO_Common17C_BCM_BRO_Message14GetMessageTypeEv
04c209dc T _ZNK10BRO_Common17C_BCM_BRO_Message3getERKSsRd
04c20a0c T _ZNK10BRO_Common17C_BCM_BRO_Message3getERKSsRm
04c20a3c T _ZNK10BRO_Common17C_BCM_BRO_Message3getERKSsRSs
04c20a6c T _ZNK10BRO_Common17C_BCM_BRO_Message3getERKSsRb
04c20a9c T _ZNK10BRO_Common17C_BCM_BRO_Message3getERKSsRi
04c20acc T _ZN10BRO_Common17C_BCM_BRO_MessageC1Ev
04c20b04 T _ZN10BRO_Common17C_BCM_BRO_MessageC2Ev
04c20b3c T _ZN10BRO_Common17C_BCM_BRO_MessageC1ENS_14E_MESSAGE_TYPEE
04c20b70 T _ZN10BRO_Common17C_BCM_BRO_MessageC2ENS_14E_MESSAGE_TYPEE
04c20ba4 T _ZN10BRO_Common17C_BCM_BRO_MessageD1Ev
04c20d78 T _ZN10BRO_Common17C_BCM_BRO_MessageD2Ev
04c20fc4 T _ZN10BRO_Common17C_BCM_BRO_MessageC1ENS_14E_MESSAGE_TYPEERKNS_13ContentValuesE
04c20ffc T _ZN10BRO_Common17C_BCM_BRO_MessageC2ENS_14E_MESSAGE_TYPEERKNS_13ContentValuesE
04c21034 T _ZNK10BRO_Common17C_BCM_BRO_Message8toStringEv
04c22084 T _ZN8Executor19C_BCM_BRO_Messenger11SendMessageERKN10BRO_Common17C_BCM_BRO_MessageE
04c221b8 T _ZN8Executor19C_BCM_BRO_Messenger11SendMessageERN10BRO_Common14E_MESSAGE_TYPEE
04c22230 T _ZN8Executor13C_BCM_Browser6UnlockEv
04c22260 T _ZN8Executor13C_BCM_Browser4LockEv
04c22290 T _ZN8Executor13C_BCM_Browser11DeleteTimerERP7C_Timer
04c222fc T _ZN8Executor13C_BCM_Browser9StopTimerEP7C_Timer
04c22370 T _ZN8Executor13C_BCM_Browser13StartTimerSecEP7C_Timeri
04c223bc T _ZN8Executor13C_BCM_Browser12startPollingEv
04c22448 T _ZN8Executor13C_BCM_Browser11CreateTimerERP7C_TimerPFizE
04c22558 T _ZN8Executor13C_BCM_Browser20CheckInternetFoldersEv
04c226b0 T _ZN8Executor13C_BCM_Browser12deleteCachesEv
04c226e4 T _ZN8Executor13C_BCM_Browser27EmitSignalHttpCodeAvailableEv
04c22714 T _ZN8Executor13C_BCM_Browser18DeleteAllBookmarksEv
04c22754 T _ZN8Executor13C_BCM_Browser21DeleteAllVisitedSitesEv
04c22794 T _ZN8Executor13C_BCM_Browser23GetInternetAvailabilityERbS1_
04c227f4 T _ZN8Executor13C_BCM_Browser22RestoreFactorySettingsEv
04c22834 T _ZN8Executor13C_BCM_Browser26restoreFactorySettingCbackEv
04c22870 T _ZN8Executor13C_BCM_Browser23GetLastOpenedPageStatusERbRSs
04c228d0 T _ZN8Executor13C_BCM_Browser17SendActiveMessageENS_25t_bcm_browser_msg_privateE
04c22960 T _ZN8Executor13C_BCM_Browser25GenerateSlowSignalPollingEPS0_
04c22998 T _ZN8Executor13C_BCM_Browser25GenerateFastSignalPollingEPS0_
04c229d0 T _ZN8Executor13C_BCM_Browser8SendTickEv
04c22a5c T _ZN8Executor13C_BCM_Browser13HandleMessageEttsPci
04c22bb8 T _ZN8Executor13C_BCM_Browser12RemoveEventsEv
04c22bf0 T _ZN8Executor13C_BCM_Browser14RegisterEventsEv
04c22c30 T _ZN8Executor13C_BCM_Browser3EndEi
04c22d4c T _ZN8Executor13C_BCM_Browser4InitEv
04c22e7c T _ZN8Executor13C_BCM_Browser7StartUpEv
04c22f18 T _ZN8Executor13C_BCM_BrowserD2Ev
04c22fc8 T _ZN8Executor13C_BCM_BrowserC1Ev
04c23088 T _ZN8Executor13C_BCM_Browser8InstanceEv
04c23158 T _ZN8Executor13C_BCM_BrowserC2Ev
04c23218 T _ZN8Executor13C_BCM_BrowserD1Ev
04c232c8 T _ZN8Executor13C_BCM_BrowserD0Ev
04c23390 T _ZN8Executor13C_BCM_Browser17GetFlashCachePathEv
04c23a50 T _ZN19C_BCM_DC_BRW_CLIENTC2EPKcS1_
04c23b04 T _ZN19C_BCM_DC_BRW_CLIENTD1Ev
04c23bac T _ZN19C_BCM_DC_BRW_CLIENTC1EPKcS1_
04c23c60 T _ZN19C_BCM_DC_BRW_CLIENTD2Ev
04c23d08 T _ZN19C_BCM_DC_BRW_CLIENTD0Ev
04c23dc4 T _ZN19C_BCM_DC_BRW_CLIENT17date_time_changedERKN4DBus6StructIhhthtbNS0_7InvalidES2_S2_S2_EERKNS1_IhhbhbblbS2_S2_EERKl
04c250c8 T _ZN22C_BCM_Drive_BRW_CLIENTC2EPKcS1_
04c2517c T _ZN22C_BCM_Drive_BRW_CLIENTD1Ev
04c25224 T _ZN22C_BCM_Drive_BRW_CLIENTC1EPKcS1_
04c252d8 T _ZN22C_BCM_Drive_BRW_CLIENTD2Ev
04c25380 T _ZN22C_BCM_Drive_BRW_CLIENTD0Ev
04c2543c T _ZN22C_BCM_Drive_BRW_CLIENT18SystemUnitsChangedERKN4DBus6StructIllllNS0_7InvalidES2_S2_S2_S2_S2_EERKb
04c26744 T _ZNK10BRO_Common18C_BCM_ErrorHandler14GetErrorHeaderEv
04c2674c T _ZNK10BRO_Common18C_BCM_ErrorHandler12GetErrorDateEv
04c26754 T _ZN10BRO_Common18C_BCM_ErrorHandlerD1Ev
04c267d8 T _ZNK10BRO_Common18C_BCM_ErrorHandler19GetErrorDescriptionEv
04c26a28 T _ZN10BRO_Common18C_BCM_ErrorHandlerD2Ev
04c26aac T _ZN10BRO_Common18C_BCM_ErrorHandlerC2ENS_8E_STATUSE
04c26b9c T _ZN10BRO_Common18C_BCM_ErrorHandlerC1ENS_8E_STATUSE
04c26c8c T _ZN21C_BCM_NAVI_BRW_CLIENTC2EPKcS1_
04c26e58 T _ZN21C_BCM_NAVI_BRW_CLIENTC1EPKcS1_
04c27024 T _ZN21C_BCM_NAVI_BRW_CLIENTD1Ev
04c27240 T _ZN21C_BCM_NAVI_BRW_CLIENTD2Ev
04c2745c T _ZN21C_BCM_NAVI_BRW_CLIENTD0Ev
04c2768c T _ZN21C_BCM_NAVI_BRW_CLIENT10gps_signalERKlS1_
04c27d58 T _ZN21C_BCM_NAVI_BRW_CLIENT9ri_signalERKl
04c2845c T _ZN21C_BCM_NAVI_BRW_CLIENT9rg_signalERKl
04c28afc T _ZN19C_BCM_NA_BRW_CLIENTD2Ev
04c28b40 T _ZN19C_BCM_NA_BRW_CLIENTC1EPKcS1_
04c28b9c T _ZN19C_BCM_NA_BRW_CLIENTC2EPKcS1_
04c28bf8 T _ZN19C_BCM_NA_BRW_CLIENTD0Ev
04c28c5c T _ZN19C_BCM_NA_BRW_CLIENTD1Ev
04c28ca0 T _ZN19C_BCM_NA_BRW_CLIENT16InstSpeedChangedERKtRKb
04c293b4 T _ZN20C_BCM_NVI_BRW_CLIENTC2EPKcS1_
04c29418 T _ZN20C_BCM_NVI_BRW_CLIENTC1EPKcS1_
04c2947c T _ZN20C_BCM_NVI_BRW_CLIENTD2Ev
04c294cc T _ZN20C_BCM_NVI_BRW_CLIENTD0Ev
04c2953c T _ZN20C_BCM_NVI_BRW_CLIENTD1Ev
04c2958c T _ZN20C_BCM_NVI_BRW_CLIENT28InstantaneousTripDataChangedERKN4DBus6StructItbmbmbmbNS0_7InvalidES2_EE
04c299ac T _ZN20C_BCM_NVI_BRW_CLIENT15TripDataChangedERKlRKN4DBus6StructItbtbmbtbNS2_7InvalidES4_EE
04c2a1ac T _ZN19C_BCM_UP_BRW_CLIENTD1Ev
04c2a1f0 T _ZN19C_BCM_UP_BRW_CLIENTC1EPKcS1_
04c2a24c T _ZN19C_BCM_UP_BRW_CLIENTC2EPKcS1_
04c2a2a8 T _ZN19C_BCM_UP_BRW_CLIENTD2Ev
04c2a2ec T _ZN19C_BCM_UP_BRW_CLIENTD0Ev
04c2a350 T _ZN16BRO_Configurator13SelectRequest15setOrderingTypeENS0_15E_ORDERING_TYPEE
04c2a358 T _ZN16BRO_Configurator13SelectRequest8setLimitEi
04c2a360 T _ZN16BRO_Configurator13SelectRequest9setOffsetEi
04c2a368 T _ZNK10BRO_Common13ContentValues4sizeEv
04c2a398 T _ZNK10BRO_Common13ContentValues5emptyEv
04c2a4d8 T _GLOBAL__D__ZN16BRO_Configurator14GenericRequestC2Ev
04c2a510 T _GLOBAL__I__ZN16BRO_Configurator14GenericRequestC2Ev
04c2a548 T _ZN10BRO_Common13ContentValues5clearEv
04c2a5f0 T _ZN16BRO_Configurator14GenericRequestD0Ev
04c2a674 T _ZN16BRO_Configurator14GenericRequestD1Ev
04c2a6e4 T _ZN16BRO_Configurator14GenericRequestD2Ev
04c2a754 T _ZN16BRO_Configurator13DeleteRequest4InitERKSsS2_
04c2aa54 T _ZN10BRO_Common13ContentValues12stringToDateERKSs
04c2af04 T _ZN16BRO_Configurator13SelectRequest18addOrderingElementERKSs
04c2afd4 T _ZNK10BRO_Common13ContentValues3getERKSsRm
04c2b21c T _ZNK10BRO_Common13ContentValues3getERKSsRb
04c2b4b4 T _ZNK10BRO_Common13ContentValues3getEiRd
04c2b6b8 T _ZNK10BRO_Common13ContentValues3getEiRi
04c2b8e8 T _ZNK10BRO_Common13ContentValues6typeAtEi
04c2b95c T _ZNK10BRO_Common13ContentValues3getERKSsRSs
04c2bbd4 T _ZNK10BRO_Common13ContentValues6getKeyEi
04c2bc98 T _ZN16BRO_Configurator13UpdateRequest4InitERKSsS2_
04c2c0b4 T _ZN16BRO_Configurator13InsertRequest4InitERKSs
04c2c4b0 T _ZN10BRO_Common13ContentValues12dateToStringEm
04c2c560 T _ZNK16BRO_Configurator14GenericRequest8toStringEv
04c2c5c0 T _ZNK16BRO_Configurator14GenericRequest7getTypeEP12sqlite3_stmti
04c2cb44 T _ZNK10BRO_Common13ContentValues3getEiRSs
04c2cd78 T _ZNK10BRO_Common13ContentValues3getERKSsRi
04c2cfb8 T _ZN10BRO_Common13ContentValues3setERKSsb
04c2d264 T _ZN10BRO_Common13ContentValues3setERKSsi
04c2d4a0 T _ZN10BRO_Common13ContentValues3addERKSs
04c2d560 T _ZN10BRO_Common13ContentValues3addERKSsS2_
04c2d6e8 T _ZN10BRO_Common13ContentValues3addERKSsPKc
04c2d778 T _ZN10BRO_Common13ContentValues3addERKSsi
04c2d8bc T _ZN10BRO_Common13ContentValues3setERKSsd
04c2db0c T _ZNK10BRO_Common13ContentValues3getERKSsRd
04c2dd60 T _ZN10BRO_Common13ContentValues3addERKSsm
04c2deb4 T _ZN10BRO_Common13ContentValuesC2ERKSsPKc
04c2dfa4 T _ZN10BRO_Common13ContentValues3addERKSsd
04c2e0f8 T _ZN10BRO_Common13ContentValues3setERKSsm
04c2e348 T _ZNK10BRO_Common13ContentValues3getEiRm
04c2e54c T _ZNK10BRO_Common13ContentValues3getEiRb
04c2e75c T _ZNK10BRO_Common13ContentValues13valueToStringEi
04c2f3e8 T _ZN16BRO_Configurator14GenericRequest10bindValuesEP12sqlite3_stmtRKN10BRO_Common13ContentValuesE
04c2f784 T _ZN16BRO_Configurator13SelectRequest13HandleBindingEP12sqlite3_stmt
04c2f800 T _ZN16BRO_Configurator13DeleteRequest13HandleBindingEP12sqlite3_stmt
04c2f87c T _ZN16BRO_Configurator13UpdateRequest13HandleBindingEP12sqlite3_stmt
04c2f90c T _ZN16BRO_Configurator13InsertRequest13HandleBindingEP12sqlite3_stmt
04c2f940 T _ZN10BRO_Common13ContentValues3setERKSsS2_
04c2fb90 T _ZN10BRO_Common13ContentValuesC1ERKSsi
04c2fc68 T _ZN10BRO_Common13ContentValuesC2Ev
04c2fcf4 T _ZN10BRO_Common13ContentValuesC2ERKSsm
04c2fddc T _ZN10BRO_Common13ContentValuesC2ERKSsS2_
04c2febc T _ZN10BRO_Common13ContentValuesC1ERKSsPKc
04c2ff9c T _ZN10BRO_Common13ContentValuesC1ERKSsd
04c3006c T _ZN10BRO_Common13ContentValuesC2ERKSsd
04c3014c T _ZN10BRO_Common13ContentValuesC2ERKSsi
04c3022c T _ZN10BRO_Common13ContentValuesC1ERKSsm
04c3030c T _ZN10BRO_Common13ContentValuesC1ERKSsS2_
04c303ec T _ZN10BRO_Common13ContentValuesC1Ev
04c30490 T _ZN16BRO_Configurator14GenericRequestC1Ev
04c30504 T _ZN16BRO_Configurator14GenericRequestC2Ev
04c30578 T _ZN16BRO_Configurator13SelectRequestC1ERKSsS2_RSt6vectorIN10BRO_Common13ContentValuesESaIS5_EES2_RKS5_
04c306bc T _ZN16BRO_Configurator13SelectRequestC2ERKSsS2_RSt6vectorIN10BRO_Common13ContentValuesESaIS5_EES2_RKS5_
04c30800 T _ZN16BRO_Configurator13SelectRequestC1ERKSsRKSt6vectorISsSaISsEERS3_IN10BRO_Common13ContentValuesESaIS9_EES2_RKS9_
04c30998 T _ZN16BRO_Configurator13SelectRequestC2ERKSsRKSt6vectorISsSaISsEERS3_IN10BRO_Common13ContentValuesESaIS9_EES2_RKS9_
04c30c00 T _ZN16BRO_Configurator13DeleteRequestC1ERKSsS2_RKN10BRO_Common13ContentValuesE
04c30c9c T _ZN16BRO_Configurator13DeleteRequestC2ERKSsS2_RKN10BRO_Common13ContentValuesE
04c30d38 T _ZN16BRO_Configurator13UpdateRequestC1ERKSsRKN10BRO_Common13ContentValuesES2_S6_
04c30df8 T _ZN16BRO_Configurator13UpdateRequestC2ERKSsRKN10BRO_Common13ContentValuesES2_S6_
04c30eb8 T _ZN16BRO_Configurator13InsertRequestC1ERKSsRKN10BRO_Common13ContentValuesE
04c30f44 T _ZN16BRO_Configurator13InsertRequestC2ERKSsRKN10BRO_Common13ContentValuesE
04c30fd0 T _ZN16BRO_Configurator13SelectRequest4InitEv
04c31a30 T _ZNK10BRO_Common13ContentValues8toStringEv
04c31f0c T _ZN10BRO_Common13ContentValues3addERKSsb
04c324d8 T _ZN10BRO_Common13ContentValuesC1ERKSsb
04c325b8 T _ZN10BRO_Common13ContentValuesC2ERKSsb
04c326a0 T _ZN16BRO_Configurator13SelectRequest14HandleResponseEP12sqlite3_stmt
04c32a9c T _ZN8Executor21C_BCM_CON_Cheat_CodesC2Ev
04c32aac T _ZN8Executor21C_BCM_CON_Cheat_CodesC1Ev
04c32abc T _ZN8Executor21C_BCM_CON_Cheat_Codes10CustomPingEPc
04c32b14 T _ZN8Executor21C_BCM_CON_Cheat_Codes16NetinfoCheatCodeER9CMMString
04c32ce0 T _ZN8Executor21C_BCM_CON_Cheat_Codes13PingCheatCodeERKSsiR9CMMString
04c32f20 T _ZN8Executor21C_BCM_CON_Cheat_CodesD0Ev
04c32f58 T _ZN8Executor21C_BCM_CON_Cheat_CodesD1Ev
04c32f68 T _ZN8Executor21C_BCM_CON_Cheat_CodesD2Ev
04c33010 T _GLOBAL__I__ZN8Executor21C_BCM_CON_Cheat_CodesC2Ev
04c33048 T _ZN12Configurator22C_BCM_CON_ConfiguratorC2Ev
04c33060 T _ZN12Configurator22C_BCM_CON_Configurator7DestroyEv
04c330b4 T _ZN12Configurator22C_BCM_CON_Configurator13HandleMessageERKN6Common17C_BCM_CON_MessageE
04c330bc T _ZN12Configurator22C_BCM_CON_ConfiguratorD2Ev
04c330cc T _ZN12Configurator22C_BCM_CON_Configurator24SaveConnectivityDatabaseEv
04c331a0 T _ZN12Configurator22C_BCM_CON_Configurator4InitEv
04c33348 T _GLOBAL__I__ZN12Configurator22C_BCM_CON_ConfiguratorC2Ev
04c33380 T _ZN12Configurator22C_BCM_CON_ConfiguratorC1Ev
04c33398 T _ZN12Configurator22C_BCM_CON_ConfiguratorD0Ev
04c333d0 T _ZN12Configurator22C_BCM_CON_ConfiguratorD1Ev
04c333e0 T _ZN12Configurator22C_BCM_CON_Configurator8sWifiNetC2Ev
04c3344c T _ZNK12Configurator22C_BCM_CON_Configurator8sWifiNet8toStringEv
04c34518 T _ZN12Configurator22C_BCM_CON_Configurator8sWifiNetC1Ev
04c34584 T _ZN12Configurator22C_BCM_CON_Configurator17clearWifiNetworksEv
04c346c0 T _ZN12Configurator22C_BCM_CON_Configurator14addWifiNetworkERKNS0_8sWifiNetE
04c348ac T _ZN12Configurator22C_BCM_CON_Configurator10setProfileERKN6Common9Profile_tE
04c35540 T _ZN12Configurator22C_BCM_CON_Configurator17setRoamingAllowedEN6Common13E_DEVICE_TYPEEb
04c3573c T _ZN12Configurator22C_BCM_CON_Configurator17setDevicePriorityERA5_KN6Common13E_DEVICE_TYPEE
04c35b60 T _ZN12Configurator22C_BCM_CON_Configurator17updatePinAttemptsERKSsi
04c35d5c T _ZN12Configurator22C_BCM_CON_Configurator15removeStoredPinERKSs
04c35ee8 T _ZN12Configurator22C_BCM_CON_Configurator18setDeviceUsabilityEN6Common13E_DEVICE_TYPEEb
04c360e4 T _ZN12Configurator22C_BCM_CON_Configurator15getWifiNetworksERSt6vectorINS0_8sWifiNetESaIS2_EE
04c366c4 T _ZNK12Configurator22C_BCM_CON_Configurator17getDevicePriorityERA5_N6Common13E_DEVICE_TYPEE
04c36a8c T _ZNK12Configurator22C_BCM_CON_Configurator14getPinAttemptsERKSsRi
04c36d78 T _ZNK12Configurator22C_BCM_CON_Configurator19getWifiNetworkPowerERKSsRi
04c37020 T _ZNK12Configurator22C_BCM_CON_Configurator10getProfileERN6Common9Profile_tE
04c38be8 T _ZNK12Configurator22C_BCM_CON_Configurator17getRoamingAllowedEN6Common13E_DEVICE_TYPEERb
04c38e90 T _ZN12Configurator22C_BCM_CON_Configurator17updatePukAttemptsERKSsb
04c393ac T _ZN12Configurator22C_BCM_CON_Configurator17updatePinAttemptsERKSsb
04c398e8 T _ZNK12Configurator22C_BCM_CON_Configurator12getStoredPinERKSsRSs
04c39c00 T _ZN12Configurator22C_BCM_CON_Configurator12setStoredPinERKSsS2_
04c3a05c T _ZNK12Configurator22C_BCM_CON_Configurator18getDeviceUsabilityEN6Common13E_DEVICE_TYPEERb
04c3a348 T _ZN12Configurator22C_BCM_CON_Configurator25setConnectionDataTransferEii
04c3a5dc T _ZN12Configurator22C_BCM_CON_Configurator25getConnectionDataTransferERiS1_
04c3aa68 T _ZN12Configurator22C_BCM_CON_Configurator11EmptyErrorsEv
04c3ac18 T _ZN12Configurator22C_BCM_CON_Configurator22restoreFactorySettingsEv
04c3c4a0 T _ZNK12Configurator22C_BCM_CON_Configurator14getPukAttemptsERKSsRi
04c3c83c T _ZNK9Connector19C_BCM_CON_Connector19Get3GConnectionTypeERN6Common14E_3G_CONN_TYPEE
04c3c844 T _ZNK9Connector19C_BCM_CON_Connector16Get3GNetworkNameERSs
04c3c84c T _ZN9Connector19C_BCM_CON_Connector6SetPINERKSs
04c3c854 T _ZN9Connector19C_BCM_CON_Connector11Get3GStatusERN6Common18E_3G_DEVICE_STATUSE
04c3c85c T _ZN9Connector19C_BCM_CON_Connector6SetPUKERKSs
04c3c864 T _ZNK9Connector19C_BCM_CON_Connector8GetStateEv
04c3c86c T _ZN9Connector19C_BCM_CON_Connector14UpdateWiFiListERSt4listIN12Configurator22C_BCM_CON_Configurator8sWifiNetESaIS4_EE
04c3c874 T _ZNK9Connector19C_BCM_CON_Connector17GetWifiMACAddressERSs
04c3c87c T _ZN9Connector19C_BCM_CON_Connector14Create3gDeviceEv
04c3c884 T _ZN9Connector19C_BCM_CON_Connector16CreateWiFiDeviceEv
04c3c88c T _ZNK9Connector19C_BCM_CON_Connector26GetConnectedDeviceInstanceEPPNS_23C_BCM_CON_GenericDriverE
04c3c8a8 T _ZNK9Connector19C_BCM_CON_Connector18FindAttachedDeviceEN6Common13E_DEVICE_TYPEEPPNS_23C_BCM_CON_GenericDriverE
04c3c978 T _ZNK9Connector19C_BCM_CON_Connector16GetSignalQualityEN6Common13E_DEVICE_TYPEERi
04c3c9d4 T _ZNK9Connector19C_BCM_CON_Connector13GetStatisticsERNS_12statistics_sE
04c3caa0 T _ZNK9Connector19C_BCM_CON_Connector18GetConnectedDeviceERN6Common13E_DEVICE_TYPEE
04c3cb08 T _ZN9Connector19C_BCM_CON_Connector17SetRoamingAllowedEb
04c3cb14 T _ZNK9Connector19C_BCM_CON_Connector10Get3GSimIdERSs
04c3cb1c T _ZN9Connector12statistics_sC2Emmmmm
04c3cb34 T _ZN9Connector12statistics_sC1Emmmmm
04c3cb4c T _ZNK9Connector19C_BCM_CON_Connector16IsDeviceAttachedEN6Common13E_DEVICE_TYPEE
04c3cbf4 T _ZN9Connector19C_BCM_CON_Connector15DoDestroyDeviceEN6Common13E_DEVICE_TYPEE
04c3cd20 T _ZN9Connector19C_BCM_CON_Connector24ResetInterfaceStatisticsEv
04c3ce40 T _ZN9Connector19C_BCM_CON_Connector13SuspendPMSKeyEv
04c3cea4 T _ZN9Connector19C_BCM_CON_Connector23DUNDestroyPPPConnectionEv
04c3cefc T _ZN9Connector19C_BCM_CON_Connector12updatePPPDNSEv
04c3d008 T _ZN9Connector19C_BCM_CON_Connector13initializePPPEv
04c3d1c8 T _ZN9Connector19C_BCM_CON_Connector8closePANEv
04c3d238 T _ZN9Connector19C_BCM_CON_Connector7DestroyEv
04c3d288 T _ZN9Connector19C_BCM_CON_Connector13initializePANEv
04c3d318 T _ZN9Connector19C_BCM_CON_Connector9EnablePMSEb
04c3d400 T _ZN9Connector19C_BCM_CON_Connector4InitEv
04c3d4f0 T _GLOBAL__I__ZN9Connector19C_BCM_CON_ConnectorC2Ev
04c3d528 T _ZN9Connector19C_BCM_CON_ConnectorC1Ev
04c3d5b4 T _ZN9Connector19C_BCM_CON_ConnectorC2Ev
04c3d640 T _ZN9Connector19C_BCM_CON_ConnectorD0Ev
04c3d71c T _ZN9Connector19C_BCM_CON_ConnectorD2Ev
04c3d7ec T _ZN9Connector19C_BCM_CON_ConnectorD1Ev
04c3d8bc T _ZN9Connector19C_BCM_CON_Connector14CreateBTDeviceEv
04c3daf8 T _ZN9Connector19C_BCM_CON_Connector19CreateUSB_CDCDeviceEv
04c3dda8 T _ZN9Connector19C_BCM_CON_Connector14DoCreateDeviceEN6Common13E_DEVICE_TYPEE
04c3de5c T _ZN9Connector19C_BCM_CON_Connector17CreateBTPANDeviceEv
04c3eeb8 T _ZN9Connector19C_BCM_CON_Connector11ChangeStateENS_17E_CONNECTOR_STATEE
04c3f3a8 T _ZN9Connector19C_BCM_CON_Connector18DoConnectionFailedEv
04c3f3d8 T _ZN9Connector19C_BCM_CON_Connector12DoDisconnectEv
04c3f450 T _ZN9Connector19C_BCM_CON_Connector10DisconnectEv
04c3f47c T _ZN9Connector19C_BCM_CON_Connector16WaitToDisconnectEv
04c3f4b0 T _ZN9Connector19C_BCM_CON_Connector13WaitToConnectERKN6Common9Profile_tE
04c3f4e4 T _ZN9Connector19C_BCM_CON_Connector9DoConnectERKN6Common9Profile_tE
04c3f588 T _ZN9Connector19C_BCM_CON_Connector14DoDisconnectedEv
04c3f614 T _ZN9Connector19C_BCM_CON_Connector7ConnectERN6Common9Profile_tE
04c3f77c T _ZN9Connector19C_BCM_CON_Connector11DoReconnectERN6Common9Profile_tE
04c3f808 T _ZN9Connector19C_BCM_CON_Connector23DoConnectionEstablishedEPNS_23C_BCM_CON_GenericDriverE
04c3f918 T _ZNK9Connector12statistics_s8toStringEv
04c3fe98 T _ZN9Connector19C_BCM_CON_Connector13HandleMessageERKN6Common17C_BCM_CON_MessageE
04c41148 T _ZN7Manager21C_BCM_CON_DbusHandler11HandleErrorEN6Common8E_STATUSE
04c411bc T _ZN7Manager21C_BCM_CON_DbusHandler22DBUS_GetWifiMACAddressERSs
04c41230 T _ZN7Manager21C_BCM_CON_DbusHandler21DBUS_IsDeviceAttachedENS_18E_DBUS_DEVICE_TYPEERb
04c4128c T _ZN7Manager21C_BCM_CON_DbusHandlerD0Ev
04c412e4 T _ZN7Manager21C_BCM_CON_DbusHandlerD1Ev
04c4131c T _ZN7Manager21C_BCM_CON_DbusHandlerD2Ev
04c41354 T _ZN7Manager21C_BCM_CON_DbusHandlerC1Ev
04c41398 T _ZN7Manager21C_BCM_CON_DbusHandlerC2Ev
04c413dc T _ZN7Manager21C_BCM_CON_DbusHandler23DBUS_GetConnectionStateERNS_23E_DBUS_CONNECTION_STATEE
04c41460 T _ZN7Manager21C_BCM_CON_DbusHandler27DBUS_GetWifiConnectionStateERNS_23E_DBUS_CONNECTION_STATEE
04c414fc T _ZN7Manager21C_BCM_CON_DbusHandler26DBUS_GetDunConnectionStateERNS_23E_DBUS_CONNECTION_STATEE
04c41598 T _ZN7Manager21C_BCM_CON_DbusHandler33DBUS_GetModem3GKeyConnectionStateERNS_23E_DBUS_CONNECTION_STATEE
04c416cc T _GLOBAL__I__ZN7Manager21C_BCM_CON_DbusHandlerC2Ev
04c41704 T _ZN7Manager21C_BCM_CON_DbusHandler28DBUS_RenotifyDevicesAttachedEv
04c4177c T _ZN7Manager21C_BCM_CON_DbusHandler27DBUS_RestoreFactorySettingsEv
04c417f4 T _ZN7Manager21C_BCM_CON_DbusHandler32DBUS_SetModem3GKeyRoamingAllowedEb
04c418e0 T _ZN7Manager21C_BCM_CON_DbusHandler29DBUS_GetModem3GKeyNetworkNameEv
04c41958 T _ZN7Manager21C_BCM_CON_DbusHandler32DBUS_GetModem3GKeyConnectionTypeEv
04c419d0 T _ZN7Manager21C_BCM_CON_DbusHandler23DBUS_GetDevicesPriorityEv
04c41a48 T _ZN7Manager21C_BCM_CON_DbusHandler21DBUS_GetSignalQualityEv
04c41ac0 T _ZN7Manager21C_BCM_CON_DbusHandler27DBUS_UpdateWifiNetworksListEv
04c41b38 T _ZN7Manager21C_BCM_CON_DbusHandler30DBUS_ResetConnectionStatisticsEv
04c41bb0 T _ZN7Manager21C_BCM_CON_DbusHandler22DBUS_StopCounterSignalEv
04c41c28 T _ZN7Manager21C_BCM_CON_DbusHandler29DBUS_EnableInternetConnectionEb
04c41d14 T _ZN7Manager21C_BCM_CON_DbusHandler14DBUS_EnablePMSERKb
04c41de4 T _ZN7Manager21C_BCM_CON_DbusHandler22DBUS_SetDevicePriorityERKlS2_S2_
04c41f74 T _ZN7Manager21C_BCM_CON_DbusHandler23DBUS_SetDeviceUsabilityERKlRKb
04c420a8 T _ZN7Manager21C_BCM_CON_DbusHandler17DBUS_PingInternetERKSsih
04c42238 T _ZN7Manager21C_BCM_CON_DbusHandler14DBUS_EnableDunEbi
04c4231c T _ZN7Manager21C_BCM_CON_DbusHandler21DBUS_EnableModem3GKeyEbi
04c42400 T _ZN7Manager21C_BCM_CON_DbusHandler22DBUS_SaveModem3GKeyPinERKSs
04c424d0 T _ZN7Manager21C_BCM_CON_DbusHandler21DBUS_SetModem3GKeyPukERKSs
04c425a0 T _ZN7Manager21C_BCM_CON_DbusHandler21DBUS_SetModem3GKeyPinERKSsb
04c42684 T _ZN7Manager21C_BCM_CON_DbusHandler23DBUS_StartCounterSignalEi
04c42754 T _ZN7Manager21C_BCM_CON_DbusHandler18DBUS_SetDUNProfileERKSsS2_S2_RKbS2_S2_
04c429e8 T _ZN7Manager21C_BCM_CON_DbusHandler20DBUS_Set3GKeyProfileERKSsS2_S2_S2_RKbS2_S2_S4_S4_S4_S2_b
04c42e20 T _ZN7Manager21C_BCM_CON_DbusHandler19DBUS_SetWifiProfileERKSsRKlS4_S2_RKbS2_S2_S2_S6_S2_S2_S6_
04c43250 T _ZN7Manager21C_BCM_CON_DbusHandler25DBUS_EnableWifiConnectionERKSsS2_
04c43384 T _ZN7Manager21C_BCM_CON_DbusHandler23DBUS_Enable3GConnectionERKSs
04c43454 T _ZN7Manager21C_BCM_CON_DbusHandler22DBUSSignal_SaveSuccessERKl
04c435fc T _ZN7Manager21C_BCM_CON_DbusHandler24DBUSSignal_3GNetworkNameERKSs
04c437a4 T _ZN7Manager21C_BCM_CON_DbusHandler29DBUSSignal_Set3GKeyPukSuccessERKbRKm
04c43960 T _ZN7Manager21C_BCM_CON_DbusHandler31DBUSSignal_BCMConnectivityErrorEi
04c43b00 T _ZN7Manager21C_BCM_CON_DbusHandler32DBUSSignal_ConnectionStateChangeENS_18E_DBUS_DEVICE_TYPEENS_23E_DBUS_CONNECTION_STATEE
04c43cac T _ZN7Manager21C_BCM_CON_DbusHandler29DBUSSignal_Set3GKeyPinSuccessERKbRKm
04c43e68 T _ZN7Manager21C_BCM_CON_DbusHandler24DBUSSignal_SignalQualityERKl
04c44010 T _ZN7Manager21C_BCM_CON_DbusHandler33DBUSSignal_Modem3GKeyPINRequestedEv
04c441a4 T _ZN7Manager21C_BCM_CON_DbusHandler33DBUSSignal_Modem3GKeyPUKRequestedEv
04c44338 T _ZN7Manager21C_BCM_CON_DbusHandler25DBUSSignal_DeviceAttachedENS_18E_DBUS_DEVICE_TYPEEb
04c444e0 T _ZN7Manager21C_BCM_CON_DbusHandler28DBUSSignal_NetworkStatisticsEiii
04c446a4 T _ZN7Manager21C_BCM_CON_DbusHandler27DBUSSignal_3GConnectionTypeERKl
04c4484c T _ZN7Manager21C_BCM_CON_DbusHandler26DBUSSignal_DevicesPriorityERKlS2_S2_
04c44a1c T _ZN7Manager21C_BCM_CON_DbusHandler21DBUSSignal_PingResultERKbRKm
04c44bd8 T _ZN28C_BCM_CON_DbusHandler_CLIENTD1Ev
04c44c1c T _ZN28C_BCM_CON_DbusHandler_CLIENTC1EPKcS1_
04c44c78 T _ZN28C_BCM_CON_DbusHandler_CLIENTC2EPKcS1_
04c44cd4 T _ZN28C_BCM_CON_DbusHandler_CLIENTD2Ev
04c44d18 T _ZN28C_BCM_CON_DbusHandler_CLIENTD0Ev
04c44d7c T _ZN28C_BCM_CON_DbusHandler_SERVER30DBUS_ResetConnectionStatisticsEv
04c44dcc T _ZN28C_BCM_CON_DbusHandler_SERVER18DBUS_SetDUNProfileERKSsS1_S1_RKbS1_S1_
04c44e7c T _ZN28C_BCM_CON_DbusHandler_SERVER14DBUS_EnablePMSERKb
04c44edc T _ZN28C_BCM_CON_DbusHandler_SERVER28DBUS_RenotifyDevicesAttachedEv
04c44f2c T _ZN28C_BCM_CON_DbusHandler_SERVER27DBUS_RestoreFactorySettingsEv
04c44f7c T _ZN28C_BCM_CON_DbusHandler_SERVER22DBUS_GetWifiMACAddressERSs
04c44fdc T _ZN28C_BCM_CON_DbusHandler_SERVER23DBUS_SetDevicesPriorityERKlS1_S1_
04c4505c T _ZN28C_BCM_CON_DbusHandler_SERVER23DBUS_SetDeviceUsabilityERKlRKb
04c450cc T _ZN28C_BCM_CON_DbusHandler_SERVER17DBUS_PingInternetERKSsRKm
04c45140 T _ZN28C_BCM_CON_DbusHandler_SERVER14DBUS_EnableDunERKbRKm
04c451b0 T _ZN28C_BCM_CON_DbusHandler_SERVER26DBUS_GetDunConnectionStateERl
04c45210 T _ZN28C_BCM_CON_DbusHandler_SERVER21DBUS_EnableModem3GKeyERKbRKm
04c45280 T _ZN28C_BCM_CON_DbusHandler_SERVER33DBUS_GetModem3GKeyConnectionStateERl
04c452e0 T _ZN28C_BCM_CON_DbusHandler_SERVER32DBUS_SetModem3GKeyRoamingAllowedERKb
04c45340 T _ZN28C_BCM_CON_DbusHandler_SERVER29DBUS_GetModem3GKeyNetworkNameEv
04c45390 T _ZN28C_BCM_CON_DbusHandler_SERVER32DBUS_GetModem3GKeyConnectionTypeEv
04c453e0 T _ZN28C_BCM_CON_DbusHandler_SERVER23DBUS_GetDevicesPriorityEv
04c45430 T _ZN28C_BCM_CON_DbusHandler_SERVER21DBUS_GetSignalQualityEv
04c45480 T _ZN28C_BCM_CON_DbusHandler_SERVER22DBUS_SaveModem3GKeyPinERKSs
04c454e0 T _ZN28C_BCM_CON_DbusHandler_SERVER21DBUS_SetModem3GKeyPukERKSs
04c45540 T _ZN28C_BCM_CON_DbusHandler_SERVER21DBUS_SetModem3GKeyPinERKSsRKb
04c455b0 T _ZN28C_BCM_CON_DbusHandler_SERVER27DBUS_GetWifiConnectionStateERl
04c45610 T _ZN28C_BCM_CON_DbusHandler_SERVER27DBUS_UpdateWifiNetworksListEv
04c45660 T _ZN28C_BCM_CON_DbusHandler_SERVER22DBUS_StopCounterSignalEv
04c456b0 T _ZN28C_BCM_CON_DbusHandler_SERVER23DBUS_StartCounterSignalERKm
04c45710 T _ZN28C_BCM_CON_DbusHandler_SERVER21DBUS_IsDeviceAttachedERKlRb
04c45780 T _ZN28C_BCM_CON_DbusHandler_SERVER23DBUS_GetConnectionStateERl
04c457e0 T _ZN28C_BCM_CON_DbusHandler_SERVER20DBUS_Set3GKeyProfileERKSsS1_S1_S1_RKbS1_S1_S3_S3_S3_S1_S3_
04c458cc T _ZN28C_BCM_CON_DbusHandler_SERVER19DBUS_SetWifiProfileERKSsRKlS3_S1_RKbS1_S1_S1_S5_S1_S1_S5_
04c459b4 T _ZN28C_BCM_CON_DbusHandler_SERVER25DBUS_EnableWifiConnectionERKSsS1_
04c45a24 T _ZN28C_BCM_CON_DbusHandler_SERVER23DBUS_Enable3GConnectionERKSs
04c45a84 T _ZN28C_BCM_CON_DbusHandler_SERVER29DBUS_EnableInternetConnectionERKb
04c45ae4 T _ZN28C_BCM_CON_DbusHandler_SERVERD1Ev
04c45b88 T _ZN28C_BCM_CON_DbusHandler_SERVERC2EPKcS1_
04c45ccc T _GLOBAL__I__ZN28C_BCM_CON_DbusHandler_SERVERC2EPKcS1_
04c45d04 T _ZN28C_BCM_CON_DbusHandler_SERVERC1EPKcS1_
04c45db0 T _ZN28C_BCM_CON_DbusHandler_SERVERD2Ev
04c45e54 T _ZN28C_BCM_CON_DbusHandler_SERVERD0Ev
04c45f0c T _ZN9Connector25C_BCM_CON_DriverWrapperBT4InitEv
04c45f10 T _ZNK9Connector25C_BCM_CON_DriverWrapperBT15D_GetDeviceTypeEv
04c45f18 T _ZNK9Connector25C_BCM_CON_DriverWrapperBT20getInterfaceCountersERNS_12statistics_sE
04c460bc T _ZNK9Connector25C_BCM_CON_DriverWrapperBT15D_GetStatisticsERNS_12statistics_sE
04c460f4 T _ZN9Connector25C_BCM_CON_DriverWrapperBT18doManageOnlineDataEv
04c4614c T _ZN9Connector25C_BCM_CON_DriverWrapperBTD0Ev
04c461a4 T _ZN9Connector25C_BCM_CON_DriverWrapperBTD1Ev
04c461dc T _ZN9Connector25C_BCM_CON_DriverWrapperBTD2Ev
04c46214 T _ZN9Connector25C_BCM_CON_DriverWrapperBTC1Ev
04c46260 T _ZN9Connector25C_BCM_CON_DriverWrapperBTC2Ev
04c46344 T _GLOBAL__I__ZN9Connector25C_BCM_CON_DriverWrapperBTC2Ev
04c4637c T _ZNK9Connector25C_BCM_CON_DriverWrapperBT13setProfilePPPERKN6Common9Profile_tE
04c46678 T _ZN9Connector25C_BCM_CON_DriverWrapperBT9enablePPPERKN6Common9Profile_tE
04c466d0 T _ZN9Connector25C_BCM_CON_DriverWrapperBT9D_ConnectERKN6Common9Profile_tE
04c46708 T _ZN9Connector25C_BCM_CON_DriverWrapperBT11sendMessageEN6Common14E_MESSAGE_TYPEERKNS1_13ContentValuesE
04c478d0 T _ZN9Connector25C_BCM_CON_DriverWrapperBT23doDUNClosePPPConnectionEv
04c47b60 T _ZN9Connector25C_BCM_CON_DriverWrapperBT3EndEv
04c47bec T _ZN9Connector25C_BCM_CON_DriverWrapperBT12D_DisconnectEv
04c47c24 T _ZN9Connector29C_BCM_CON_DriverWrapperBT_PAN4InitEv
04c47c28 T _ZNK9Connector29C_BCM_CON_DriverWrapperBT_PAN15D_GetDeviceTypeEv
04c47c30 T _ZN9Connector29C_BCM_CON_DriverWrapperBT_PAN3EndEv
04c47c34 T _ZNK9Connector29C_BCM_CON_DriverWrapperBT_PAN15D_GetStatisticsERNS_12statistics_sE
04c47dd8 T _ZN9Connector29C_BCM_CON_DriverWrapperBT_PAN12D_DisconnectEv
04c47eb4 T _ZN9Connector29C_BCM_CON_DriverWrapperBT_PAN9D_ConnectERKN6Common9Profile_tE
04c47f4c T _ZN9Connector29C_BCM_CON_DriverWrapperBT_PAND0Ev
04c47fa4 T _ZN9Connector29C_BCM_CON_DriverWrapperBT_PAND1Ev
04c47fdc T _ZN9Connector29C_BCM_CON_DriverWrapperBT_PAND2Ev
04c48014 T _ZN9Connector29C_BCM_CON_DriverWrapperBT_PANC1Ev
04c48058 T _ZN9Connector29C_BCM_CON_DriverWrapperBT_PANC2Ev
04c48134 T _GLOBAL__I__ZN9Connector29C_BCM_CON_DriverWrapperBT_PANC2Ev
04c4816c T _ZN9Connector29C_BCM_CON_DriverWrapperBT_PAN11sendMessageEN6Common14E_MESSAGE_TYPEERKNS1_13ContentValuesE
04c49334 T _ZN9Connector30C_BCM_CON_DriverWrapperUSB_CDC3EndEv
04c49338 T _ZNK9Connector30C_BCM_CON_DriverWrapperUSB_CDC15D_GetStatisticsERNS_12statistics_sE
04c49358 T _ZNK9Connector30C_BCM_CON_DriverWrapperUSB_CDC15D_GetDeviceTypeEv
04c49360 T _ZNK9Connector30C_BCM_CON_DriverWrapperUSB_CDC18D_GetSignalQualityERi
04c49368 T _ZNK9Connector30C_BCM_CON_DriverWrapperUSB_CDC16D_GetNetworkNameERSs
04c49370 T _ZN9Connector30C_BCM_CON_DriverWrapperUSB_CDC20D_SendSuspendMessageEv
04c4939c T _ZN9Connector30C_BCM_CON_DriverWrapperUSB_CDC12D_DisconnectEv
04c493d4 T _ZN9Connector30C_BCM_CON_DriverWrapperUSB_CDC9D_ConnectERKN6Common9Profile_tE
04c4940c T _ZN9Connector30C_BCM_CON_DriverWrapperUSB_CDCD0Ev
04c49464 T _ZN9Connector30C_BCM_CON_DriverWrapperUSB_CDCD1Ev
04c4949c T _ZN9Connector30C_BCM_CON_DriverWrapperUSB_CDCD2Ev
04c494d4 T _ZN9Connector30C_BCM_CON_DriverWrapperUSB_CDCC1Ev
04c49518 T _ZN9Connector30C_BCM_CON_DriverWrapperUSB_CDCC2Ev
04c495f4 T _GLOBAL__I__ZN9Connector30C_BCM_CON_DriverWrapperUSB_CDCC2Ev
04c4962c T _ZN9Connector30C_BCM_CON_DriverWrapperUSB_CDC11sendMessageEN6Common14E_MESSAGE_TYPEERKNS1_13ContentValuesE
04c4a7f4 T _ZNK6Common22C_BCM_CON_ErrorHandler14GetErrorHeaderEv
04c4a7fc T _ZNK6Common22C_BCM_CON_ErrorHandler12GetErrorDateEv
04c4a89c T _GLOBAL__I__ZN6Common22C_BCM_CON_ErrorHandlerC2ENS_8E_STATUSE
04c4a8d4 T _ZN6Common22C_BCM_CON_ErrorHandlerD2Ev
04c4a958 T _ZN6Common22C_BCM_CON_ErrorHandlerD1Ev
04c4a9dc T _ZNK6Common22C_BCM_CON_ErrorHandler19GetErrorDescriptionEv
04c4ac2c T _ZNK6Common22C_BCM_CON_ErrorHandler8toStringEv
04c4b810 T _ZN6Common22C_BCM_CON_ErrorHandlerC1ENS_8E_STATUSE
04c4b868 T _ZN6Common22C_BCM_CON_ErrorHandlerC2ENS_8E_STATUSE
04c4b8c0 T _ZN9Connector23C_BCM_CON_GenericDriver9D_ConnectERKN6Common9Profile_tE
04c4b8c8 T _ZN9Connector23C_BCM_CON_GenericDriver12D_DisconnectEv
04c4b8d0 T _ZNK9Connector23C_BCM_CON_GenericDriver15D_GetStatisticsERNS_12statistics_sE
04c4b8f0 T _ZNK9Connector23C_BCM_CON_GenericDriver15D_GetDeviceTypeEv
04c4b8f8 T _ZNK9Connector23C_BCM_CON_GenericDriver18D_GetSignalQualityERi
04c4b908 T _ZNK9Connector23C_BCM_CON_GenericDriver16D_GetNetworkNameERSs
04c4b910 T _ZN9Connector23C_BCM_CON_GenericDriver3EndEv
04c4b914 T _ZN9Connector23C_BCM_CON_GenericDriverD0Ev
04c4b96c T _ZN9Connector23C_BCM_CON_GenericDriverD1Ev
04c4b9a4 T _ZN9Connector23C_BCM_CON_GenericDriverD2Ev
04c4b9dc T _ZN9Connector23C_BCM_CON_GenericDriverC1Ev
04c4ba20 T _ZN9Connector23C_BCM_CON_GenericDriverC2Ev
04c4bafc T _GLOBAL__I__ZN9Connector23C_BCM_CON_GenericDriverC2Ev
04c4bb34 T _ZN7Manager17C_BCM_CON_Manager16UpdateStatisticsEii
04c4bb48 T _ZN7Manager17C_BCM_CON_Manager14GetDbusHandlerEv
04c4bb50 T _ZN7Manager17C_BCM_CON_Manager21EnqueueErrorProtectedERKN6Common22C_BCM_CON_ErrorHandlerE
04c4bb54 T _ZN7Manager17C_BCM_CON_Manager19StopConnectionTimerEv
04c4bc0c T _ZNK7Manager17C_BCM_CON_Manager18GetConnectionStateERN6Common18E_CONNECTION_STATEE
04c4bcd8 T _ZNK7Manager17C_BCM_CON_Manager16IsDeviceAttachedEN6Common13E_DEVICE_TYPEE
04c4bd08 T _ZN7Manager17C_BCM_CON_Manager29ManageStatisticsNewConnectionEv
04c4bd88 T _ZN7Manager17C_BCM_CON_Manager18SpyEnqueueDUNEventERKSs
04c4bdcc T _ZN7Manager17C_BCM_CON_Manager7DestroyEv
04c4bed8 T _ZN7Manager17C_BCM_CON_Manager21SpySetInitReturnValueERKSs
04c4bf1c T _ZN7Manager17C_BCM_CON_Manager18SpyEnqueuePANEventERKSs
04c4bf60 T _ZN7Manager17C_BCM_CON_Manager13SuspendPMSKeyEv
04c4bf90 T _ZN7Manager17C_BCM_CON_Manager14DequeueMessageEv
04c4c038 T _ZN7Manager17C_BCM_CON_Manager12EnqueueErrorERKN6Common22C_BCM_CON_ErrorHandlerE
04c4c098 T _ZN7Manager17C_BCM_CON_Manager20SendStatisticsSignalEv
04c4c0ec T _ZNK7Manager17C_BCM_CON_Manager26IsModem3GKeyRoamingAllowedERb
04c4c124 T _ZN7Manager17C_BCM_CON_Manager9EnablePMSEb
04c4c154 T _ZN7Manager17C_BCM_CON_Manager23RenotifyDevicesAttachedEv
04c4c19c T _ZN7Manager17C_BCM_CON_Manager22RestoreFactorySettingsEv
04c4c264 T _ZNK7Manager17C_BCM_CON_Manager24GetDeviceConnectionStateEN6Common13E_DEVICE_TYPEERNS1_18E_CONNECTION_STATEE
04c4c2fc T _ZNK7Manager17C_BCM_CON_Manager21GetDunConnectionStateERN6Common18E_CONNECTION_STATEE
04c4c330 T _ZNK7Manager17C_BCM_CON_Manager28GetModem3GKeyConnectionStateERN6Common18E_CONNECTION_STATEE
04c4c364 T _ZNK7Manager17C_BCM_CON_Manager22GetWifiConnectionStateERN6Common18E_CONNECTION_STATEE
04c4c398 T _ZN7Manager17C_BCM_CON_Manager27SetModem3GKeyRoamingAllowedEb
04c4c418 T _ZNK7Manager17C_BCM_CON_Manager27GetModem3GKeyConnectionTypeEv
04c4c4e8 T _ZN7Manager17C_BCM_CON_Manager17SetDevicePriorityERA5_N6Common13E_DEVICE_TYPEE
04c4c560 T _ZN7Manager17C_BCM_CON_Manager18SetDeviceUsabilityEN6Common13E_DEVICE_TYPEEb
04c4c5d8 T _ZNK7Manager17C_BCM_CON_Manager14IsDeviceUsableEN6Common13E_DEVICE_TYPEERb
04c4c608 T _ZNK7Manager17C_BCM_CON_Manager17GetDevicePriorityERA5_N6Common13E_DEVICE_TYPEE
04c4c638 T _ZNK7Manager17C_BCM_CON_Manager18getPreferredDeviceERN6Common13E_DEVICE_TYPEE
04c4c79c T _ZNK7Manager17C_BCM_CON_Manager16GetSignalQualityEv
04c4c854 T _ZN7Manager17C_BCM_CON_Manager12Set3GProfileERKN6Common14Usb3gProfile_tE
04c4c8cc T _ZN7Manager17C_BCM_CON_Manager14SetWifiProfileERKN6Common13WifiProfile_tE
04c4c940 T _ZN7Manager17C_BCM_CON_Manager17GetWifiMACAddressERSs
04c4ca08 T _GLOBAL__I__ZN7Manager17C_BCM_CON_ManagerC2Ev
04c4ca40 T _ZNK7Manager17C_BCM_CON_Manager24GetModem3GKeyNetworkNameEv
04c4cb24 T _ZN7Manager17C_BCM_CON_Manager17SaveModem3GKeyPinERKSs
04c4cc64 T _ZN7Manager17C_BCM_CON_Manager16SetModem3GKeyPukERKSs
04c4ce4c T _ZN7Manager17C_BCM_CON_ManagerD1Ev
04c4d038 T _ZN7Manager17C_BCM_CON_ManagerD2Ev
04c4d1f0 T _ZN7Manager17C_BCM_CON_ManagerD0Ev
04c4d3b4 T _ZN7Manager17C_BCM_CON_Manager4InitEv
04c4d6a0 T _ZN7Manager17C_BCM_CON_Manager12PingInternetERKSsih
04c4e5dc T _ZN7Manager17C_BCM_CON_Manager13SetDUNProfileERKN6Common12DunProfile_tE
04c4ea00 T _ZN7Manager17C_BCM_CON_Manager22UpdateWifiNetworksListEv
04c4ecac T _ZN7Manager17C_BCM_CON_Manager16SetModem3GKeyPinERKSsb
04c4ef84 T _ZN7Manager17C_BCM_CON_ManagerC2Ev
04c4f414 T _ZN7Manager17C_BCM_CON_Manager14EnqueueMessageERKN6Common17C_BCM_CON_MessageE
04c4f448 T _ZN7Manager17C_BCM_CON_Manager10HandleTickEv
04c5049c T _ZN7Manager17C_BCM_CON_Manager7ConnectEN6Common13E_DEVICE_TYPEERKNS1_13ContentValuesE
04c5117c T _ZN7Manager17C_BCM_CON_Manager12EnableDeviceEbN6Common13E_DEVICE_TYPEE
04c51464 T _ZN7Manager17C_BCM_CON_Manager20EnableWifiConnectionERKSsS2_
04c517cc T _ZN7Manager17C_BCM_CON_Manager18Enable3GConnectionERKSs
04c51ae0 T _ZN7Manager17C_BCM_CON_Manager24EnableInternetConnectionEb
04c51ddc T _ZN7Manager17C_BCM_CON_ManagerC1Ev
04c52260 T _ZN7Manager17C_BCM_CON_Manager9getHandleEv
04c522f8 T _ZN7Manager17C_BCM_CON_Manager23GetConnectionStatisticsEv
04c52404 T _ZN7Manager17C_BCM_CON_Manager13HandleMessageERKN6Common17C_BCM_CON_MessageE
04c54e80 T _ZNK6Common17C_BCM_CON_Message14GetMessageTypeEv
04c54e88 T _ZNK6Common17C_BCM_CON_Message3getERKSsRd
04c54ec0 T _ZNK6Common17C_BCM_CON_Message3getERKSsRm
04c54ef4 T _ZNK6Common17C_BCM_CON_Message3getERKSsRb
04c54f28 T _ZNK6Common17C_BCM_CON_Message3getERKSsRi
04c54f5c T _ZN6Common17C_BCM_CON_MessageC1ENS_14E_MESSAGE_TYPEE
04c54f90 T _ZN6Common17C_BCM_CON_MessageC2ENS_14E_MESSAGE_TYPEE
04c54fc4 T _ZN6Common17C_BCM_CON_MessageC1Ev
04c54ffc T _ZN6Common17C_BCM_CON_MessageC2Ev
04c550cc T _GLOBAL__I__ZN6Common17C_BCM_CON_MessageC2Ev
04c55104 T _ZN6Common17C_BCM_CON_MessageD1Ev
04c552d8 T _ZN6Common17C_BCM_CON_MessageC1ENS_14E_MESSAGE_TYPEERKNS_13ContentValuesE
04c55310 T _ZN6Common17C_BCM_CON_MessageC2ENS_14E_MESSAGE_TYPEERKNS_13ContentValuesE
04c55348 T _ZNK6Common17C_BCM_CON_Message8toStringEv
04c56274 T _ZN6Common17C_BCM_CON_MessageD2Ev
04c564c0 T _ZNK6Common17C_BCM_CON_Message3getERKSsRSs
04c56538 T _ZN8Executor19C_BCM_CON_Messenger11SendMessageERKN6Common17C_BCM_CON_MessageE
04c56650 T _ZN8Executor19C_BCM_CON_Messenger11SendMessageERN6Common14E_MESSAGE_TYPEE
04c56760 T _GLOBAL__I__ZN8Executor19C_BCM_CON_Messenger11SendMessageERN6Common14E_MESSAGE_TYPEE
04c56798 T _ZN6Common9Profile_tC2ENS_13E_DEVICE_TYPEE
04c567bc T _ZN6Common9Profile_tC1ENS_13E_DEVICE_TYPEE
04c567e0 T _ZNK6Common9Profile_t13GetDeviceTypeEv
04c567e8 T _ZN6Common15UsbCDCProfile_tC2Ev
04c56830 T _ZN6Common15UsbCDCProfile_tC1Ev
04c56878 T _ZN6Common15UsbCDCProfile_tC2EPKS0_
04c568c0 T _ZN6Common15UsbCDCProfile_tC1EPKS0_
04c56908 T _ZN6Common12PANProfile_tC2Ev
04c56950 T _ZN6Common12PANProfile_tC1Ev
04c56998 T _ZN6Common12PANProfile_tC2EPKS0_
04c569e0 T _ZN6Common12PANProfile_tC1EPKS0_
04c56a28 T _ZN6Common9Profile_tD0Ev
04c56a60 T _ZN6Common9Profile_tD1Ev
04c56a70 T _ZN6Common9Profile_tD2Ev
04c56a80 T _ZN6Common12PANProfile_tD0Ev
04c56ad8 T _ZN6Common12PANProfile_tD1Ev
04c56b10 T _ZN6Common12PANProfile_tD2Ev
04c56b48 T _ZN6Common15UsbCDCProfile_tD0Ev
04c56ba0 T _ZN6Common15UsbCDCProfile_tD1Ev
04c56bd8 T _ZN6Common15UsbCDCProfile_tD2Ev
04c56c10 T _ZN6Common12PANProfile_t4copyEv
04c56c70 T _ZN6Common15UsbCDCProfile_t4copyEv
04c56d68 T _GLOBAL__I__ZN6Common9Profile_tD2Ev
04c56da0 T _ZN6Common12DunProfile_tD0Ev
04c56e70 T _ZN6Common13WifiProfile_tD0Ev
04c56f68 T _ZN6Common14Usb3gProfile_tD1Ev
04c5704c T _ZN6Common12DunProfile_tD1Ev
04c57108 T _ZN6Common13WifiProfile_tD1Ev
04c571ec T _ZN6Common14Usb3gProfile_tD0Ev
04c572e4 T _ZN6Common13WifiProfile_tD2Ev
04c573c8 T _ZN6Common12DunProfile_tD2Ev
04c57484 T _ZN6Common14Usb3gProfile_tD2Ev
04c57568 T _ZN6Common13WifiProfile_tC1EPKS0_
04c57664 T _ZN6Common13WifiProfile_t4copyEv
04c576c4 T _ZN6Common13WifiProfile_tC2EPKS0_
04c577c0 T _ZN6Common13WifiProfile_tC2ERKSsS2_
04c578e4 T _ZN6Common12DunProfile_tC1EPKS0_
04c579a0 T _ZN6Common12DunProfile_t4copyEv
04c57a00 T _ZN6Common12DunProfile_tC2EPKS0_
04c57abc T _ZN6Common12DunProfile_tC1ERKSsS2_S2_bS2_S2_
04c57bb0 T _ZN6Common12DunProfile_tC2ERKSsS2_S2_bS2_S2_
04c57ca4 T _ZN6Common14Usb3gProfile_tC1EPKS0_
04c57da0 T _ZN6Common14Usb3gProfile_t4copyEv
04c57e00 T _ZN6Common14Usb3gProfile_tC2EPKS0_
04c57efc T _ZN6Common14Usb3gProfile_tC1ERKSsS2_S2_S2_
04c58020 T _ZN6Common14Usb3gProfile_tC2ERKSsS2_S2_S2_
04c58144 T _ZNK6Common12DunProfile_t8toStringEv
04c58784 T _ZNK6Common14Usb3gProfile_t8toStringEv
04c58d7c T _ZN6Common13WifiProfile_tC1ERKSsS2_
04c58e90 T _ZNK6Common12PANProfile_t8toStringEv
04c59024 T _ZNK6Common15UsbCDCProfile_t8toStringEv
04c591b8 T _ZNK6Common13WifiProfile_t8toStringEv
04c5a378 T _ZN7Manager24C_BCM_CON_SpyDataHandler5CloseEv
04c5a484 T _GLOBAL__I__ZN7Manager24C_BCM_CON_SpyDataHandlerC2Ev
04c5a4bc T _ZN7Manager24C_BCM_CON_SpyDataHandler10bt_event_sC1Ev
04c5a4fc T _ZN7Manager24C_BCM_CON_SpyDataHandlerC2Ev
04c5a5f0 T _ZN7Manager24C_BCM_CON_SpyDataHandlerC1Ev
04c5a6e4 T _ZN7Manager24C_BCM_CON_SpyDataHandlerD1Ev
04c5aa60 T _ZN7Manager24C_BCM_CON_SpyDataHandlerD2Ev
04c5addc T _ZN7Manager24C_BCM_CON_SpyDataHandler13SetProfileDUNERKN6Common12DunProfile_tE
04c5aeac T _ZN7Manager24C_BCM_CON_SpyDataHandler22SetConnectedDeviceTypeEN6Common13E_DEVICE_TYPEE
04c5af88 T _ZN7Manager24C_BCM_CON_SpyDataHandler12SetConnectedEb
04c5b02c T _ZN7Manager24C_BCM_CON_SpyDataHandler4InitEv
04c5b12c T _ZN7Manager24C_BCM_CON_SpyDataHandler22GetConnectedDeviceTypeEv
04c5b16c T _ZN7Manager24C_BCM_CON_SpyDataHandler12GetConnectedEv
04c5b1a8 T _ZN7Manager24C_BCM_CON_SpyDataHandler18SetInitReturnValueERKSs
04c5b298 T _ZN7Manager24C_BCM_CON_SpyDataHandler12GetPANEventsEv
04c5bc04 T _ZN7Manager24C_BCM_CON_SpyDataHandler10bt_event_sC2Ev
04c5bc24 T _ZN7Manager24C_BCM_CON_SpyDataHandler13GetProfileDUNEv
04c5bd94 T _ZN7Manager24C_BCM_CON_SpyDataHandler15EnqueuePANEventERKSs
04c5bf14 T _ZN7Manager24C_BCM_CON_SpyDataHandler15EnqueueDunEventERKSs
04c5c094 T _ZN7Manager24C_BCM_CON_SpyDataHandler12EnqueueErrorEN6Common13E_DEVICE_TYPEERKSs
04c5d248 T _ZN7Manager24C_BCM_CON_SpyDataHandler12GetDUNEventsEv
04c5dcf4 T _ZN7Manager24C_BCM_CON_SpyDataHandler15CreateSpyStringEv
04c5f02c T _ZN7Manager24C_BCM_CON_SpyDataHandler8WriteSpyEv
04c5f1d4 T _ZN7Manager24C_BCM_CON_SpyDataHandler14SpySignalCbackEi
04c5f208 T _ZN7Manager24C_BCM_CON_SpyDataHandler18GetInitReturnValueEv
04c5f2ec T _ZN8Executor25C_BCM_CON_SystemInterfaceC2Ev
04c5f2f0 T _ZN8Executor25C_BCM_CON_SystemInterfaceC1Ev
04c5f2f4 T _ZN8Executor25C_BCM_CON_SystemInterfaceD2Ev
04c5f2f8 T _ZN8Executor25C_BCM_CON_SystemInterfaceD1Ev
04c5f2fc T _ZN8Executor25C_BCM_CON_SystemInterface27ActivateEvt3gDeviceAttachedEb
04c5f304 T _ZN8Executor25C_BCM_CON_SystemInterface29ActivateEvtWifiDeviceAttachedEb
04c5f30c T _ZN8Executor25C_BCM_CON_SystemInterface37SendActiveMessageUsbDataServicesCBackEiPcPv
04c5f360 T _ZN8Executor25C_BCM_CON_SystemInterface17SendActiveMessageEi
04c5f3b8 T _ZN8Executor25C_BCM_CON_SystemInterface29EvtUSB_CDCDeviceDetachedCbackEiPcPv
04c5f3e8 T _ZN8Executor25C_BCM_CON_SystemInterface29EvtUSB_CDCDeviceAttachedCbackEiPcPv
04c5f418 T _ZN8Executor25C_BCM_CON_SystemInterface26EvtWifiDeviceAttachedCbackEiPcPv
04c5f448 T _ZN8Executor25C_BCM_CON_SystemInterface24Evt3gDeviceAttachedCbackEiPcPv
04c5f478 T _ZN8Executor25C_BCM_CON_SystemInterface17ActivatePANEventsEb
04c5f63c T _ZN8Executor25C_BCM_CON_SystemInterface32ActivateEvtUSB_CDCDeviceDetachedEb
04c5f6c4 T _ZN8Executor25C_BCM_CON_SystemInterface32ActivateEvtUSB_CDCDeviceAttachedEb
04c5f748 T _ZN8Executor25C_BCM_CON_SystemInterface17ActivateDUNEventsEb
04c5f8fc T _ZN8Executor25C_BCM_CON_SystemInterface14checkPANStatusEv
04c5f9e0 T _ZN8Executor25C_BCM_CON_SystemInterface24checkDUNConnectableStateEv
04c5faac T _ZN8Executor25C_BCM_CON_SystemInterface23RenotifyDevicesAttachedEv
04c5fba4 T _GLOBAL__I__ZN8Executor25C_BCM_CON_SystemInterfaceC2Ev
04c5fbdc T _ZN8Executor18C_BCM_Connectivity13GetDbusServerEv
04c5fbe4 T _ZN8Executor18C_BCM_Connectivity14GetPingResultsERbRt
04c5fc00 T _ZN8Executor18C_BCM_Connectivity11DeleteTimerERP7C_Timer
04c5fc6c T _ZN8Executor18C_BCM_Connectivity9StopTimerEP7C_Timer
04c5fcdc T _ZN8Executor18C_BCM_Connectivity26StopConnectionTimeoutTimerEv
04c5fd54 T _ZN8Executor18C_BCM_Connectivity17StopCounterSignalEv
04c5fdcc T _ZN8Executor18C_BCM_Connectivity13StartTimerSecEP7C_Timeri
04c5fe18 T _ZN8Executor18C_BCM_Connectivity27StartConnectionTimeoutTimerEiN6Common13E_DEVICE_TYPEE
04c5fea4 T _ZN8Executor18C_BCM_Connectivity18StartCounterSignalEi
04c5ff30 T _ZN8Executor18C_BCM_Connectivity11CreateTimerERP7C_TimerPFizE
04c60028 T _ZN8Executor18C_BCM_Connectivity16netinfoCheatCodeER9CMMString
04c6005c T _ZN8Executor18C_BCM_Connectivity13pingCheatCodeERKSsiR9CMMString
04c60090 T _ZN8Executor18C_BCM_Connectivity26restoreFactorySettingCbackEv
04c600dc T _ZN8Executor18C_BCM_Connectivity22RestoreFactorySettingsEv
04c6012c T _ZN8Executor18C_BCM_Connectivity10onOffCbackEv
04c601a8 T _ZN8Executor18C_BCM_Connectivity12PingInternetERKSsi
04c6021c T _ZN8Executor18C_BCM_Connectivity20EmitSignalPingResultEbth
04c602a8 T _ZN8Executor18C_BCM_Connectivity17SendActiveMessageENS_30t_bcm_connectivity_msg_privateE
04c60338 T _ZN8Executor18C_BCM_Connectivity25connectionTimeoutCallbackEPS0_
04c60370 T _ZN8Executor18C_BCM_Connectivity21counterSignalCallbackEPS0_
04c603a8 T _ZN8Executor18C_BCM_Connectivity8SendTickEv
04c60434 T _ZN8Executor18C_BCM_Connectivity23RenotifyDevicesAttachedEv
04c60514 T _ZN8Executor18C_BCM_Connectivity25UnSubscribeByConnectivityEv
04c60650 T _ZN8Executor18C_BCM_Connectivity23SubscribeByConnectivityEv
04c60814 T _ZN8Executor18C_BCM_Connectivity6UnlockEv
04c60844 T _ZN8Executor18C_BCM_Connectivity4LockEv
04c60874 T _ZN8Executor18C_BCM_Connectivity3EndEi
04c609a8 T _ZN8Executor18C_BCM_Connectivity7StartUpEv
04c60a8c T _ZN8Executor18C_BCM_ConnectivityD0Ev
04c60b24 T _ZN8Executor18C_BCM_ConnectivityD1Ev
04c60ba8 T _ZN8Executor18C_BCM_ConnectivityD2Ev
04c60c2c T _ZN8Executor18C_BCM_ConnectivityC1Ev
04c60d10 T _ZN8Executor18C_BCM_Connectivity8InstanceEv
04c60de0 T _ZN8Executor18C_BCM_Connectivity19ModuleStatusChangedEt15MODULE_STATUS_t
04c60e48 T _ZN8Executor18C_BCM_ConnectivityC2Ev
04c60fc4 T _GLOBAL__I__ZN8Executor18C_BCM_Connectivity11m_pInstanceE
04c60ffc T _ZN8Executor18C_BCM_Connectivity13HandleMessageEttsPci
04c61744 T _ZN8Executor18C_BCM_Connectivity12pingReqCbackEv
04c6185c T _ZN8Executor18C_BCM_Connectivity4InitEv
04c61ab8 T _ZN6Common12C_BCM_SenderC2Ev
04c61ac8 T _ZN6Common12C_BCM_SenderC1Ev
04c61ad8 T _ZN6Common12C_BCM_Sender11sendMessageENS_14E_MESSAGE_TYPEERKNS_13ContentValuesE
04c61b4c T _ZN6Common12C_BCM_SenderD0Ev
04c61b84 T _ZN6Common12C_BCM_SenderD1Ev
04c61b94 T _ZN6Common12C_BCM_SenderD2Ev
04c61c3c T _GLOBAL__I__ZN6Common12C_BCM_SenderC2Ev
04c61c74 T _ZN12Configurator13SelectRequest15setOrderingTypeENS0_15E_ORDERING_TYPEE
04c61c7c T _ZN12Configurator13SelectRequest8setLimitEi
04c61c84 T _ZN12Configurator13SelectRequest9setOffsetEi
04c61c8c T _ZNK6Common13ContentValues4sizeEv
04c61cbc T _ZNK6Common13ContentValues5emptyEv
04c61dfc T _GLOBAL__D__ZN12Configurator14GenericRequestC2Ev
04c61e34 T _GLOBAL__I__ZN12Configurator14GenericRequestC2Ev
04c61e6c T _ZN6Common13ContentValues5clearEv
04c61f14 T _ZN12Configurator14GenericRequestD0Ev
04c61f98 T _ZN12Configurator14GenericRequestD1Ev
04c62008 T _ZN12Configurator14GenericRequestD2Ev
04c62078 T _ZN6Common13ContentValues12stringToDateERKSs
04c625e8 T _ZN12Configurator13SelectRequest18addOrderingElementERKSs
04c626b8 T _ZNK6Common13ContentValues3getERKSsRdd
04c62910 T _ZNK6Common13ContentValues3getERKSsRmm
04c62b5c T _ZNK6Common13ContentValues3getERKSsRbb
04c62dec T _ZNK6Common13ContentValues3getEiRii
04c63020 T _ZNK6Common13ContentValues6typeAtEi
04c63094 T _ZNK6Common13ContentValues3getERKSsRSsS2_
04c63334 T _ZNK6Common13ContentValues6getKeyEi
04c633f8 T _ZN12Configurator13UpdateRequest4InitERKSsS2_
04c63814 T _ZN12Configurator13InsertRequest4InitERKSs
04c63c10 T _ZN6Common13ContentValues12dateToStringEm
04c63cc0 T _ZNK12Configurator14GenericRequest8toStringEv
04c63d20 T _ZNK12Configurator14GenericRequest7getTypeEP12sqlite3_stmti
04c642a4 T _ZN6Common13ContentValues3setERKSsd
04c644f4 T _ZNK6Common13ContentValues3getEiRdd
04c646fc T _ZN6Common13ContentValues3setERKSsm
04c64940 T _ZNK6Common13ContentValues3getEiRmm
04c64b48 T _ZNK6Common13ContentValues3getEiRSsRKSs
04c64da0 T _ZN6Common13ContentValues3setERKSsi
04c64fdc T _ZN6Common13ContentValues3addERKSsm
04c65130 T _ZN6Common13ContentValues3addERKSsS2_
04c652b8 T _ZN6Common13ContentValues3addERKSsPKc
04c65348 T _ZN6Common13ContentValues3addERKSsi
04c6548c T _ZNK6Common13ContentValues3getEiRbb
04c656d8 T _ZNK6Common13ContentValues13valueToStringEi
04c6630c T _ZNK6Common13ContentValues8toStringEv
04c66694 T _ZN12Configurator14GenericRequest10bindValuesEP12sqlite3_stmtRKN6Common13ContentValuesE
04c66a60 T _ZN12Configurator13SelectRequest13HandleBindingEP12sqlite3_stmt
04c66adc T _ZN12Configurator13DeleteRequest13HandleBindingEP12sqlite3_stmt
04c66b58 T _ZN12Configurator13UpdateRequest13HandleBindingEP12sqlite3_stmt
04c66be8 T _ZN12Configurator13InsertRequest13HandleBindingEP12sqlite3_stmt
04c66c1c T _ZNK6Common13ContentValues3getERKSsRii
04c66e6c T _ZN6Common13ContentValues3setERKSsb
04c670e4 T _ZN6Common13ContentValues3addERKSsd
04c67238 T _ZN6Common13ContentValues3setERKSsS2_
04c6747c T _ZN6Common13ContentValuesC2Ev
04c67520 T _ZN6Common13ContentValuesC2ERKSsm
04c67608 T _ZN6Common13ContentValuesC2ERKSsi
04c676e8 T _ZN6Common13ContentValuesC2ERKSsS2_
04c677c8 T _ZN6Common13ContentValuesC1ERKSsd
04c678a8 T _ZN6Common13ContentValuesC1ERKSsS2_
04c67988 T _ZN6Common13ContentValuesC2ERKSsPKc
04c67a68 T _ZN6Common13ContentValuesC1ERKSsPKc
04c67b48 T _ZN6Common13ContentValuesC2ERKSsd
04c67c28 T _ZN6Common13ContentValuesC1ERKSsi
04c67d00 T _ZN6Common13ContentValuesC1Ev
04c67d9c T _ZN12Configurator14GenericRequestC1Ev
04c67e10 T _ZN12Configurator14GenericRequestC2Ev
04c67e84 T _ZN12Configurator13SelectRequestC1ERKSsS2_RSt6vectorIN6Common13ContentValuesESaIS5_EES2_RKS5_
04c67fd0 T _ZN12Configurator13SelectRequestC2ERKSsS2_RSt6vectorIN6Common13ContentValuesESaIS5_EES2_RKS5_
04c6811c T _ZN12Configurator13SelectRequestC1ERKSsRKSt6vectorISsSaISsEERS3_IN6Common13ContentValuesESaIS9_EES2_RKS9_
04c682c0 T _ZN12Configurator13SelectRequestC2ERKSsRKSt6vectorISsSaISsEERS3_IN6Common13ContentValuesESaIS9_EES2_RKS9_
04c68530 T _ZN12Configurator13UpdateRequestC1ERKSsRKN6Common13ContentValuesES2_S6_
04c685f0 T _ZN12Configurator13UpdateRequestC2ERKSsRKN6Common13ContentValuesES2_S6_
04c686b0 T _ZN12Configurator13InsertRequestC1ERKSsRKN6Common13ContentValuesE
04c6873c T _ZN12Configurator13InsertRequestC2ERKSsRKN6Common13ContentValuesE
04c687c8 T _ZN6Common13ContentValuesC1ERKSsm
04c688a0 T _ZN12Configurator13SelectRequest4InitEv
04c69300 T _ZN12Configurator13DeleteRequest4InitERKSsS2_
04c69770 T _ZN12Configurator13DeleteRequestC1ERKSsS2_RKN6Common13ContentValuesE
04c6980c T _ZN12Configurator13DeleteRequestC2ERKSsS2_RKN6Common13ContentValuesE
04c698a8 T _ZN6Common13ContentValues3addERKSsb
04c69e74 T _ZN6Common13ContentValuesC1ERKSsb
04c69f44 T _ZN6Common13ContentValuesC2ERKSsb
04c6a024 T _ZN6Common13ContentValues3addERKSs
04c6a1a8 T _ZN12Configurator13SelectRequest14HandleResponseEP12sqlite3_stmt
04c6a5b8 W _ZThn68_N20C_BCM_BROWSER_SERVER20DBUS_ReadFaviconPathERSs
04c6a5c0 W _ZThn68_N20C_BCM_BROWSER_SERVER17DBUS_ReadUniverseERl
04c6a5c8 W _ZThn68_N20C_BCM_BROWSER_SERVER25DBUS_DoPostInitializationEv
04c6a5d0 W _ZThn68_N20C_BCM_BROWSER_SERVER28DBUS_GetLastOpenedPageStatusERbRSs
04c6a5d8 W _ZThn68_N20C_BCM_BROWSER_SERVER28DBUS_SetLastOpenedPageStatusERKbRKSs
04c6a5e0 W _ZThn68_N20C_BCM_BROWSER_SERVER23DBUS_SetHistorySortTypeERKl
04c6a5e8 W _ZThn68_N20C_BCM_BROWSER_SERVER25DBUS_SetBookmarksSortTypeERKl
04c6a5f0 W _ZThn68_N20C_BCM_BROWSER_SERVER27DBUS_RestoreFactorySettingsEv
04c6a5f8 W _ZThn68_N20C_BCM_BROWSER_SERVER19DBUS_ReadMapVersionERSs
04c6a600 W _ZThn68_N20C_BCM_BROWSER_SERVER19DBUS_ReadSupplierIdERSs
04c6a608 W _ZThn68_N20C_BCM_BROWSER_SERVER24DBUS_ReadHardwareReleaseERSs
04c6a610 W _ZThn68_N20C_BCM_BROWSER_SERVER24DBUS_ReadSoftwareReleaseERSs
04c6a618 W _ZThn68_N20C_BCM_BROWSER_SERVER18DBUS_ReadOffsetUTCERm
04c6a620 W _ZThn68_N20C_BCM_BROWSER_SERVER13DBUS_ReadTimeERmS0_Rb
04c6a628 W _ZThn68_N20C_BCM_BROWSER_SERVER17DBUS_ReadTripDataERKmRmRbS2_S3_S2_S3_
04c6a630 W _ZThn68_N20C_BCM_BROWSER_SERVER21DBUS_ReadInstTripDataERmRbS0_S1_
04c6a638 W _ZThn68_N20C_BCM_BROWSER_SERVER18DBUS_ReadInstSpeedERm
04c6a640 W _ZThn68_N20C_BCM_BROWSER_SERVER14DBUS_ReadUnitsERlS0_S0_S0_Rb
04c6a648 W _ZThn68_N20C_BCM_BROWSER_SERVER17DBUS_ReadFuelTypeERl
04c6a650 W _ZThn68_N20C_BCM_BROWSER_SERVER24DBUS_ReadNextWaypointETAERmS0_
04c6a658 W _ZThn68_N20C_BCM_BROWSER_SERVER23DBUS_ReadDestinationETAERmS0_
04c6a660 W _ZThn68_N20C_BCM_BROWSER_SERVER21DBUS_ReadNextWaypointERdS0_S0_RSsS1_S1_
04c6a668 W _ZThn68_N20C_BCM_BROWSER_SERVER20DBUS_ReadDestinationERdS0_S0_RSsS1_S1_
04c6a670 W _ZThn68_N20C_BCM_BROWSER_SERVER23DBUS_ReadCurrentCountryERSs
04c6a678 W _ZThn68_N20C_BCM_BROWSER_SERVER20DBUS_ReadCurrentCityERSs
04c6a680 W _ZThn68_N20C_BCM_BROWSER_SERVER22DBUS_ReadCurrentStreetERSs
04c6a688 W _ZThn68_N20C_BCM_BROWSER_SERVER27DBUS_ReadCurrentCoordinatesERdS0_S0_Rm
04c6a690 W _ZThn68_N20C_BCM_BROWSER_SERVER28DBUS_GetInternetAvailabilityERbS0_
04c6a698 W _ZThn68_N20C_BCM_BROWSER_SERVER24DBUS_SaveLastVisitedPageERKb
04c6a6a0 W _ZThn68_N20C_BCM_BROWSER_SERVER18DBUS_SaveUserAgentERKSs
04c6a6a8 W _ZThn68_N20C_BCM_BROWSER_SERVER24DBUS_SavePopupAcceptanceERKb
04c6a6b0 W _ZThn68_N20C_BCM_BROWSER_SERVER26DBUS_SaveCookiesAcceptanceERKb
04c6a6b8 W _ZThn68_N20C_BCM_BROWSER_SERVER18DBUS_DeleteCookiesEv
04c6a6c0 W _ZThn68_N20C_BCM_BROWSER_SERVER15DBUS_SaveCookieERKSsS1_RKbS3_S1_S1_S1_
04c6a6c8 W _ZThn68_N20C_BCM_BROWSER_SERVER30DBUS_DeleteAllUsernamePasswordEv
04c6a6d0 W _ZThn68_N20C_BCM_BROWSER_SERVER27DBUS_DeleteUsernamePasswordERKm
04c6a6d8 W _ZThn68_N20C_BCM_BROWSER_SERVER25DBUS_SaveUsernamePasswordERKSsS1_S1_RKl
04c6a6e0 W _ZThn68_N20C_BCM_BROWSER_SERVER26DBUS_DeleteAllVisitedSitesEv
04c6a6e8 W _ZThn68_N20C_BCM_BROWSER_SERVER22DBUS_DeleteVisitedSiteERKm
04c6a6f0 W _ZThn68_N20C_BCM_BROWSER_SERVER20DBUS_SaveVisitedSiteERKSsS1_S1_
04c6a6f8 W _ZThn68_N20C_BCM_BROWSER_SERVER23DBUS_DeleteAllBookmarksEv
04c6a700 W _ZThn68_N20C_BCM_BROWSER_SERVER19DBUS_DeleteBookmarkERKm
04c6a708 W _ZThn68_N20C_BCM_BROWSER_SERVER19DBUS_UpdateBookmarkERKmRKSsS3_
04c6a710 W _ZThn68_N20C_BCM_BROWSER_SERVER17DBUS_SaveBookmarkERKSsS1_S1_
04c6a718 W _ZThn68_N20C_BCM_BROWSER_SERVER25DBUS_SavePortalConfiguredERKb
04c6a720 W _ZThn68_N20C_BCM_BROWSER_SERVER17DBUS_SaveHomePageERKSs
04c6a728 W _ZThn68_N20C_BCM_BROWSER_SERVER17DBUS_GetPortalURLEv
04c6a730 W _ZThn68_N20C_BCM_BROWSER_SERVER16DBUS_GetHomePageEv
04c6a738 W _ZThn68_N20C_BCM_BROWSER_SERVER21DBUS_ReadDrivingStateERb
04c6a740 W _ZThn68_N20C_BCM_BROWSER_SERVER17DBUS_ReadProxyURLERSs
04c6a748 W _ZThn68_N20C_BCM_BROWSER_SERVER16DBUS_ResetPortalEv
04c6a750 W _ZThn68_N20C_BCM_BROWSER_SERVER12DBUS_ReadVINERSs
04c6a758 W _ZThn68_N20C_BCM_BROWSER_SERVER18DBUS_ReadReInitURLERSs
04c6a760 W _ZThn68_N20C_BCM_BROWSER_SERVER16DBUS_SaveSmegKeyERKSs
04c6a768 W _ZN22com_MM_Browser_adaptorD0Ev
04c6a7f4 W _ZN22com_MM_Browser_adaptorD1Ev
04c6a86c W _ZThn68_N20C_BCM_BROWSER_SERVERD1Ev
04c6a874 W _ZThn68_N20C_BCM_BROWSER_SERVERD0Ev
04c6a968 W _ZN10BRO_Common19C_BCM_BRO_BaseClassD0Ev
04c6a9a0 W _ZN10BRO_Common19C_BCM_BRO_BaseClassD1Ev
04c6ab24 W _ZN16BRO_Configurator13InsertRequestD1Ev
04c6ab5c W _ZN16BRO_Configurator13UpdateRequestD1Ev
04c6ca24 W _ZN10BRO_Common13ContentValuesD1Ev
04c6cbe4 W _ZNSt6vectorIN10BRO_Common13ContentValuesESaIS1_EE5_TidyEv
04c6cc84 W _ZN16BRO_Configurator13SelectRequestD1Ev
04c6f9cc W _ZNSt6vectorIN10BRO_Common13ContentValuesESaIS1_EE2atEj
04c726c8 W _ZNSolsEl
04c72b5c W _ZNSolsEi
04c79a48 W _ZNSt5_TreeISt12_Tset_traitsIiSt4lessIiESaIiELb0EEE6_EraseEPNSt9_Tree_nodIS4_E5_NodeE
04c79da8 W _ZNSt5_TreeISt12_Tset_traitsIiSt4lessIiESaIiELb0EEE5_TidyEv
04c7a1cc W _ZNSt6vectorIN10BRO_Common13ContentValues8S_VALUESESaIS2_EE4_BuyEj
04c7a864 W _ZNSt5_TreeISt12_Tset_traitsIiSt4lessIiESaIiELb0EEE6insertERKi
04c7b6a4 W _ZNSt5dequeIN10BRO_Common17C_BCM_BRO_MessageESaIS1_EE9push_backERKS1_
04c7ce78 W _ZN10BRO_Common13ContentValuesC1ERKS0_
04c7e008 W _ZN10BRO_Common20eMessageTypeToStringENS_14E_MESSAGE_TYPEE
04c7e35c W _ZThn68_N19C_BCM_DC_BRW_CLIENTD1Ev
04c7e364 W _ZThn68_N19C_BCM_DC_BRW_CLIENTD0Ev
04c7e36c W _ZThn68_N19C_BCM_DC_BRW_CLIENT17date_time_changedERKN4DBus6StructIhhthtbNS0_7InvalidES2_S2_S2_EERKNS1_IhhbhbblbS2_S2_EERKl
04c7e410 W _ZThn68_N22C_BCM_Drive_BRW_CLIENTD1Ev
04c7e418 W _ZThn68_N22C_BCM_Drive_BRW_CLIENTD0Ev
04c7e420 W _ZThn68_N22C_BCM_Drive_BRW_CLIENT18SystemUnitsChangedERKN4DBus6StructIllllNS0_7InvalidES2_S2_S2_S2_S2_EERKb
04c7eb78 W _ZThn112_N21C_BCM_NAVI_BRW_CLIENTD1Ev
04c7eb80 W _ZThn108_N21C_BCM_NAVI_BRW_CLIENTD1Ev
04c7eb88 W _ZThn104_N21C_BCM_NAVI_BRW_CLIENTD1Ev
04c7eb90 W _ZThn100_N21C_BCM_NAVI_BRW_CLIENTD1Ev
04c7eb98 W _ZThn96_N21C_BCM_NAVI_BRW_CLIENTD1Ev
04c7eba0 W _ZThn92_N21C_BCM_NAVI_BRW_CLIENTD1Ev
04c7eba8 W _ZThn88_N21C_BCM_NAVI_BRW_CLIENTD1Ev
04c7ebb0 W _ZThn84_N21C_BCM_NAVI_BRW_CLIENTD1Ev
04c7ebb8 W _ZThn80_N21C_BCM_NAVI_BRW_CLIENTD1Ev
04c7ebc0 W _ZThn76_N21C_BCM_NAVI_BRW_CLIENTD1Ev
04c7ebc8 W _ZThn72_N21C_BCM_NAVI_BRW_CLIENTD1Ev
04c7ebd0 W _ZThn68_N21C_BCM_NAVI_BRW_CLIENTD1Ev
04c7ebd8 W _ZThn112_N21C_BCM_NAVI_BRW_CLIENTD0Ev
04c7ebe0 W _ZThn108_N21C_BCM_NAVI_BRW_CLIENTD0Ev
04c7ebe8 W _ZThn104_N21C_BCM_NAVI_BRW_CLIENTD0Ev
04c7ebf0 W _ZThn100_N21C_BCM_NAVI_BRW_CLIENTD0Ev
04c7ebf8 W _ZThn96_N21C_BCM_NAVI_BRW_CLIENTD0Ev
04c7ec00 W _ZThn92_N21C_BCM_NAVI_BRW_CLIENTD0Ev
04c7ec08 W _ZThn88_N21C_BCM_NAVI_BRW_CLIENTD0Ev
04c7ec10 W _ZThn84_N21C_BCM_NAVI_BRW_CLIENTD0Ev
04c7ec18 W _ZThn80_N21C_BCM_NAVI_BRW_CLIENTD0Ev
04c7ec20 W _ZThn76_N21C_BCM_NAVI_BRW_CLIENTD0Ev
04c7ec28 W _ZThn72_N21C_BCM_NAVI_BRW_CLIENTD0Ev
04c7ec30 W _ZThn68_N21C_BCM_NAVI_BRW_CLIENTD0Ev
04c7ec38 W _ZThn80_N21C_BCM_NAVI_BRW_CLIENT10gps_signalERKlS1_
04c7ec40 W _ZThn112_N21C_BCM_NAVI_BRW_CLIENT9ri_signalERKl
04c7ec48 W _ZThn92_N21C_BCM_NAVI_BRW_CLIENT9rg_signalERKl
04c7ed40 W _ZThn68_N19C_BCM_NA_BRW_CLIENTD0Ev
04c7ed48 W _ZThn68_N19C_BCM_NA_BRW_CLIENTD1Ev
04c7ed50 W _ZThn68_N19C_BCM_NA_BRW_CLIENT16InstSpeedChangedERKtRKb
04c7f0dc W _ZThn72_N20C_BCM_NVI_BRW_CLIENTD0Ev
04c7f0e4 W _ZThn68_N20C_BCM_NVI_BRW_CLIENTD0Ev
04c7f0ec W _ZThn72_N20C_BCM_NVI_BRW_CLIENTD1Ev
04c7f0f4 W _ZThn68_N20C_BCM_NVI_BRW_CLIENTD1Ev
04c7f0fc W _ZThn68_N20C_BCM_NVI_BRW_CLIENT28InstantaneousTripDataChangedERKN4DBus6StructItbmbmbmbNS0_7InvalidES2_EE
04c7f104 W _ZThn68_N20C_BCM_NVI_BRW_CLIENT15TripDataChangedERKlRKN4DBus6StructItbtbmbtbNS2_7InvalidES4_EE
04c7f154 W _ZThn68_N19C_BCM_UP_BRW_CLIENTD1Ev
04c7f15c W _ZThn68_N19C_BCM_UP_BRW_CLIENTD0Ev
04c7f164 W _ZSt5fixedRSt8ios_base
04c7f178 W _ZN16BRO_Configurator13InsertRequestD0Ev
04c7f1d0 W _ZN16BRO_Configurator13UpdateRequestD0Ev
04c7f228 W _ZN16BRO_Configurator13DeleteRequestD0Ev
04c7f280 W _ZN16BRO_Configurator13DeleteRequestD1Ev
04c7f2b8 W _ZN16BRO_Configurator13SelectRequestD0Ev
04c7f448 W _ZNKSt6vectorIN10BRO_Common13ContentValues8S_VALUESESaIS2_EE5_XlenEv
04c7f920 W _ZNKSt6vectorIN10BRO_Common13ContentValues8S_VALUESESaIS2_EE2atEj
04c7feac W _ZNSt6vectorIN10BRO_Common13ContentValues8S_VALUESESaIS2_EE9_Insert_nENS4_8iteratorEjRKS2_
04c804ec W _ZNSt6vectorIN10BRO_Common13ContentValues8S_VALUESESaIS2_EE9push_backERKS2_
04c813a8 W _ZN10BRO_Common13ContentValuesaSERKS0_
04c824a4 W _ZNSt6vectorIN10BRO_Common13ContentValuesESaIS1_EE9_Insert_nENS3_8iteratorEjRKS1_
04c82a20 W _ZN6Common25C_BCM_CON_ObserverMessageD0Ev
04c82a58 W _ZN6Common25C_BCM_CON_ObserverMessageD1Ev
04c82a68 W _ZTv0_n12_NSt19basic_ostringstreamIcSt11char_traitsIcESaIcEED1Ev
04c82a78 W _ZNSt19basic_ostringstreamIcSt11char_traitsIcESaIcEED1Ev
04c82c68 W _ZN12Configurator13SelectRequestD1Ev
04c82db8 W _ZTv0_n12_NSt19basic_ostringstreamIcSt11char_traitsIcESaIcEED0Ev
04c82dc8 W _ZNSt19basic_ostringstreamIcSt11char_traitsIcESaIcEED0Ev
04c82fc8 W _ZNSt6vectorIN12Configurator22C_BCM_CON_Configurator8sWifiNetESaIS2_EE9_Insert_nENS4_8iteratorEjRKS2_
04c83a5c W _ZN6Common13ContentValuesD1Ev
04c83c6c W _ZNSt6vectorIN6Common13ContentValuesESaIS1_EE5_TidyEv
04c83f40 W _ZNSt6vectorIN6Common13ContentValuesESaIS1_EE2atEj
04c84214 W _ZSt3hexRSt8ios_base
04c84228 W _ZNSo5flushEv
04c84818 W _ZNSolsEm
04c84cac W _ZN6Common15eStatusToStringENS_8E_STATUSE
04c84fa0 W _ZNKSt15basic_stringbufIcSt11char_traitsIcESaIcEE3strEv
04c85abc W _ZThn68_N28C_BCM_CON_DbusHandler_CLIENTD1Ev
04c85ac4 W _ZThn68_N28C_BCM_CON_DbusHandler_CLIENTD0Ev
04c85acc W _ZThn68_N28C_BCM_CON_DbusHandler_SERVER30DBUS_ResetConnectionStatisticsEv
04c85ad4 W _ZThn68_N28C_BCM_CON_DbusHandler_SERVER18DBUS_SetDUNProfileERKSsS1_S1_RKbS1_S1_
04c85adc W _ZThn68_N28C_BCM_CON_DbusHandler_SERVER14DBUS_EnablePMSERKb
04c85ae4 W _ZThn68_N28C_BCM_CON_DbusHandler_SERVER28DBUS_RenotifyDevicesAttachedEv
04c85aec W _ZThn68_N28C_BCM_CON_DbusHandler_SERVER27DBUS_RestoreFactorySettingsEv
04c85af4 W _ZThn68_N28C_BCM_CON_DbusHandler_SERVER22DBUS_GetWifiMACAddressERSs
04c85afc W _ZThn68_N28C_BCM_CON_DbusHandler_SERVER23DBUS_SetDevicesPriorityERKlS1_S1_
04c85b04 W _ZThn68_N28C_BCM_CON_DbusHandler_SERVER23DBUS_SetDeviceUsabilityERKlRKb
04c85b0c W _ZThn68_N28C_BCM_CON_DbusHandler_SERVER17DBUS_PingInternetERKSsRKm
04c85b14 W _ZThn68_N28C_BCM_CON_DbusHandler_SERVER14DBUS_EnableDunERKbRKm
04c85b1c W _ZThn68_N28C_BCM_CON_DbusHandler_SERVER26DBUS_GetDunConnectionStateERl
04c85b24 W _ZThn68_N28C_BCM_CON_DbusHandler_SERVER21DBUS_EnableModem3GKeyERKbRKm
04c85b2c W _ZThn68_N28C_BCM_CON_DbusHandler_SERVER33DBUS_GetModem3GKeyConnectionStateERl
04c85b34 W _ZThn68_N28C_BCM_CON_DbusHandler_SERVER32DBUS_SetModem3GKeyRoamingAllowedERKb
04c85b3c W _ZThn68_N28C_BCM_CON_DbusHandler_SERVER29DBUS_GetModem3GKeyNetworkNameEv
04c85b44 W _ZThn68_N28C_BCM_CON_DbusHandler_SERVER32DBUS_GetModem3GKeyConnectionTypeEv
04c85b4c W _ZThn68_N28C_BCM_CON_DbusHandler_SERVER23DBUS_GetDevicesPriorityEv
04c85b54 W _ZThn68_N28C_BCM_CON_DbusHandler_SERVER21DBUS_GetSignalQualityEv
04c85b5c W _ZThn68_N28C_BCM_CON_DbusHandler_SERVER22DBUS_SaveModem3GKeyPinERKSs
04c85b64 W _ZThn68_N28C_BCM_CON_DbusHandler_SERVER21DBUS_SetModem3GKeyPukERKSs
04c85b6c W _ZThn68_N28C_BCM_CON_DbusHandler_SERVER21DBUS_SetModem3GKeyPinERKSsRKb
04c85b74 W _ZThn68_N28C_BCM_CON_DbusHandler_SERVER27DBUS_GetWifiConnectionStateERl
04c85b7c W _ZThn68_N28C_BCM_CON_DbusHandler_SERVER27DBUS_UpdateWifiNetworksListEv
04c85b84 W _ZThn68_N28C_BCM_CON_DbusHandler_SERVER22DBUS_StopCounterSignalEv
04c85b8c W _ZThn68_N28C_BCM_CON_DbusHandler_SERVER23DBUS_StartCounterSignalERKm
04c85b94 W _ZThn68_N28C_BCM_CON_DbusHandler_SERVER21DBUS_IsDeviceAttachedERKlRb
04c85b9c W _ZThn68_N28C_BCM_CON_DbusHandler_SERVER23DBUS_GetConnectionStateERl
04c85ba4 W _ZThn68_N28C_BCM_CON_DbusHandler_SERVER20DBUS_Set3GKeyProfileERKSsS1_S1_S1_RKbS1_S1_S3_S3_S3_S1_S3_
04c85bac W _ZThn68_N28C_BCM_CON_DbusHandler_SERVER19DBUS_SetWifiProfileERKSsRKlS3_S1_RKbS1_S1_S1_S5_S1_S1_S5_
04c85bb4 W _ZThn68_N28C_BCM_CON_DbusHandler_SERVER25DBUS_EnableWifiConnectionERKSsS1_
04c85bbc W _ZThn68_N28C_BCM_CON_DbusHandler_SERVER23DBUS_Enable3GConnectionERKSs
04c85bc4 W _ZThn68_N28C_BCM_CON_DbusHandler_SERVER29DBUS_EnableInternetConnectionERKb
04c85bcc W _ZN27com_MM_Connectivity_adaptorD0Ev
04c85c58 W _ZN27com_MM_Connectivity_adaptorD1Ev
04c85cd0 W _ZThn68_N28C_BCM_CON_DbusHandler_SERVERD1Ev
04c85cd8 W _ZThn68_N28C_BCM_CON_DbusHandler_SERVERD0Ev
04c85ce0 W _ZNSt6vectorIN6Common13ContentValues8S_VALUESESaIS2_EE5_TidyEv
04c85ec0 W _ZNSt6vectorIN6Common13ContentValues8S_VALUESESaIS2_EE4_BuyEj
04c8610c W _ZNSt5dequeIN6Common17C_BCM_CON_MessageESaIS1_EE9push_backERKS1_
04c87020 W _ZN6Common13ContentValuesC1ERKS0_
04c881b0 W _ZN6Common20eMessageTypeToStringENS_14E_MESSAGE_TYPEE
04c88468 W _ZNSt19basic_ostringstreamIcSt11char_traitsIcESaIcEEC1ENSt5_IosbIiE9_OpenmodeE
04c888e8 W _ZNSolsEb
04c88d7c W _ZNSolsEj
04c89384 W _ZNSt5dequeIN7Manager24C_BCM_CON_SpyDataHandler10bt_event_sESaIS2_EE9push_backERKS2_
04c89768 W _ZN12Configurator13InsertRequestD0Ev
04c897c0 W _ZN12Configurator13InsertRequestD1Ev
04c897f8 W _ZN12Configurator13UpdateRequestD0Ev
04c89850 W _ZN12Configurator13UpdateRequestD1Ev
04c89888 W _ZN12Configurator13DeleteRequestD0Ev
04c898e0 W _ZN12Configurator13DeleteRequestD1Ev
04c89918 W _ZN12Configurator13SelectRequestD0Ev
04c89aa8 W _ZNKSt6vectorIN6Common13ContentValues8S_VALUESESaIS2_EE5_XlenEv
04c89ba0 W _ZNKSt6vectorIN6Common13ContentValues8S_VALUESESaIS2_EE2atEj
04c89ce8 W _ZNSt6vectorIN6Common13ContentValues8S_VALUESESaIS2_EE9_Insert_nENS4_8iteratorEjRKS2_
04c8a304 W _ZNSt6vectorIN6Common13ContentValues8S_VALUESESaIS2_EE9push_backERKS2_
04c8a3f4 W _ZN6Common13ContentValuesaSERKS0_
04c8b4f0 W _ZNSt6vectorIN6Common13ContentValuesESaIS1_EE9_Insert_nENS3_8iteratorEjRKS1_
04c8ba6c T _ZN18C_HMI_INT_APP_BASE23GetDesktopClientPointerEv
04c8ba9c T _ZN18C_HMI_INT_APP_BASE18GetUpClientPointerEv
04c8bacc T _ZN18C_HMI_INT_APP_BASE19GetVieClientPointerEv
04c8bafc T _ZN18C_HMI_INT_APP_BASE23GetBrowserClientPointerEv
04c8bb2c T _ZN18C_HMI_INT_APP_BASE28GetConnectivityClientPointerEv
04c8bb5c T _ZN18C_HMI_INT_APP_BASE19GetOOMClientPointerEv
04c8bb8c T _ZN18C_HMI_INT_APP_BASE21GetDriveClientPointerEv
04c8bbbc T _ZN18C_HMI_INT_APP_BASE16GetInternetPopUpEv
04c8bbf4 T _ZN18C_HMI_INT_APP_BASE22GetInternetMenuManagerEv
04c8bc2c T _ZNK18C_HMI_INT_APP_BASE23getCurrentApplicationIDEv
04c8bc5c T _ZNK18C_HMI_INT_APP_BASE24getWebBrowserButtonStateERb
04c8bd38 T _ZNK18C_HMI_INT_APP_BASE20isPsaPortalAvailableEv
04c8bd6c T _ZN18C_HMI_INT_APP_BASE12setUrlLoadedEb
04c8bda4 T _ZNK18C_HMI_INT_APP_BASE22getLastPageLoadSuccessEv
04c8bdd8 T _ZN18C_HMI_INT_APP_BASE19setFieldToBeFocusedEi
04c8be0c T _ZNK18C_HMI_INT_APP_BASE19getFieldToBeFocusedEv
04c8be3c T _ZNK18C_HMI_INT_APP_BASE16getTextInputTypeERm
04c8be74 T _ZN18C_HMI_INT_APP_BASE18GetDUNDataTransferERi
04c8beac T _ZN18C_HMI_INT_APP_BASE22GetDUNDurationTransferERi
04c8bee4 T _ZNK18C_HMI_INT_APP_BASE16isDeviceAttachedEv
04c8bf18 T _ZNK18C_HMI_INT_APP_BASE7IsPopupEm
04c8c030 T _ZNK18C_HMI_INT_APP_BASE6IsMenuEm
04c8c0f4 T _ZNK18C_HMI_INT_APP_BASE11IsPermanentEm
04c8c14c T _ZNK18C_HMI_INT_APP_BASE13getEmbedStateEv
04c8c180 T _ZNK18C_HMI_INT_APP_BASE17isFirstPageLoadedEv
04c8c1b4 T _ZN18C_HMI_INT_APP_BASE18setFirstPageLoadedEb
04c8c1ec T _ZN18C_HMI_INT_APP_BASE17setRestrictedModeEb
04c8c224 T _ZNK18C_HMI_INT_APP_BASE20isPSAPortalAvailableEv
04c8c258 T _ZNK18C_HMI_INT_APP_BASE21GetBrowserMenuPointerEv
04c8c290 T _ZN18C_HMI_INT_APP_BASE26ResetDunProfileSettingFlagEv
04c8c2c0 T _ZNK18C_HMI_INT_APP_BASE15GetPPPLinkStateER29t_connectivity_ppp_link_state
04c8c2f8 T _ZNK18C_HMI_INT_APP_BASE22isInternetProfileReadyEv
04c8c3ac T _ZNK18C_HMI_INT_APP_BASE18isFullWebAvailableEv
04c8c554 T _GLOBAL__I__ZN18C_HMI_INT_APP_BASE10m_instanceE
04c8c59c T _ZN18C_HMI_INT_APP_BASE15WriteDynamicSpyER9CMMString
04c8c734 T _ZN18C_HMI_INT_APP_BASE20clearPhoneCallNumberEv
04c8c784 T _ZN18C_HMI_INT_APP_BASE10clearVCardEv
04c8c7d4 T _ZN18C_HMI_INT_APP_BASE12clearContactEv
04c8c824 T _ZNK18C_HMI_INT_APP_BASE29isAuthenticationWebPageNeededEv
04c8c958 T _ZN18C_HMI_INT_APP_BASE23clearAuthenticationDataEv
04c8ca08 T _ZNK18C_HMI_INT_APP_BASE18getPhoneCallNumberERSs
04c8ca60 T _ZNK18C_HMI_INT_APP_BASE19getUpdatedUserAgentERSs
04c8cab8 T _ZNK18C_HMI_INT_APP_BASE13GetDUNProfileER15t_dun_profile_t
04c8cb24 T _ZN18C_HMI_INT_APP_BASE13SetDUNProfileER15t_dun_profile_t
04c8cb8c T _ZNK18C_HMI_INT_APP_BASE25getPortalNotificationDataER23t_portal_notification_t
04c8cbe4 T _ZN18C_HMI_INT_APP_BASE18getCurrentPageInfoERSbIwSt11char_traitsIwESaIwEES4_S4_
04c8cc8c T _ZN18C_HMI_INT_APP_BASE16getPageLoadedUrlERSbIwSt11char_traitsIwESaIwEE
04c8cce4 T _ZN18C_HMI_INT_APP_BASE17getPageLoadedInfoERSbIwSt11char_traitsIwESaIwEES4_S4_
04c8cd8c T _ZNK18C_HMI_INT_APP_BASE17getTextInputValueERSbIwSt11char_traitsIwESaIwEE
04c8cde4 T _ZNK18C_HMI_INT_APP_BASE14getFaviconPathERSbIwSt11char_traitsIwESaIwEE
04c8ce3c T _ZN18C_HMI_INT_APP_BASE10getRootUrlERKSbIwSt11char_traitsIwESaIwEERS3_
04c8cfc8 T _ZN18C_HMI_INT_APP_BASE25setAuthenticationPasswordERSbIwSt11char_traitsIwESaIwEE
04c8d0e8 T _ZN18C_HMI_INT_APP_BASE25setAuthenticationUserNameERSbIwSt11char_traitsIwESaIwEE
04c8d208 T _ZNK18C_HMI_INT_APP_BASE26getUserGuidePageTobeLoadedERSbIwSt11char_traitsIwESaIwEE
04c8d298 T _ZNK18C_HMI_INT_APP_BASE16getUrlToBeLoadedERSbIwSt11char_traitsIwESaIwEE
04c8d33c T _ZN18C_HMI_INT_APP_BASE16setUrlToBeLoadedERKSbIwSt11char_traitsIwESaIwEE
04c8d3dc T _ZN18C_HMI_INT_APP_BASE21GetDynamicSpyDataInfoER9CMMString
04c8d68c T _ZN18C_HMI_INT_APP_BASE19UpdateStaticSpyDataER9CMMString
04c8d768 T _ZN18C_HMI_INT_APP_BASE26WriteStaticSpyEventHandlerEv
04c8d8c0 T _ZN18C_HMI_INT_APP_BASE9DeleteSpyEv
04c8d92c T _ZN18C_HMI_INT_APP_BASE9CreateSpyEv
04c8d9e0 T _ZN18C_HMI_INT_APP_BASE15launchPhoneCallEv
04c8dabc T _ZN18C_HMI_INT_APP_BASE9saveVCardEv
04c8dca0 T _ZN18C_HMI_INT_APP_BASE11saveContactEv
04c8df84 T _ZN18C_HMI_INT_APP_BASE34getAuthenticationDataUpToDateStateERb
04c8e39c T _ZN18C_HMI_INT_APP_BASE24isFavoriteAlreadyPresentERKSs
04c8e4cc T _ZN18C_HMI_INT_APP_BASE23storeAuthenticationDataEv
04c8e6b0 T _ZN18C_HMI_INT_APP_BASE15UpdateUserAgentEv
04c8edec T _ZN18C_HMI_INT_APP_BASE19GetActiveDeviceTypeEv
04c8ef70 T _ZN18C_HMI_INT_APP_BASE24changeSourceAudioToTunerEv
04c8f09c T _ZN18C_HMI_INT_APP_BASE16StopPopupPMSBeepEv
04c8f130 T _ZN18C_HMI_INT_APP_BASE17StartPopupPMSBeepEv
04c8f32c T _ZN18C_HMI_INT_APP_BASE16closeBrowserMenuEv
04c8f3c8 T _ZN18C_HMI_INT_APP_BASE12storeCookiesEv
04c8f790 T _ZN18C_HMI_INT_APP_BASE21embedUserGuideWebViewEb
04c8f8d8 T _ZN18C_HMI_INT_APP_BASE12embedWebViewEbb
04c8fa8c T _ZN18C_HMI_INT_APP_BASE22destroyZ1BrowserWidgetEv
04c8fcb0 T _ZN18C_HMI_INT_APP_BASE21createZ1BrowserWidgetEv
04c8fdbc T _ZN18C_HMI_INT_APP_BASE22destroyZ0BrowserWidgetEv
04c8ff74 T _ZN18C_HMI_INT_APP_BASE21createZ0BrowserWidgetEv
04c901cc T _ZN18C_HMI_INT_APP_BASE24loadUntrustedCertificateEv
04c90328 T _ZN18C_HMI_INT_APP_BASE21getHistoryForDropDownERSt6vectorISbIwSt11char_traitsIwESaIwEESaIS4_EE
04c90580 T _ZN18C_HMI_INT_APP_BASE6SetCSSERSs
04c9075c T _ZN18C_HMI_INT_APP_BASE32getCurrentHistoryFocusedItemInfoERSbIwSt11char_traitsIwESaIwEES4_S4_
04c90b68 T _ZN18C_HMI_INT_APP_BASE26SetUserGuidePageTobeLoadedERSbIwSt11char_traitsIwESaIwEE
04c90d3c T _ZN18C_HMI_INT_APP_BASE14ActivatePortalEb
04c90f3c T _ZN18C_HMI_INT_APP_BASE15SetVKBDLanguageEl
04c90fec T _ZNK18C_HMI_INT_APP_BASE15GetVKBDLanguageERl
04c9112c T _ZN18C_HMI_INT_APP_BASE13GetVKBStringsEv
04c911fc T _ZN18C_HMI_INT_APP_BASE20SetCookiesAcceptanceEv
04c912f8 T _ZN18C_HMI_INT_APP_BASE18SetPopupAcceptanceEv
04c913f4 T _ZN18C_HMI_INT_APP_BASE8SetProxyEv
04c917b4 T _ZN18C_HMI_INT_APP_BASE10loadPortalEv
04c91818 T _ZN18C_HMI_INT_APP_BASE23InitJavascriptInterfaceEv
04c93dc8 T _ZN18C_HMI_INT_APP_BASE19reloadHistoryFromDBEv
04c93e28 T _ZN18C_HMI_INT_APP_BASE30reloadFavoritesOrderTypeFromDBEv
04c93e78 T _ZN18C_HMI_INT_APP_BASE21reloadFavoritesFromDBEv
04c93ed8 T _ZN18C_HMI_INT_APP_BASE14GetBrowserDataEv
04c94ab0 T _ZN18C_HMI_INT_APP_BASE24dumpConnectivitySettingsEv
04c94fd0 T _ZN18C_HMI_INT_APP_BASE26GetConnectivityScreensDataEv
04c952bc T _ZN18C_HMI_INT_APP_BASE10closePopupE14t_int_popup_id
04c95384 T _ZN18C_HMI_INT_APP_BASE9openPopupE14t_int_popup_id15t_int_popup_ctx
04c95414 T _ZN18C_HMI_INT_APP_BASE9openPanelEttl
04c955bc T _ZNK18C_HMI_INT_APP_BASE21GetNetworkAudioClientEv
04c95644 T _ZNK18C_HMI_INT_APP_BASE15IsModuleDisplayEv
04c956e0 T _ZNK18C_HMI_INT_APP_BASE18GetCurrentScreenIDEv
04c95800 T _ZNK18C_HMI_INT_APP_BASE17IsZ1BrowserActiveEv
04c95884 T _ZN18C_HMI_INT_APP_BASE14refreshHistoryEv
04c95928 T _ZN18C_HMI_INT_APP_BASE16refreshFavoritesEv
04c959a4 T _ZN18C_HMI_INT_APP_BASE15RefreshZ0ScreenEv
04c95a3c T _ZN18C_HMI_INT_APP_BASE24RefreshCurrentMenuScreenEv
04c95aec T _ZN18C_HMI_INT_APP_BASE22forceInternetZ0DisplayEv
04c95cb0 T _ZN18C_HMI_INT_APP_BASE36LaunchGuidanceFromPortalNotificationEv
04c96090 T _ZN18C_HMI_INT_APP_BASE15popupPMSConsultEv
04c961d0 T _ZN18C_HMI_INT_APP_BASE12RegisterMenuEv
04c9791c T _ZN18C_HMI_INT_APP_BASE15GetConfigOptionEPKcRb
04c98098 T _ZN18C_HMI_INT_APP_BASE20AskVideoNotificationEv
04c98254 T _ZN18C_HMI_INT_APP_BASE6BackupEv
04c984c4 T _ZN18C_HMI_INT_APP_BASE4BodyEv
04c986ec T _ZN18C_HMI_INT_APP_BASE19module_registrationEv
04c98778 T _ZN18C_HMI_INT_APP_BASE8FinalizeEv
04c98b64 T _ZN18C_HMI_INT_APP_BASE10InitializeEv
04c9a078 T _ZN18C_HMI_INT_APP_BASE7InitAppEv
04c9b738 T _ZN18C_HMI_INT_APP_BASED0Ev
04c9cc9c T _ZN18C_HMI_INT_APP_BASED1Ev
04c9e200 T _ZN18C_HMI_INT_APP_BASED2Ev
04c9f764 T _ZN18C_HMI_INT_APP_BASEC1ERKSsm
04ca0c24 T _ZN18C_HMI_INT_APP_BASE8InstanceEv
04ca0d88 T _ZN18C_HMI_INT_APP_BASEC2ERKSsm
04ca23bc T _GLOBAL__I__ZN20C_HMI_INT_Browser_DB17getSavedPasswordsERSt6vectorI10t_passwordSaIS1_EE
04ca2404 T _ZN20C_HMI_INT_Browser_DB25getUsernamePasswordForUrlERKSsjRSsS2_
04ca27b4 T _ZN20C_HMI_INT_Browser_DB19getBookmarkPresenceERKSsRb
04ca2b00 T _ZN20C_HMI_INT_Browser_DB12getUserAgentERSs
04ca2e4c T _ZN20C_HMI_INT_Browser_DB18getPopupAcceptanceERb
04ca319c T _ZN20C_HMI_INT_Browser_DB20getCookiesAcceptanceERb
04ca34ec T _ZN20C_HMI_INT_Browser_DB18getIdOldestHistoryERi
04ca3828 T _ZN20C_HMI_INT_Browser_DB19getIdOldestFavoriteERi
04ca3b64 T _ZN20C_HMI_INT_Browser_DB18getHistorySortTypeER12t_order_type
04ca3ea0 T _ZN20C_HMI_INT_Browser_DB20getFavoritesSortTypeER12t_order_type
04ca41dc T _ZN20C_HMI_INT_Browser_DB15getSavedCookiesERSt6vectorI15t_cookie_structSaIS1_EE
04ca47e0 T _ZN20C_HMI_INT_Browser_DB10getHistoryERSt6vectorI9t_historySaIS1_EE12t_order_type
04ca4d20 T _ZN20C_HMI_INT_Browser_DB12getFavoritesERSt6vectorI10t_favoriteSaIS1_EE12t_order_type
04ca5218 T _ZN20C_HMI_INT_Browser_DB17getSavedPasswordsERSt6vectorI10t_passwordSaIS1_EE
04ca5870 T _GLOBAL__I__ZN25C_HMI_INT_Connectivity_DB18getPreferredDeviceERi
04ca58b8 T _ZN25C_HMI_INT_Connectivity_DB13getDUNProfileER15t_dun_profile_t
04ca5dd4 T _ZN25C_HMI_INT_Connectivity_DB18getPreferredDeviceERi
04ca6110 T _ZN21C_HMI_INT_DisplayData11RefreshDataEi
04ca613c T _ZN21C_HMI_INT_DisplayData11GetTextDataEiRSbIwSt11char_traitsIwESaIwEE
04ca616c T _ZN21C_HMI_INT_DisplayData14GetNumaricDataEiRm
04ca619c T _ZN21C_HMI_INT_DisplayData12GetRangeDataEiRmS0_S0_S0_
04ca634c T _GLOBAL__I__ZN21C_HMI_INT_DisplayData12m_p_instanceE
04ca6394 T _ZN21C_HMI_INT_DisplayData14GetBooleanDataEiRb
04ca6458 T _ZN21C_HMI_INT_DisplayDataD0Ev
04ca64d4 T _ZN21C_HMI_INT_DisplayDataD1Ev
04ca6550 T _ZN21C_HMI_INT_DisplayDataD2Ev
04ca65cc T _ZN21C_HMI_INT_DisplayDataC1EP18C_HMI_ModuleThread
04ca6688 T _ZN21C_HMI_INT_DisplayData8InstanceEP18C_HMI_ModuleThread
04ca6780 T _ZN21C_HMI_INT_DisplayDataC2EP18C_HMI_ModuleThread
04ca683c T _ZN12C_HMI_INT_F112SetZ2TimeoutEm
04ca69d4 T _GLOBAL__I__ZN12C_HMI_INT_F118m_p_class_instanceE
04ca6a1c T _ZN12C_HMI_INT_F115setPSAPortalUrlERSbIwSt11char_traitsIwESaIwEE
04ca6a70 T _ZN12C_HMI_INT_F113loadPortalUrlEv
04ca6b88 T _ZN12C_HMI_INT_F113GetZ0ScreenIdERi
04ca6bdc T _ZN12C_HMI_INT_F114UpdateZ0ScreenEv
04ca6de0 T _ZN12C_HMI_INT_F113SetZ0ScreenIdEi
04ca6e34 T _ZN12C_HMI_INT_F115GetZ0DispStatusERN18C_HMI_DispMgntBase15t_display_stateE
04ca6e98 T _ZN12C_HMI_INT_F1C1EP21C_HMI_INT_DisplayDataP18C_HMI_ModuleThreadP32C_BCM_HMI_DESKTOP_SERVICE_CLIENT
04ca6fb0 T _ZN12C_HMI_INT_F18InstanceEP21C_HMI_INT_DisplayDataP18C_HMI_ModuleThreadP32C_BCM_HMI_DESKTOP_SERVICE_CLIENT
04ca70b8 T _ZN12C_HMI_INT_F1C2EP21C_HMI_INT_DisplayDataP18C_HMI_ModuleThreadP32C_BCM_HMI_DESKTOP_SERVICE_CLIENT
04ca71d0 T _ZN12C_HMI_INT_F1D0Ev
04ca72d0 T _ZN12C_HMI_INT_F1D1Ev
04ca73d0 T _ZN12C_HMI_INT_F1D2Ev
04ca74d0 T _ZN15C_HMI_INT_F1_Z013SetZ0ScreenIdEi
04ca7500 T _ZN15C_HMI_INT_F1_Z013GetZ0ScreenIdERi
04ca7554 T _ZN15C_HMI_INT_F1_Z018GetCurrentScreenIdERi
04ca7704 T _GLOBAL__I__ZN15C_HMI_INT_F1_Z0C2EP21C_HMI_INT_DisplayDataP18C_HMI_ModuleThread
04ca774c T _ZN15C_HMI_INT_F1_Z028HandleTouchEventOnNoPortalZ0ER18C_HMI_TouchMessage
04ca79d8 T _ZN15C_HMI_INT_F1_Z026HandleTouchEventOnPortalZ0ER18C_HMI_TouchMessage
04ca7af4 T _ZN15C_HMI_INT_F1_Z016HandleTouchEventER18C_HMI_TouchMessage
04ca7b84 T _ZN15C_HMI_INT_F1_Z0D0Ev
04ca7c00 T _ZN15C_HMI_INT_F1_Z0D1Ev
04ca7c7c T _ZN15C_HMI_INT_F1_Z0D2Ev
04ca7cf8 T _ZN15C_HMI_INT_F1_Z0C1EP21C_HMI_INT_DisplayDataP18C_HMI_ModuleThread
04ca7d78 T _ZN15C_HMI_INT_F1_Z0C2EP21C_HMI_INT_DisplayDataP18C_HMI_ModuleThread
04ca7df8 T _ZN18C_HMI_INT_APP_BASE27HandleInternetConfigMessageER17C_HMI_BaseMessage
04ca7f90 T _GLOBAL__I__ZN18C_HMI_INT_APP_BASE13HandleMessageER17C_HMI_BaseMessage
04ca7fd8 T _ZN18C_HMI_INT_APP_BASE22HandleFromVideoMessageER17C_HMI_BaseMessage
04ca863c T _ZN18C_HMI_INT_APP_BASE26HandleInternetEventMessageER17C_HMI_BaseMessage
04cac5c4 T _ZN18C_HMI_INT_APP_BASE18HandleTouchMessageER17C_HMI_BaseMessage
04cacbc4 T _ZN18C_HMI_INT_APP_BASE19HandleSystemMessageER17C_HMI_BaseMessage
04cadeac T _ZN18C_HMI_INT_APP_BASE17HandleDBusMessageER17C_HMI_BaseMessage
04cb4b50 T _ZN18C_HMI_INT_APP_BASE20HandleTimeOutMessageER17C_HMI_BaseMessage
04cb5164 T _ZN18C_HMI_INT_APP_BASE13HandleMessageER17C_HMI_BaseMessage
04cb52ac T _ZN15C_HMI_INT_Utils12stringToDateERSs
04cb56ec T _ZN15C_HMI_INT_Utils14obscuredStringERKSs
04cb576c T _ZN15C_HMI_INT_Utils12dateToStringEm
04cb5874 T _ZN15C_HMI_INT_Utils13UniverseToCssEi
04cb5938 T _ZN15C_HMI_INT_Utils15WStringToStringERKSbIwSt11char_traitsIwESaIwEE
04cb59e8 T _ZN15C_HMI_INT_Utils15StringToWStringERKSsRKSbIwSt11char_traitsIwESaIwEE
04cb5c94 T _GLOBAL__I_HMI_INT_Browser
04cb5cdc T _Z17shUpdateUserAgentPc
04cb5e0c T _Z9shLoadUrlPc
04cb6060 T _Z17main_hmi_internetv
04cb61fc T _ZN29C_HMI_INET_BrowserMenu_BSC_Z111GetItemTypeEtR11t_item_type
04cb62a4 T _ZN29C_HMI_INET_BrowserMenu_BSC_Z115GetMenuItemDataEtRmS0_S0_b
04cb62f0 T _ZN29C_HMI_INET_BrowserMenu_BSC_Z132GetNonStandardMenuItemFromWidgetERKtRt
04cb6540 T _GLOBAL__I__ZN29C_HMI_INET_BrowserMenu_BSC_Z1C2EmmP18C_HMI_INT_APP_BASEm
04cb6588 T _ZN29C_HMI_INET_BrowserMenu_BSC_Z124setForwardHistoryEnabledEb
04cb662c T _ZN29C_HMI_INET_BrowserMenu_BSC_Z121setBackHistoryEnabledEb
04cb66d0 T _ZN29C_HMI_INET_BrowserMenu_BSC_Z119EndScreenOperationsEv
04cb67f8 T _ZN29C_HMI_INET_BrowserMenu_BSC_Z121SetBrowserPreferencesEv
04cb6afc T _ZN29C_HMI_INET_BrowserMenu_BSC_Z121updateRecentPagesListEv
04cb6b98 T _ZN29C_HMI_INET_BrowserMenu_BSC_Z119refreshReloadButtonEb
04cb6c3c T _ZN29C_HMI_INET_BrowserMenu_BSC_Z111loadFaviconERSbIwSt11char_traitsIwESaIwEE
04cb6e78 T _ZN29C_HMI_INET_BrowserMenu_BSC_Z117updatePadlockIconEv
04cb6f30 T _ZN29C_HMI_INET_BrowserMenu_BSC_Z117refreshAddressBarEv
04cb7048 T _ZN29C_HMI_INET_BrowserMenu_BSC_Z18OnZoomInEv
04cb713c T _ZN29C_HMI_INET_BrowserMenu_BSC_Z19OnZoomOutEv
04cb7230 T _ZN29C_HMI_INET_BrowserMenu_BSC_Z111GotoAddressERSbIwSt11char_traitsIwESaIwEE
04cb7370 T _ZN29C_HMI_INET_BrowserMenu_BSC_Z114OnGotoHomePageEv
04cb7620 T _ZN29C_HMI_INET_BrowserMenu_BSC_Z112OnReloadPageEv
04cb79a8 T _ZN29C_HMI_INET_BrowserMenu_BSC_Z114OnGotoNextPageEv
04cb7a9c T _ZN29C_HMI_INET_BrowserMenu_BSC_Z118OnGotoPreviousPageEv
04cb7b90 T _ZN29C_HMI_INET_BrowserMenu_BSC_Z117HandleScreenEventER18C_HMI_TouchMessage
04cb8290 T _ZN29C_HMI_INET_BrowserMenu_BSC_Z119SetScreenPropertiesEv
04cb8ee8 T _ZN29C_HMI_INET_BrowserMenu_BSC_Z1D0Ev
04cb8f90 T _ZN29C_HMI_INET_BrowserMenu_BSC_Z1D1Ev
04cb9038 T _ZN29C_HMI_INET_BrowserMenu_BSC_Z1D2Ev
04cb90e0 T _ZN29C_HMI_INET_BrowserMenu_BSC_Z1C1EmmP18C_HMI_INT_APP_BASEm
04cb9264 T _ZN29C_HMI_INET_BrowserMenu_BSC_Z1C2EmmP18C_HMI_INT_APP_BASEm
04cb93e8 T _ZN33C_HMI_INET_DUNDatatransfer_BSC_Z119EndScreenOperationsEv
04cb9408 T _ZN33C_HMI_INET_DUNDatatransfer_BSC_Z111GetItemTypeEtR11t_item_type
04cb9478 T _ZN33C_HMI_INET_DUNDatatransfer_BSC_Z115GetMenuItemDataEtRmS0_S0_b
04cb965c T _GLOBAL__I__ZN33C_HMI_INET_DUNDatatransfer_BSC_Z1C2EmmP18C_HMI_INT_APP_BASEm
04cb96a4 T _ZN33C_HMI_INET_DUNDatatransfer_BSC_Z113RefreshScreenEii
04cb9acc T _ZN33C_HMI_INET_DUNDatatransfer_BSC_Z117HandleScreenEventER18C_HMI_TouchMessage
04cb9c18 T _ZN33C_HMI_INET_DUNDatatransfer_BSC_Z119SetScreenPropertiesEv
04cb9cd4 T _ZN33C_HMI_INET_DUNDatatransfer_BSC_Z1D0Ev
04cb9d60 T _ZN33C_HMI_INET_DUNDatatransfer_BSC_Z1D1Ev
04cb9dec T _ZN33C_HMI_INET_DUNDatatransfer_BSC_Z1D2Ev
04cb9e78 T _ZN33C_HMI_INET_DUNDatatransfer_BSC_Z1C1EmmP18C_HMI_INT_APP_BASEm
04cb9f2c T _ZN33C_HMI_INET_DUNDatatransfer_BSC_Z1C2EmmP18C_HMI_INT_APP_BASEm
04cba154 T _GLOBAL__I__ZN39C_HMI_INET_DUNIdentifierEntering_VKB_Z1C2EmmP18C_HMI_INT_APP_BASEm
04cba19c T _ZN39C_HMI_INET_DUNIdentifierEntering_VKB_Z119EndScreenOperationsEv
04cba1e8 T _ZN39C_HMI_INET_DUNIdentifierEntering_VKB_Z125onVirtualKeyboardValidateEv
04cba44c T _ZN39C_HMI_INET_DUNIdentifierEntering_VKB_Z119SetScreenPropertiesEv
04cbaa80 T _ZN39C_HMI_INET_DUNIdentifierEntering_VKB_Z1D0Ev
04cbab0c T _ZN39C_HMI_INET_DUNIdentifierEntering_VKB_Z1D1Ev
04cbab98 T _ZN39C_HMI_INET_DUNIdentifierEntering_VKB_Z1D2Ev
04cbac24 T _ZN39C_HMI_INET_DUNIdentifierEntering_VKB_Z1C1EmmP18C_HMI_INT_APP_BASEm
04cbadac T _ZN39C_HMI_INET_DUNIdentifierEntering_VKB_Z1C2EmmP18C_HMI_INT_APP_BASEm
04cbb0a8 T _GLOBAL__I__ZN46C_HMI_INET_DUNIdentifierModificationAPN_VKB_Z1C2EmmP18C_HMI_INT_APP_BASEm
04cbb0f0 T _ZN46C_HMI_INET_DUNIdentifierModificationAPN_VKB_Z119EndScreenOperationsEv
04cbb13c T _ZN46C_HMI_INET_DUNIdentifierModificationAPN_VKB_Z125onVirtualKeyboardValidateEv
04cbb314 T _ZN46C_HMI_INET_DUNIdentifierModificationAPN_VKB_Z119SetScreenPropertiesEv
04cbb698 T _ZN46C_HMI_INET_DUNIdentifierModificationAPN_VKB_Z1D0Ev
04cbb724 T _ZN46C_HMI_INET_DUNIdentifierModificationAPN_VKB_Z1D1Ev
04cbb7b0 T _ZN46C_HMI_INET_DUNIdentifierModificationAPN_VKB_Z1D2Ev
04cbb83c T _ZN46C_HMI_INET_DUNIdentifierModificationAPN_VKB_Z1C1EmmP18C_HMI_INT_APP_BASEm
04cbb938 T _ZN46C_HMI_INET_DUNIdentifierModificationAPN_VKB_Z1C2EmmP18C_HMI_INT_APP_BASEm
04cbba34 T _ZN29C_HMI_INET_DUNSettings_CFM_Z111GetItemTypeEtR11t_item_type
04cbbadc T _ZN29C_HMI_INET_DUNSettings_CFM_Z115GetMenuItemDataEtRmS0_S0_b
04cbbb4c T _ZN29C_HMI_INET_DUNSettings_CFM_Z132GetNonStandardMenuItemFromWidgetERKtRt
04cbbd9c T _GLOBAL__I__ZN29C_HMI_INET_DUNSettings_CFM_Z1C2EmmP18C_HMI_INT_APP_BASEm
04cbbde4 T _ZN29C_HMI_INET_DUNSettings_CFM_Z122refreshDUNSettingsMenuER19t_hmi_inet_DUN_mode
04cbc63c T _ZN29C_HMI_INET_DUNSettings_CFM_Z117HandleScreenEventER18C_HMI_TouchMessage
04cbcb80 T _ZN29C_HMI_INET_DUNSettings_CFM_Z119EndScreenOperationsEv
04cbcbe8 T _ZN29C_HMI_INET_DUNSettings_CFM_Z119SetScreenPropertiesEv
04cbcd60 T _ZN29C_HMI_INET_DUNSettings_CFM_Z1D0Ev
04cbce08 T _ZN29C_HMI_INET_DUNSettings_CFM_Z1D1Ev
04cbceb0 T _ZN29C_HMI_INET_DUNSettings_CFM_Z1D2Ev
04cbcf58 T _ZN29C_HMI_INET_DUNSettings_CFM_Z1C1EmmP18C_HMI_INT_APP_BASEm
04cbd0ac T _ZN29C_HMI_INET_DUNSettings_CFM_Z1C2EmmP18C_HMI_INT_APP_BASEm
04cbd200 T _ZN34C_HMI_INET_FavoriteEntering_VKB_Z110openParentEv
04cbd3c4 T _GLOBAL__I__ZN34C_HMI_INET_FavoriteEntering_VKB_Z1C2EmmP18C_HMI_INT_APP_BASEm
04cbd40c T _ZN34C_HMI_INET_FavoriteEntering_VKB_Z119EndScreenOperationsEv
04cbd458 T _ZN34C_HMI_INET_FavoriteEntering_VKB_Z133handleNonStandardOnEnterInstancesEm
04cbd554 T _ZN34C_HMI_INET_FavoriteEntering_VKB_Z129handleNonStandardVKBInstancesEmm
04cbd6b0 T _ZN34C_HMI_INET_FavoriteEntering_VKB_Z125onVirtualKeyboardValidateEv
04cbdc00 T _ZN34C_HMI_INET_FavoriteEntering_VKB_Z119SetScreenPropertiesEv
04cbe1ac T _ZN34C_HMI_INET_FavoriteEntering_VKB_Z1D0Ev
04cbe254 T _ZN34C_HMI_INET_FavoriteEntering_VKB_Z1D1Ev
04cbe2fc T _ZN34C_HMI_INET_FavoriteEntering_VKB_Z1D2Ev
04cbe3a4 T _ZN34C_HMI_INET_FavoriteEntering_VKB_Z1C1EmmP18C_HMI_INT_APP_BASEm
04cc00b0 T _ZN34C_HMI_INET_FavoriteEntering_VKB_Z1C2EmmP18C_HMI_INT_APP_BASEm
04cc1dbc T _ZN31C_HMI_INET_FavoritesMenu_M3Z_Z411GetItemTypeEtR11t_item_type
04cc1e3c T _ZN31C_HMI_INET_FavoritesMenu_M3Z_Z415GetMenuItemDataEtRmS0_S0_b
04cc1eb8 T _ZN31C_HMI_INET_FavoritesMenu_M3Z_Z410openParentEv
04cc1f08 T _ZN31C_HMI_INET_FavoritesMenu_M3Z_Z419EndScreenOperationsEv
04cc20c0 T _GLOBAL__I__ZN31C_HMI_INET_FavoritesMenu_M3Z_Z4C2EmmP18C_HMI_INT_APP_BASEm
04cc2108 T _ZN31C_HMI_INET_FavoritesMenu_M3Z_Z417updateOrderButtonEi
04cc2208 T _ZN31C_HMI_INET_FavoritesMenu_M3Z_Z419updateFavoritesListEv
04cc2748 T _ZN31C_HMI_INET_FavoritesMenu_M3Z_Z426refreshFavoriteMenuButtonsEb
04cc27e0 T _ZN31C_HMI_INET_FavoritesMenu_M3Z_Z427refreshFavoritesMenu_M3Z_Z1Ev
04cc2ea0 T _ZN31C_HMI_INET_FavoritesMenu_M3Z_Z419SetScreenPropertiesEv
04cc2f9c T _ZN31C_HMI_INET_FavoritesMenu_M3Z_Z421OnFavoritesSortByNameEv
04cc3034 T _ZN31C_HMI_INET_FavoritesMenu_M3Z_Z421OnFavoritesSortByDateEv
04cc30cc T _ZN31C_HMI_INET_FavoritesMenu_M3Z_Z417HandleScreenEventER18C_HMI_TouchMessage
04cc3b68 T _ZN31C_HMI_INET_FavoritesMenu_M3Z_Z4D0Ev
04cc3c00 T _ZN31C_HMI_INET_FavoritesMenu_M3Z_Z4D1Ev
04cc3c98 T _ZN31C_HMI_INET_FavoritesMenu_M3Z_Z4D2Ev
04cc3d30 T _ZN31C_HMI_INET_FavoritesMenu_M3Z_Z4C1EmmP18C_HMI_INT_APP_BASEm
04cc3e0c T _ZN31C_HMI_INET_FavoritesMenu_M3Z_Z4C2EmmP18C_HMI_INT_APP_BASEm
04cc3ee8 T _ZN29C_HMI_INET_HistoryMenu_M3Z_Z411GetItemTypeEtR11t_item_type
04cc3f40 T _ZN29C_HMI_INET_HistoryMenu_M3Z_Z415GetMenuItemDataEtRmS0_S0_b
04cc3f8c T _ZN29C_HMI_INET_HistoryMenu_M3Z_Z410openParentEv
04cc3fdc T _ZN29C_HMI_INET_HistoryMenu_M3Z_Z419EndScreenOperationsEv
04cc4184 T _GLOBAL__I__ZN29C_HMI_INET_HistoryMenu_M3Z_Z4C2EmmP18C_HMI_INT_APP_BASEm
04cc41cc T _ZN29C_HMI_INET_HistoryMenu_M3Z_Z417updateOrderButtonEi
04cc42cc T _ZN29C_HMI_INET_HistoryMenu_M3Z_Z417updateHistoryListEv
04cc480c T _ZN29C_HMI_INET_HistoryMenu_M3Z_Z425refreshHistoryMenuButtonsEb
04cc48a4 T _ZN29C_HMI_INET_HistoryMenu_M3Z_Z426refreshHistoricMenu_M3Z_Z1Ev
04cc4f64 T _ZN29C_HMI_INET_HistoryMenu_M3Z_Z419SetScreenPropertiesEv
04cc5060 T _ZN29C_HMI_INET_HistoryMenu_M3Z_Z419OnHistorySortByNameEv
04cc50f0 T _ZN29C_HMI_INET_HistoryMenu_M3Z_Z419OnHistorySortByDateEv
04cc5180 T _ZN29C_HMI_INET_HistoryMenu_M3Z_Z417HandleScreenEventER18C_HMI_TouchMessage
04cc5ca4 T _ZN29C_HMI_INET_HistoryMenu_M3Z_Z4D0Ev
04cc5d3c T _ZN29C_HMI_INET_HistoryMenu_M3Z_Z4D1Ev
04cc5dd4 T _ZN29C_HMI_INET_HistoryMenu_M3Z_Z4D2Ev
04cc5e6c T _ZN29C_HMI_INET_HistoryMenu_M3Z_Z4C1EmmP18C_HMI_INT_APP_BASEm
04cc5f2c T _ZN29C_HMI_INET_HistoryMenu_M3Z_Z4C2EmmP18C_HMI_INT_APP_BASEm
04cc5fec T _ZN38C_HMI_INET_POPUP_AddToFavorites_QST_Z114InitScreenDataEv
04cc6180 T _GLOBAL__I__ZN38C_HMI_INET_POPUP_AddToFavorites_QST_Z1C2EP18c_popup_req_structP32C_BCM_HMI_DESKTOP_SERVICE_CLIENTP18C_HMI_INT_APP_BASEm18t_popup_timer_typem
04cc61c8 T _ZN38C_HMI_INET_POPUP_AddToFavorites_QST_Z15CloseEv
04cc6224 T _ZN38C_HMI_INET_POPUP_AddToFavorites_QST_Z116OnAddToFavoritesEv
04cc67ec T _ZN38C_HMI_INET_POPUP_AddToFavorites_QST_Z17onClickEmm
04cc68a4 T _ZN38C_HMI_INET_POPUP_AddToFavorites_QST_Z1D0Ev
04cc6930 T _ZN38C_HMI_INET_POPUP_AddToFavorites_QST_Z1D1Ev
04cc69bc T _ZN38C_HMI_INET_POPUP_AddToFavorites_QST_Z1D2Ev
04cc6a48 T _ZN38C_HMI_INET_POPUP_AddToFavorites_QST_Z1C1EP18c_popup_req_structP32C_BCM_HMI_DESKTOP_SERVICE_CLIENTP18C_HMI_INT_APP_BASEm18t_popup_timer_typem
04cc6b40 T _ZN38C_HMI_INET_POPUP_AddToFavorites_QST_Z1C2EP18c_popup_req_structP32C_BCM_HMI_DESKTOP_SERVICE_CLIENTP18C_HMI_INT_APP_BASEm18t_popup_timer_typem
04cc6c38 T _ZN42C_HMI_INET_POPUP_BrowserOptionsMenu_CTX_Z414InitScreenDataEv
04cc6dd8 T _GLOBAL__I__ZN42C_HMI_INET_POPUP_BrowserOptionsMenu_CTX_Z4C2EP18c_popup_req_structP32C_BCM_HMI_DESKTOP_SERVICE_CLIENTP18C_HMI_INT_APP_BASEm18t_popup_timer_typem
04cc6e20 T _ZN42C_HMI_INET_POPUP_BrowserOptionsMenu_CTX_Z45CloseEv
04cc6e9c T _ZN42C_HMI_INET_POPUP_BrowserOptionsMenu_CTX_Z413OnAddHomePageEv
04cc7050 T _ZN42C_HMI_INET_POPUP_BrowserOptionsMenu_CTX_Z47onClickEmm
04cc71bc T _ZN42C_HMI_INET_POPUP_BrowserOptionsMenu_CTX_Z4D0Ev
04cc7248 T _ZN42C_HMI_INET_POPUP_BrowserOptionsMenu_CTX_Z4D1Ev
04cc72d4 T _ZN42C_HMI_INET_POPUP_BrowserOptionsMenu_CTX_Z4D2Ev
04cc7360 T _ZN42C_HMI_INET_POPUP_BrowserOptionsMenu_CTX_Z4C1EP18c_popup_req_structP32C_BCM_HMI_DESKTOP_SERVICE_CLIENTP18C_HMI_INT_APP_BASEm18t_popup_timer_typem
04cc7464 T _ZN42C_HMI_INET_POPUP_BrowserOptionsMenu_CTX_Z4C2EP18c_popup_req_structP32C_BCM_HMI_DESKTOP_SERVICE_CLIENTP18C_HMI_INT_APP_BASEm18t_popup_timer_typem
04cc76dc T _GLOBAL__I__ZN38C_HMI_INET_POPUP_DUNDNSEntering_VKB_Z1C2EP18c_popup_req_structP32C_BCM_HMI_DESKTOP_SERVICE_CLIENTP18C_HMI_INT_APP_BASEm18t_popup_timer_typem
04cc7724 T _ZN38C_HMI_INET_POPUP_DUNDNSEntering_VKB_Z15CloseEv
04cc7770 T _ZN38C_HMI_INET_POPUP_DUNDNSEntering_VKB_Z116HandleTouchEventER18C_HMI_TouchMessage
04cc7b18 T _ZN38C_HMI_INET_POPUP_DUNDNSEntering_VKB_Z122ValidateDNSEnteringVKBEv
04cc7da8 T _ZN38C_HMI_INET_POPUP_DUNDNSEntering_VKB_Z118InitDNSEnteringVKBEv
04cc81dc T _ZN38C_HMI_INET_POPUP_DUNDNSEntering_VKB_Z124onVirtualKeyboardDiscardEv
04cc8228 T _ZN38C_HMI_INET_POPUP_DUNDNSEntering_VKB_Z125onVirtualKeyboardValidateEv
04cc8328 T _ZN38C_HMI_INET_POPUP_DUNDNSEntering_VKB_Z114InitScreenDataEv
04cc8470 T _ZN38C_HMI_INET_POPUP_DUNDNSEntering_VKB_Z1D0Ev
04cc84fc T _ZN38C_HMI_INET_POPUP_DUNDNSEntering_VKB_Z1D1Ev
04cc8588 T _ZN38C_HMI_INET_POPUP_DUNDNSEntering_VKB_Z1D2Ev
04cc8614 T _ZN38C_HMI_INET_POPUP_DUNDNSEntering_VKB_Z1C1EP18c_popup_req_structP32C_BCM_HMI_DESKTOP_SERVICE_CLIENTP18C_HMI_INT_APP_BASEm18t_popup_timer_typem
04cc8770 T _ZN38C_HMI_INET_POPUP_DUNDNSEntering_VKB_Z1C2EP18c_popup_req_structP32C_BCM_HMI_DESKTOP_SERVICE_CLIENTP18C_HMI_INT_APP_BASEm18t_popup_timer_typem
04cc88cc T _ZN43C_HMI_INET_POPUP_FavoriteItemRemoval_QST_Z114InitScreenDataEv
04cc8a60 T _GLOBAL__I__ZN43C_HMI_INET_POPUP_FavoriteItemRemoval_QST_Z1C2EP18c_popup_req_structP32C_BCM_HMI_DESKTOP_SERVICE_CLIENTP18C_HMI_INT_APP_BASEm18t_popup_timer_typem
04cc8aa8 T _ZN43C_HMI_INET_POPUP_FavoriteItemRemoval_QST_Z17onClickEmm
04cc8c40 T _ZN43C_HMI_INET_POPUP_FavoriteItemRemoval_QST_Z1D0Ev
04cc8ccc T _ZN43C_HMI_INET_POPUP_FavoriteItemRemoval_QST_Z1D1Ev
04cc8d58 T _ZN43C_HMI_INET_POPUP_FavoriteItemRemoval_QST_Z1D2Ev
04cc8de4 T _ZN43C_HMI_INET_POPUP_FavoriteItemRemoval_QST_Z1C1EP18c_popup_req_structP32C_BCM_HMI_DESKTOP_SERVICE_CLIENTP18C_HMI_INT_APP_BASEm18t_popup_timer_typem
04cc8e7c T _ZN43C_HMI_INET_POPUP_FavoriteItemRemoval_QST_Z1C2EP18c_popup_req_structP32C_BCM_HMI_DESKTOP_SERVICE_CLIENTP18C_HMI_INT_APP_BASEm18t_popup_timer_typem
04cc9088 T _GLOBAL__I__ZN40C_HMI_INET_POPUP_FreeTextEntering_VKB_Z1C2EP18c_popup_req_structP32C_BCM_HMI_DESKTOP_SERVICE_CLIENTP18C_HMI_INT_APP_BASEm18t_popup_timer_typem
04cc90d0 T _ZN40C_HMI_INET_POPUP_FreeTextEntering_VKB_Z15CloseEv
04cc911c T _ZN40C_HMI_INET_POPUP_FreeTextEntering_VKB_Z124onVirtualKeyboardDiscardEv
04cc9168 T _ZN40C_HMI_INET_POPUP_FreeTextEntering_VKB_Z125onVirtualKeyboardValidateEv
04cc9450 T _ZN40C_HMI_INET_POPUP_FreeTextEntering_VKB_Z114InitScreenDataEv
04cc9c98 T _ZN40C_HMI_INET_POPUP_FreeTextEntering_VKB_Z1D0Ev
04cc9d24 T _ZN40C_HMI_INET_POPUP_FreeTextEntering_VKB_Z1D1Ev
04cc9db0 T _ZN40C_HMI_INET_POPUP_FreeTextEntering_VKB_Z1D2Ev
04cc9e3c T _ZN40C_HMI_INET_POPUP_FreeTextEntering_VKB_Z1C1EP18c_popup_req_structP32C_BCM_HMI_DESKTOP_SERVICE_CLIENTP18C_HMI_INT_APP_BASEm18t_popup_timer_typem
04cc9efc T _ZN40C_HMI_INET_POPUP_FreeTextEntering_VKB_Z1C2EP18c_popup_req_structP32C_BCM_HMI_DESKTOP_SERVICE_CLIENTP18C_HMI_INT_APP_BASEm18t_popup_timer_typem
04cc9fbc T _ZN43C_HMI_INET_POPUP_HistoricItemRemoval_QST_Z114InitScreenDataEv
04cca150 T _GLOBAL__I__ZN43C_HMI_INET_POPUP_HistoricItemRemoval_QST_Z1C2EP18c_popup_req_structP32C_BCM_HMI_DESKTOP_SERVICE_CLIENTP18C_HMI_INT_APP_BASEm18t_popup_timer_typem
04cca198 T _ZN43C_HMI_INET_POPUP_HistoricItemRemoval_QST_Z17onClickEmm
04cca2dc T _ZN43C_HMI_INET_POPUP_HistoricItemRemoval_QST_Z1D0Ev
04cca368 T _ZN43C_HMI_INET_POPUP_HistoricItemRemoval_QST_Z1D1Ev
04cca3f4 T _ZN43C_HMI_INET_POPUP_HistoricItemRemoval_QST_Z1D2Ev
04cca480 T _ZN43C_HMI_INET_POPUP_HistoricItemRemoval_QST_Z1C1EP18c_popup_req_structP32C_BCM_HMI_DESKTOP_SERVICE_CLIENTP18C_HMI_INT_APP_BASEm18t_popup_timer_typem
04cca518 T _ZN43C_HMI_INET_POPUP_HistoricItemRemoval_QST_Z1C2EP18c_popup_req_structP32C_BCM_HMI_DESKTOP_SERVICE_CLIENTP18C_HMI_INT_APP_BASEm18t_popup_timer_typem
04cca724 T _GLOBAL__I__ZN46C_HMI_INET_POPUP_InternetConnectionFail_INF_Z1C2EP18c_popup_req_structP32C_BCM_HMI_DESKTOP_SERVICE_CLIENTP18C_HMI_INT_APP_BASEm18t_popup_timer_typem
04cca76c T _ZN46C_HMI_INET_POPUP_InternetConnectionFail_INF_Z15CloseEv
04cca82c T _ZN46C_HMI_INET_POPUP_InternetConnectionFail_INF_Z114InitScreenDataEv
04ccac04 T _ZN46C_HMI_INET_POPUP_InternetConnectionFail_INF_Z17onClickEmm
04ccaf3c T _ZN46C_HMI_INET_POPUP_InternetConnectionFail_INF_Z1D0Ev
04ccafc8 T _ZN46C_HMI_INET_POPUP_InternetConnectionFail_INF_Z1D1Ev
04ccb054 T _ZN46C_HMI_INET_POPUP_InternetConnectionFail_INF_Z1D2Ev
04ccb0e0 T _ZN46C_HMI_INET_POPUP_InternetConnectionFail_INF_Z1C1EP18c_popup_req_structP32C_BCM_HMI_DESKTOP_SERVICE_CLIENTP18C_HMI_INT_APP_BASEm18t_popup_timer_typem
04ccb190 T _ZN46C_HMI_INET_POPUP_InternetConnectionFail_INF_Z1C2EP18c_popup_req_structP32C_BCM_HMI_DESKTOP_SERVICE_CLIENTP18C_HMI_INT_APP_BASEm18t_popup_timer_typem
04ccb240 T _ZN46C_HMI_INET_POPUP_InternetConnectionLost_INF_Z114InitScreenDataEv
04ccb3e0 T _GLOBAL__I__ZN46C_HMI_INET_POPUP_InternetConnectionLost_INF_Z1C2EP18c_popup_req_structP32C_BCM_HMI_DESKTOP_SERVICE_CLIENTP18C_HMI_INT_APP_BASEm18t_popup_timer_typem
04ccb428 T _ZN46C_HMI_INET_POPUP_InternetConnectionLost_INF_Z15CloseEv
04ccb4f8 T _ZN46C_HMI_INET_POPUP_InternetConnectionLost_INF_Z17onClickEmm
04ccb574 T _ZN46C_HMI_INET_POPUP_InternetConnectionLost_INF_Z1D0Ev
04ccb600 T _ZN46C_HMI_INET_POPUP_InternetConnectionLost_INF_Z1D1Ev
04ccb68c T _ZN46C_HMI_INET_POPUP_InternetConnectionLost_INF_Z1D2Ev
04ccb718 T _ZN46C_HMI_INET_POPUP_InternetConnectionLost_INF_Z1C1EP18c_popup_req_structP32C_BCM_HMI_DESKTOP_SERVICE_CLIENTP18C_HMI_INT_APP_BASEm18t_popup_timer_typem
04ccb7bc T _ZN46C_HMI_INET_POPUP_InternetConnectionLost_INF_Z1C2EP18c_popup_req_structP32C_BCM_HMI_DESKTOP_SERVICE_CLIENTP18C_HMI_INT_APP_BASEm18t_popup_timer_typem
04ccb9d4 T _GLOBAL__I__ZN39C_HMI_INET_POPUP_LaunchPhoneCall_QST_Z1C2EP18c_popup_req_structP32C_BCM_HMI_DESKTOP_SERVICE_CLIENTP18C_HMI_INT_APP_BASEm18t_popup_timer_typem
04ccba1c T _ZN39C_HMI_INET_POPUP_LaunchPhoneCall_QST_Z15CloseEv
04ccba78 T _ZN39C_HMI_INET_POPUP_LaunchPhoneCall_QST_Z114InitScreenDataEv
04ccbc4c T _ZN39C_HMI_INET_POPUP_LaunchPhoneCall_QST_Z17onClickEmm
04ccbd1c T _ZN39C_HMI_INET_POPUP_LaunchPhoneCall_QST_Z1D0Ev
04ccbda8 T _ZN39C_HMI_INET_POPUP_LaunchPhoneCall_QST_Z1D1Ev
04ccbe34 T _ZN39C_HMI_INET_POPUP_LaunchPhoneCall_QST_Z1D2Ev
04ccbec0 T _ZN39C_HMI_INET_POPUP_LaunchPhoneCall_QST_Z1C1EP18c_popup_req_structP32C_BCM_HMI_DESKTOP_SERVICE_CLIENTP18C_HMI_INT_APP_BASEm18t_popup_timer_typem
04ccbf58 T _ZN39C_HMI_INET_POPUP_LaunchPhoneCall_QST_Z1C2EP18c_popup_req_structP32C_BCM_HMI_DESKTOP_SERVICE_CLIENTP18C_HMI_INT_APP_BASEm18t_popup_timer_typem
04ccbff0 T _ZN36C_HMI_INET_POPUP_PasswordSave_QST_Z114InitScreenDataEv
04ccc184 T _GLOBAL__I__ZN36C_HMI_INET_POPUP_PasswordSave_QST_Z1C2EP18c_popup_req_structP32C_BCM_HMI_DESKTOP_SERVICE_CLIENTP18C_HMI_INT_APP_BASEm18t_popup_timer_typem
04ccc1cc T _ZN36C_HMI_INET_POPUP_PasswordSave_QST_Z15CloseEv
04ccc228 T _ZN36C_HMI_INET_POPUP_PasswordSave_QST_Z17onClickEmm
04ccc2f8 T _ZN36C_HMI_INET_POPUP_PasswordSave_QST_Z1D0Ev
04ccc384 T _ZN36C_HMI_INET_POPUP_PasswordSave_QST_Z1D1Ev
04ccc410 T _ZN36C_HMI_INET_POPUP_PasswordSave_QST_Z1D2Ev
04ccc49c T _ZN36C_HMI_INET_POPUP_PasswordSave_QST_Z1C1EP18c_popup_req_structP32C_BCM_HMI_DESKTOP_SERVICE_CLIENTP18C_HMI_INT_APP_BASEm18t_popup_timer_typem
04ccc534 T _ZN36C_HMI_INET_POPUP_PasswordSave_QST_Z1C2EP18c_popup_req_structP32C_BCM_HMI_DESKTOP_SERVICE_CLIENTP18C_HMI_INT_APP_BASEm18t_popup_timer_typem
04ccc5cc T _ZN39C_HMI_INET_POPUP_SavePhoneNumber_QST_Z114InitScreenDataEv
04ccc760 T _GLOBAL__I__ZN39C_HMI_INET_POPUP_SavePhoneNumber_QST_Z1C2EP18c_popup_req_structP32C_BCM_HMI_DESKTOP_SERVICE_CLIENTP18C_HMI_INT_APP_BASEm18t_popup_timer_typem
04ccc7a8 T _ZN39C_HMI_INET_POPUP_SavePhoneNumber_QST_Z15CloseEv
04ccc804 T _ZN39C_HMI_INET_POPUP_SavePhoneNumber_QST_Z17onClickEmm
04ccc8d4 T _ZN39C_HMI_INET_POPUP_SavePhoneNumber_QST_Z1D0Ev
04ccc960 T _ZN39C_HMI_INET_POPUP_SavePhoneNumber_QST_Z1D1Ev
04ccc9ec T _ZN39C_HMI_INET_POPUP_SavePhoneNumber_QST_Z1D2Ev
04ccca78 T _ZN39C_HMI_INET_POPUP_SavePhoneNumber_QST_Z1C1EP18c_popup_req_structP32C_BCM_HMI_DESKTOP_SERVICE_CLIENTP18C_HMI_INT_APP_BASEm18t_popup_timer_typem
04cccb10 T _ZN39C_HMI_INET_POPUP_SavePhoneNumber_QST_Z1C2EP18c_popup_req_structP32C_BCM_HMI_DESKTOP_SERVICE_CLIENTP18C_HMI_INT_APP_BASEm18t_popup_timer_typem
04cccba8 T _ZN33C_HMI_INET_POPUP_SaveVcard_QST_Z114InitScreenDataEv
04cccd3c T _GLOBAL__I__ZN33C_HMI_INET_POPUP_SaveVcard_QST_Z1C2EP18c_popup_req_structP32C_BCM_HMI_DESKTOP_SERVICE_CLIENTP18C_HMI_INT_APP_BASEm18t_popup_timer_typem
04cccd84 T _ZN33C_HMI_INET_POPUP_SaveVcard_QST_Z15CloseEv
04cccde0 T _ZN33C_HMI_INET_POPUP_SaveVcard_QST_Z17onClickEmm
04ccceb0 T _ZN33C_HMI_INET_POPUP_SaveVcard_QST_Z1D0Ev
04cccf3c T _ZN33C_HMI_INET_POPUP_SaveVcard_QST_Z1D1Ev
04cccfc8 T _ZN33C_HMI_INET_POPUP_SaveVcard_QST_Z1D2Ev
04ccd054 T _ZN33C_HMI_INET_POPUP_SaveVcard_QST_Z1C1EP18c_popup_req_structP32C_BCM_HMI_DESKTOP_SERVICE_CLIENTP18C_HMI_INT_APP_BASEm18t_popup_timer_typem
04ccd0ec T _ZN33C_HMI_INET_POPUP_SaveVcard_QST_Z1C2EP18c_popup_req_structP32C_BCM_HMI_DESKTOP_SERVICE_CLIENTP18C_HMI_INT_APP_BASEm18t_popup_timer_typem
04ccd2f8 T _GLOBAL__I__ZN46C_HMI_INET_POPUP_StopInternetConnection_INF_Z2C2EP18c_popup_req_structP32C_BCM_HMI_DESKTOP_SERVICE_CLIENTP18C_HMI_INT_APP_BASEm18t_popup_timer_typem
04ccd340 T _ZN46C_HMI_INET_POPUP_StopInternetConnection_INF_Z214InitScreenDataEv
04ccd3f0 T _ZN46C_HMI_INET_POPUP_StopInternetConnection_INF_Z27onClickEmm
04ccd450 T _ZN46C_HMI_INET_POPUP_StopInternetConnection_INF_Z2D0Ev
04ccd4dc T _ZN46C_HMI_INET_POPUP_StopInternetConnection_INF_Z2D1Ev
04ccd568 T _ZN46C_HMI_INET_POPUP_StopInternetConnection_INF_Z2D2Ev
04ccd5f4 T _ZN46C_HMI_INET_POPUP_StopInternetConnection_INF_Z2C1EP18c_popup_req_structP32C_BCM_HMI_DESKTOP_SERVICE_CLIENTP18C_HMI_INT_APP_BASEm18t_popup_timer_typem
04ccd68c T _ZN46C_HMI_INET_POPUP_StopInternetConnection_INF_Z2C2EP18c_popup_req_structP32C_BCM_HMI_DESKTOP_SERVICE_CLIENTP18C_HMI_INT_APP_BASEm18t_popup_timer_typem
04ccd724 T _ZN39C_HMI_INET_POPUP_WebNotAvailable_INF_Z114InitScreenDataEv
04ccd8c4 T _GLOBAL__I__ZN39C_HMI_INET_POPUP_WebNotAvailable_INF_Z1C2EP18c_popup_req_structP32C_BCM_HMI_DESKTOP_SERVICE_CLIENTP18C_HMI_INT_APP_BASEm18t_popup_timer_typem
04ccd90c T _ZN39C_HMI_INET_POPUP_WebNotAvailable_INF_Z15CloseEv
04ccd9dc T _ZN39C_HMI_INET_POPUP_WebNotAvailable_INF_Z17onClickEmm
04ccda58 T _ZN39C_HMI_INET_POPUP_WebNotAvailable_INF_Z1D0Ev
04ccdae4 T _ZN39C_HMI_INET_POPUP_WebNotAvailable_INF_Z1D1Ev
04ccdb70 T _ZN39C_HMI_INET_POPUP_WebNotAvailable_INF_Z1D2Ev
04ccdbfc T _ZN39C_HMI_INET_POPUP_WebNotAvailable_INF_Z1C1EP18c_popup_req_structP32C_BCM_HMI_DESKTOP_SERVICE_CLIENTP18C_HMI_INT_APP_BASEm18t_popup_timer_typem
04ccdca0 T _ZN39C_HMI_INET_POPUP_WebNotAvailable_INF_Z1C2EP18c_popup_req_structP32C_BCM_HMI_DESKTOP_SERVICE_CLIENTP18C_HMI_INT_APP_BASEm18t_popup_timer_typem
04ccdd44 T _ZN40C_HMI_INET_POPUP_WebStopPlayingBT_QST_Z314InitScreenDataEv
04ccdee4 T _GLOBAL__I__ZN40C_HMI_INET_POPUP_WebStopPlayingBT_QST_Z3C2EP18c_popup_req_structP32C_BCM_HMI_DESKTOP_SERVICE_CLIENTP18C_HMI_INT_APP_BASEm18t_popup_timer_typem
04ccdf2c T _ZN40C_HMI_INET_POPUP_WebStopPlayingBT_QST_Z35CloseEv
04ccdffc T _ZN40C_HMI_INET_POPUP_WebStopPlayingBT_QST_Z37onClickEmm
04cce258 T _ZN40C_HMI_INET_POPUP_WebStopPlayingBT_QST_Z3D0Ev
04cce2e4 T _ZN40C_HMI_INET_POPUP_WebStopPlayingBT_QST_Z3D1Ev
04cce370 T _ZN40C_HMI_INET_POPUP_WebStopPlayingBT_QST_Z3D2Ev
04cce3fc T _ZN40C_HMI_INET_POPUP_WebStopPlayingBT_QST_Z3C1EP18c_popup_req_structP32C_BCM_HMI_DESKTOP_SERVICE_CLIENTP18C_HMI_INT_APP_BASEm18t_popup_timer_typem
04cce4a0 T _ZN40C_HMI_INET_POPUP_WebStopPlayingBT_QST_Z3C2EP18c_popup_req_structP32C_BCM_HMI_DESKTOP_SERVICE_CLIENTP18C_HMI_INT_APP_BASEm18t_popup_timer_typem
04cce544 T _ZN28C_HMI_INET_Secondary_Menu_Z111GetItemTypeEtR11t_item_type
04cce5ec T _ZN28C_HMI_INET_Secondary_Menu_Z115GetMenuItemDataEtRmS0_S0_b
04cce630 T _ZN28C_HMI_INET_Secondary_Menu_Z117HandleScreenEventER18C_HMI_TouchMessage
04cce7d0 T _GLOBAL__I__ZN28C_HMI_INET_Secondary_Menu_Z1C2EmmP18C_HMI_INT_APP_BASEm
04cce818 T _ZN28C_HMI_INET_Secondary_Menu_Z132GetNonStandardMenuItemFromWidgetERKtRt
04cce974 T _ZN28C_HMI_INET_Secondary_Menu_Z119SetScreenPropertiesEv
04ccea70 T _ZN28C_HMI_INET_Secondary_Menu_Z1D0Ev
04cceafc T _ZN28C_HMI_INET_Secondary_Menu_Z1D1Ev
04cceb88 T _ZN28C_HMI_INET_Secondary_Menu_Z1D2Ev
04ccec14 T _ZN28C_HMI_INET_Secondary_Menu_Z1C1EmmP18C_HMI_INT_APP_BASEm
04cced00 T _ZN28C_HMI_INET_Secondary_Menu_Z1C2EmmP18C_HMI_INT_APP_BASEm
04ccedec T _ZN29C_HMI_INET_URLEntering_VKB_Z110openParentEv
04ccefb0 T _GLOBAL__I__ZN29C_HMI_INET_URLEntering_VKB_Z1C2EmmP18C_HMI_INT_APP_BASEm
04cceff8 T _ZN29C_HMI_INET_URLEntering_VKB_Z119EndScreenOperationsEv
04ccf044 T _ZN29C_HMI_INET_URLEntering_VKB_Z133handleNonStandardOnEnterInstancesEm
04ccf140 T _ZN29C_HMI_INET_URLEntering_VKB_Z125onVirtualKeyboardValidateEv
04ccf2d4 T _ZN29C_HMI_INET_URLEntering_VKB_Z129handleNonStandardVKBInstancesEmm
04ccf4a4 T _ZN29C_HMI_INET_URLEntering_VKB_Z119SetScreenPropertiesEv
04ccf860 T _ZN29C_HMI_INET_URLEntering_VKB_Z1D0Ev
04ccf908 T _ZN29C_HMI_INET_URLEntering_VKB_Z1D1Ev
04ccf9b0 T _ZN29C_HMI_INET_URLEntering_VKB_Z1D2Ev
04ccfa58 T _ZN29C_HMI_INET_URLEntering_VKB_Z1C1EmmP18C_HMI_INT_APP_BASEm
04cd1774 T _ZN29C_HMI_INET_URLEntering_VKB_Z1C2EmmP18C_HMI_INT_APP_BASEm
04cd3490 T _ZN27C_HMI_INET_UserGuide_BSC_Z111GetItemTypeEtR11t_item_type
04cd34ec T _ZN27C_HMI_INET_UserGuide_BSC_Z115GetMenuItemDataEtRmS0_S0_b
04cd355c T _ZN27C_HMI_INET_UserGuide_BSC_Z117HandleScreenEventER18C_HMI_TouchMessage
04cd3590 T _ZN27C_HMI_INET_UserGuide_BSC_Z112ReloadPortalEb
04cd3738 T _GLOBAL__I__ZN27C_HMI_INET_UserGuide_BSC_Z1C2EmmP18C_HMI_INT_APP_BASEm
04cd3780 T _ZN27C_HMI_INET_UserGuide_BSC_Z126UpdateLanguageforUserGuideER9CMMString
04cd3a4c T _ZN27C_HMI_INET_UserGuide_BSC_Z119EndScreenOperationsEv
04cd3c48 T _ZN27C_HMI_INET_UserGuide_BSC_Z119SetScreenPropertiesEv
04cd4324 T _ZN27C_HMI_INET_UserGuide_BSC_Z1D0Ev
04cd4418 T _ZN27C_HMI_INET_UserGuide_BSC_Z1D1Ev
04cd450c T _ZN27C_HMI_INET_UserGuide_BSC_Z1D2Ev
04cd4600 T _ZN27C_HMI_INET_UserGuide_BSC_Z1C1EmmP18C_HMI_INT_APP_BASEm
04cd474c T _ZN27C_HMI_INET_UserGuide_BSC_Z1C2EmmP18C_HMI_INT_APP_BASEm
04cd4898 T _ZN20C_HMI_INT_MENU_STATE15openBrotherItemEt
04cd48f8 T _ZN20C_HMI_INT_MENU_STATE13openChildItemEt
04cd4acc T _GLOBAL__I__ZN20C_HMI_INT_MENU_STATEC2EmmP18C_HMI_INT_APP_BASE18t_menu_screen_typeP17t_menu_widget_mapiS4_immb
04cd4b14 T _ZN20C_HMI_INT_MENU_STATE13activatePopupE14t_int_popup_id15t_int_popup_ctx
04cd4b80 T _ZN20C_HMI_INT_MENU_STATED0Ev
04cd4c78 T _ZN20C_HMI_INT_MENU_STATED1Ev
04cd4d70 T _ZN20C_HMI_INT_MENU_STATED2Ev
04cd4e68 T _ZN20C_HMI_INT_MENU_STATEC1EmmP18C_HMI_INT_APP_BASE18t_menu_screen_typeP17t_menu_widget_mapiS4_immb
04cd5004 T _ZN20C_HMI_INT_MENU_STATEC2EmmP18C_HMI_INT_APP_BASE18t_menu_screen_typeP17t_menu_widget_mapiS4_immb
04cd51a0 T _ZN24C_HMI_INT_MENU_STATE_VKB11GetItemTypeEtR11t_item_type
04cd5204 T _ZN24C_HMI_INT_MENU_STATE_VKB15GetMenuItemDataEtRmS0_S0_b
04cd5248 T _ZN24C_HMI_INT_MENU_STATE_VKB24onVirtualKeyboardDiscardEv
04cd53dc T _GLOBAL__I__ZN24C_HMI_INT_MENU_STATE_VKBC2EmmP18C_HMI_INT_APP_BASE18t_menu_screen_typeP17t_menu_widget_mapiS4_immb
04cd5424 T _ZN24C_HMI_INT_MENU_STATE_VKB17HandleScreenEventER18C_HMI_TouchMessage
04cd5670 T _ZN24C_HMI_INT_MENU_STATE_VKB13activatePopupE14t_int_popup_id15t_int_popup_ctx
04cd56dc T _ZN24C_HMI_INT_MENU_STATE_VKBD0Ev
04cd57d4 T _ZN24C_HMI_INT_MENU_STATE_VKBD1Ev
04cd58cc T _ZN24C_HMI_INT_MENU_STATE_VKBD2Ev
04cd59c4 T _ZN24C_HMI_INT_MENU_STATE_VKBC1EmmP18C_HMI_INT_APP_BASE18t_menu_screen_typeP17t_menu_widget_mapiS4_immb
04cd5b00 T _ZN24C_HMI_INT_MENU_STATE_VKBC2EmmP18C_HMI_INT_APP_BASE18t_menu_screen_typeP17t_menu_widget_mapiS4_immb
04cd5c3c T _ZN15C_HMI_INT_POPUP16HandleTouchEventER18C_HMI_TouchMessage
04cd5dd4 T _GLOBAL__I__ZN15C_HMI_INT_POPUP18m_p_class_instanceE
04cd5e1c T _ZN15C_HMI_INT_POPUP9openPopupE14t_int_popup_id15t_int_popup_ctx
04cd5f90 T _ZN15C_HMI_INT_POPUP10InitializeEv
04cd75d4 T _ZN15C_HMI_INT_POPUPD0Ev
04cd7c84 T _ZN15C_HMI_INT_POPUPD1Ev
04cd8334 T _ZN15C_HMI_INT_POPUPD2Ev
04cd89e4 T _ZN15C_HMI_INT_POPUPC1EP18C_HMI_INT_APP_BASE
04cd8b58 T _ZN15C_HMI_INT_POPUP8InstanceEP18C_HMI_INT_APP_BASE
04cd8c50 T _ZN15C_HMI_INT_POPUPC2EP18C_HMI_INT_APP_BASE
04cd8dc4 T _ZN19C_HMI_INT_POPUP_INF14InitScreenDataEv
04cd8f64 T _GLOBAL__I__ZN19C_HMI_INT_POPUP_INFC2EP18c_popup_req_structP32C_BCM_HMI_DESKTOP_SERVICE_CLIENTP18C_HMI_INT_APP_BASEm18t_popup_timer_typem
04cd8fac T _ZN19C_HMI_INT_POPUP_INF5CloseEv
04cd9038 T _ZN19C_HMI_INT_POPUP_INF7onClickEmm
04cd90b4 T _ZN19C_HMI_INT_POPUP_INFD0Ev
04cd9140 T _ZN19C_HMI_INT_POPUP_INFD1Ev
04cd91cc T _ZN19C_HMI_INT_POPUP_INFD2Ev
04cd9258 T _ZN19C_HMI_INT_POPUP_INFC1EP18c_popup_req_structP32C_BCM_HMI_DESKTOP_SERVICE_CLIENTP18C_HMI_INT_APP_BASEm18t_popup_timer_typem
04cd92fc T _ZN19C_HMI_INT_POPUP_INFC2EP18c_popup_req_structP32C_BCM_HMI_DESKTOP_SERVICE_CLIENTP18C_HMI_INT_APP_BASEm18t_popup_timer_typem
04cd9514 T _GLOBAL__I__ZN19C_HMI_INT_POPUP_PMSC2EP18c_popup_req_structP32C_BCM_HMI_DESKTOP_SERVICE_CLIENTP18C_HMI_INT_APP_BASEm18t_popup_timer_typem
04cd955c T _ZN19C_HMI_INT_POPUP_PMS14InitScreenDataEv
04cd9c44 T _ZN19C_HMI_INT_POPUP_PMS7onClickEmm
04cd9dc4 T _ZN19C_HMI_INT_POPUP_PMSD0Ev
04cd9e50 T _ZN19C_HMI_INT_POPUP_PMSD1Ev
04cd9edc T _ZN19C_HMI_INT_POPUP_PMSD2Ev
04cd9f68 T _ZN19C_HMI_INT_POPUP_PMSC1EP18c_popup_req_structP32C_BCM_HMI_DESKTOP_SERVICE_CLIENTP18C_HMI_INT_APP_BASEm18t_popup_timer_typem
04cda000 T _ZN19C_HMI_INT_POPUP_PMSC2EP18c_popup_req_structP32C_BCM_HMI_DESKTOP_SERVICE_CLIENTP18C_HMI_INT_APP_BASEm18t_popup_timer_typem
04cda098 T _ZN21C_HMI_INT_POPUP_STATE10setContextE15t_int_popup_ctx
04cda0c8 T _ZN21C_HMI_INT_POPUP_STATE4OpenEv
04cda0e8 T _ZN21C_HMI_INT_POPUP_STATE5CloseEv
04cda108 T _ZN21C_HMI_INT_POPUP_STATE14InitScreenDataEv
04cda128 T _ZN21C_HMI_INT_POPUP_STATE19HandleKeyboardEventER21C_HMI_KeyboardMessage
04cda14c T _ZN21C_HMI_INT_POPUP_STATE7onClickEmm
04cda174 T _ZN21C_HMI_INT_POPUP_STATE11onLongClickEmm
04cda19c T _ZN21C_HMI_INT_POPUP_STATE14onCheckChangedEmb
04cda33c T _GLOBAL__I__ZN21C_HMI_INT_POPUP_STATEC2EP18c_popup_req_structP32C_BCM_HMI_DESKTOP_SERVICE_CLIENTP18C_HMI_INT_APP_BASEm18t_popup_timer_typem
04cda384 T _ZN21C_HMI_INT_POPUP_STATE16HandleTouchEventER18C_HMI_TouchMessage
04cda68c T _ZN21C_HMI_INT_POPUP_STATED0Ev
04cda784 T _ZN21C_HMI_INT_POPUP_STATED1Ev
04cda87c T _ZN21C_HMI_INT_POPUP_STATED2Ev
04cda974 T _ZN21C_HMI_INT_POPUP_STATEC1EP18c_popup_req_structP32C_BCM_HMI_DESKTOP_SERVICE_CLIENTP18C_HMI_INT_APP_BASEm18t_popup_timer_typem
04cdaa84 T _ZN21C_HMI_INT_POPUP_STATEC2EP18c_popup_req_structP32C_BCM_HMI_DESKTOP_SERVICE_CLIENTP18C_HMI_INT_APP_BASEm18t_popup_timer_typem
04cdab94 T _ZN25C_HMI_INT_POPUP_STATE_VKB10setContextE15t_int_popup_ctx
04cdabc4 T _ZN25C_HMI_INT_POPUP_STATE_VKB4OpenEv
04cdabe4 T _ZN25C_HMI_INT_POPUP_STATE_VKB5CloseEv
04cdad78 T _GLOBAL__I__ZN25C_HMI_INT_POPUP_STATE_VKBC2EP18c_popup_req_structP32C_BCM_HMI_DESKTOP_SERVICE_CLIENTP18C_HMI_INT_APP_BASEm18t_popup_timer_typem
04cdadc0 T _ZN25C_HMI_INT_POPUP_STATE_VKB16HandleTouchEventER18C_HMI_TouchMessage
04cdb004 T _ZN25C_HMI_INT_POPUP_STATE_VKBD0Ev
04cdb0fc T _ZN25C_HMI_INT_POPUP_STATE_VKBD1Ev
04cdb1f4 T _ZN25C_HMI_INT_POPUP_STATE_VKBD2Ev
04cdb2ec T _ZN25C_HMI_INT_POPUP_STATE_VKBC1EP18c_popup_req_structP32C_BCM_HMI_DESKTOP_SERVICE_CLIENTP18C_HMI_INT_APP_BASEm18t_popup_timer_typem
04cdb410 T _ZN25C_HMI_INT_POPUP_STATE_VKBC2EP18c_popup_req_structP32C_BCM_HMI_DESKTOP_SERVICE_CLIENTP18C_HMI_INT_APP_BASEm18t_popup_timer_typem
04cdb6a8 T _GLOBAL__I__ZN38C_HMI_INT_POPUP_VIE_INFO_EXPORT_STATUSC2EP18c_popup_req_structP32C_BCM_HMI_DESKTOP_SERVICE_CLIENTP18C_HMI_INT_APP_BASEm18t_popup_timer_typem
04cdb6f0 T _ZN38C_HMI_INT_POPUP_VIE_INFO_EXPORT_STATUS14InitScreenDataEv
04cdb7d8 T _ZN38C_HMI_INT_POPUP_VIE_INFO_EXPORT_STATUS7onClickEmm
04cdb838 T _ZN38C_HMI_INT_POPUP_VIE_INFO_EXPORT_STATUSD0Ev
04cdb8c4 T _ZN38C_HMI_INT_POPUP_VIE_INFO_EXPORT_STATUSD1Ev
04cdb950 T _ZN38C_HMI_INT_POPUP_VIE_INFO_EXPORT_STATUSD2Ev
04cdb9dc T _ZN38C_HMI_INT_POPUP_VIE_INFO_EXPORT_STATUSC1EP18c_popup_req_structP32C_BCM_HMI_DESKTOP_SERVICE_CLIENTP18C_HMI_INT_APP_BASEm18t_popup_timer_typem
04cdba74 T _ZN38C_HMI_INT_POPUP_VIE_INFO_EXPORT_STATUSC2EP18c_popup_req_structP32C_BCM_HMI_DESKTOP_SERVICE_CLIENTP18C_HMI_INT_APP_BASEm18t_popup_timer_typem
04cdbb0c T _ZN16C_HMI_INT_ScreenC2EmP18C_HMI_INT_APP_BASE
04cdbb5c T _ZN16C_HMI_INT_ScreenC1EmP18C_HMI_INT_APP_BASE
04cdbd20 T _GLOBAL__I__ZN16C_HMI_INT_ScreenC2EmP18C_HMI_INT_APP_BASE
04cdbd68 T _ZN16C_HMI_INT_Screen19SetSelectedVKBFieldEmmb
04cdbeb4 T _ZN16C_HMI_INT_Screen21RequestVKBTranslationEm
04cdbfe4 T _ZN16C_HMI_INT_Screen10HideWidgetEmmb
04cdc130 T _ZN16C_HMI_INT_Screen9ClearListEmm
04cdc268 T _ZN16C_HMI_INT_Screen21UpdateComplexListDataEmmmRSt6vectorIN20C_HMI_ToVideoMessage15c_composed_dataESaIS2_EE
04cdc3d8 T _ZN16C_HMI_INT_ScreenD0Ev
04cdc43c T _ZN16C_HMI_INT_ScreenD1Ev
04cdc4a0 T _ZN16C_HMI_INT_ScreenD2Ev
04cdc504 T _ZN16C_HMI_INT_Screen15UpdateComboListEmmRKSt6vectorISbIwSt11char_traitsIwESaIwEESaIS4_EEj
04cdc870 T _ZN16C_HMI_INT_Screen15UpdatePictoPathEmmRKSbIwSt11char_traitsIwESaIwEE
04cdc9b4 T _ZN16C_HMI_INT_Screen24UpdateFaviconProgressBarEmmRKSbIwSt11char_traitsIwESaIwEE
04cdca24 T _ZN16C_HMI_INT_Screen20UpdateBackgroundPathEmmRKSbIwSt11char_traitsIwESaIwEE
04cdcb6c T _ZN16C_HMI_INT_Screen13UpdateFaviconEmmRKSbIwSt11char_traitsIwESaIwEE
04cdcbdc T _ZN16C_HMI_INT_Screen14UpdateBargraphEmmmmm
04cdcdcc T _ZN16C_HMI_INT_Screen17UpdateComplexListEmmmRSt6vectorIN20C_HMI_ToVideoMessage15c_composed_listESaIS2_EE
04cdcfb0 T _ZN16C_HMI_INT_Screen17UpdateCheckButtonEmmb
04cdd0fc T _ZN16C_HMI_INT_Screen12EnableWidgetEmmb
04cdd248 T _ZN16C_HMI_INT_Screen18UpdateVKBTextFieldEmmRKSbIwSt11char_traitsIwESaIwEE
04cdd388 T _ZN16C_HMI_INT_Screen11UpdateLabelEmmRKSbIwSt11char_traitsIwESaIwEE
04cdd4c8 T _ZN16C_HMI_INT_Screen17UpdateSetTextDataEmmm
04cdd608 T _ZN16C_HMI_INT_Screen11UpdateLabelEmmm
04cdd748 T _ZN16C_HMI_INT_Screen18UpdatePictoIndexedEmmm
04cdd88c T _ZN16C_HMI_INT_Screen11UpdatePictoEmmm
04cdd9d0 T _ZN13C_HMI_INT_VKB8SetVKBIPEb
04cdda04 T _ZN13C_HMI_INT_VKB24setUppercaseKeyboardTextEm
04cdda34 T _ZN13C_HMI_INT_VKB24setLowercaseKeyboardTextEm
04cddbd8 T _GLOBAL__I__ZN13C_HMI_INT_VKBC2EmmP18C_HMI_INT_APP_BASE
04cddc20 T _ZN13C_HMI_INT_VKB24CopyAddressFromComboListERSbIwSt11char_traitsIwESaIwEE
04cddca8 T _ZN13C_HMI_INT_VKB22ChooseProperLangStringERSbIwSt11char_traitsIwESaIwEE
04cde120 T _ZNK13C_HMI_INT_VKB7wfield4Ev
04cde184 T _ZNK13C_HMI_INT_VKB7wfield3Ev
04cde1e8 T _ZNK13C_HMI_INT_VKB7wfield2Ev
04cde24c T _ZNK13C_HMI_INT_VKB7wfield1Ev
04cde2b0 T _ZN13C_HMI_INT_VKB33handleNonStandardOnEnterInstancesEm
04cde324 T _ZN13C_HMI_INT_VKB29handleNonStandardVKBInstancesEmm
04cde39c T _ZN13C_HMI_INT_VKB17InsertInitialTextEmmbRKSbIwSt11char_traitsIwESaIwEE
04cde4d0 T _ZN13C_HMI_INT_VKB26updateInputStringDisplayedEv
04cde694 T _ZNK13C_HMI_INT_VKB14addDataToGroupEmRKSbIwSt11char_traitsIwESaIwEER20C_HMI_ToVideoMessageb
04cde858 T _ZN13C_HMI_INT_VKB27CreateLanguageChangeMessageEv
04cdec74 T _ZN13C_HMI_INT_VKB19CreateSpeciaMessageEv
04cdf06c T _ZN13C_HMI_INT_VKB22CreateLowercaseMessageEv
04cdf3dc T _ZN13C_HMI_INT_VKB22CreateUppercaseMessageEv
04cdf74c T _ZN13C_HMI_INT_VKB26updateAlphanumericKeyboardEv
04cdf838 T _ZN13C_HMI_INT_VKB26updateSpecialCharsKeyboardEv
04cdf8f8 T _ZNK13C_HMI_INT_VKB14splitIpAddressERKSbIwSt11char_traitsIwESaIwEE
04cdfb54 T _ZNK13C_HMI_INT_VKB6field4Ev
04cdfbb8 T _ZNK13C_HMI_INT_VKB6field3Ev
04cdfc1c T _ZNK13C_HMI_INT_VKB6field2Ev
04cdfc80 T _ZNK13C_HMI_INT_VKB6field1Ev
04cdfce4 T _ZNK13C_HMI_INT_VKB9isValidIPEv
04ce0334 T _ZNK13C_HMI_INT_VKB9ipAddressEv
04ce0658 T _ZNK13C_HMI_INT_VKB14obscuredStringERKSs
04ce06dc T _ZN13C_HMI_INT_VKB14setActualFieldERKm
04ce0b7c T _ZN13C_HMI_INT_VKB18handleClickOnEnterERKm
04ce0c54 T _ZN13C_HMI_INT_VKB12addExtensionERKSbIwSt11char_traitsIwESaIwEEb
04ce0d38 T _ZN13C_HMI_INT_VKB11handleClickEmm
04ce13a8 T _ZN13C_HMI_INT_VKB15handleLongClickEmm
04ce1638 T _ZN13C_HMI_INT_VKB15handleClickCharEmm
04ce1878 T _ZN13C_HMI_INT_VKB22updateIpKeyboardFieldsEm
04ce19b8 T _ZN13C_HMI_INT_VKB22updateIpKeyboardFieldsEmRKSbIwSt11char_traitsIwESaIwEE
04ce1c38 T _ZN13C_HMI_INT_VKB28updateFavoriteKeyboardFieldsEmRKSbIwSt11char_traitsIwESaIwEES5_
04ce1d98 T _ZN13C_HMI_INT_VKB34updateIdentificationKeyboardFieldsEmRKSbIwSt11char_traitsIwESaIwEES5_
04ce1ef8 T _ZN13C_HMI_INT_VKB32updateAlphanumericKeyboardFieldsEmRKSbIwSt11char_traitsIwESaIwEE
04ce2010 T _ZN13C_HMI_INT_VKB27updateNumericKeyboardFieldsEmRKSbIwSt11char_traitsIwESaIwEE
04ce2128 T _ZN13C_HMI_INT_VKB18initializeKeyboardEv
04ce21f4 T _ZN13C_HMI_INT_VKBD0Ev
04ce25cc T _ZN13C_HMI_INT_VKBD1Ev
04ce29a4 T _ZN13C_HMI_INT_VKBD2Ev
04ce2d7c T _ZN13C_HMI_INT_VKBC1EmmP18C_HMI_INT_APP_BASE
04ce3a68 T _ZN13C_HMI_INT_VKBC2EmmP18C_HMI_INT_APP_BASE
04ce4834 W _ZNSt11char_traitsIcE12to_char_typeERKi
04ce4864 W _ZNSt11char_traitsIcE11to_int_typeERKc
04ce4894 W _ZNSt11char_traitsIcE11eq_int_typeERKiS2_
04ce48d8 W _ZNSt11char_traitsIcE3eofEv
04ce48fc W _ZNSt11char_traitsIcE7not_eofERKi
04ce4994 W _ZNSt8bad_castC1Ev
04ce4a18 W _ZNKSt8_Locinfo7_GetcvtEv
04ce4a48 W _ZNKSt8_Locinfo9_GetlconvEv
04ce4a74 W _ZNKSt8_Locinfo9_GetfalseEv
04ce4aa0 W _ZNKSt8_Locinfo8_GettrueEv
04ce4acc W _ZNSt6locale2idC1Ej
04ce4afc W _ZNSt6locale5facetC2Ej
04ce4b3c W _ZNSt8_LocbaseIiEC2Ev
04ce4b5c W _ZNSt10ctype_baseC2Ej
04ce4bbc W _ZNKSt5ctypeIcE5widenEc
04ce4c24 W _ZNKSt8ios_base7rdstateEv
04ce4c50 W _ZNKSt8ios_base4goodEv
04ce4ca8 W _ZNKSt8ios_base4failEv
04ce4d0c W _ZNKSt8ios_base5flagsEv
04ce4d38 W _ZNKSt8ios_base9precisionEv
04ce4d64 W _ZNKSt8ios_base5widthEv
04ce4d90 W _ZNSt8ios_base5widthEi
04ce4dd4 W _ZNSt5_IosbIiEC2Ev
04ce4df4 W _ZNSt8ios_baseC2Ev
04ce4e4c W _ZStanNSt5_IosbIiE9_FmtflagsES1_
04ce4e80 W _ZStoRRNSt5_IosbIiE8_IostateES1_
04ce4ec8 W _ZStanNSt5_IosbIiE9_OpenmodeES1_
04ce4efc W _ZStorNSt5_IosbIiE9_OpenmodeES1_
04ce4f30 W _ZNKSt6vectorI9t_historySaIS0_EE4sizeEv
04ce4fdc W _ZNSt6vectorI9t_historySaIS0_EE8iteratorppEv
04ce5018 W _ZNKSt6vectorI10t_favoriteSaIS0_EE14const_iteratorltERKS3_
04ce505c W _ZNSt6vectorI10t_favoriteSaIS0_EE8iteratorppEv
04ce5420 W _ZNSt9basic_iosIcSt11char_traitsIcEEC2Ev
04ce5478 W _ZNKSo6sentrycvbEv
04ce54a8 W _ZNKSt9basic_iosIcSt11char_traitsIcEE5rdbufEv
04ce54d4 W _ZNKSt9basic_iosIcSt11char_traitsIcEE4fillEv
04ce5504 W _ZNSt15basic_streambufIcSt11char_traitsIcEE5sputnEPKci
04ce5594 W _ZNKSsixEj
04ce55ec W _ZNSt6_OutitC2Ev
04ce560c W _ZNSt19ostreambuf_iteratorIcSt11char_traitsIcEEC1EPSt15basic_streambufIcS1_E
04ce5670 W _ZNKSt7num_putIcSt19ostreambuf_iteratorIcSt11char_traitsIcEEE3putES3_RSt8ios_basecb
04ce5740 W _ZNKSt19ostreambuf_iteratorIcSt11char_traitsIcEE6failedEv
04ce5770 W _ZNKSt7num_putIcSt19ostreambuf_iteratorIcSt11char_traitsIcEEE3putES3_RSt8ios_basecl
04ce5834 W _ZNSt15_Allocator_baseI10t_favoriteEC2Ev
04ce5854 W _ZNSaI10t_favoriteEC1Ev
04ce589c W _ZNSaI10t_favoriteEC1ERKS0_
04ce58e8 W _ZNSt11_Vector_valI10t_favoriteSaIS0_EEC2ES1_
04ce5950 W _ZNSt15_Allocator_baseI9t_historyEC2Ev
04ce5970 W _ZNSaI9t_historyEC1Ev
04ce59b8 W _ZNSaI9t_historyEC1ERKS0_
04ce5a04 W _ZNSt11_Vector_valI9t_historySaIS0_EEC2ES1_
04ce5a6c W _ZNSt15_Allocator_baseI10t_passwordEC2Ev
04ce5a8c W _ZNSaI10t_passwordEC1Ev
04ce5ad4 W _ZNSaI10t_passwordEC1ERKS0_
04ce5b20 W _ZNSt11_Vector_valI10t_passwordSaIS0_EEC2ES1_
04ce5b88 W _ZNSt15_Allocator_baseISt4pairIKSs15t_cookie_structEEC2Ev
04ce5ba8 W _ZNSaISt4pairIKSs15t_cookie_structEEC1Ev
04ce5bf0 W _ZNSaISt4pairIKSs15t_cookie_structEEC1ERKS3_
04ce5e74 W _ZNKSt5_TreeISt12_Tmap_traitsISs15t_cookie_structSt4lessISsESaISt4pairIKSsS1_EELb0EEE14const_iterator7_MynodeEv
04ce5ea0 W _ZNKSt5_TreeISt12_Tmap_traitsISs15t_cookie_structSt4lessISsESaISt4pairIKSsS1_EELb0EEE14const_iteratoreqERKSA_
04ce5ee4 W _ZNKSt5_TreeISt12_Tmap_traitsISs15t_cookie_structSt4lessISsESaISt4pairIKSsS1_EELb0EEE14const_iteratorneERKSA_
04ce5f40 W _ZNKSt6vectorI9t_historySaIS0_EE14const_iteratoreqERKS3_
04ce5f84 W _ZNKSt6vectorI9t_historySaIS0_EE14const_iteratorneERKS3_
04ce5fe0 W _ZNKSt6vectorI9t_historySaIS0_EE14const_iteratordeEv
04ce600c W _ZNKSt6vectorI9t_historySaIS0_EE8iteratordeEv
04ce613c W _ZNSt6_BiditISt4pairIKSs15t_cookie_structEiPKS3_RS4_EC2Ev
04ce615c W _ZNSt5_TreeISt12_Tmap_traitsISs15t_cookie_structSt4lessISsESaISt4pairIKSsS1_EELb0EEE14const_iteratorC2Ev
04ce61b0 W _ZNSt5_TreeISt12_Tmap_traitsISs15t_cookie_structSt4lessISsESaISt4pairIKSsS1_EELb0EEE8iteratorC1Ev
04ce61f8 W _ZNKSt6vectorI10t_favoriteSaIS0_EE14const_iteratordeEv
04ce6224 W _ZNKSt6vectorI10t_favoriteSaIS0_EE8iteratordeEv
04ce654c W _ZNSt15basic_stringbufIcSt11char_traitsIcESaIcEE9_GetstateENSt5_IosbIiE9_OpenmodeE
04ce664c W _ZNSo12_Sentry_baseC2ERSo
04ce6744 W _ZNSo12_Sentry_baseD2Ev
04ce682c W _ZNKSt9basic_iosIcSt11char_traitsIcEE3tieEv
04ce6858 W _ZNSt15basic_streambufIcSt11char_traitsIcEE6_PnincEv
04ce68ac W _ZNKSt15basic_streambufIcSt11char_traitsIcEE5epptrEv
04ce68ec W _ZNKSt15basic_streambufIcSt11char_traitsIcEE4pptrEv
04ce691c W _ZNSt15basic_streambufIcSt11char_traitsIcEE5sputcEc
04ce6a48 W _ZNKSt15basic_streambufIcSt11char_traitsIcEE5pbaseEv
04ce6a78 W _ZNKSt15basic_streambufIcSt11char_traitsIcEE4gptrEv
04ce6aa8 W _ZNKSt15basic_streambufIcSt11char_traitsIcEE5ebackEv
04ce6ad8 W _ZNKSt15basic_streambufIcSt11char_traitsIcEE5egptrEv
04ce6b18 W _ZNSt5_TreeISt12_Tmap_traitsISs15t_cookie_structSt4lessISsESaISt4pairIKSsS1_EELb0EEE5_LeftEPNSt9_Tree_nodIS8_E5_NodeE
04ce6b40 W _ZNSt5_TreeISt12_Tmap_traitsISs15t_cookie_structSt4lessISsESaISt4pairIKSsS1_EELb0EEE6_LmostEv
04ce6b94 W _ZNSt5_TreeISt12_Tmap_traitsISs15t_cookie_structSt4lessISsESaISt4pairIKSsS1_EELb0EEE7_ParentEPNSt9_Tree_nodIS8_E5_NodeE
04ce6bc0 W _ZNSt5_TreeISt12_Tmap_traitsISs15t_cookie_structSt4lessISsESaISt4pairIKSsS1_EELb0EEE5_RootEv
04ce6c14 W _ZNSt5_TreeISt12_Tmap_traitsISs15t_cookie_structSt4lessISsESaISt4pairIKSsS1_EELb0EEE6_RightEPNSt9_Tree_nodIS8_E5_NodeE
04ce6c40 W _ZNSt5_TreeISt12_Tmap_traitsISs15t_cookie_structSt4lessISsESaISt4pairIKSsS1_EELb0EEE6_RmostEv
04ce6d68 W _ZNSt6vectorI9t_historySaIS0_EE8iteratorpLEi
04ce6db0 W _ZNKSt6vectorI9t_historySaIS0_EE8iteratorplEi
04ce6f98 W _ZNSt12_Tmap_traitsISs15t_cookie_structSt4lessISsESaISt4pairIKSsS0_EELb0EE4_KfnERKS5_
04ce6fc0 W _ZNSt5_TreeISt12_Tmap_traitsISs15t_cookie_structSt4lessISsESaISt4pairIKSsS1_EELb0EEE6_MyvalEPNSt9_Tree_nodIS8_E5_NodeE
04ce6fec W _ZNSt5_TreeISt12_Tmap_traitsISs15t_cookie_structSt4lessISsESaISt4pairIKSsS1_EELb0EEE4_KeyEPNSt9_Tree_nodIS8_E5_NodeE
04ce7050 W _ZNKSt5_TreeISt12_Tmap_traitsISs15t_cookie_structSt4lessISsESaISt4pairIKSsS1_EELb0EEE4sizeEv
04ce707c W _ZNSt5_TreeISt12_Tmap_traitsISs15t_cookie_structSt4lessISsESaISt4pairIKSsS1_EELb0EEE6_IsnilEPNSt9_Tree_nodIS8_E5_NodeE
04ce70a8 W _ZNKSt5_TreeISt12_Tmap_traitsISs15t_cookie_structSt4lessISsESaISt4pairIKSsS1_EELb0EEE14const_iteratordeEv
04ce70fc W _ZNKSt5_TreeISt12_Tmap_traitsISs15t_cookie_structSt4lessISsESaISt4pairIKSsS1_EELb0EEE8iteratordeEv
04ce714c W _ZNKSt5_TreeISt12_Tmap_traitsISs15t_cookie_structSt4lessISsESaISt4pairIKSsS1_EELb0EEE8iteratorptEv
04ce7198 W _ZNSt6_RanitI9t_historyiPKS0_RS1_EC2Ev
04ce71b8 W _ZNSt6vectorI9t_historySaIS0_EE14const_iteratorC2EPS0_
04ce7210 W _ZNSt6vectorI9t_historySaIS0_EE8iteratorC1EPS0_
04ce7260 W _ZNSt6vectorI9t_historySaIS0_EE5beginEv
04ce72bc W _ZNSt6vectorI9t_historySaIS0_EE3endEv
04ce7318 W _ZNSt5_TreeISt12_Tmap_traitsISs15t_cookie_structSt4lessISsESaISt4pairIKSsS1_EELb0EEE14const_iteratorC2EPNSt9_Tree_nodIS8_E5_NodeE
04ce7370 W _ZNSt5_TreeISt12_Tmap_traitsISs15t_cookie_structSt4lessISsESaISt4pairIKSsS1_EELb0EEE8iteratorC1EPNSt9_Tree_nodIS8_E5_NodeE
04ce73c0 W _ZNSt5_TreeISt12_Tmap_traitsISs15t_cookie_structSt4lessISsESaISt4pairIKSsS1_EELb0EEE5beginEv
04ce7430 W _ZNSt5_TreeISt12_Tmap_traitsISs15t_cookie_structSt4lessISsESaISt4pairIKSsS1_EELb0EEE3endEv
04ce748c W _ZNSt6_RanitI10t_favoriteiPKS0_RS1_EC2Ev
04ce74ac W _ZNSt6vectorI10t_favoriteSaIS0_EE14const_iteratorC2EPS0_
04ce7504 W _ZNSt6vectorI10t_favoriteSaIS0_EE8iteratorC1EPS0_
04ce7554 W _ZNSt6vectorI10t_favoriteSaIS0_EE5beginEv
04ce75b0 W _ZNSt6vectorI10t_favoriteSaIS0_EE3endEv
04ce76ec W _ZNSt11char_traitsIwE4findEPKwjRS1_
04ce7b14 W _ZNSt15basic_streambufIcSt11char_traitsIcEE4setgEPcS3_S3_
04ce7b78 W _ZNSt15basic_streambufIcSt11char_traitsIcEE4setpEPcS3_
04ce7bd8 W _ZNSt15basic_streambufIcSt11char_traitsIcEE5_InitEv
04ce7ca4 W _ZNSt15basic_streambufIcSt11char_traitsIcEE7pubsyncEv
04ce7cf8 W _ZNSt15basic_streambufIcSt11char_traitsIcEE5pbumpEi
04ce7d5c W _ZNKSt8numpunctIcE8truenameEv
04ce7dc0 W _ZNKSt8numpunctIcE9falsenameEv
04ce7e24 W _ZNKSt7num_putIcSt19ostreambuf_iteratorIcSt11char_traitsIcEEE5_IfmtEPcPKcNSt5_IosbIiE9_FmtflagsE
04ce82bc W _ZNKSaI10t_favoriteE8max_sizeEv
04ce8310 W _ZNKSt6vectorI10t_favoriteSaIS0_EE8max_sizeEv
04ce8360 W _ZNKSaI9t_historyE8max_sizeEv
04ce83b4 W _ZNKSt6vectorI9t_historySaIS0_EE8max_sizeEv
04ce8404 W _ZNKSaI10t_passwordE8max_sizeEv
04ce8458 W _ZNKSt6vectorI10t_passwordSaIS0_EE8max_sizeEv
04ce84a8 W _ZSt8_DestroyIPNSt9_Tree_nodISt12_Tmap_traitsISs15t_cookie_structSt4lessISsESaISt4pairIKSsS2_EELb0EEE5_NodeEEvPT_
04ce84c8 W _ZNSaIPNSt9_Tree_nodISt12_Tmap_traitsISs15t_cookie_structSt4lessISsESaISt4pairIKSsS1_EELb0EEE5_NodeEE7destroyEPSB_
04ce86f4 W _ZNKSt5_TreeISt12_Tmap_traitsISs15t_cookie_structSt4lessISsESaISt4pairIKSsS1_EELb0EEE5_RootEv
04ce8748 W _ZNSt5_TreeISt12_Tmap_traitsISs15t_cookie_structSt4lessISsESaISt4pairIKSsS1_EELb0EEE6_ColorEPNSt9_Tree_nodIS8_E5_NodeE
04ce8774 W _ZNSt5_TreeISt12_Tmap_traitsISs15t_cookie_structSt4lessISsESaISt4pairIKSsS1_EELb0EEE8_LrotateEPNSt9_Tree_nodIS8_E5_NodeE
04ce8a30 W _ZNSt5_TreeISt12_Tmap_traitsISs15t_cookie_structSt4lessISsESaISt4pairIKSsS1_EELb0EEE8_RrotateEPNSt9_Tree_nodIS8_E5_NodeE
04ce8cec W _ZNSt4pairINSt5_TreeISt12_Tmap_traitsISs15t_cookie_structSt4lessISsESaIS_IKSsS2_EELb0EEE8iteratorEbEC1ERKSA_RKb
04ce9048 W _ZNSt5_TreeISt12_Tmap_traitsISs15t_cookie_structSt4lessISsESaISt4pairIKSsS1_EELb0EEE4_MinEPNSt9_Tree_nodIS8_E5_NodeE
04ce90f4 W _ZNSt5_TreeISt12_Tmap_traitsISs15t_cookie_structSt4lessISsESaISt4pairIKSsS1_EELb0EEE14const_iterator4_IncEv
04ce92c0 W _ZNSt5_TreeISt12_Tmap_traitsISs15t_cookie_structSt4lessISsESaISt4pairIKSsS1_EELb0EEE14const_iteratorppEv
04ce930c W _ZNSt5_TreeISt12_Tmap_traitsISs15t_cookie_structSt4lessISsESaISt4pairIKSsS1_EELb0EEE8iteratorppEv
04ce935c W _ZNSt5_TreeISt12_Tmap_traitsISs15t_cookie_structSt4lessISsESaISt4pairIKSsS1_EELb0EEE8iteratorppEi
04ce98a4 W _ZNKSbIwSt11char_traitsIwESaIwEE4findEPKwjj
04ce9a90 W _ZNKSbIwSt11char_traitsIwESaIwEE4findEPKwj
04ce9e40 W _ZNSt7num_putIcSt19ostreambuf_iteratorIcSt11char_traitsIcEEE5_InitERKSt8_Locinfo
04ce9e94 W _ZNSt19ostreambuf_iteratorIcSt11char_traitsIcEEppEv
04ce9ebc W _ZNSt19ostreambuf_iteratorIcSt11char_traitsIcEEdeEv
04ce9ee4 W _ZNSt19ostreambuf_iteratorIcSt11char_traitsIcEEaSEc
04ce9fd4 W _ZNKSt7num_putIcSt19ostreambuf_iteratorIcSt11char_traitsIcEEE4_RepES3_cj
04cea0b4 W _ZNKSt7num_putIcSt19ostreambuf_iteratorIcSt11char_traitsIcEEE4_PutES3_PKcj
04cea1a0 W _ZNKSt8numpunctIcE8groupingEv
04cea204 W _ZNKSt8numpunctIcE13thousands_sepEv
04cea258 W _ZSt8_Ptr_catIP10t_favoriteS1_ESt27_Nonscalar_ptr_iterator_tagRT_RT0_
04cea284 W _ZSt8_Ptr_catIP9t_historyS1_ESt27_Nonscalar_ptr_iterator_tagRT_RT0_
04cea2b0 W _ZSt8_Ptr_catIP10t_passwordS1_ESt27_Nonscalar_ptr_iterator_tagRT_RT0_
04cea2dc W _ZNSt15_Allocator_baseIPNSt9_Tree_nodISt12_Tmap_traitsISs15t_cookie_structSt4lessISsESaISt4pairIKSsS2_EELb0EEE5_NodeEEC2Ev
04cea2fc W _ZNSaIPNSt9_Tree_nodISt12_Tmap_traitsISs15t_cookie_structSt4lessISsESaISt4pairIKSsS1_EELb0EEE5_NodeEEC1IS6_EERKSaIT_E
04cea348 W _ZNSt5_TreeISt12_Tmap_traitsISs15t_cookie_structSt4lessISsESaISt4pairIKSsS1_EELb0EEE4_MaxEPNSt9_Tree_nodIS8_E5_NodeE
04cea540 W _ZNKSaISt4pairIKSs15t_cookie_structEE8max_sizeEv
04cea594 W _ZNKSt5_TreeISt12_Tmap_traitsISs15t_cookie_structSt4lessISsESaISt4pairIKSsS1_EELb0EEE8max_sizeEv
04cea5e8 W _ZNSt5_TreeISt12_Tmap_traitsISs15t_cookie_structSt4lessISsESaISt4pairIKSsS1_EELb0EEE14const_iterator4_DecEv
04cea810 W _ZNSt5_TreeISt12_Tmap_traitsISs15t_cookie_structSt4lessISsESaISt4pairIKSsS1_EELb0EEE14const_iteratormmEv
04cea85c W _ZNSt5_TreeISt12_Tmap_traitsISs15t_cookie_structSt4lessISsESaISt4pairIKSsS1_EELb0EEE8iteratormmEv
04cea8ac W _ZSt10_MaklocchrIcET_cPS0_RKSt7_Cvtvec
04cea8e4 W _ZNKSt7num_putIcSt19ostreambuf_iteratorIcSt11char_traitsIcEEE5_PutcES3_PKcj
04ceaa00 W _ZNSt12_Tmap_traitsISs15t_cookie_structSt4lessISsESaISt4pairIKSsS0_EELb0EEC2ES2_
04ceaa48 W _ZNSt15_Allocator_baseINSt9_Tree_nodISt12_Tmap_traitsISs15t_cookie_structSt4lessISsESaISt4pairIKSsS2_EELb0EEE5_NodeEEC2Ev
04ceaa68 W _ZNSaINSt9_Tree_nodISt12_Tmap_traitsISs15t_cookie_structSt4lessISsESaISt4pairIKSsS1_EELb0EEE5_NodeEEC1IS6_EERKSaIT_E
04ceaab4 W _ZNSt9_Tree_nodISt12_Tmap_traitsISs15t_cookie_structSt4lessISsESaISt4pairIKSsS1_EELb0EEEC2ERKS3_S7_
04ceab2c W _ZNSt9_Tree_ptrISt12_Tmap_traitsISs15t_cookie_structSt4lessISsESaISt4pairIKSsS1_EELb0EEEC2ERKS3_S7_
04ceabcc W _ZNSt9_Tree_valISt12_Tmap_traitsISs15t_cookie_structSt4lessISsESaISt4pairIKSsS1_EELb0EEEC2ERKS3_S7_
04ceac6c W _ZSt10_ConstructIPNSt9_Tree_nodISt12_Tmap_traitsISs15t_cookie_structSt4lessISsESaISt4pairIKSsS2_EELb0EEE5_NodeESC_EvPT_RKT0_
04ceace4 W _ZNSaIPNSt9_Tree_nodISt12_Tmap_traitsISs15t_cookie_structSt4lessISsESaISt4pairIKSsS1_EELb0EEE5_NodeEE9constructEPSB_RKSB_
04cead34 W _ZNKSt7num_putIcSt19ostreambuf_iteratorIcSt11char_traitsIcEEE5_FfmtEPccNSt5_IosbIiE9_FmtflagsE
04ceaf18 W _ZNSt15basic_streambufIcSt11char_traitsIcEE4setpEPcS3_S3_
04ceaf7c W _ZNSt15basic_streambufIcSt11char_traitsIcEE5gbumpEi
04ceafe0 W _ZNSt15basic_streambufIcSt11char_traitsIcEE6_GnincEv
04ceb034 W _ZNSt4fposIiEC1El
04ceb084 W _ZNKSt4fposIiEcvlEv
04ceb114 W _ZNKSt8numpunctIcE13decimal_pointEv
04ceb1b4 W _ZNSt15basic_stringbufIcSt11char_traitsIcESaIcEE5_TidyEv
04ceb39c W _ZNSt10ctype_baseD2Ev
04ceb818 W _ZN23t_portal_notification_tD1Ev
04ceb89c W _ZN18C_HMI_INT_APP_BASE18t_authentication_tD1Ev
04ceb93c W _ZN18C_HMI_INT_APP_BASE18t_authentication_tC1Ev
04ceb9e8 W _ZN23t_portal_notification_tC1Ev
04cebae8 W _ZNSaINSt9_Tree_nodISt12_Tmap_traitsISs15t_cookie_structSt4lessISsESaISt4pairIKSsS1_EELb0EEE5_NodeEE10deallocateEPSA_j
04cebca4 W _ZNSaI10t_favoriteE10deallocateEPS_j
04cebcf0 W _ZNSaI9t_historyE10deallocateEPS_j
04cebd3c W _ZNSaI10t_passwordE10deallocateEPS_j
04cec3b0 W _ZNSt4pairIKSs15t_cookie_structED1Ev
04cec414 W _ZNSt9_Tree_nodISt12_Tmap_traitsISs15t_cookie_structSt4lessISsESaISt4pairIKSsS1_EELb0EEE5_NodeD1Ev
04cec460 W _ZSt8_DestroyINSt9_Tree_nodISt12_Tmap_traitsISs15t_cookie_structSt4lessISsESaISt4pairIKSsS2_EELb0EEE5_NodeEEvPT_
04cec4a4 W _ZNSaINSt9_Tree_nodISt12_Tmap_traitsISs15t_cookie_structSt4lessISsESaISt4pairIKSsS1_EELb0EEE5_NodeEE7destroyEPSA_
04cec4ec W _ZNSt5_TreeISt12_Tmap_traitsISs15t_cookie_structSt4lessISsESaISt4pairIKSsS1_EELb0EEE6_EraseEPNSt9_Tree_nodIS8_E5_NodeE
04cec600 W _ZNSt5_TreeISt12_Tmap_traitsISs15t_cookie_structSt4lessISsESaISt4pairIKSsS1_EELb0EEE5clearEv
04cec9fc W _ZN10t_favoriteD1Ev
04ceca80 W _ZSt8_DestroyI10t_favoriteEvPT_
04cecac4 W _ZNSaI10t_favoriteE7destroyEPS_
04cecb0c W _ZSt14_Destroy_rangeI10t_favoriteSaIS0_EEvPT_S3_RT0_St27_Nonscalar_ptr_iterator_tag
04cecb7c W _ZSt14_Destroy_rangeI10t_favoriteSaIS0_EEvPT_S3_RT0_
04cecc10 W _ZNSt6vectorI10t_favoriteSaIS0_EE8_DestroyEPS0_S3_
04cecc68 W _ZNSt6vectorI10t_favoriteSaIS0_EE5_TidyEv
04cecd48 W _ZNSt6vectorI10t_favoriteSaIS0_EE5clearEv
04cecd8c W _ZNSt6vectorI10t_favoriteSaIS0_EED1Ev
04cecdd0 W _ZN9t_historyD1Ev
04cece54 W _ZSt8_DestroyI9t_historyEvPT_
04cece98 W _ZNSaI9t_historyE7destroyEPS_
04cecee0 W _ZSt14_Destroy_rangeI9t_historySaIS0_EEvPT_S3_RT0_St27_Nonscalar_ptr_iterator_tag
04cecf50 W _ZSt14_Destroy_rangeI9t_historySaIS0_EEvPT_S3_RT0_
04cecfe4 W _ZNSt6vectorI9t_historySaIS0_EE8_DestroyEPS0_S3_
04ced03c W _ZNSt6vectorI9t_historySaIS0_EE5_TidyEv
04ced11c W _ZNSt6vectorI9t_historySaIS0_EE5clearEv
04ced160 W _ZNSt6vectorI9t_historySaIS0_EED1Ev
04ced1a4 W _ZN10t_passwordD1Ev
04ced228 W _ZSt8_DestroyI10t_passwordEvPT_
04ced26c W _ZNSaI10t_passwordE7destroyEPS_
04ced2b4 W _ZSt14_Destroy_rangeI10t_passwordSaIS0_EEvPT_S3_RT0_St27_Nonscalar_ptr_iterator_tag
04ced324 W _ZSt14_Destroy_rangeI10t_passwordSaIS0_EEvPT_S3_RT0_
04ced3b8 W _ZNSt6vectorI10t_passwordSaIS0_EE8_DestroyEPS0_S3_
04ced410 W _ZNSt6vectorI10t_passwordSaIS0_EE5_TidyEv
04ced4f0 W _ZNSt6vectorI10t_passwordSaIS0_EE5clearEv
04ced534 W _ZNSt6vectorI10t_passwordSaIS0_EED1Ev
04ced578 W _ZN15t_dun_profile_tD1Ev
04ced634 W _ZN18C_HMI_INT_APP_BASE18t_agenda_contact_tD1Ev
04ced698 W _ZN18C_HMI_INT_APP_BASE18t_agenda_contact_tC1Ev
04ced7a0 W _ZNSt15basic_stringbufIcSt11char_traitsIcESaIcEE5_InitEPKcji
04cedab0 W _ZSt9_AllocateINSt9_Tree_nodISt12_Tmap_traitsISs15t_cookie_structSt4lessISsESaISt4pairIKSsS2_EELb0EEE5_NodeEEPT_jSD_
04cedb08 W _ZNSaINSt9_Tree_nodISt12_Tmap_traitsISs15t_cookie_structSt4lessISsESaISt4pairIKSsS1_EELb0EEE5_NodeEE8allocateEj
04cedc08 W _ZSt9_AllocateI10t_favoriteEPT_jS2_
04cedc60 W _ZNSaI10t_favoriteE8allocateEj
04cedcb4 W _ZSt9_AllocateI9t_historyEPT_jS2_
04cedd0c W _ZNSaI9t_historyE8allocateEj
04cedd60 W _ZSt9_AllocateI10t_passwordEPT_jS2_
04ceddb8 W _ZNSaI10t_passwordE8allocateEj
04cedeb8 W _ZNSt7_LockitC1Ei
04cedf14 W _ZNSt7_LockitD1Ev
04cedf60 W _ZNSt6locale5facet7_DecrefEv
04cee0f4 W _ZNSt6localeC1ERKS_
04cee2c4 W _ZNSoD2Ev
04cee384 W _ZNSiD2Ev
04cee65c W _ZNSt7num_putIcSt19ostreambuf_iteratorIcSt11char_traitsIcEEEC1Ej
04cee828 W _ZSt9use_facetISt7num_putIcSt19ostreambuf_iteratorIcSt11char_traitsIcEEEERKT_RKSt6locale
04ceea1c W _ZSt8_ToupperiPKSt9_Ctypevec
04ceea74 W _ZSt8_ToloweriPKSt9_Ctypevec
04ceeacc W _ZNKSt8_Locinfo9_GetctypeEv
04ceeb5c W _ZNSt5ctypeIcE5_InitERKSt8_Locinfo
04ceebb8 W _ZNSt5ctypeIcE5_TidyEv
04ceec54 W _ZNSt5ctypeIcEC1EPKsbj
04ceefbc W _ZNSt8numpunctIcE5_TidyEv
04cef328 W _ZNSoC2EPSt15basic_streambufIcSt11char_traitsIcEEb
04cef3e4 W _ZNSiC2EPSt15basic_streambufIcSt11char_traitsIcEEbb
04cef7b8 W _ZNSo5_OsfxEv
04cef958 W _ZNSt15basic_stringbufIcSt11char_traitsIcESaIcEEC1ENSt5_IosbIiE9_OpenmodeE
04cefe28 W _ZN18C_HMI_INT_APP_BASE18t_agenda_contact_t5clearEv
04cf0464 W _ZNKSbIwSt11char_traitsIwESaIwEE7compareEjjRKS2_jj
04cf0570 W _ZNKSbIwSt11char_traitsIwESaIwEE7compareEjjRKS2_
04cf0918 W _ZN15t_dun_profile_tC1Ev
04cf0eb4 W _ZN15t_dun_profile_taSERKS_
04cf1108 W _ZNKSt19basic_ostringstreamIcSt11char_traitsIcESaIcEE3strEv
04cf116c W _ZNKSt18basic_stringstreamIcSt11char_traitsIcESaIcEE3strEv
04cf156c W _ZNSt4pairIKSs15t_cookie_structEC1ERS0_RKS1_
04cf1624 W _ZNSt4pairIKSs15t_cookie_structEC1ERKS2_
04cf16e4 W _ZNSt9_Tree_nodISt12_Tmap_traitsISs15t_cookie_structSt4lessISsESaISt4pairIKSsS1_EELb0EEE5_NodeC1EPSA_SB_SB_RKS6_c
04cf2194 W _ZNSs7replaceEjjRKSs
04cf28a8 W _ZN23t_portal_notification_taSERKS_
04cf2fb0 W _ZNSt5_TreeISt12_Tmap_traitsISs15t_cookie_structSt4lessISsESaISt4pairIKSsS1_EELb0EEE8_BuynodeEv
04cf3150 W _ZNSt5_TreeISt12_Tmap_traitsISs15t_cookie_structSt4lessISsESaISt4pairIKSsS1_EELb0EEE5_InitEv
04cf3240 W _ZNSt5_TreeISt12_Tmap_traitsISs15t_cookie_structSt4lessISsESaISt4pairIKSsS1_EELb0EEEC2ERKS3_RKS7_
04cf32d4 W _ZNSt3mapISs15t_cookie_structSt4lessISsESaISt4pairIKSsS0_EEEC1Ev
04cf334c W _ZSt10_MaklocstrIcEPT_PKcS1_RKSt7_Cvtvec
04cf36c8 W _ZNSt8numpunctIcEC1Ej
04cf37e8 W _ZNSt8numpunctIcE7_GetcatEPPKNSt6locale5facetE
04cf38bc W _ZNKSt7num_putIcSt19ostreambuf_iteratorIcSt11char_traitsIcEEE11_PutgroupedES3_PKcjc
04cf3d8c W _ZN15t_dun_profile_t8toStringEv
04cf43b4 W _ZStneIcSt11char_traitsIcESaIcEEbRKSbIT_T0_T1_ES8_
04cf4410 W _ZN15t_dun_profile_tneERKS_
04cf45e8 W _ZStltIcSt11char_traitsIcESaIcEEbRKSbIT_T0_T1_ES8_
04cf4640 W _ZNKSt4lessISsEclERKSsS2_
04cf4698 W _ZNKSt5_TreeISt12_Tmap_traitsISs15t_cookie_structSt4lessISsESaISt4pairIKSsS1_EELb0EEE7_LboundERS5_
04cf47d0 W _ZNSt5_TreeISt12_Tmap_traitsISs15t_cookie_structSt4lessISsESaISt4pairIKSsS1_EELb0EEE11lower_boundERS5_
04cf4e50 W _ZNKSt6vectorI9t_historySaIS0_EE5_XranEv
04cf4f58 W _ZNSt6vectorI9t_historySaIS0_EE2atEj
04cf5038 W _ZNSt5_TreeISt12_Tmap_traitsISs15t_cookie_structSt4lessISsESaISt4pairIKSsS1_EELb0EEE5eraseENS9_8iteratorE
04cf617c W _ZNSt5_TreeISt12_Tmap_traitsISs15t_cookie_structSt4lessISsESaISt4pairIKSsS1_EELb0EEE5eraseENS9_8iteratorESA_
04cf6314 W _ZNSt5_TreeISt12_Tmap_traitsISs15t_cookie_structSt4lessISsESaISt4pairIKSsS1_EELb0EEE5_TidyEv
04cf64b0 W _ZNSt5_TreeISt12_Tmap_traitsISs15t_cookie_structSt4lessISsESaISt4pairIKSsS1_EELb0EEED2Ev
04cf64f4 W _ZNSt3mapISs15t_cookie_structSt4lessISsESaISt4pairIKSsS0_EEED1Ev
04cf653c W _ZNKSt6vectorI10t_favoriteSaIS0_EE5_XlenEv
04cf6644 W _ZNSt6vectorI10t_favoriteSaIS0_EE4_BuyEj
04cf6760 W _ZNSt6vectorI10t_favoriteSaIS0_EEC1Ev
04cf67e8 W _ZNKSt6vectorI9t_historySaIS0_EE5_XlenEv
04cf68f0 W _ZNSt6vectorI9t_historySaIS0_EE4_BuyEj
04cf6a0c W _ZNSt6vectorI9t_historySaIS0_EEC1Ev
04cf6a94 W _ZNKSt6vectorI10t_passwordSaIS0_EE5_XlenEv
04cf6b9c W _ZNSt6vectorI10t_passwordSaIS0_EE4_BuyEj
04cf6cb8 W _ZNSt6vectorI10t_passwordSaIS0_EEC1Ev
04cf7e78 W _ZNSt5_TreeISt12_Tmap_traitsISs15t_cookie_structSt4lessISsESaISt4pairIKSsS1_EELb0EEE8_BuynodeEPNSt9_Tree_nodIS8_E5_NodeESD_SD_RKS6_c
04cf8000 W _ZNSt5_TreeISt12_Tmap_traitsISs15t_cookie_structSt4lessISsESaISt4pairIKSsS1_EELb0EEE7_InsertEbPNSt9_Tree_nodIS8_E5_NodeERKS6_
04cf8a54 W _ZNSt5_TreeISt12_Tmap_traitsISs15t_cookie_structSt4lessISsESaISt4pairIKSsS1_EELb0EEE6insertERKS6_
04cf8e10 W _ZNSt5_TreeISt12_Tmap_traitsISs15t_cookie_structSt4lessISsESaISt4pairIKSsS1_EELb0EEE6insertENS9_8iteratorERKS6_
04cf95b8 W _ZNSt3mapISs15t_cookie_structSt4lessISsESaISt4pairIKSsS0_EEEixERS4_
04cfa6a0 W _ZNKSt6vectorI10t_passwordSaIS0_EE8capacityEv
04cfa710 W _ZNKSt6vectorI10t_passwordSaIS0_EE4sizeEv
04cfa780 W _ZNKSt6vectorI10t_favoriteSaIS0_EE8capacityEv
04cfa7f0 W _ZNKSt6vectorI10t_favoriteSaIS0_EE4sizeEv
04cfa860 W _ZNKSt6vectorI9t_historySaIS0_EE8capacityEv
04cfa9d8 W _ZNSt6_RanitI10t_passwordiPKS0_RS1_EC2Ev
04cfa9f8 W _ZNSt6vectorI10t_passwordSaIS0_EE14const_iteratorC2EPS0_
04cfaa50 W _ZNSt6vectorI10t_passwordSaIS0_EE8iteratorC1EPS0_
04cfaaa0 W _ZNSt6vectorI10t_passwordSaIS0_EE3endEv
04cfaafc W _ZNSt6vectorI10t_passwordSaIS0_EE5beginEv
04cfab58 W _ZNKSt6vectorI10t_passwordSaIS0_EE14const_iteratormiERKS3_
04cfaba8 W _ZNKSt6vectorI10t_passwordSaIS0_EE8iteratormiERKNS2_14const_iteratorE
04cfac0c W _ZNSt6vectorI10t_passwordSaIS0_EE8iteratorpLEi
04cfac54 W _ZNKSt6vectorI10t_passwordSaIS0_EE8iteratorplEi
04cfacbc W _ZNKSt6vectorI10t_favoriteSaIS0_EE14const_iteratormiERKS3_
04cfad0c W _ZNKSt6vectorI10t_favoriteSaIS0_EE8iteratormiERKNS2_14const_iteratorE
04cfad70 W _ZNSt6vectorI10t_favoriteSaIS0_EE8iteratorpLEi
04cfadb8 W _ZNKSt6vectorI10t_favoriteSaIS0_EE8iteratorplEi
04cfae20 W _ZNKSt6vectorI9t_historySaIS0_EE14const_iteratormiERKS3_
04cfae70 W _ZNKSt6vectorI9t_historySaIS0_EE8iteratormiERKNS2_14const_iteratorE
04cfb04c W _ZN9t_historyC1Ev
04cfb0d0 W _ZN10t_favoriteC1Ev
04cfb154 W _ZN10t_passwordC1Ev
04cfb1d8 W _ZNSt6vectorI15t_cookie_structSaIS0_EE5clearEv
04cfb21c W _ZN9t_historyC1ERKS_
04cfb36c W _ZN10t_favoriteC1ERKS_
04cfb49c W _ZN10t_passwordC1ERKS_
04cfb76c W _ZN9t_historyaSERKS_
04cfb850 W _ZSt18_Copy_backward_optIP9t_historyS1_ET0_T_S3_S2_St27_Nonscalar_ptr_iterator_tag
04cfb8d4 W _ZSt13copy_backwardIP9t_historyS1_ET0_T_S3_S2_
04cfb970 W _ZSt4fillIP9t_historyS0_EvT_S2_RKT0_
04cfb9e0 W _ZN10t_favoriteaSERKS_
04cfbaa4 W _ZSt18_Copy_backward_optIP10t_favoriteS1_ET0_T_S3_S2_St27_Nonscalar_ptr_iterator_tag
04cfbb28 W _ZSt13copy_backwardIP10t_favoriteS1_ET0_T_S3_S2_
04cfbbc4 W _ZSt4fillIP10t_favoriteS0_EvT_S2_RKT0_
04cfbc34 W _ZN10t_passwordaSERKS_
04cfbd08 W _ZSt18_Copy_backward_optIP10t_passwordS1_ET0_T_S3_S2_St27_Nonscalar_ptr_iterator_tag
04cfbd8c W _ZSt13copy_backwardIP10t_passwordS1_ET0_T_S3_S2_
04cfbe28 W _ZSt4fillIP10t_passwordS0_EvT_S2_RKT0_
04cfc418 W _ZSt10_ConstructI9t_historyS0_EvPT_RKT0_
04cfc4dc W _ZNSaI9t_historyE9constructEPS_RKS_
04cfc52c W _ZSt14_Uninit_fill_nIP9t_historyjS0_SaIS0_EEvT_T0_RKT1_RT2_St27_Nonscalar_ptr_iterator_tag
04cfc650 W _ZSt21_Uninitialized_fill_nIP9t_historyjS0_SaIS0_EEvT_T0_RKT1_RT2_
04cfc6e0 W _ZNSt6vectorI9t_historySaIS0_EE6_UfillEPS0_jRKS0_
04cfc758 W _ZSt12_Uninit_copyIP9t_historyS1_SaIS0_EET0_T_S4_S3_RT1_St27_Nonscalar_ptr_iterator_tag
04cfc88c W _ZSt19_Uninitialized_copyIP9t_historyS1_SaIS0_EET0_T_S4_S3_RT1_
04cfc930 W _ZNSt6vectorI9t_historySaIS0_EE6_UcopyIPS0_EES4_T_S5_S4_
04cfc998 W _ZSt10_ConstructI10t_favoriteS0_EvPT_RKT0_
04cfca5c W _ZNSaI10t_favoriteE9constructEPS_RKS_
04cfcaac W _ZSt14_Uninit_fill_nIP10t_favoritejS0_SaIS0_EEvT_T0_RKT1_RT2_St27_Nonscalar_ptr_iterator_tag
04cfcbd0 W _ZSt21_Uninitialized_fill_nIP10t_favoritejS0_SaIS0_EEvT_T0_RKT1_RT2_
04cfcc60 W _ZNSt6vectorI10t_favoriteSaIS0_EE6_UfillEPS0_jRKS0_
04cfccd8 W _ZSt12_Uninit_copyIP10t_favoriteS1_SaIS0_EET0_T_S4_S3_RT1_St27_Nonscalar_ptr_iterator_tag
04cfce0c W _ZSt19_Uninitialized_copyIP10t_favoriteS1_SaIS0_EET0_T_S4_S3_RT1_
04cfceb0 W _ZNSt6vectorI10t_favoriteSaIS0_EE6_UcopyIPS0_EES4_T_S5_S4_
04cfcf18 W _ZSt10_ConstructI10t_passwordS0_EvPT_RKT0_
04cfcfdc W _ZNSaI10t_passwordE9constructEPS_RKS_
04cfd02c W _ZSt14_Uninit_fill_nIP10t_passwordjS0_SaIS0_EEvT_T0_RKT1_RT2_St27_Nonscalar_ptr_iterator_tag
04cfd150 W _ZSt21_Uninitialized_fill_nIP10t_passwordjS0_SaIS0_EEvT_T0_RKT1_RT2_
04cfd1e0 W _ZNSt6vectorI10t_passwordSaIS0_EE6_UfillEPS0_jRKS0_
04cfd258 W _ZSt12_Uninit_copyIP10t_passwordS1_SaIS0_EET0_T_S4_S3_RT1_St27_Nonscalar_ptr_iterator_tag
04cfd38c W _ZSt19_Uninitialized_copyIP10t_passwordS1_SaIS0_EET0_T_S4_S3_RT1_
04cfd430 W _ZNSt6vectorI10t_passwordSaIS0_EE6_UcopyIPS0_EES4_T_S5_S4_
04cfdde0 W _ZNSt6vectorI9t_historySaIS0_EE9_Insert_nENS2_8iteratorEjRKS0_
04cfe4d8 W _ZNSt6vectorI9t_historySaIS0_EE6insertENS2_8iteratorERKS0_
04cfe5f8 W _ZNSt6vectorI9t_historySaIS0_EE9push_backERKS0_
04cfe6ec W _ZNSt6vectorI10t_favoriteSaIS0_EE9_Insert_nENS2_8iteratorEjRKS0_
04cfede4 W _ZNSt6vectorI10t_favoriteSaIS0_EE6insertENS2_8iteratorERKS0_
04cfef04 W _ZNSt6vectorI10t_favoriteSaIS0_EE9push_backERKS0_
04cfeff8 W _ZNSt6vectorI10t_passwordSaIS0_EE9_Insert_nENS2_8iteratorEjRKS0_
04cff6f0 W _ZNSt6vectorI10t_passwordSaIS0_EE6insertENS2_8iteratorERKS0_
04cff810 W _ZNSt6vectorI10t_passwordSaIS0_EE9push_backERKS0_
04cffb08 W _ZN17ConnectionState_sC1Ev
04cffb40 W _ZNKSt6vectorI9t_historySaIS0_EE5emptyEv
04cffb98 W _ZNKSt6vectorI10t_favoriteSaIS0_EE5emptyEv
04d01574 W _ZThn200_N29C_HMI_INET_BrowserMenu_BSC_Z1D0Ev
04d0157c W _ZThn200_N29C_HMI_INET_BrowserMenu_BSC_Z1D1Ev
04d01584 W _ZThn200_N33C_HMI_INET_DUNDatatransfer_BSC_Z1D0Ev
04d0158c W _ZThn200_N33C_HMI_INET_DUNDatatransfer_BSC_Z1D1Ev
04d01594 W _ZThn200_N39C_HMI_INET_DUNIdentifierEntering_VKB_Z125onVirtualKeyboardValidateEv
04d0159c W _ZThn200_N39C_HMI_INET_DUNIdentifierEntering_VKB_Z1D0Ev
04d015a4 W _ZThn200_N39C_HMI_INET_DUNIdentifierEntering_VKB_Z1D1Ev
04d015ac W _ZThn200_N46C_HMI_INET_DUNIdentifierModificationAPN_VKB_Z125onVirtualKeyboardValidateEv
04d015b4 W _ZThn200_N46C_HMI_INET_DUNIdentifierModificationAPN_VKB_Z1D0Ev
04d015bc W _ZThn200_N46C_HMI_INET_DUNIdentifierModificationAPN_VKB_Z1D1Ev
04d015c4 W _ZThn200_N29C_HMI_INET_DUNSettings_CFM_Z1D0Ev
04d015cc W _ZThn200_N29C_HMI_INET_DUNSettings_CFM_Z1D1Ev
04d015d4 W _ZThn200_N34C_HMI_INET_FavoriteEntering_VKB_Z133handleNonStandardOnEnterInstancesEm
04d015dc W _ZThn200_N34C_HMI_INET_FavoriteEntering_VKB_Z129handleNonStandardVKBInstancesEmm
04d015e4 W _ZNKSt6vectorI10t_favoriteSaIS0_EE5_XranEv
04d016ec W _ZNSt6vectorI10t_favoriteSaIS0_EE2atEj
04d017cc W _ZThn200_N34C_HMI_INET_FavoriteEntering_VKB_Z125onVirtualKeyboardValidateEv
04d017d4 W _ZThn200_N34C_HMI_INET_FavoriteEntering_VKB_Z1D0Ev
04d017dc W _ZThn200_N34C_HMI_INET_FavoriteEntering_VKB_Z1D1Ev
04d01b64 W _ZNSt6vectorI10t_favoriteSaIS0_EE14const_iteratorC2Ev
04d01bb8 W _ZNSt6vectorI10t_favoriteSaIS0_EE8iteratorC1Ev
04d01c00 W _ZNKSt6vectorI10t_favoriteSaIS0_EE14const_iteratoreqERKS3_
04d01c44 W _ZNKSt6vectorI10t_favoriteSaIS0_EE14const_iteratorneERKS3_
04d081b8 W _ZThn200_N31C_HMI_INET_FavoritesMenu_M3Z_Z4D0Ev
04d081c0 W _ZThn200_N31C_HMI_INET_FavoritesMenu_M3Z_Z4D1Ev
04d081c8 W _ZNSt6vectorI9t_historySaIS0_EE14const_iteratorC2Ev
04d0821c W _ZNSt6vectorI9t_historySaIS0_EE8iteratorC1Ev
04d08264 W _ZThn200_N29C_HMI_INET_HistoryMenu_M3Z_Z4D0Ev
04d0826c W _ZThn200_N29C_HMI_INET_HistoryMenu_M3Z_Z4D1Ev
04d08274 W _ZN21C_HMI_INT_POPUP_STATE17onCheckChangeListEmmb
04d082a4 W _ZThn64_N38C_HMI_INET_POPUP_AddToFavorites_QST_Z1D0Ev
04d082ac W _ZThn64_N38C_HMI_INET_POPUP_AddToFavorites_QST_Z1D1Ev
04d082b4 W _ZThn64_N42C_HMI_INET_POPUP_BrowserOptionsMenu_CTX_Z4D0Ev
04d082bc W _ZThn64_N42C_HMI_INET_POPUP_BrowserOptionsMenu_CTX_Z4D1Ev
04d082c4 W _ZThn64_N38C_HMI_INET_POPUP_DUNDNSEntering_VKB_Z124onVirtualKeyboardDiscardEv
04d082cc W _ZThn64_N38C_HMI_INET_POPUP_DUNDNSEntering_VKB_Z125onVirtualKeyboardValidateEv
04d08334 W _ZThn64_N38C_HMI_INET_POPUP_DUNDNSEntering_VKB_Z1D0Ev
04d0833c W _ZThn64_N38C_HMI_INET_POPUP_DUNDNSEntering_VKB_Z1D1Ev
04d08344 W _ZThn64_N43C_HMI_INET_POPUP_FavoriteItemRemoval_QST_Z1D0Ev
04d0834c W _ZThn64_N43C_HMI_INET_POPUP_FavoriteItemRemoval_QST_Z1D1Ev
04d08354 W _ZThn64_N40C_HMI_INET_POPUP_FreeTextEntering_VKB_Z124onVirtualKeyboardDiscardEv
04d0835c W _ZThn64_N40C_HMI_INET_POPUP_FreeTextEntering_VKB_Z125onVirtualKeyboardValidateEv
04d08364 W _ZThn64_N40C_HMI_INET_POPUP_FreeTextEntering_VKB_Z1D0Ev
04d0836c W _ZThn64_N40C_HMI_INET_POPUP_FreeTextEntering_VKB_Z1D1Ev
04d08374 W _ZThn64_N43C_HMI_INET_POPUP_HistoricItemRemoval_QST_Z1D0Ev
04d0837c W _ZThn64_N43C_HMI_INET_POPUP_HistoricItemRemoval_QST_Z1D1Ev
04d08384 W _ZThn64_N46C_HMI_INET_POPUP_InternetConnectionFail_INF_Z1D0Ev
04d0838c W _ZThn64_N46C_HMI_INET_POPUP_InternetConnectionFail_INF_Z1D1Ev
04d08394 W _ZThn64_N46C_HMI_INET_POPUP_InternetConnectionLost_INF_Z1D0Ev
04d0839c W _ZThn64_N46C_HMI_INET_POPUP_InternetConnectionLost_INF_Z1D1Ev
04d083a4 W _ZThn64_N39C_HMI_INET_POPUP_LaunchPhoneCall_QST_Z1D0Ev
04d083ac W _ZThn64_N39C_HMI_INET_POPUP_LaunchPhoneCall_QST_Z1D1Ev
04d083b4 W _ZThn64_N36C_HMI_INET_POPUP_PasswordSave_QST_Z1D0Ev
04d083bc W _ZThn64_N36C_HMI_INET_POPUP_PasswordSave_QST_Z1D1Ev
04d083c4 W _ZThn64_N39C_HMI_INET_POPUP_SavePhoneNumber_QST_Z1D0Ev
04d083cc W _ZThn64_N39C_HMI_INET_POPUP_SavePhoneNumber_QST_Z1D1Ev
04d083d4 W _ZThn64_N33C_HMI_INET_POPUP_SaveVcard_QST_Z1D0Ev
04d083dc W _ZThn64_N33C_HMI_INET_POPUP_SaveVcard_QST_Z1D1Ev
04d083e4 W _ZThn64_N46C_HMI_INET_POPUP_StopInternetConnection_INF_Z2D0Ev
04d083ec W _ZThn64_N46C_HMI_INET_POPUP_StopInternetConnection_INF_Z2D1Ev
04d083f4 W _ZThn64_N39C_HMI_INET_POPUP_WebNotAvailable_INF_Z1D0Ev
04d083fc W _ZThn64_N39C_HMI_INET_POPUP_WebNotAvailable_INF_Z1D1Ev
04d08404 W _ZThn64_N40C_HMI_INET_POPUP_WebStopPlayingBT_QST_Z3D0Ev
04d0840c W _ZThn64_N40C_HMI_INET_POPUP_WebStopPlayingBT_QST_Z3D1Ev
04d08414 W _ZThn200_N28C_HMI_INET_Secondary_Menu_Z1D0Ev
04d0841c W _ZThn200_N28C_HMI_INET_Secondary_Menu_Z1D1Ev
04d084e8 W _ZThn200_N29C_HMI_INET_URLEntering_VKB_Z133handleNonStandardOnEnterInstancesEm
04d084f0 W _ZThn200_N29C_HMI_INET_URLEntering_VKB_Z125onVirtualKeyboardValidateEv
04d084f8 W _ZThn200_N29C_HMI_INET_URLEntering_VKB_Z129handleNonStandardVKBInstancesEmm
04d08500 W _ZThn200_N29C_HMI_INET_URLEntering_VKB_Z1D0Ev
04d08508 W _ZThn200_N29C_HMI_INET_URLEntering_VKB_Z1D1Ev
04d08510 W _ZThn200_N27C_HMI_INET_UserGuide_BSC_Z1D0Ev
04d08518 W _ZThn200_N27C_HMI_INET_UserGuide_BSC_Z1D1Ev
04d08520 W _ZThn200_N20C_HMI_INT_MENU_STATED0Ev
04d08528 W _ZThn200_N20C_HMI_INT_MENU_STATED1Ev
04d08530 W _ZThn200_N24C_HMI_INT_MENU_STATE_VKB24onVirtualKeyboardDiscardEv
04d08538 W _ZThn200_N24C_HMI_INT_MENU_STATE_VKBD0Ev
04d08540 W _ZThn200_N24C_HMI_INT_MENU_STATE_VKBD1Ev
04d085bc W _ZThn64_N19C_HMI_INT_POPUP_INFD0Ev
04d085c4 W _ZThn64_N19C_HMI_INT_POPUP_INFD1Ev
04d085cc W _ZNKSt7num_putIcSt19ostreambuf_iteratorIcSt11char_traitsIcEEE3putES3_RSt8ios_basecm
04d08690 W _ZThn64_N19C_HMI_INT_POPUP_PMSD0Ev
04d08698 W _ZThn64_N19C_HMI_INT_POPUP_PMSD1Ev
04d086a0 W _ZThn64_N21C_HMI_INT_POPUP_STATED0Ev
04d086a8 W _ZThn64_N21C_HMI_INT_POPUP_STATED1Ev
04d086b0 W _ZThn64_N25C_HMI_INT_POPUP_STATE_VKBD0Ev
04d086b8 W _ZThn64_N25C_HMI_INT_POPUP_STATE_VKBD1Ev
04d086c0 W _ZThn64_N38C_HMI_INT_POPUP_VIE_INFO_EXPORT_STATUSD0Ev
04d086c8 W _ZThn64_N38C_HMI_INT_POPUP_VIE_INFO_EXPORT_STATUSD1Ev
04d09708 W _ZNKSt6vectorISbIwSt11char_traitsIwESaIwEESaIS3_EE2atEj
04d0a708 W _ZNSbIwSt11char_traitsIwESaIwEE8iteratorpLEi
04d0a750 W _ZNSbIwSt11char_traitsIwESaIwEE8iteratormIEi
04d0a7ac W _ZNKSbIwSt11char_traitsIwESaIwEE8iteratormiEi
04d0a814 W _ZNKSbIwSt11char_traitsIwESaIwEE8iteratorplEi
04d0abdc W _ZNKSbIwSt11char_traitsIwESaIwEE4findEwj
04d0adf0 W _ZNSbIwSt11char_traitsIwESaIwEE5eraseENS2_8iteratorE
04d0b188 W _ZNSbIwSt11char_traitsIwESaIwEE6insertEjjw
04d0b380 W _ZNSbIwSt11char_traitsIwESaIwEE6insertENS2_8iteratorEw
04d0b488 W _ZNSbIwSt11char_traitsIwESaIwEE9push_backEw
04d0be44 W _ZNSs6assignEjc
04d0bf2c W _ZNSsC1Ejc
04d0bfe8 T _ZNK22C_Addon_BrowserWrapper10metaObjectEv
04d0c014 T _ZN22C_Addon_BrowserWrapper29signalRequestRadioValueUpdateEi
04d0c08c T _ZN22C_Addon_BrowserWrapper29signalRequestMediaValueUpdateEi
04d0c104 T _ZN22C_Addon_BrowserWrapper16signalClickToNavEjjjjjjRK5QListI8QVariantE
04d0c1f4 T _ZN22C_Addon_BrowserWrapper15signalPortalZarEb
04d0c270 T _ZN22C_Addon_BrowserWrapper24signalPortalNotificationEjRK7QStringffbS2_S2_
04d0c364 T _ZN22C_Addon_BrowserWrapper17signalSaveContactERK7QStringS2_
04d0c3f0 T _ZN22C_Addon_BrowserWrapper15signalSaveVCardEiRK7QString
04d0c47c T _ZN22C_Addon_BrowserWrapper20signalStartPhoneCallERK7QString
04d0c4f4 T _ZN22C_Addon_BrowserWrapper30signalStartGuidanceCoordinatesEff
04d0c580 T _ZN22C_Addon_BrowserWrapper17signalAddBookmarkERK7QStringS2_S2_
04d0c620 T _ZN22C_Addon_BrowserWrapper18signalPopupBlockedERK7QString
04d0c698 T _ZN22C_Addon_BrowserWrapper18signalHttpsStartedEv
04d0c6f0 T _ZN22C_Addon_BrowserWrapper16signalSaveCookieERK13cookie_struct
04d0c768 T _ZN22C_Addon_BrowserWrapper20signalRequestCookiesEv
04d0c7c0 T _ZN22C_Addon_BrowserWrapper22signalRequestPortalUrlEv
04d0c818 T _ZN22C_Addon_BrowserWrapper17signalSaveFaviconERK7QString
04d0c890 T _ZN22C_Addon_BrowserWrapper18signalPageProgressEi
04d0c908 T _ZN22C_Addon_BrowserWrapper16signalUrlChangedERK7QString
04d0c980 T _ZN22C_Addon_BrowserWrapper18signalTitleChangedERK7QString
04d0c9f8 T _ZN22C_Addon_BrowserWrapper16signalPageLoadedERK7QStringRb
04d0ca84 T _ZN22C_Addon_BrowserWrapper22signalRequestTextInputEiRK7QString
04d0cb10 T _ZN22C_Addon_BrowserWrapper11qt_metacallEN11QMetaObject4CallEiPPv
04d0de90 T _ZN22C_Addon_BrowserWrapper11qt_metacastEPKc
04d0df48 T _ZNK17C_Addon_CookieJar10metaObjectEv
04d0df74 T _ZN17C_Addon_CookieJar10saveCookieERK13cookie_struct
04d0dfec T _ZN17C_Addon_CookieJar14requestCookiesEv
04d0e044 T _ZN17C_Addon_CookieJar11qt_metacallEN11QMetaObject4CallEiPPv
04d0e1d4 T _ZN17C_Addon_CookieJar11qt_metacastEPKc
04d0e28c T _ZNK7Binding10metaObjectEv
04d0e2b8 T _ZNK6Device10metaObjectEv
04d0e2e4 T _ZNK7CarTime10metaObjectEv
04d0e310 T _ZNK5Units10metaObjectEv
04d0e33c T _ZNK4Trip10metaObjectEv
04d0e368 T _ZNK3Car10metaObjectEv
04d0e394 T _ZNK11SourceMedia10metaObjectEv
04d0e3c0 T _ZNK11SourceRadio10metaObjectEv
04d0e3ec T _ZNK15CurrentPosition10metaObjectEv
04d0e418 T _ZNK11Destination10metaObjectEv
04d0e444 T _ZNK8Waypoint10metaObjectEv
04d0e470 T _ZNK27C_Addon_JavascriptInterface10metaObjectEv
04d0e49c T _ZN27C_Addon_JavascriptInterface11qt_metacallEN11QMetaObject4CallEiPPv
04d0e904 T _ZN27C_Addon_JavascriptInterface11qt_metacastEPKc
04d0e9bc T _ZN15CurrentPosition11qt_metacastEPKc
04d0ea74 T _ZN11Destination11qt_metacastEPKc
04d0eb2c T _ZN8Waypoint11qt_metacastEPKc
04d0ebe4 T _ZN11SourceRadio11qt_metacastEPKc
04d0ec9c T _ZN11SourceMedia11qt_metacastEPKc
04d0ed54 T _ZN3Car11qt_metacastEPKc
04d0ee0c T _ZN4Trip11qt_metacastEPKc
04d0eec4 T _ZN5Units11qt_metacastEPKc
04d0ef7c T _ZN7CarTime11qt_metacastEPKc
04d0f034 T _ZN6Device11qt_metacastEPKc
04d0f0ec T _ZN7Binding11qt_metacastEPKc
04d0f1a4 T _ZN15CurrentPosition11qt_metacallEN11QMetaObject4CallEiPPv
04d0f588 T _ZN11Destination11qt_metacallEN11QMetaObject4CallEiPPv
04d0f6d8 T _ZN8Waypoint11qt_metacallEN11QMetaObject4CallEiPPv
04d0f768 T _ZN11SourceRadio29signalRequestRadioValueUpdateEi
04d0f7e0 T _ZN11SourceMedia29signalRequestMediaValueUpdateEi
04d0f858 T _ZN7Binding16signalClickToNavEjjjjjjRK5QListI8QVariantE
04d0f948 T _ZN7Binding15signalPortalZarEb
04d0f9c4 T _ZN7Binding24signalPortalNotificationEjRK7QStringffbS2_S2_
04d0fab8 T _ZN7Binding30signalStartGuidanceCoordinatesEff
04d0fb44 T _ZN7Binding29signalStoreContact2AdressBookERK7QStringS2_
04d0fbd0 T _ZN7Binding21signalLaunchPhoneCallERK7QString
04d0fc48 T _ZN7Binding16signalStoreVcardEiRK7QString
04d0fcd4 T _ZN7Binding22signalAddURL2BookmarksERK7QStringS2_S2_
04d0fd74 T _ZN11SourceRadio11qt_metacallEN11QMetaObject4CallEiPPv
04d101c8 T _ZN11SourceMedia11qt_metacallEN11QMetaObject4CallEiPPv
04d10704 T _ZN3Car11qt_metacallEN11QMetaObject4CallEiPPv
04d10a28 T _ZN4Trip11qt_metacallEN11QMetaObject4CallEiPPv
04d10bc8 T _ZN5Units11qt_metacallEN11QMetaObject4CallEiPPv
04d10f54 T _ZN7CarTime11qt_metacallEN11QMetaObject4CallEiPPv
04d110a4 T _ZN6Device11qt_metacallEN11QMetaObject4CallEiPPv
04d11430 T _ZN7Binding11qt_metacallEN11QMetaObject4CallEiPPv
04d11c08 T _ZNK22C_Addon_NetworkManager10metaObjectEv
04d11c34 T _ZN22C_Addon_NetworkManager20untrustedCertificateEi
04d11cac T _ZN22C_Addon_NetworkManager8httpCodeEiRK7QString
04d11d38 T _ZN22C_Addon_NetworkManager12httpsStartedEv
04d11d90 T _ZN22C_Addon_NetworkManager11qt_metacallEN11QMetaObject4CallEiPPv
04d11f64 T _ZN22C_Addon_NetworkManager11qt_metacastEPKc
04d1201c T _ZNK15C_Addon_WebPage10metaObjectEv
04d12048 T _ZN15C_Addon_WebPage15javascriptErrorERK7QString
04d120c0 T _ZN15C_Addon_WebPage16requestUserAgentEv
04d12118 T _ZN15C_Addon_WebPage11qt_metacallEN11QMetaObject4CallEiPPv
04d122a0 T _ZN15C_Addon_WebPage11qt_metacastEPKc
04d12358 T _ZNK15C_Addon_WebView10metaObjectEv
04d12384 T _ZN15C_Addon_WebView16inputFormFocusedERK7QStringS2_
04d12410 T _ZN15C_Addon_WebView12popupBlockedERK7QString
04d12488 T _ZN15C_Addon_WebView11qt_metacallEN11QMetaObject4CallEiPPv
04d125f4 T _ZN15C_Addon_WebView11qt_metacastEPKc
04d126ac T _ZNK22C_Addon_BrowserWrapper10getWebViewEv
04d126d8 T _ZN22C_Addon_BrowserWrapper16requestUserAgentEv
04d1294c T _GLOBAL__D__ZN22C_Addon_BrowserWrapperC2Ev
04d12994 T _GLOBAL__I__ZN22C_Addon_BrowserWrapperC2Ev
04d12a20 T _ZN22C_Addon_BrowserWrapper18UpdateBodyworkTypeEv
04d12cf8 T _ZN22C_Addon_BrowserWrapper18UpdateVehiculeTypeEv
04d12fd0 T _ZN22C_Addon_BrowserWrapper15GetConfigOptionEPKcRb
04d133b8 T _ZN22C_Addon_BrowserWrapper20getUserGuideFileNameER7QString
04d13574 T _ZN22C_Addon_BrowserWrapper23requestRadioValueUpdateEi
04d1377c T _ZN22C_Addon_BrowserWrapper23requestMediaValueUpdateEi
04d13984 T _ZN22C_Addon_BrowserWrapper10clickToNavEjjjjjjRK5QListI8QVariantE
04d13bd0 T _ZN22C_Addon_BrowserWrapper9portalZarEb
04d13df8 T _ZN22C_Addon_BrowserWrapper18portalNotificationEjRK7QStringffbS2_S2_
04d1403c T _ZN22C_Addon_BrowserWrapper11saveContactERK7QStringS2_
04d1424c T _ZN22C_Addon_BrowserWrapper9saveVCardEiRK7QString
04d1445c T _ZN22C_Addon_BrowserWrapper14startPhoneCallERK7QString
04d14664 T _ZN22C_Addon_BrowserWrapper24startGuidanceCoordinatesEff
04d14888 T _ZN22C_Addon_BrowserWrapper11addBookmarkERK7QStringS2_S2_
04d14aa0 T _ZN22C_Addon_BrowserWrapper30loadTextInCurrentFocusedWidgetERK7QString
04d150ac T _ZN22C_Addon_BrowserWrapper30checkHistoryBackForwardButtonsEv
04d15468 T _ZN22C_Addon_BrowserWrapper18getFilenameFromURLERK7QStringS2_RS0_
04d15900 T _ZN22C_Addon_BrowserWrapper8setCacheERK7QStringi
04d15bd0 T _ZN22C_Addon_BrowserWrapper20untrustedCertificateEi
04d15f28 T _ZN22C_Addon_BrowserWrapper15stopLoadingPageEv
04d161e8 T _ZN22C_Addon_BrowserWrapper6setCSSERK7QString
04d1652c T _ZN22C_Addon_BrowserWrapper16httpCodeCallbackERKiRK7QString
04d168d8 T _ZN22C_Addon_BrowserWrapper17httpErrorCallbackERK7QString
04d16cb4 T _ZN22C_Addon_BrowserWrapper11refreshPageEv
04d16f90 T _ZN22C_Addon_BrowserWrapper16pageProgressSLOTEi
04d17248 T _ZN22C_Addon_BrowserWrapper19pageLoadStartedSLOTEv
04d17624 T _ZN22C_Addon_BrowserWrapper12popupBlockedERK7QString
04d1782c T _ZN22C_Addon_BrowserWrapper16inputFormFocusedERK7QStringS2_
04d17e8c T _ZN22C_Addon_BrowserWrapper14pageLoadedSLOTEb
04d18b24 T _ZN22C_Addon_BrowserWrapper18setPortalDisplayedERK7QString
04d18e2c T _ZN22C_Addon_BrowserWrapper12acceptPopupsEb
04d190bc T _ZN22C_Addon_BrowserWrapper7loadVinERK7QString
04d19450 T _ZN22C_Addon_BrowserWrapper20loadSetCardgetPortalERK7QStringff
04d1988c T _ZN22C_Addon_BrowserWrapper14loadSystemDataERK7QStringS2_S2_S2_
04d19eec T _ZN22C_Addon_BrowserWrapper13loadOffsetUtcEi
04d1a204 T _ZN22C_Addon_BrowserWrapper15loadCurrentTimeEiib
04d1a5b0 T _ZN22C_Addon_BrowserWrapper27loadInternetConnectionStateEb
04d1a8d4 T _ZN22C_Addon_BrowserWrapper12loadTripDataEfbfbfbi
04d1adb8 T _ZN22C_Addon_BrowserWrapper16loadInstTripDataEfbfb
04d1b1bc T _ZN22C_Addon_BrowserWrapper12loadCarSpeedEf
04d1b4cc T _ZN22C_Addon_BrowserWrapper20loadMeasurementUnitsEiiiib
04d1b900 T _ZN22C_Addon_BrowserWrapper12loadFuelTypeEi
04d1bc10 T _ZN22C_Addon_BrowserWrapper16loadDrivingStateEb
04d1bf34 T _ZN22C_Addon_BrowserWrapper14loadFolderDataERK7QStringi
04d1c30c T _ZN22C_Addon_BrowserWrapper12loadMetadataERK7QStringS2_S2_
04d1c808 T _ZN22C_Addon_BrowserWrapper13loadTrackDataEiii
04d1cbc0 T _ZN22C_Addon_BrowserWrapper14loadDeviceInfoEii
04d1cebc T _ZN22C_Addon_BrowserWrapper13loadRadioDataERK7QStringfiiS2_iii
04d1d48c T _ZN22C_Addon_BrowserWrapper15loadWaypointEtaEii
04d1d7dc T _ZN22C_Addon_BrowserWrapper18loadDestinationEtaEii
04d1db2c T _ZN22C_Addon_BrowserWrapper23loadWaypointCoordinatesEfffRK7QStringS2_S2_
04d1e0d0 T _ZN22C_Addon_BrowserWrapper26loadDestinationCoordinatesEfffRK7QStringS2_S2_
04d1e674 T _ZN22C_Addon_BrowserWrapper19loadPositionCountryERK7QString
04d1ea24 T _ZN22C_Addon_BrowserWrapper16loadPositionTownERK7QString
04d1edd4 T _ZN22C_Addon_BrowserWrapper18loadPositionStreetERK7QString
04d1f184 T _ZN22C_Addon_BrowserWrapper23loadPositionCoordinatesEfffj
04d1f55c T _ZN22C_Addon_BrowserWrapper13loadUserAgentERK7QString
04d1f8e4 T _ZN22C_Addon_BrowserWrapper13deleteCookiesEv
04d1fba4 T _ZN22C_Addon_BrowserWrapper13enableCookiesEb
04d1fe9c T _ZN22C_Addon_BrowserWrapper11loadCookiesERKSt6vectorI13cookie_structSaIS1_EE
04d20164 T _ZN22C_Addon_BrowserWrapper8setProxyERK7QString
04d20c58 T _ZN22C_Addon_BrowserWrapper13loadTextInputERK7QStringi
04d21f7c T _ZN22C_Addon_BrowserWrapper10saveCookieERK13cookie_struct
04d21fc8 T _ZN22C_Addon_BrowserWrapper14requestCookiesEv
04d2200c T _ZN22C_Addon_BrowserWrapper11iconChangedEv
04d22c34 T _ZN22C_Addon_BrowserWrapper12httpsStartedEv
04d22e34 T _ZN22C_Addon_BrowserWrapper10urlChangedERK4QUrl
04d2343c T _ZN22C_Addon_BrowserWrapper12titleChangedERK7QString
04d23704 T _ZN22C_Addon_BrowserWrapper8pageZoomEb
04d23a88 T _ZN22C_Addon_BrowserWrapper12clearHistoryEv
04d23cdc T _ZN22C_Addon_BrowserWrapper15gotoHistoryPageEb
04d23ff8 T _ZN22C_Addon_BrowserWrapper7loadUrlERK7QString
04d248c4 T _ZN22C_Addon_BrowserWrapper13loadPortalUrlERK7QString
04d24bac T _ZN22C_Addon_BrowserWrapper13deleteWebPageEv
04d24f40 T _ZN22C_Addon_BrowserWrapper13createWebPageEm
04d25d28 T _ZN22C_Addon_BrowserWrapper4initEv
04d27894 T _ZN22C_Addon_BrowserWrapper13disconnectAllEv
04d27da4 T _ZN22C_Addon_BrowserWrapperD0Ev
04d2858c T _ZN22C_Addon_BrowserWrapperD1Ev
04d28d74 T _ZN22C_Addon_BrowserWrapperD2Ev
04d2955c T _ZN22C_Addon_BrowserWrapperC1Ev
04d29c2c T _ZN22C_Addon_BrowserWrapperC2Ev
04d2a4c0 T _GLOBAL__D__ZN17C_Addon_CookieJarC2EP7QObject
04d2a508 T _GLOBAL__I__ZN17C_Addon_CookieJarC2EP7QObject
04d2a594 T _ZN17C_Addon_CookieJar13enableCookiesEb
04d2a7b8 T _ZN17C_Addon_CookieJar13deleteCookiesEv
04d2aa30 T _ZN17C_Addon_CookieJar11loadCookiesERKSt6vectorI13cookie_structSaIS1_EE
04d2b69c T _ZN17C_Addon_CookieJar17setCookiesFromUrlERK5QListI14QNetworkCookieERK4QUrl
04d2c5c0 T _ZNK17C_Addon_CookieJar13cookiesForUrlERK4QUrl
04d2c978 T _ZN17C_Addon_CookieJar4initEv
04d2cb78 T _ZN17C_Addon_CookieJarD0Ev
04d2cde4 T _ZN17C_Addon_CookieJarD1Ev
04d2d050 T _ZN17C_Addon_CookieJarD2Ev
04d2d2bc T _ZN17C_Addon_CookieJarC1EP7QObject
04d2d510 T _ZN17C_Addon_CookieJarC2EP7QObject
04d2d928 T _GLOBAL__D__ZN27C_Addon_JavascriptInterfaceC2EP22C_Addon_BrowserWrapperR22C_Addon_SpyDataHandlerP9QWebFrame
04d2d970 T _GLOBAL__I__ZN27C_Addon_JavascriptInterfaceC2EP22C_Addon_BrowserWrapperR22C_Addon_SpyDataHandlerP9QWebFrame
04d2d9fc T _ZN15CurrentPosition12QualityIndexEv
04d2dccc T _ZN15CurrentPosition8AltitudeEv
04d2dfa4 T _ZN15CurrentPosition8LatitudeEv
04d2e27c T _ZN15CurrentPosition9LongitudeEv
04d2e554 T _ZN3Car9OffsetUTCEv
04d2e824 T _ZN3Car8AutonomyEv
04d2eb14 T _ZN3Car7MileageEv
04d2ee04 T _ZN3Car5SpeedEv
04d2f0dc T _ZN3Car12DrivingStateEv
04d2f3dc T _ZN3Car8FuelTypeEv
04d2f6ac T _ZN11SourceRadio14DisableRequestE21t_update_source_radio
04d2f8c0 T _ZN11SourceRadio15IsDataRequestedE21t_update_source_radio
04d2facc T _ZN11SourceMedia14DisableRequestE21t_update_source_media
04d2fce0 T _ZN11SourceMedia15IsDataRequestedE21t_update_source_media
04d2feec T _ZNK7Binding17GetPortalOnScreenEv
04d30234 T _ZNK7Binding17GetInternetStatusEv
04d3057c T _ZN11Destination10ETAMinutesEv
04d3084c T _ZN11Destination8ETAHoursEv
04d30b1c T _ZN4Trip12AverageSpeedEv
04d30df4 T _ZN4Trip11ConsumptionEv
04d310e4 T _ZN4Trip7MileageEv
04d313d4 T _ZN7CarTime7MinutesEv
04d316a4 T _ZN7CarTime5HoursEv
04d31974 T _ZN27C_Addon_JavascriptInterface18setPortalDisplayedEb
04d31b90 T _ZN27C_Addon_JavascriptInterface13loadOffsetUtcEi
04d31dbc T _ZN27C_Addon_JavascriptInterface15loadCurrentTimeEiib
04d320a4 T _ZN27C_Addon_JavascriptInterface27loadInternetConnectionStateEb
04d322e4 T _ZN27C_Addon_JavascriptInterface12loadTripDataEfbfbfbi
04d327f4 T _ZN27C_Addon_JavascriptInterface16loadInstTripDataEfbfb
04d32b40 T _ZN27C_Addon_JavascriptInterface12loadCarSpeedEf
04d32d70 T _ZN27C_Addon_JavascriptInterface20loadMeasurementUnitsEiiiib
04d33118 T _ZN27C_Addon_JavascriptInterface12loadFuelTypeEi
04d33344 T _ZN27C_Addon_JavascriptInterface16loadDrivingStateEb
04d33584 T _ZN27C_Addon_JavascriptInterface15loadWaypointEtaEii
04d33810 T _ZN27C_Addon_JavascriptInterface18loadDestinationEtaEii
04d33a9c T _ZN27C_Addon_JavascriptInterface23loadPositionCoordinatesEfffj
04d33db8 T _ZN15CurrentPosition7CountryEv
04d34120 T _ZN15CurrentPosition4TownEv
04d34488 T _ZN15CurrentPosition6StreetEv
04d347f0 T _ZN3Car3VINEv
04d34b58 T _ZN5UnitsD0Ev
04d34dc4 T _ZN5UnitsD1Ev
04d35030 T _ZN5UnitsD2Ev
04d3529c T _ZN4TripD0Ev
04d35508 T _ZN4TripD1Ev
04d35774 T _ZN4TripD2Ev
04d359e0 T _ZN7CarTimeD0Ev
04d35c4c T _ZN7CarTimeD1Ev
04d35eb8 T _ZN7CarTimeD2Ev
04d36124 T _ZN15CurrentPositionD0Ev
04d3648c T _ZN15CurrentPositionD1Ev
04d367f4 T _ZN15CurrentPositionD2Ev
04d36b5c T _ZN11DestinationD0Ev
04d36dc8 T _ZN11DestinationD1Ev
04d37034 T _ZN11DestinationD2Ev
04d372a0 T _ZN8WaypointD0Ev
04d3750c T _ZN8WaypointD1Ev
04d37778 T _ZN8WaypointD2Ev
04d379e4 T _ZN3CarD0Ev
04d37ca4 T _ZN3CarD1Ev
04d37f64 T _ZN3CarD2Ev
04d38224 T _ZN11SourceRadioD0Ev
04d38538 T _ZN11SourceRadioD1Ev
04d3884c T _ZN11SourceRadioD2Ev
04d38b60 T _ZN11SourceMediaD0Ev
04d38f1c T _ZN11SourceMediaD1Ev
04d392d8 T _ZN11SourceMediaD2Ev
04d39694 T _ZN7BindingD0Ev
04d39954 T _ZN7BindingD1Ev
04d39c14 T _ZN7BindingD2Ev
04d39ed4 T _ZN6DeviceD0Ev
04d3a290 T _ZN6DeviceD1Ev
04d3a64c T _ZN6DeviceD2Ev
04d3aa08 T _ZN5UnitsC1ER22C_Addon_SpyDataHandler
04d3ac8c T _ZN5UnitsC2ER22C_Addon_SpyDataHandler
04d3af10 T _ZN7BindingC1ER22C_Addon_SpyDataHandler
04d3b1e0 T _ZN7BindingC2ER22C_Addon_SpyDataHandler
04d3b4b0 T _ZN4TripC1ER22C_Addon_SpyDataHandler
04d3b734 T _ZN4TripC2ER22C_Addon_SpyDataHandler
04d3b9b8 T _ZN7CarTimeC1ER22C_Addon_SpyDataHandler
04d3bc24 T _ZN7CarTimeC2ER22C_Addon_SpyDataHandler
04d3be90 T _ZN27C_Addon_JavascriptInterface20loadSetCardgetPortalERK7QStringff
04d3c0b0 T _ZN27C_Addon_JavascriptInterface14loadSystemDataERK7QStringS2_S2_S2_
04d3c5c0 T _ZN27C_Addon_JavascriptInterface7loadVINERK7QString
04d3c850 T _ZN27C_Addon_JavascriptInterface18loadPositionStreetERK7QString
04d3cb20 T _ZN27C_Addon_JavascriptInterface16loadPositionTownERK7QString
04d3cdf0 T _ZN27C_Addon_JavascriptInterface23loadWaypointCoordinatesEfffRK7QStringS2_S2_
04d3d34c T _ZN27C_Addon_JavascriptInterface26loadDestinationCoordinatesEfffRK7QStringS2_S2_
04d3d8a8 T _ZN27C_Addon_JavascriptInterface19loadPositionCountryERK7QString
04d3db78 T _ZN15CurrentPositionC1ER22C_Addon_SpyDataHandler
04d3e068 T _ZN15CurrentPositionC2ER22C_Addon_SpyDataHandler
04d3e558 T _ZN11DestinationC1ER22C_Addon_SpyDataHandler
04d3e7c4 T _ZN11DestinationC2ER22C_Addon_SpyDataHandler
04d3ea30 T _ZN8WaypointC1ER22C_Addon_SpyDataHandler
04d3ec74 T _ZN8WaypointC2ER22C_Addon_SpyDataHandler
04d3eeb8 T _ZN5Units11ConsumptionEv
04d3f48c T _ZN5Units5SpeedEv
04d3f9cc T _ZN5Units8DistanceEv
04d3ff0c T _ZN5Units4FuelEv
04d4044c T _ZN3CarC1ER22C_Addon_SpyDataHandler
04d407bc T _ZN3CarC2ER22C_Addon_SpyDataHandler
04d40b2c T _ZN11SourceRadioC1ER22C_Addon_SpyDataHandler
04d40f70 T _ZN11SourceRadioC2ER22C_Addon_SpyDataHandler
04d413b4 T _ZN11SourceMediaC1ER22C_Addon_SpyDataHandler
04d4198c T _ZN11SourceMediaC2ER22C_Addon_SpyDataHandler
04d41f64 T _ZN6DeviceC1ER22C_Addon_SpyDataHandler
04d424e4 T _ZN27C_Addon_JavascriptInterfaceC1EP22C_Addon_BrowserWrapperR22C_Addon_SpyDataHandlerP9QWebFrame
04d42af4 T _ZN27C_Addon_JavascriptInterfaceC2EP22C_Addon_BrowserWrapperR22C_Addon_SpyDataHandlerP9QWebFrame
04d43104 T _ZN6DeviceC2ER22C_Addon_SpyDataHandler
04d43684 T _ZN11SourceRadio3PTYEv
04d43980 T _ZN11SourceRadio2TAEv
04d43c8c T _ZN11SourceRadio3RDSEv
04d43f98 T _ZN11SourceRadio4TextEv
04d4432c T _ZN11SourceRadio6PresetEv
04d44628 T _ZN11SourceRadio9FrequencyEv
04d44968 T _ZN11SourceRadio6PSNameEv
04d44cfc T _ZN11SourceRadio4BandEv
04d452fc T _ZN11SourceMedia10MediaStateEv
04d455f8 T _ZN11SourceMedia8TypeNameEv
04d458f4 T _ZN11SourceMedia9AlbumNameEv
04d45c88 T _ZN11SourceMedia10ArtistNameEv
04d4601c T _ZN11SourceMedia10FolderNameEv
04d463b0 T _ZN11SourceMedia11TotalFolderEv
04d466ac T _ZN11SourceMedia12FolderNumberEv
04d469a8 T _ZN11SourceMedia9TrackNameEv
04d46d3c T _ZN11SourceMedia11TotalTracksEv
04d47038 T _ZN11SourceMedia12CurrentTrackEv
04d47334 T _ZN7Binding10ClickToNavEjjjjjjRK5QListI8QVariantE
04d47828 T _ZN7Binding9PortalZarEb
04d47b10 T _ZN7Binding16SetCardgetPortalEv
04d48198 T _ZN7Binding24UnlockPortalNotificationEv
04d483cc T _ZN7Binding18PortalNotificationEjRK7QStringffbS2_S2_
04d48bec T _ZN7Binding23StoreContact2AdressBookERK7QStringS2_
04d4911c T _ZN7Binding15LaunchPhoneCallERK7QString
04d4952c T _ZN7Binding18StoreVcard2ContactERK7QString
04d49940 T _ZN7Binding14StoreVcard2POIERK7QString
04d49d54 T _ZN7Binding14LaunchGuidanceEff
04d4a094 T _ZN7Binding16AddURL2BookmarksERK7QStringS2_
04d4a640 T _ZN6Device10MapVersionEv
04d4a94c T _ZN6Device10SupplierIdEv
04d4ac58 T _ZN6Device15HardwareReleaseEv
04d4af64 T _ZN6Device15SoftwareReleaseEv
04d4b270 T _ZN27C_Addon_JavascriptInterface14loadFolderDataERK7QStringi
04d4b8bc T _ZN27C_Addon_JavascriptInterface12loadMetadataERK7QStringS2_S2_
04d4c1d4 T _ZN27C_Addon_JavascriptInterface13loadTrackDataEiii
04d4c9b4 T _ZN27C_Addon_JavascriptInterface14loadDeviceInfoEii
04d4cf98 T _ZN27C_Addon_JavascriptInterface13loadRadioDataERK7QStringfiiS2_iii
04d4e84c T _ZN27C_Addon_JavascriptInterface14addToJSContextEP9QWebFrame
04d4f278 T _ZN27C_Addon_JavascriptInterface14addToJSContextEv
04d50654 T _ZN27C_Addon_JavascriptInterface27slotRequestRadioValueUpdateEi
04d506b8 T _ZN27C_Addon_JavascriptInterface27slotRequestMediaValueUpdateEi
04d5071c T _ZN27C_Addon_JavascriptInterface14slotClickToNavEjjjjjjRK5QListI8QVariantE
04d507b0 T _ZN27C_Addon_JavascriptInterface13slotPortalZarEb
04d50820 T _ZN27C_Addon_JavascriptInterface22slotPortalNotificationEjRK7QStringffbS2_S2_
04d508c0 T _ZN27C_Addon_JavascriptInterface13slotSaveVCardEiRK7QString
04d5092c T _ZN27C_Addon_JavascriptInterface15slotSaveContactERK7QStringS2_
04d50998 T _ZN27C_Addon_JavascriptInterface18slotStartPhoneCallERK7QString
04d509fc T _ZN27C_Addon_JavascriptInterface28slotStartGuidanceCoordinatesEff
04d50a68 T _ZN27C_Addon_JavascriptInterface15slotAddBookmarkERK7QStringS2_S2_
04d50adc T _ZN27C_Addon_JavascriptInterface13disconnectAllEv
04d50d58 T _ZN27C_Addon_JavascriptInterface10connectAllEv
04d50fb8 T _ZN27C_Addon_JavascriptInterfaceD0Ev
04d5165c T _ZN27C_Addon_JavascriptInterfaceD1Ev
04d51d00 T _ZN27C_Addon_JavascriptInterfaceD2Ev
04d52568 T _GLOBAL__D__ZN22C_Addon_NetworkManagerC2EP7QObject
04d525b0 T _GLOBAL__I__ZN22C_Addon_NetworkManagerC2EP7QObject
04d5263c T _ZN22C_Addon_NetworkManager12finishedSlotEP13QNetworkReply
04d531a0 T _ZN22C_Addon_NetworkManager10executeSSLERK5QListI9QSslErrorEP13QNetworkReply
04d5533c T _ZN22C_Addon_NetworkManager16sslErrorCallbackEP13QNetworkReplyRK5QListI9QSslErrorE
04d5558c T _ZN22C_Addon_NetworkManager22unloadLocalCertificateEv
04d557a8 T _ZN22C_Addon_NetworkManager20loadLocalCertificateEv
04d56478 T _ZN22C_Addon_NetworkManager23enableLocaleCertificateEb
04d566a8 T _ZN22C_Addon_NetworkManager16loadCertificatesEv
04d57388 T _ZN22C_Addon_NetworkManager13disconnectAllEv
04d57618 T _ZN22C_Addon_NetworkManagerD0Ev
04d578cc T _ZN22C_Addon_NetworkManagerD1Ev
04d57b80 T _ZN22C_Addon_NetworkManagerD2Ev
04d57e34 T _ZN22C_Addon_NetworkManagerC1EP7QObject
04d582c8 T _ZN22C_Addon_NetworkManagerC2EP7QObject
04d5875c T _ZNK15C_Addon_WebPage15userAgentForUrlERK4QUrl
04d58868 T _GLOBAL__D__ZN15C_Addon_WebPageC2EP7QObject
04d588b0 T _GLOBAL__I__ZN15C_Addon_WebPageC2EP7QObject
04d5893c T _ZN15C_Addon_WebPage12frameCreatedEP9QWebFrame
04d58cfc T _ZN15C_Addon_WebPage13loadUserAgentERK7QString
04d58fcc T _ZN15C_Addon_WebPage13disconnectAllEv
04d59070 T _ZN15C_Addon_WebPage4initEv
04d59270 T _ZN15C_Addon_WebPageD0Ev
04d59578 T _ZN15C_Addon_WebPageD1Ev
04d59880 T _ZN15C_Addon_WebPageD2Ev
04d59b88 T _ZN15C_Addon_WebPageC1EP7QObject
04d59e74 T _ZN15C_Addon_WebPageC2EP7QObject
04d5a324 T _GLOBAL__D__ZN15C_Addon_WebViewC2EP7QWidget
04d5a36c T _GLOBAL__I__ZN15C_Addon_WebViewC2EP7QWidget
04d5a3f8 T _ZNK15C_Addon_WebView21WebWindowTypeToStringEN8QWebPage13WebWindowTypeE
04d5a500 T _ZN15C_Addon_WebView12acceptPopupsEb
04d5a764 T _ZN15C_Addon_WebView15mousePressEventEP11QMouseEvent
04d5bbf4 T _ZN15C_Addon_WebView12createWindowEN8QWebPage13WebWindowTypeE
04d5c3b8 T _ZN15C_Addon_WebViewD0Ev
04d5c634 T _ZN15C_Addon_WebViewD1Ev
04d5c8b0 T _ZN15C_Addon_WebViewD2Ev
04d5cb2c T _ZN15C_Addon_WebViewC1EP7QWidget
04d5cd8c T _ZN15C_Addon_WebViewC2EP7QWidget
04d5d090 T _GLOBAL__D__Z16start_inet_addonv
04d5d0d8 T _GLOBAL__I__Z16start_inet_addonv
04d5d164 T _ZN20C_GUI_InternetClient12createWebkitEv
04d5d3a4 T _ZN20C_GUI_InternetClient12createWebkitEm
04d5d5d0 T _ZN20C_GUI_InternetClient13destroyWebkitEv
04d5d7d8 T _ZN20C_GUI_InternetClient14releaseWebViewEv
04d5d9f0 T _ZN20C_GUI_InternetClient10getWebViewEv
04d5dc20 T _ZN20C_GUI_InternetClient20ProcessConfigMessageEP27C_HMI_InternetConfigMessage
04d5de68 T _ZN20C_GUI_InternetClient18InitInternetClientEP13C_GUI_Manager
04d5e7c4 T _ZN20C_GUI_InternetClientD0Ev
04d5eae4 T _ZN20C_GUI_InternetClientD1Ev
04d5ee04 T _ZN20C_GUI_InternetClientD2Ev
04d5f124 T _ZN20C_GUI_InternetClientC1Ev
04d5f388 T _ZN20C_GUI_InternetClientC2Ev
04d5f5ec T _Z16start_inet_addonv
04d5fd28 T _GLOBAL__D__ZN22C_Addon_SpyDataHandlerC2Ev
04d5fd70 T _GLOBAL__I__ZN22C_Addon_SpyDataHandlerC2Ev
04d5fdfc T _ZN22C_Addon_SpyDataHandler19UpdateStaticSpyDataER9CMMString
04d60450 T _ZN22C_Addon_SpyDataHandler20SetUserGuideFilePathERK7QString
04d60660 T _ZN22C_Addon_SpyDataHandler24SetRegisterResourceStateENS_23t_user_guide_init_stateE
04d6085c T _ZN22C_Addon_SpyDataHandler22SetLastPageLoadStartedERK7QString
04d60a6c T _ZN22C_Addon_SpyDataHandler18SetBrowserInstanceERK7QString
04d60c7c T _ZN22C_Addon_SpyDataHandler18SetActivationFlagsERK7QString
04d60e8c T _ZN22C_Addon_SpyDataHandler11SetProxyUrlERK7QString
04d6109c T _ZN22C_Addon_SpyDataHandler9SetPsaUrlERK7QString
04d612ac T _ZN22C_Addon_SpyDataHandler17SetSpeedThresholdERK7QString
04d614bc T _ZN22C_Addon_SpyDataHandlerC1Ev
04d6188c T _ZN22C_Addon_SpyDataHandlerC2Ev
04d61c5c T _ZN22C_Addon_SpyDataHandler26WriteStaticSpyEventHandlerEPS_
04d624d8 T _ZN22C_Addon_SpyDataHandler15WriteDynamicSpyER9CMMString
04d62bcc T _ZN22C_Addon_SpyDataHandler4InitEv
04d633f4 T _ZN22C_Addon_SpyDataHandlerD0Ev
04d63e2c T _ZN22C_Addon_SpyDataHandlerD1Ev
04d64864 T _ZN22C_Addon_SpyDataHandlerD2Ev
04d65340 T _GLOBAL__D__Z18INET_ADDON_LogsOffv
04d65388 T _GLOBAL__I__Z18INET_ADDON_LogsOffv
04d653d0 T _Z17INET_ADDON_LogsOnv
04d65428 T _Z18INET_ADDON_LogsOffv
04d65878 W _ZN4QMapI7QString8QVariantE11node_createEP8QMapDataPPNS3_4NodeERKS0_RKS1_
04d65b60 W _ZN4QMapI7QString8QVariantEaSERKS2_
04d65c64 W _ZNKSt5ctypeIcE2isEsc
04d65cdc W _ZNSt8ios_base4setfENSt5_IosbIiE9_FmtflagsE
04d65d34 W _ZStaNRNSt5_IosbIiE9_FmtflagsES1_
04d65d7c W _ZStanNSt5_IosbIiE8_IostateES1_
04d65e04 W _ZNK18INET_ADDON_logging3Log14isLogActivatedEv
04d65e34 W _ZN18INET_ADDON_logging3LogC1Ev
04d66108 W _ZN7QWidget4showEv
04d66158 W _ZN12t_text_fieldC1Ev
04d661d8 W _ZN6QFlagsIN2Qt16KeyboardModifierEEC1ES1_
04d66208 W _ZN6QFlagsIN4QUrl16FormattingOptionEEC1ES1_
04d66238 W _ZNSolsEPFRSt8ios_baseS0_E
04d663d4 W _ZNSi6sentryD1Ev
04d6641c W _ZNKSi6sentrycvbEv
04d6644c W _ZNSt8iteratorISt18input_iterator_tagclPcRcEC2Ev
04d6646c W _ZNSt19istreambuf_iteratorIcSt11char_traitsIcEEC1EPSt15basic_streambufIcS1_E
04d664dc W _ZNKSt7num_getIcSt19istreambuf_iteratorIcSt11char_traitsIcEEE3getES3_S3_RSt8ios_baseRNSt5_IosbIiE8_IostateERl
04d665b0 W _ZNKSt7num_putIcSt19ostreambuf_iteratorIcSt11char_traitsIcEEE3putES3_RSt8ios_basecd
04d66674 W _ZNSi12_Sentry_baseC2ERSi
04d66860 W _ZNSt7num_getIcSt19istreambuf_iteratorIcSt11char_traitsIcEEE5_InitERKSt8_Locinfo
04d668b4 W _ZSt11_MaklocbyteIcEcT_RKSt7_Cvtvec
04d66aac W _ZNKSt19istreambuf_iteratorIcSt11char_traitsIcEEdeEv
04d66b1c W _ZNKSt19istreambuf_iteratorIcSt11char_traitsIcEE5equalERKS2_
04d66c0c W _ZSteqIcSt11char_traitsIcEEbRKSt19istreambuf_iteratorIT_T0_ES7_
04d66c60 W _ZStneIcSt11char_traitsIcEEbRKSt19istreambuf_iteratorIT_T0_ES7_
04d66cbc W _ZNSt19istreambuf_iteratorIcSt11char_traitsIcEE4_IncEv
04d66dac W _ZNSt19istreambuf_iteratorIcSt11char_traitsIcEEppEv
04d66df8 W _ZN18INET_ADDON_logging3LogD0Ev
04d66e5c W _ZN18INET_ADDON_logging3LogD1Ev
04d66ec0 W _ZN7QString13fromStdStringERKSs
04d67268 W _ZN12t_text_fieldD1Ev
04d6736c W _ZN18INET_ADDON_logging3Log9getHandleEv
04d67424 W _ZTv0_n12_NSt19basic_istringstreamIcSt11char_traitsIcESaIcEED0Ev
04d67434 W _ZNSt19basic_istringstreamIcSt11char_traitsIcESaIcEED0Ev
04d67614 W _ZTv0_n12_NSt19basic_istringstreamIcSt11char_traitsIcESaIcEED1Ev
04d67624 W _ZNSt19basic_istringstreamIcSt11char_traitsIcESaIcEED1Ev
04d67804 W _ZNSt7num_getIcSt19istreambuf_iteratorIcSt11char_traitsIcEEEC1Ej
04d678fc W _ZNSt7num_getIcSt19istreambuf_iteratorIcSt11char_traitsIcEEE7_GetcatEPPKNSt6locale5facetE
04d67bc4 W _ZNSi5_IpfxEb
04d68538 W _ZNSt15basic_stringbufIcSt11char_traitsIcESaIcEEC1ERKSsNSt5_IosbIiE9_OpenmodeE
04d6866c W _ZNSt19basic_istringstreamIcSt11char_traitsIcESaIcEEC1ERKSsNSt5_IosbIiE9_OpenmodeE
04d687ec W _ZNSolsEf
04d68c8c W _ZN16QCoreApplication9sendEventEP7QObjectP6QEvent
04d68ff8 W _ZSt10_GetloctxtIcSt19istreambuf_iteratorIcSt11char_traitsIcEEEiRT0_S5_jPKT_
04d69458 W _ZN8QPalette8setColorENS_10ColorGroupENS_9ColorRoleERK6QColor
04d69534 W _ZN8QPalette8setColorENS_9ColorRoleERK6QColor
04d69960 W _ZNKSs5rfindEPKcj
04d699d8 W __errnoRef
04d69d8c W _ZN5QListI14QNetworkCookieEC1Ev
04d69de8 W _ZNK5QListI14QNetworkCookieE4sizeEv
04d69e58 W _ZNSt6vectorI13cookie_structSaIS0_EE14const_iteratorC1Ev
04d69eac W _ZNSt6vectorI13cookie_structSaIS0_EE14const_iteratorppEv
04d69ee8 W _ZNKSt6vectorI13cookie_structSaIS0_EE14const_iteratordeEv
04d69f14 W _ZN5QListI14QNetworkCookieE4Node1tEv
04d69f3c W _ZNK5QListI14QNetworkCookieE2atEi
04d69fbc W _ZNSt6vectorI13cookie_structSaIS0_EE14const_iteratorC1EPS0_
04d6a014 W _ZNKSt6vectorI13cookie_structSaIS0_EE5beginEv
04d6a070 W _ZNKSt6vectorI13cookie_structSaIS0_EE3endEv
04d6a0cc W _ZNKSt6vectorI13cookie_structSaIS0_EE14const_iteratoreqERKS3_
04d6a110 W _ZNKSt6vectorI13cookie_structSaIS0_EE14const_iteratorneERKS3_
04d6a2a4 W _ZN5QListI14QNetworkCookieE13node_destructEPNS1_4NodeES3_
04d6a490 W _ZN5QListI14QNetworkCookieE9node_copyEPNS1_4NodeES3_S3_
04d6a6a8 W _ZN5QListI14QNetworkCookieE6detachEv
04d6a718 W _ZN5QListI14QNetworkCookieE14node_constructEPNS1_4NodeERKS0_
04d6a8d4 W _ZN5QListI14QNetworkCookieElsERKS0_
04d6a928 W _ZN7Binding17setInternetStatusEb
04d6a95c W _ZN7Binding17setPortalOnScreenEb
04d6a990 W _ZN7CarTime8setHoursEi
04d6a9c0 W _ZN7CarTime10setMinutesEi
04d6a9f0 W _ZN5Units7setFuelEi
04d6aa20 W _ZN5Units11setDistanceEi
04d6aa50 W _ZN5Units8setSpeedEi
04d6aa80 W _ZN5Units14setConsumptionEi
04d6aab0 W _ZN4Trip10setMileageEd
04d6aae0 W _ZN4Trip14setConsumptionEd
04d6ab10 W _ZN4Trip15setAverageSpeedEd
04d6ab40 W _ZN3Car15setDrivingStateEb
04d6ab74 W _ZN3Car11setFuelTypeEi
04d6aba4 W _ZN3Car8setSpeedEd
04d6abd4 W _ZN3Car10setMileageEd
04d6ac04 W _ZN3Car11setAutonomyEd
04d6ac34 W _ZN3Car12setOffsetUTCEi
04d6ac64 W _ZN11SourceMedia15setCurrentTrackEi
04d6ac94 W _ZN11SourceMedia14setTotalTracksEi
04d6acc4 W _ZN11SourceMedia15setFolderNumberEi
04d6acf4 W _ZN11SourceMedia14setTotalFolderEi
04d6ad24 W _ZN11SourceMedia12setMediaTypeEi
04d6ad54 W _ZN11SourceMedia13setMediaStateEi
04d6ad84 W _ZN11SourceRadio12setFrequencyEd
04d6adb4 W _ZN11SourceRadio9setPresetEi
04d6ade4 W _ZN11SourceRadio7setBandEi
04d6ae14 W _ZN11SourceRadio6setRDSEb
04d6ae48 W _ZN11SourceRadio5setTAEb
04d6ae7c W _ZN11SourceRadio6setPTYEi
04d6aeac W _ZN15CurrentPosition11setLatitudeEd
04d6aedc W _ZN15CurrentPosition12setLongitudeEd
04d6af0c W _ZN15CurrentPosition11setAltitudeEd
04d6af3c W _ZN15CurrentPosition6setPQIEj
04d6af6c W _ZN11Destination11setETAHoursEi
04d6af9c W _ZN11Destination13setETAMinutesEi
04d6afcc W _ZNK5QListIP9QWebFrameE5countEv
04d6b01c W _ZN4QMapI7QString8QVariantEC1Ev
04d6b0cc W _ZN5QListIP9QWebFrameE4Node1tEv
04d6b0f4 W _ZNK5QListIP9QWebFrameE2atEi
04d6b174 W _ZN4QMapI7QString8QVariantE8iteratorC1EPN8QMapData4NodeE
04d6b1a4 W _ZN5QListIP9QWebFrameE13node_destructEPNS2_4NodeES4_
04d6b1cc W _ZN5QListIP9QWebFrameE4freeEPN9QListData4DataE
04d6b290 W _ZN5QListIP9QWebFrameED1Ev
04d6b348 W _ZN7Binding28loadSetCardgetPortalVariableERK7QStringff
04d6b3bc W _ZN6Device18setSoftwareReleaseERK7QString
04d6b410 W _ZN6Device18setHardwareReleaseERK7QString
04d6b464 W _ZN6Device13setSupplierIdERK7QString
04d6b4b8 W _ZN6Device13setMapVersionERK7QString
04d6b50c W _ZN3Car6setVINERK7QString
04d6b560 W _ZN11SourceMedia13setFolderNameERK7QString
04d6b5b4 W _ZN11SourceMedia12setTrackNameERK7QString
04d6b608 W _ZN11SourceMedia13setArtistNameERK7QString
04d6b65c W _ZN11SourceMedia12setAlbumNameERK7QString
04d6b6b0 W _ZN11SourceRadio9setPSNameERK7QString
04d6b704 W _ZN11SourceRadio7setTextERK7QString
04d6b758 W _ZN15CurrentPosition9setStreetERK7QString
04d6b7ac W _ZN15CurrentPosition7setTownERK7QString
04d6b800 W _ZN15CurrentPosition10setCountryERK7QString
04d6ba7c W _ZN4QMapI7QString8QVariantE6detachEv
04d6baf0 W _ZN4QMapI7QString8QVariantE6insertERKS0_RKS1_
04d6be60 W _ZN6QFlagsIN12QDirIterator12IteratorFlagEEC1ES1_
04d6be90 W _ZN5QListI15QSslCertificateEC1Ev
04d6beec W _ZNK5QListI15QSslCertificateE7isEmptyEv
04d6bf3c W _ZNK5QListI9QSslErrorE14const_iteratorneERKS2_
04d6bf8c W _ZN5QListI9QSslErrorE14const_iteratorppEv
04d6bfc8 W _ZNK5QListI7QStringE7isEmptyEv
04d6c018 W _ZNK5QListI15QSslCertificateE4sizeEv
04d6c068 W _ZNK5QListI15QSslCertificateE14const_iteratorneERKS2_
04d6c0b8 W _ZN5QListI15QSslCertificateE14const_iteratorppEv
04d6c0f4 W _ZN5QListI15QSslCertificateE14const_iteratorC1ERKS2_
04d6c25c W _ZN5QListI7QStringE14node_constructEPNS1_4NodeERKS0_
04d6c390 W _ZN5QListI9QSslErrorE14const_iteratorC1EPNS1_4NodeE
04d6c3c0 W _ZNK5QListI9QSslErrorE10constBeginEv
04d6c440 W _ZNK5QListI9QSslErrorE8constEndEv
04d6c4c0 W _ZN5QListI9QSslErrorE4Node1tEv
04d6c4ec W _ZNK5QListI9QSslErrorE14const_iteratorptEv
04d6c540 W _ZN5QListI15QSslCertificateE4Node1tEv
04d6c56c W _ZNK5QListI15QSslCertificateE14const_iteratordeEv
04d6c5c0 W _ZNK5QListI15QSslCertificateE8iteratordeEv
04d6c614 W _ZN5QListI15QSslCertificateE8iteratorC1EPNS1_4NodeE
04d6c644 W _ZN5QListI15QSslCertificateE14const_iteratorC1EPNS1_4NodeE
04d6c674 W _ZNK5QListI15QSslCertificateE5beginEv
04d6c6f4 W _ZNK5QListI15QSslCertificateE3endEv
04d6c9a4 W _ZN5QListI15QSslCertificateE13node_destructEPNS1_4NodeES3_
04d6cbb8 W _ZN17QForeachContainerI5QListI15QSslCertificateEED1Ev
04d6cc00 W _ZN5QListI15QSslCertificateE9node_copyEPNS1_4NodeES3_S3_
04d6ccf4 W _ZN5QListI15QSslCertificateE14node_constructEPNS1_4NodeERKS0_
04d6d030 W _ZN5QListI7QStringEpLERKS0_
04d6d084 W _ZN11QStringListlsERK7QString
04d6d0dc W _ZN11QStringListC1ERK7QString
04d6d2a0 W _ZN5QListI15QSslCertificateE6detachEv
04d6d390 W _ZN5QListI15QSslCertificateElsERKS0_
04d6d3e4 W _ZN5QListI15QSslCertificateE5beginEv
04d6d478 W _ZN5QListI15QSslCertificateE5firstEv
04d6d4f4 W _ZN5QListI15QSslCertificateEC1ERKS1_
04d6d580 W _ZN17QForeachContainerI5QListI15QSslCertificateEEC1ERKS2_
04d6d624 W _ZNK5QListI15QSslCertificateE8containsERKS0_
04d6d918 W _ZN5QListI15QSslCertificateE6appendERKS1_
04d6d964 W _ZNK11QStringList4joinERK7QString
04d6da84 W _ZN9QIODevice5writeERK10QByteArray
04d6dbf0 W _ZNK11QMouseEvent3posEv
04d6dc70 W _ZThn8_N15C_Addon_WebViewD0Ev
04d6dc78 W _ZThn8_N15C_Addon_WebViewD1Ev
04d6dc80 W _ZN18INET_ADDON_logging3Log15setLogActivatedEb
04d6dcb4 T QtWebDateCode
04d6e7fc T _Z12jsRegExpFreeP8JSRegExp
04d70ea8 T _Z15jsRegExpCompilePKti24JSRegExpIgnoreCaseOption23JSRegExpMultilineOptionPjPPKc
04d751e4 T _Z15jsRegExpExecutePK8JSRegExpPKtiiPii
04d75774 T _Z22jsc_pcre_ucp_othercasej
04d75844 T _Z15jsc_pcre_xclassiPKh
04d75b2c T WTFLog
04d75c78 T WTFLogVerbose
04d75db4 T WTFReportError
04d75ec0 T WTFReportFatalError
04d75fcc T WTFReportArgumentAssertionFailure
04d7604c T WTFReportAssertionFailureWithMessage
04d76164 T WTFReportAssertionFailure
04d7623c T _ZN3WTF28setMainThreadCallbacksPausedEb
04d76330 T _ZN3WTF28mainThreadFunctionQueueMutexEv
04d763d0 T _ZN3WTF20initializeMainThreadEv
04d763fc T _ZN3WTF31dispatchFunctionsFromMainThreadEv
04d76594 T _ZN3WTF16callOnMainThreadEPFvPvES0_
04d766b8 T _ZN3WTF23callOnMainThreadAndWaitEPFvPvES0_
04d768c0 T _ZN3WTF12randomNumberEv
04d769a4 T _ZN3WTF21RefCountedLeakCounter16suppressMessagesEPKc
04d769a8 T _ZN3WTF21RefCountedLeakCounter24cancelMessageSuppressionEPKc
04d769ac T _ZN3WTF21RefCountedLeakCounterC2EPKc
04d769b0 T _ZN3WTF21RefCountedLeakCounterC1EPKc
04d769b4 T _ZN3WTF21RefCountedLeakCounterD2Ev
04d769b8 T _ZN3WTF21RefCountedLeakCounterD1Ev
04d769bc T _ZN3WTF21RefCountedLeakCounter9incrementEv
04d769c0 T _ZN3WTF21RefCountedLeakCounter9decrementEv
04d769c4 T _ZN3WTF8CollatorC2EPKc
04d769c8 T _ZN3WTF8CollatorC1EPKc
04d769cc T _ZN3WTF8CollatorD2Ev
04d769d0 T _ZN3WTF8CollatorD1Ev
04d769d4 T _ZN3WTF8Collator18setOrderLowerFirstEb
04d769d8 T _ZNK3WTF8Collator7collateEPKtjS2_j
04d76a44 T _ZN3WTF8Collator11userDefaultEv
04d76a88 T _ZN3WTF7Unicode18UTF8SequenceLengthEc
04d76ae0 T _ZN3WTF7Unicode18decodeUTF8SequenceEPKc
04d76c3c T _ZN3WTF7Unicode18convertUTF16ToUTF8EPPKtS2_PPcS4_b
04d76e70 T _ZN3WTF7Unicode18convertUTF8ToUTF16EPPKcS2_PPtS4_b
04d77180 T JSReportExtraMemoryCost
04d77234 T JSGarbageCollect
04d77308 T JSEvaluateScript
04d77668 T JSCheckScriptSyntax
04d77988 T _ZN3JSC21JSCallbackConstructor16getConstructDataERNS_13ConstructDataE
04d77b78 T _ZN3JSC21JSCallbackConstructorC2EN3WTF10PassRefPtrINS_9StructureEEEP13OpaqueJSClassPFP13OpaqueJSValuePK15OpaqueJSContextS8_jPKPKS7_PSD_E
04d77bec T _ZN3JSC21JSCallbackConstructorC1EN3WTF10PassRefPtrINS_9StructureEEEP13OpaqueJSClassPFP13OpaqueJSValuePK15OpaqueJSContextS8_jPKPKS7_PSD_E
04d77c60 T _ZN3JSC21JSCallbackConstructorD2Ev
04d77db0 T _ZN3JSC21JSCallbackConstructorD0Ev
04d77f2c T _ZN3JSC21JSCallbackConstructorD1Ev
04d7807c T _ZN3JSC18JSCallbackFunction11getCallDataERNS_8CallDataE
04d78090 T _ZN3JSC18JSCallbackFunction4callEPNS_9ExecStateEPNS_8JSObjectENS_10JSValuePtrERKNS_7ArgListE
04d78290 T _ZN3JSC18JSCallbackFunctionC2EPNS_9ExecStateEPFPK13OpaqueJSValuePK15OpaqueJSContextPS3_S9_jPKS5_PS5_ERKNS_10IdentifierE
04d783c4 T _ZN3JSC18JSCallbackFunctionC1EPNS_9ExecStateEPFPK13OpaqueJSValuePK15OpaqueJSContextPS3_S9_jPKS5_PS5_ERKNS_10IdentifierE
04d784f8 T _ZN13OpaqueJSClass9classNameEv
04d78558 T _Z25clearReferenceToPrototypeP13OpaqueJSValue
04d7858c T _ZN13OpaqueJSClassD1Ev
04d787e0 T _ZN13OpaqueJSClassD2Ev
04d78a28 T _ZN13OpaqueJSClassC1EPK17JSClassDefinitionPS_
04d78da0 T _ZN13OpaqueJSClass6createEPK17JSClassDefinition
04d78f90 T _ZN13OpaqueJSClass26createNoAutomaticPrototypeEPK17JSClassDefinition
04d79004 T _ZN13OpaqueJSClassC2EPK17JSClassDefinitionPS_
04d7937c T _ZN24OpaqueJSClassContextDataC1EP13OpaqueJSClass
04d79748 T _ZN13OpaqueJSClass11contextDataEPN3JSC9ExecStateE
04d79818 T _ZN13OpaqueJSClass15staticFunctionsEPN3JSC9ExecStateE
04d79848 T _ZN13OpaqueJSClass12staticValuesEPN3JSC9ExecStateE
04d79878 T _ZN24OpaqueJSClassContextDataD1Ev
04d799bc T _ZN24OpaqueJSClassContextDataD2Ev
04d79b00 T _ZN24OpaqueJSClassContextDataC2EP13OpaqueJSClass
04d79ecc T _ZN13OpaqueJSClass9prototypeEPN3JSC9ExecStateE
04d7a0d8 T JSContextGroupRetain
04d7a0e8 T JSContextGetGroup
04d7a0f4 T JSContextGetGlobalObject
04d7a1b0 T JSGlobalContextRetain
04d7a2fc T JSGlobalContextRelease
04d7a49c T JSContextGroupRelease
04d7a518 T JSContextGroupCreate
04d7a54c T JSGlobalContextCreateInGroup
04d7a8d4 T JSGlobalContextCreate
04d7a908 T JSClassRetain
04d7a91c T JSPropertyNameArrayRetain
04d7a92c T JSPropertyNameArrayGetCount
04d7a934 T JSPropertyNameArrayGetNameAtIndex
04d7a944 T JSObjectIsConstructor
04d7a984 T JSObjectIsFunction
04d7a9c4 T JSObjectGetPrototype
04d7a9d0 T JSObjectSetPrivate
04d7aaf8 T JSObjectSetProperty
04d7acdc T JSObjectGetPrivate
04d7ade0 T JSObjectMakeFunctionWithCallback
04d7af4c T JSObjectHasProperty
04d7b068 T JSPropertyNameArrayRelease
04d7b1c0 T JSObjectDeleteProperty
04d7b32c T JSObjectSetPropertyAtIndex
04d7b42c T JSObjectGetPropertyAtIndex
04d7b690 T JSPropertyNameAccumulatorAddName
04d7b798 T JSClassCreate
04d7b80c T JSClassRelease
04d7b878 T JSObjectGetProperty
04d7bc38 T JSObjectMakeError
04d7bedc T JSObjectMakeDate
04d7c180 T JSObjectMakeArray
04d7c440 T JSObjectMakeFunction
04d7c980 T JSObjectCallAsConstructor
04d7cc8c T JSObjectCallAsFunction
04d7cf90 T JSObjectMakeRegExp
04d7d234 T JSObjectMakeConstructor
04d7d5ec T JSObjectMake
04d7d8a4 T JSObjectCopyPropertyNames
04d7dcbc T JSObjectSetPrototype
04d7ddd8 T JSStringGetCharactersPtr
04d7ddf0 T JSStringGetMaximumUTF8CStringSize
04d7de10 T JSStringRetain
04d7de24 T JSStringIsEqual
04d7deb8 T JSStringGetLength
04d7ded0 T JSStringGetUTF8CString
04d7df8c T JSStringCreateWithCharacters
04d7e02c T JSStringRelease
04d7e0a4 T JSStringCreateWithUTF8CString
04d7e350 T JSStringIsEqualToUTF8CString
04d7e3cc T JSValueIsStrictEqual
04d7e408 T JSValueIsObject
04d7e42c T JSValueIsString
04d7e450 T JSValueIsNull
04d7e460 T JSValueToBoolean
04d7e4e4 T JSValueMakeBoolean
04d7e4f8 T JSValueMakeNull
04d7e500 T JSValueMakeUndefined
04d7e508 T JSValueIsEqual
04d7e604 T JSValueIsBoolean
04d7e618 T JSValueIsUndefined
04d7e628 T JSValueGetType
04d7e69c T JSValueIsNumber
04d7e6d4 T JSValueUnprotect
04d7e7a4 T JSValueProtect
04d7e874 T JSValueToObject
04d7e9b8 T JSValueToNumber
04d7eb14 T JSValueMakeString
04d7ec1c T JSValueMakeNumber
04d7ed2c T JSValueIsInstanceOfConstructor
04d7f0f0 T JSValueIsObjectOfClass
04d7f220 T JSValueToStringCopy
04d7f3ec T _ZNK14OpaqueJSString7ustringEv
04d7f48c T _ZN14OpaqueJSString6createERKN3JSC7UStringE
04d7f5ac T _ZNK14OpaqueJSString10identifierEPN3JSC12JSGlobalDataE
04d7f654 T _ZN3JSC19initializeThreadingEv
04d7f6a0 T _ZN3JSC12JSGlobalData22sharedInstanceInternalEv
04d7f6ac T _ZN3JSC12JSGlobalData20sharedInstanceExistsEv
04d7f6e4 T _ZN3JSC12JSGlobalData10ClientDataD0Ev
04d7f71c T _ZN3JSC12JSGlobalData10ClientDataD1Ev
04d7f72c T _ZN3JSC12JSGlobalData10ClientDataD2Ev
04d7f73c T _ZN3JSC12JSGlobalDataD1Ev
04d7fd48 T _ZN3JSC12JSGlobalDataD2Ev
04d80354 T _ZN3JSC12JSGlobalDataC1Eb
04d80834 T _ZN3JSC12JSGlobalData14sharedInstanceEv
04d808d0 T _ZN3JSC12JSGlobalData6createEv
04d80934 T _ZN3JSC12JSGlobalData12createLeakedEv
04d80970 T _ZN3JSC12JSGlobalDataC2Eb
04d80e50 T _ZN3JSC14JSGlobalObject10globalExecEv
04d80e6c T _ZNK3JSC14JSGlobalObject14isDynamicScopeEv
04d80e74 T _ZN3JSC14JSGlobalObjectnwEjPNS_12JSGlobalDataE
04d80eac T _ZN3JSC14JSGlobalObject17startTimeoutCheckEv
04d80f18 T _ZN3JSC14JSGlobalObject14setTimeoutTimeEj
04d80f3c T _ZN3JSC14JSGlobalObject16stopTimeoutCheckEv
04d80f68 T _ZN3JSC14JSGlobalObject15copyGlobalsFromERNS_12RegisterFileE
04d8107c T _ZN3JSC14JSGlobalObject13copyGlobalsToERNS_12RegisterFileE
04d811b4 T _ZN3JSC14JSGlobalObject12defineGetterEPNS_9ExecStateERKNS_10IdentifierEPNS_8JSObjectE
04d812bc T _ZN3JSC14JSGlobalObjectD2Ev
04d81754 T _ZN3JSC14JSGlobalObject12defineSetterEPNS_9ExecStateERKNS_10IdentifierEPNS_8JSObjectE
04d8185c T _ZN3JSC14JSGlobalObject3putEPNS_9ExecStateERKNS_10IdentifierENS_10JSValuePtrERNS_15PutPropertySlotE
04d819b8 T _ZN3JSC14JSGlobalObject4markEv
04d82354 T _ZN3JSC14JSGlobalObject17putWithAttributesEPNS_9ExecStateERKNS_10IdentifierENS_10JSValuePtrEj
04d828e8 T _ZN3JSC14JSGlobalObjectD0Ev
04d82dac T _ZN3JSC14JSGlobalObjectD1Ev
04d83244 T _ZN3JSC14JSGlobalObject14resetPrototypeENS_10JSValuePtrE
04d8340c T _ZN3JSC14JSGlobalObject5resetENS_10JSValuePtrE
04d88168 T _ZN3JSC14JSGlobalObject4initEPNS_8JSObjectE
04d88510 T _ZNK3JSC19JSStaticScopeObject12toThisObjectEPNS_9ExecStateE
04d8851c T _ZNK3JSC19JSStaticScopeObject14isDynamicScopeEv
04d88524 T _ZN3JSC19JSStaticScopeObject4markEv
04d885c0 T _ZN3JSC19JSStaticScopeObject17putWithAttributesEPNS_9ExecStateERKNS_10IdentifierENS_10JSValuePtrEj
04d886ac T _ZN3JSC19JSStaticScopeObject3putEPNS_9ExecStateERKNS_10IdentifierENS_10JSValuePtrERNS_15PutPropertySlotE
04d88788 T _ZN3JSC19JSStaticScopeObjectD0Ev
04d88938 T _ZN3JSC19JSStaticScopeObjectD1Ev
04d88ac0 T _ZN3JSC19JSStaticScopeObjectD2Ev
04d88c48 T _ZNK3JSC16JSVariableObject16isVariableObjectEv
04d88c50 T _ZN3JSC16JSVariableObject16getPropertyNamesEPNS_9ExecStateERNS_17PropertyNameArrayE
04d88e38 T _ZNK3JSC16JSVariableObject21getPropertyAttributesEPNS_9ExecStateERKNS_10IdentifierERj
04d88f18 T _ZN3JSC16JSVariableObject14deletePropertyEPNS_9ExecStateERKNS_10IdentifierE
04d88fac T _ZNK3JSC12JSActivation12toThisObjectEPNS_9ExecStateE
04d88fb8 T _ZN3JSC12JSActivation18getArgumentsGetterEv
04d88fc4 T _ZNK3JSC12JSActivation14isDynamicScopeEv
04d88fd8 T _ZN3JSC12JSActivation14deletePropertyEPNS_9ExecStateERKNS_10IdentifierE
04d8902c T _ZN3JSC12JSActivation4markEv
04d891cc T _ZN3JSC12JSActivation18getOwnPropertySlotEPNS_9ExecStateERKNS_10IdentifierERNS_12PropertySlotE
04d894b0 T _ZN3JSC12JSActivationD2Ev
04d89654 T _ZN3JSC12JSActivation15argumentsGetterEPNS_9ExecStateERKNS_10IdentifierERKNS_12PropertySlotE
04d89ad8 T _ZN3JSC12JSActivationC2EPNS_9ExecStateEN3WTF10PassRefPtrINS_16FunctionBodyNodeEEE
04d89ba4 T _ZN3JSC12JSActivationC1EPNS_9ExecStateEN3WTF10PassRefPtrINS_16FunctionBodyNodeEEE
04d89c70 T _ZN3JSC12JSActivation17putWithAttributesEPNS_9ExecStateERKNS_10IdentifierENS_10JSValuePtrEj
04d89dc4 T _ZN3JSC12JSActivation3putEPNS_9ExecStateERKNS_10IdentifierENS_10JSValuePtrERNS_15PutPropertySlotE
04d89f18 T _ZN3JSC12JSActivationD0Ev
04d8a0e4 T _ZN3JSC12JSActivationD1Ev
04d8a288 T _ZNK3JSC13JSNotAnObject11toPrimitiveEPNS_9ExecStateENS_22PreferredPrimitiveTypeE
04d8a290 T _ZN3JSC13JSNotAnObject18getPrimitiveNumberEPNS_9ExecStateERdRNS_10JSValuePtrE
04d8a298 T _ZNK3JSC13JSNotAnObject9toBooleanEPNS_9ExecStateE
04d8a2a0 T _ZNK3JSC13JSNotAnObject8toNumberEPNS_9ExecStateE
04d8a2ac T _ZNK3JSC13JSNotAnObject8toObjectEPNS_9ExecStateE
04d8a2b4 T _ZN3JSC13JSNotAnObject18getOwnPropertySlotEPNS_9ExecStateERKNS_10IdentifierERNS_12PropertySlotE
04d8a2bc T _ZN3JSC13JSNotAnObject18getOwnPropertySlotEPNS_9ExecStateEjRNS_12PropertySlotE
04d8a2c4 T _ZN3JSC13JSNotAnObject3putEPNS_9ExecStateERKNS_10IdentifierENS_10JSValuePtrERNS_15PutPropertySlotE
04d8a2c8 T _ZN3JSC13JSNotAnObject3putEPNS_9ExecStateEjNS_10JSValuePtrE
04d8a2cc T _ZN3JSC13JSNotAnObject14deletePropertyEPNS_9ExecStateERKNS_10IdentifierE
04d8a2d4 T _ZN3JSC13JSNotAnObject14deletePropertyEPNS_9ExecStateEj
04d8a2dc T _ZN3JSC13JSNotAnObject16getPropertyNamesEPNS_9ExecStateERNS_17PropertyNameArrayE
04d8a2e0 T _ZNK3JSC13JSNotAnObject8toStringEPNS_9ExecStateE
04d8a324 T _ZN3JSC13JSNotAnObject4markEv
04d8a3ac T _ZN3JSC9CodeBlock14dumpStatisticsEv
04d8a3e4 T _ZNK3JSC9CodeBlock13refStructuresEPNS_11InstructionE
04d8a498 T _ZN3JSC9CodeBlock24handlerForBytecodeOffsetEj
04d8a4ec T _ZN3JSC9CodeBlockC2EPNS_9ScopeNodeENS_8CodeTypeEN3WTF10PassRefPtrINS_14SourceProviderEEEj
04d8a660 T _ZN3JSC9CodeBlockC1EPNS_9ScopeNodeENS_8CodeTypeEN3WTF10PassRefPtrINS_14SourceProviderEEEj
04d8a7d4 T _ZN3JSC9CodeBlock4markEv
04d8a9d0 T _ZN3JSC9CodeBlock34reparseForExceptionInfoIfNecessaryEPNS_9ExecStateE
04d8ad20 T _ZN3JSC9CodeBlock37getByIdExceptionInfoForBytecodeOffsetEPNS_9ExecStateEjRNS_8OpcodeIDE
04d8ae1c T _ZN3JSC9CodeBlock27lineNumberForBytecodeOffsetEPNS_9ExecStateEj
04d8aef4 T _ZN3JSC9CodeBlock32expressionRangeForBytecodeOffsetEPNS_9ExecStateEjRiS3_S3_
04d8b094 T _ZN3JSC9CodeBlock11shrinkToFitEv
04d8b26c T _ZNK3JSC9CodeBlock15derefStructuresEPNS_11InstructionE
04d8b880 T _ZN3JSC9CodeBlockD1Ev
04d8bf58 T _ZN3JSC9CodeBlockD2Ev
04d8c630 T _ZN3JSC15SimpleJumpTable14offsetForValueEii
04d8c66c T _ZN3JSC17BytecodeGenerator21setDumpsGeneratedCodeEb
04d8c670 T _ZN3JSC17BytecodeGenerator18dumpsGeneratedCodeEv
04d8c678 T _ZN3JSC17BytecodeGenerator20retrieveLastBinaryOpERiS1_S1_
04d8c6c8 T _ZN3JSC17BytecodeGenerator19retrieveLastUnaryOpERiS1_
04d8c724 T _ZN3JSC17BytecodeGenerator18pushFinallyContextEPNS_5LabelEPNS_10RegisterIDE
04d8c7ec T _ZN3JSC17BytecodeGenerator10emitOpcodeENS_8OpcodeIDE
04d8c8ac T _ZN3JSC17BytecodeGenerator12emitPopScopeEv
04d8c910 T _ZN3JSC17BytecodeGenerator11addConstantEPNS_12FuncExprNodeE
04d8c9d0 T _ZN3JSC17BytecodeGenerator17popFinallyContextEv
04d8ca20 T _ZN3JSC17BytecodeGenerator11breakTargetERKNS_10IdentifierE
04d8cc24 T _ZN3JSC17BytecodeGenerator8newLabelEv
04d8cf18 T _ZN3JSC17BytecodeGenerator11newRegisterEv
04d8d148 T _ZN3JSC17BytecodeGenerator19highestUsedRegisterEv
04d8d214 T _ZN3JSC17BytecodeGenerator12newTemporaryEv
04d8d328 T _ZN3JSC17BytecodeGenerator17allocateConstantsEj
04d8d42c T _ZN3JSC17BytecodeGenerator9emitLabelEPNS_5LabelE
04d8d574 T _ZN3JSC17BytecodeGenerator8generateEv
04d8d784 T _ZN3JSC17BytecodeGenerator11addConstantEPNS_12FuncDeclNodeE
04d8daf0 T _ZN3JSC17BytecodeGenerator13newLabelScopeENS_10LabelScope4TypeEPKNS_10IdentifierE
04d8ded0 T _ZN3JSC17BytecodeGenerator14continueTargetERKNS_10IdentifierE
04d8e0e8 T _ZN3JSC17BytecodeGeneratorC1EPNS_8EvalNodeEPKNS_8DebuggerERKNS_10ScopeChainEPN3WTF7HashMapINS9_6RefPtrINS_7UString3RepEEENS_16SymbolTableEntryENS_17IdentifierRepHashENS9_10HashTraitsISE_EENS_26SymbolTableIndexHashTraitsEEEPNS_13EvalCodeBlockE
04d8e668 T _ZN3JSC17BytecodeGeneratorC2EPNS_8EvalNodeEPKNS_8DebuggerERKNS_10ScopeChainEPN3WTF7HashMapINS9_6RefPtrINS_7UString3RepEEENS_16SymbolTableEntryENS_17IdentifierRepHashENS9_10HashTraitsISE_EENS_26SymbolTableIndexHashTraitsEEEPNS_13EvalCodeBlockE
04d8ebe8 T _ZN3JSC17BytecodeGenerator11addConstantERKNS_10IdentifierE
04d8ed5c T _ZN3JSC17BytecodeGenerator9addRegExpEPNS_6RegExpE
04d8f0c0 T _ZN3JSC17BytecodeGenerator21addUnexpectedConstantENS_10JSValuePtrE
04d8f418 T _ZN3JSC17BytecodeGenerator7isLocalERKNS_10IdentifierE
04d8f4a8 T _ZN3JSC17BytecodeGenerator9endSwitchEjPN3WTF6RefPtrINS_5LabelEEEPPNS_14ExpressionNodeEPS3_ii
04d905d4 T _ZN3JSC17BytecodeGenerator6addVarERKNS_10IdentifierEbRPNS_10RegisterIDE
04d907a4 T _ZN3JSC17BytecodeGenerator18findScopedPropertyERKNS_10IdentifierERiRjbRPNS_8JSObjectE
04d90a10 T _ZN3JSC17BytecodeGenerator15isLocalConstantERKNS_10IdentifierE
04d90a48 T _ZN3JSC17BytecodeGenerator11registerForERKNS_10IdentifierE
04d90b90 T _ZN3JSC17BytecodeGenerator12addParameterERKNS_10IdentifierE
04d90d88 T _ZN3JSC17BytecodeGenerator11addConstantENS_10JSValuePtrE
04d90fcc T _ZN3JSC17BytecodeGenerator16constRegisterForERKNS_10IdentifierE
04d910fc T _ZN3JSC17BytecodeGenerator12addGlobalVarERKNS_10IdentifierEbRPNS_10RegisterIDE
04d9142c T _ZN3JSC17BytecodeGenerator11beginSwitchEPNS_10RegisterIDENS_10SwitchInfo10SwitchTypeE
04d91680 T _ZN3JSC17BytecodeGenerator8emitJumpEPNS_5LabelE
04d91814 T _ZN3JSC17BytecodeGenerator16emitPushNewScopeEPNS_10RegisterIDERNS_10IdentifierES2_
04d91a50 T _ZN3JSC17BytecodeGenerator20emitSubroutineReturnEPNS_10RegisterIDE
04d91b00 T _ZN3JSC17BytecodeGenerator18emitJumpSubroutineEPNS_10RegisterIDEPNS_5LabelE
04d91ce4 T _ZN3JSC17BytecodeGenerator12emitNewErrorEPNS_10RegisterIDENS_9ErrorTypeENS_10JSValuePtrE
04d91e98 T _ZN3JSC17BytecodeGenerator9emitCatchEPNS_10RegisterIDEPNS_5LabelES4_
04d923d4 T _ZN3JSC17BytecodeGenerator20emitNextPropertyNameEPNS_10RegisterIDES2_PNS_5LabelE
04d92604 T _ZN3JSC17BytecodeGenerator21emitComplexJumpScopesEPNS_5LabelEPNS_18ControlFlowContextES4_
04d92a1c T _ZN3JSC17BytecodeGenerator14emitJumpScopesEPNS_5LabelEi
04d92c9c T _ZN3JSC17BytecodeGenerator13emitDebugHookENS_11DebugHookIDEii
04d92e54 T _ZN3JSC17BytecodeGenerator16emitUnaryNoDstOpENS_8OpcodeIDEPNS_10RegisterIDE
04d92f0c T _ZN3JSC17BytecodeGenerator13emitPushScopeEPNS_10RegisterIDE
04d93000 T _ZN3JSC17BytecodeGenerator35emitThrowExpressionTooDeepExceptionEv
04d931e0 T _ZN3JSC17BytecodeGenerator10emitReturnEPNS_10RegisterIDE
04d9332c T _ZN3JSC17BytecodeGenerator25emitNewFunctionExpressionEPNS_10RegisterIDEPNS_12FuncExprNodeE
04d93474 T _ZN3JSC17BytecodeGenerator13emitNewRegExpEPNS_10RegisterIDEPNS_6RegExpE
04d935bc T _ZN3JSC17BytecodeGenerator15emitNewFunctionEPNS_10RegisterIDEPNS_12FuncDeclNodeE
04d93704 T _ZN3JSC17BytecodeGeneratorC1EPNS_16FunctionBodyNodeEPKNS_8DebuggerERKNS_10ScopeChainEPN3WTF7HashMapINS9_6RefPtrINS_7UString3RepEEENS_16SymbolTableEntryENS_17IdentifierRepHashENS9_10HashTraitsISE_EENS_26SymbolTableIndexHashTraitsEEEPNS_9CodeBlockE
04d94294 T _ZN3JSC17BytecodeGeneratorC2EPNS_16FunctionBodyNodeEPKNS_8DebuggerERKNS_10ScopeChainEPN3WTF7HashMapINS9_6RefPtrINS_7UString3RepEEENS_16SymbolTableEntryENS_17IdentifierRepHashENS9_10HashTraitsISE_EENS_26SymbolTableIndexHashTraitsEEEPNS_9CodeBlockE
04d94e24 T _ZN3JSC17BytecodeGenerator12emitNewArrayEPNS_10RegisterIDEPNS_11ElementNodeE
04d95264 T _ZN3JSC17BytecodeGenerator13emitNewObjectEPNS_10RegisterIDE
04d95320 T _ZN3JSC17BytecodeGenerator14emitPutByIndexEPNS_10RegisterIDEjS2_
04d954b0 T _ZN3JSC17BytecodeGenerator15emitDeleteByValEPNS_10RegisterIDES2_S2_
04d9564c T _ZN3JSC17BytecodeGenerator12emitPutByValEPNS_10RegisterIDES2_S2_
04d957e0 T _ZN3JSC17BytecodeGenerator12emitGetByValEPNS_10RegisterIDES2_S2_
04d9597c T _ZN3JSC17BytecodeGenerator14emitDeleteByIdEPNS_10RegisterIDES2_RKNS_10IdentifierE
04d95b30 T _ZN3JSC17BytecodeGenerator13emitPutSetterEPNS_10RegisterIDERKNS_10IdentifierES2_
04d95cdc T _ZN3JSC17BytecodeGenerator13emitPutGetterEPNS_10RegisterIDERKNS_10IdentifierES2_
04d95e88 T _ZN3JSC17BytecodeGenerator18emitUnexpectedLoadEPNS_10RegisterIDEd
04d96090 T _ZN3JSC17BytecodeGenerator11emitPutByIdEPNS_10RegisterIDERKNS_10IdentifierES2_
04d96430 T _ZN3JSC17BytecodeGenerator19emitResolveFunctionEPNS_10RegisterIDES2_RKNS_10IdentifierE
04d965e4 T _ZN3JSC17BytecodeGenerator11emitPostIncEPNS_10RegisterIDES2_
04d96714 T _ZN3JSC17BytecodeGenerator15emitResolveBaseEPNS_10RegisterIDERKNS_10IdentifierE
04d9685c T _ZN3JSC17BytecodeGenerator16emitGetScopedVarEPNS_10RegisterIDEjiNS_10JSValuePtrE
04d96c24 T _ZN3JSC17BytecodeGenerator19emitResolveWithBaseEPNS_10RegisterIDES2_RKNS_10IdentifierE
04d96dd8 T _ZN3JSC17BytecodeGenerator11emitGetByIdEPNS_10RegisterIDES2_RKNS_10IdentifierE
04d97180 T _ZN3JSC17BytecodeGenerator16emitPutScopedVarEjiPNS_10RegisterIDENS_10JSValuePtrE
04d97408 T _ZN3JSC17BytecodeGenerator10emitPreIncEPNS_10RegisterIDE
04d974c4 T _ZN3JSC17BytecodeGenerator18emitUnexpectedLoadEPNS_10RegisterIDEb
04d97620 T _ZN3JSC17BytecodeGenerator10emitPreDecEPNS_10RegisterIDE
04d976dc T _ZN3JSC17BytecodeGenerator11emitResolveEPNS_10RegisterIDERKNS_10IdentifierE
04d97ccc T _ZN3JSC17BytecodeGenerator14emitInstanceOfEPNS_10RegisterIDES2_S2_S2_
04d97ed4 T _ZN3JSC17BytecodeGenerator12emitBinaryOpENS_8OpcodeIDEPNS_10RegisterIDES3_S3_NS_12OperandTypesE
04d98110 T _ZN3JSC17BytecodeGenerator14emitEqualityOpENS_8OpcodeIDEPNS_10RegisterIDES3_S3_
04d98664 T _ZN3JSC17BytecodeGenerator11emitUnaryOpENS_8OpcodeIDEPNS_10RegisterIDES3_
04d98790 T _ZN3JSC17BytecodeGenerator11emitPostDecEPNS_10RegisterIDES2_
04d988c0 T _ZN3JSC17BytecodeGenerator8emitMoveEPNS_10RegisterIDES2_
04d989f0 T _ZN3JSC17BytecodeGenerator13emitConstructEPNS_10RegisterIDES2_PNS_13ArgumentsNodeEjjj
04d996d0 T _ZN3JSC17BytecodeGenerator8emitCallENS_8OpcodeIDEPNS_10RegisterIDES3_S3_PNS_13ArgumentsNodeEjjj
04d99fb8 T _ZN3JSC17BytecodeGenerator12emitCallEvalEPNS_10RegisterIDES2_S2_PNS_13ArgumentsNodeEjjj
04d9a030 T _ZN3JSC17BytecodeGenerator8emitCallEPNS_10RegisterIDES2_S2_PNS_13ArgumentsNodeEjjj
04d9a0a8 T _ZN3JSC17BytecodeGenerator8emitLoadEPNS_10RegisterIDENS_10JSValuePtrE
04d9a128 T _ZN3JSC17BytecodeGenerator8emitLoadEPNS_10RegisterIDERKNS_10IdentifierE
04d9a200 T _ZN3JSC17BytecodeGenerator8emitLoadEPNS_10RegisterIDEd
04d9a41c T _ZN3JSC17BytecodeGenerator8emitLoadEPNS_10RegisterIDEb
04d9a460 T _ZN3JSC17BytecodeGeneratorC1EPNS_11ProgramNodeEPKNS_8DebuggerERKNS_10ScopeChainEPN3WTF7HashMapINS9_6RefPtrINS_7UString3RepEEENS_16SymbolTableEntryENS_17IdentifierRepHashENS9_10HashTraitsISE_EENS_26SymbolTableIndexHashTraitsEEEPNS_16ProgramCodeBlockE
04d9b328 T _ZN3JSC17BytecodeGeneratorC2EPNS_11ProgramNodeEPKNS_8DebuggerERKNS_10ScopeChainEPN3WTF7HashMapINS9_6RefPtrINS_7UString3RepEEENS_16SymbolTableEntryENS_17IdentifierRepHashENS9_10HashTraitsISE_EENS_26SymbolTableIndexHashTraitsEEEPNS_16ProgramCodeBlockE
04d9c1f0 T _ZN3JSC17BytecodeGenerator14emitJumpIfTrueEPNS_10RegisterIDEPNS_5LabelE
04d9c8c0 T _ZN3JSC17BytecodeGenerator15emitJumpIfFalseEPNS_10RegisterIDEPNS_5LabelE
04d9ce28 T _ZN3JSC35createInterruptedExecutionExceptionEPNS_12JSGlobalDataE
04d9ceac T _ZN3JSC11createErrorEPNS_9ExecStateENS_9ErrorTypeEPKc
04d9cfec T _ZN3JSC24createStackOverflowErrorEPNS_9ExecStateE
04d9d230 T _ZN3JSC26createNotAnObjectErrorStubEPNS_9ExecStateEb
04d9d2cc T _ZN3JSC11createErrorEPNS_9ExecStateENS_9ErrorTypeEPKcRKNS_10IdentifierE
04d9d434 T _ZN3JSC11createErrorEPNS_9ExecStateENS_9ErrorTypeEPKcNS_10JSValuePtrE
04d9dbe8 T _ZN3JSC28createUndefinedVariableErrorEPNS_9ExecStateERKNS_10IdentifierEjPNS_9CodeBlockE
04d9df30 T _ZN3JSC23createNotAFunctionErrorEPNS_9ExecStateENS_10JSValuePtrEjPNS_9CodeBlockE
04d9e2e4 T _ZN3JSC26createNotAConstructorErrorEPNS_9ExecStateENS_10JSValuePtrEjPNS_9CodeBlockE
04d9e70c T _ZN3JSC23createInvalidParamErrorEPNS_9ExecStateEPKcNS_10JSValuePtrEjPNS_9CodeBlockE
04d9eb28 T _ZN3JSC22createNotAnObjectErrorEPNS_9ExecStateEPNS_22JSNotAnObjectErrorStubEjPNS_9CodeBlockE
04d9efd8 T _ZNK3JSC22JSPropertyNameIterator11toPrimitiveEPNS_9ExecStateENS_22PreferredPrimitiveTypeE
04d9efe0 T _ZN3JSC22JSPropertyNameIterator18getPrimitiveNumberEPNS_9ExecStateERdRNS_10JSValuePtrE
04d9efe8 T _ZNK3JSC22JSPropertyNameIterator9toBooleanEPNS_9ExecStateE
04d9eff0 T _ZNK3JSC22JSPropertyNameIterator8toNumberEPNS_9ExecStateE
04d9effc T _ZNK3JSC22JSPropertyNameIterator8toObjectEPNS_9ExecStateE
04d9f004 T _ZNK3JSC22JSPropertyNameIterator8toStringEPNS_9ExecStateE
04d9f048 T _ZN3JSC22JSPropertyNameIterator4markEv
04d9f0e8 T _ZN3JSC22JSPropertyNameIterator10invalidateEv
04d9f2e0 T _ZN3JSC22JSPropertyNameIteratorD1Ev
04d9f4e4 T _ZN3JSC22JSPropertyNameIteratorD0Ev
04d9f6c8 T _ZN3JSC22JSPropertyNameIteratorD2Ev
04d9f8cc T _ZN3JSC11Interpreter10initializeEPNS_12JSGlobalDataE
04d9f8d0 T _ZN3JSC11Interpreter17resetTimeoutCheckEv
04d9f8e8 T _ZN3JSC11Interpreter21findFunctionCallFrameEPNS_9ExecStateEPNS_16InternalFunctionE
04d9fa74 T _ZN3JSC11Interpreter14uncachePutByIDEPNS_9CodeBlockEPNS_11InstructionE
04d9fad0 T _ZN3JSC11Interpreter14uncacheGetByIDEPNS_9CodeBlockEPNS_11InstructionE
04d9fb2c T _ZN3JSC11InterpreterD1Ev
04d9fb80 T _ZN3JSC11InterpreterD2Ev
04d9fbd4 T _ZNK3JSC11Interpreter14retrieveCallerEPNS_9ExecStateEPNS_16InternalFunctionE
04d9fc3c T _ZN3JSC11Interpreter15unwindCallFrameERPNS_9ExecStateENS_10JSValuePtrERjRPNS_9CodeBlockE
04da00c0 T _ZN3JSC11Interpreter8isOpcodeEPv
04da0130 T _ZNK3JSC11Interpreter18retrieveLastCallerEPNS_9ExecStateERiS3_RNS_7UStringERNS_10JSValuePtrE
04da02d8 T _ZN3JSC11Interpreter7resolveEPNS_9ExecStateEPNS_11InstructionERNS_10JSValuePtrE
04da065c T _ZN3JSC11Interpreter5debugEPNS_9ExecStateENS_11DebugHookIDEii
04da08a0 T _ZN3JSC11Interpreter18resolveBaseAndFuncEPNS_9ExecStateEPNS_11InstructionERNS_10JSValuePtrE
04da0c7c T _ZN3JSC11Interpreter22resolveBaseAndPropertyEPNS_9ExecStateEPNS_11InstructionERNS_10JSValuePtrE
04da1020 T _ZN3JSC11Interpreter11resolveBaseEPNS_9ExecStateEPNS_11InstructionE
04da1338 T _ZN3JSC11Interpreter13resolveGlobalEPNS_9ExecStateEPNS_11InstructionERNS_10JSValuePtrE
04da178c T _ZN3JSC11Interpreter11resolveSkipEPNS_9ExecStateEPNS_11InstructionERNS_10JSValuePtrE
04da1b2c T _ZN3JSC11Interpreter14throwExceptionERPNS_9ExecStateERNS_10JSValuePtrEjb
04da26a4 T _ZN3JSC11Interpreter20createExceptionScopeEPNS_9ExecStateEPKNS_11InstructionE
04da2ca0 T _ZNK3JSC11Interpreter17retrieveArgumentsEPNS_9ExecStateEPNS_10JSFunctionE
04da3244 T _ZN3JSC11Interpreter15tryCacheGetByIDEPNS_9ExecStateEPNS_9CodeBlockEPNS_11InstructionENS_10JSValuePtrERKNS_10IdentifierERKNS_12PropertySlotE
04da38b4 T _ZN3JSC11Interpreter15tryCachePutByIDEPNS_9ExecStateEPNS_9CodeBlockEPNS_11InstructionENS_10JSValuePtrERKNS_15PutPropertySlotE
04da3a20 T _ZN3JSC11Interpreter14privateExecuteENS0_13ExecutionFlagEPNS_12RegisterFileEPNS_9ExecStateEPNS_10JSValuePtrE
04daea20 T _ZN3JSC11Interpreter7executeEPNS_8EvalNodeEPNS_9ExecStateEPNS_8JSObjectEiPNS_14ScopeChainNodeEPNS_10JSValuePtrE
04daef2c T _ZN3JSC11Interpreter7executeEPNS_8EvalNodeEPNS_9ExecStateEPNS_8JSObjectEPNS_14ScopeChainNodeEPNS_10JSValuePtrE
04daf010 T _ZN3JSC11Interpreter8callEvalEPNS_9ExecStateEPNS_12RegisterFileEPNS_8RegisterEiiRNS_10JSValuePtrE
04daf908 T _ZN3JSC11Interpreter7executeEPNS_16FunctionBodyNodeEPNS_9ExecStateEPNS_10JSFunctionEPNS_8JSObjectERKNS_7ArgListEPNS_14ScopeChainNodeEPNS_10JSValuePtrE
04dafcc0 T _ZN3JSC11Interpreter7executeEPNS_11ProgramNodeEPNS_9ExecStateEPNS_14ScopeChainNodeEPNS_8JSObjectEPNS_10JSValuePtrE
04db0034 T _ZN3JSC11InterpreterC1Ev
04db0414 T _ZN3JSC11InterpreterC2Ev
04db07f4 T _ZN3JSC12SamplingTool4dumpEPNS_9ExecStateE
04db07f8 T _ZN3JSC12SamplingTool4stopEv
04db0834 T _ZN3JSC12SamplingTool5startEj
04db0890 T _ZN3JSC12SamplingTool13notifyOfScopeEPNS_9ScopeNodeE
04db0974 T _ZN3JSC12SamplingTool3runEv
04db0a9c T _ZN3JSC12SamplingTool15threadStartFuncEPv
04db0acc T _ZN3JSC17ScopeSampleRecord6sampleEPNS_9CodeBlockEPNS_11InstructionE
04db0b84 T _ZN3JSC12RegisterFileD1Ev
04db0bd0 T _ZN3JSC12RegisterFileD2Ev
04db0c1c T _ZN3JSC7ArgList9markListsERN3WTF7HashSetIPS0_NS1_7PtrHashIS3_EENS1_10HashTraitsIS3_EEEE
04db0d68 T _ZNK3JSC7ArgList8getSliceEiRS0_
04db0e34 T _ZN3JSC7ArgList10slowAppendENS_10JSValuePtrE
04db0fa0 T _ZN3JSC9Arguments18getOwnPropertySlotEPNS_9ExecStateERKNS_10IdentifierERNS_12PropertySlotE
04db13c0 T _ZN3JSC9Arguments14deletePropertyEPNS_9ExecStateERKNS_10IdentifierE
04db15f0 T _ZN3JSC9Arguments4markEv
04db1824 T _ZN3JSC9Arguments3putEPNS_9ExecStateEjNS_10JSValuePtrERNS_15PutPropertySlotE
04db1a34 T _ZN3JSC9Arguments18getOwnPropertySlotEPNS_9ExecStateEjRNS_12PropertySlotE
04db1e1c T _ZN3JSC9Arguments14deletePropertyEPNS_9ExecStateEj
04db205c T _ZN3JSC9Arguments11fillArgListEPNS_9ExecStateERNS_7ArgListE
04db2774 T _ZN3JSC9ArgumentsD1Ev
04db2930 T _ZN3JSC9ArgumentsD2Ev
04db2aec T _ZN3JSC9ArgumentsD0Ev
04db2cd0 T _ZN3JSC9Arguments3putEPNS_9ExecStateERKNS_10IdentifierENS_10JSValuePtrERNS_15PutPropertySlotE
04db3144 T _ZN3JSC16ArrayConstructor16getConstructDataERNS_13ConstructDataE
04db3158 T _ZN3JSC16ArrayConstructor11getCallDataERNS_8CallDataE
04db316c T _ZN3JSC16ArrayConstructorC2EPNS_9ExecStateEN3WTF10PassRefPtrINS_9StructureEEEPNS_14ArrayPrototypeE
04db3760 T _ZN3JSC16ArrayConstructorC1EPNS_9ExecStateEN3WTF10PassRefPtrINS_9StructureEEEPNS_14ArrayPrototypeE
04db39fc T _ZN3JSC14ArrayPrototypeC2EN3WTF10PassRefPtrINS_9StructureEEE
04db3ac8 T _ZN3JSC14ArrayPrototype18getOwnPropertySlotEPNS_9ExecStateERKNS_10IdentifierERNS_12PropertySlotE
04db3bc8 T _ZN3JSC14ArrayPrototypeC1EN3WTF10PassRefPtrINS_9StructureEEE
04dbc4c0 T _ZN3JSC18BooleanConstructor16getConstructDataERNS_13ConstructDataE
04dbc4d4 T _ZN3JSC18BooleanConstructor11getCallDataERNS_8CallDataE
04dbc598 T _ZN3JSC18BooleanConstructorC1EPNS_9ExecStateEN3WTF10PassRefPtrINS_9StructureEEEPNS_16BooleanPrototypeE
04dbc7dc T _ZN3JSC36constructBooleanFromImmediateBooleanEPNS_9ExecStateENS_10JSValuePtrE
04dbc90c T _ZN3JSC18BooleanConstructorC2EPNS_9ExecStateEN3WTF10PassRefPtrINS_9StructureEEEPNS_16BooleanPrototypeE
04dbcb50 T _ZN3JSC16constructBooleanEPNS_9ExecStateERKNS_7ArgListE
04dbcd44 T _ZN3JSC13BooleanObjectC2EN3WTF10PassRefPtrINS_9StructureEEE
04dbcd7c T _ZN3JSC13BooleanObjectC1EN3WTF10PassRefPtrINS_9StructureEEE
04dbd2dc T _ZN3JSC16BooleanPrototypeC2EPNS_9ExecStateEN3WTF10PassRefPtrINS_9StructureEEEPS5_
04dbd5bc T _ZN3JSC16BooleanPrototypeC1EPNS_9ExecStateEN3WTF10PassRefPtrINS_9StructureEEEPS5_
04dbd89c T _ZN3JSC9ByteArray6createEj
04dbd8fc T _ZN3JSC4callEPNS_9ExecStateENS_10JSValuePtrENS_8CallTypeERKNS_8CallDataES2_RKNS_7ArgListE
04dbd980 T _ZN3JSC4Heap15recordExtraCostEj
04dbd990 T _ZN3JSC4Heap14registerThreadEv
04dbd994 T _ZN3JSC4Heap11objectCountEv
04dbd9a4 T _ZN3JSC4Heap17globalObjectCountEv
04dbd9e4 T _ZN3JSC4Heap6isBusyEv
04dbda04 T _ZNK3JSC4Heap10statisticsEv
04dbdab4 T _ZN3JSC4Heap14primaryHeapEndEv
04dbdb08 T _ZN3JSC4Heap16primaryHeapBeginEv
04dbdd08 T _ZN3JSC4Heap20protectedObjectCountEv
04dbdd78 T _ZN3JSC4Heap4heapENS_10JSValuePtrE
04dbdd98 T _ZN3JSC4HeapC2EPNS_12JSGlobalDataE
04dbde1c T _ZN3JSC4Heap26protectedGlobalObjectCountEv
04dbdf18 T _ZN3JSC4HeapC1EPNS_12JSGlobalDataE
04dbdf9c T _ZN3JSC4HeapD2Ev
04dbe010 T _ZN3JSC4Heap7destroyEv
04dbe13c T _ZN3JSC4Heap20markProtectedObjectsEv
04dbe280 T _ZN3JSC4Heap18markConservativelyEPvS1_
04dbe450 T _ZN3JSC4Heap39markCurrentThreadConservativelyInternalEv
04dbe48c T _ZN3JSC4Heap31markCurrentThreadConservativelyEv
04dbe4d4 T _ZN3JSC4Heap30markStackObjectsConservativelyEv
04dbe500 T _ZN3JSC4Heap7collectEv
04dbe6b8 T _ZN3JSC4Heap14allocateNumberEj
04dbe8a4 T _ZN3JSC4Heap8allocateEj
04dbeae8 T _ZN3JSC4Heap25protectedObjectTypeCountsEv
04dbed08 T _ZN3JSC4Heap24setGCProtectNeedsLockingEv
04dbedc8 T _ZN3JSC4HeapD1Ev
04dbee3c T _ZN3JSC4Heap9unprotectENS_10JSValuePtrE
04dbef4c T _ZN3JSC4Heap7protectENS_10JSValuePtrE
04dbf004 T _ZN3JSC17CommonIdentifiersC1EPNS_12JSGlobalDataE
04dbf540 T _ZN3JSC17CommonIdentifiersC2EPNS_12JSGlobalDataE
04dbfa7c T _ZN3JSC9constructEPNS_9ExecStateENS_10JSValuePtrENS_13ConstructTypeERKNS_13ConstructDataERKNS_7ArgListE
04dbfae8 T _ZN3JSC15DateConstructor16getConstructDataERNS_13ConstructDataE
04dbfafc T _ZN3JSC15DateConstructor11getCallDataERNS_8CallDataE
04dbff68 T _ZN3JSC15DateConstructorC2EPNS_9ExecStateEN3WTF10PassRefPtrINS_9StructureEEEPS5_PNS_13DatePrototypeE
04dc0444 T _ZN3JSC15DateConstructorC1EPNS_9ExecStateEN3WTF10PassRefPtrINS_9StructureEEEPS5_PNS_13DatePrototypeE
04dc13f0 T _ZN3JSC13constructDateEPNS_9ExecStateERKNS_7ArgListE
04dc2064 T _ZNK3JSC12DateInstance10getUTCTimeERd
04dc2138 T _ZN3JSC12DateInstanceD2Ev
04dc22c4 T _ZNK3JSC12DateInstance21msToGregorianDateTimeEdbRNS_17GregorianDateTimeE
04dc251c T _ZNK3JSC12DateInstance7getTimeERdRi
04dc26b0 T _ZNK3JSC12DateInstance10getUTCTimeERNS_17GregorianDateTimeE
04dc27e8 T _ZNK3JSC12DateInstance7getTimeERNS_17GregorianDateTimeERi
04dc2938 T _ZN3JSC12DateInstanceC1EN3WTF10PassRefPtrINS_9StructureEEE
04dc2974 T _ZN3JSC12DateInstanceC2EN3WTF10PassRefPtrINS_9StructureEEE
04dc29b0 T _ZN3JSC12DateInstanceD0Ev
04dc2b64 T _ZN3JSC12DateInstanceD1Ev
04dc2cf0 T _ZN3JSC20formatDateUTCVariantERKNS_17GregorianDateTimeE
04dc2dc0 T _ZN3JSC10formatDateERKNS_17GregorianDateTimeE
04dc2e90 T _ZN3JSC8timeClipEd
04dc309c T _ZN3JSC12getUTCOffsetEv
04dc3134 T _ZN3JSC12getLocalTimeEPKmP2tm
04dc3160 T _ZN3JSC33getCurrentUTCTimeWithMicrosecondsEv
04dc320c T _ZN3JSC17getCurrentUTCTimeEv
04dc3248 T _ZN3JSC10formatTimeERKNS_17GregorianDateTimeEb
04dc3904 T _ZN3JSC20equivalentYearForDSTEi
04dc39f8 T _ZN3JSC12initDateMathEv
04dc41d0 T _ZN3JSC21gregorianDateTimeToMSERKNS_17GregorianDateTimeEdb
04dc42fc T _ZN3JSC9parseDateERKNS_7UStringE
04dc521c T _ZN3JSC21msToGregorianDateTimeEdbRNS_17GregorianDateTimeE
04dc5a04 T _ZN3JSC13DatePrototypeC1EPNS_9ExecStateEN3WTF10PassRefPtrINS_9StructureEEE
04dc5ad4 T _ZN3JSC13DatePrototype18getOwnPropertySlotEPNS_9ExecStateERKNS_10IdentifierERNS_12PropertySlotE
04dc5dbc T _ZN3JSC13DatePrototypeC2EPNS_9ExecStateEN3WTF10PassRefPtrINS_9StructureEEE
04dcc260 T _ZN3JSC8DebuggerC1Ev
04dcc28c T _ZN3JSC8Debugger6attachEPNS_14JSGlobalObjectE
04dcc2e4 T _ZN3JSC8DebuggerC2Ev
04dcc310 T _ZN3JSC8Debugger6detachEPNS_14JSGlobalObjectE
04dcc3d0 T _ZN3JSC8DebuggerD1Ev
04dcc4b0 T _ZN3JSC8DebuggerD2Ev
04dcc590 T _ZN3JSC8DebuggerD0Ev
04dcc690 T _ZNK3JSC17DebuggerCallFrame10thisObjectEv
04dcc6d8 T _ZNK3JSC17DebuggerCallFrame12functionNameEv
04dcc74c T _ZNK3JSC17DebuggerCallFrame4typeEv
04dcc760 T _ZNK3JSC17DebuggerCallFrame8evaluateERKNS_7UStringERNS_10JSValuePtrE
04dcd7dc T _ZN3WTF8freedtoaEPc
04dcdcd0 T _ZN3WTF4dtoaEdiPiS0_PPc
04dce7a0 T _ZN3WTF6strtodEPKcPPc
04dcfb98 T _ZN3JSC5Error6createEPNS_9ExecStateENS_9ErrorTypeERKNS_7UStringEiiS6_
04dd02ec T _ZN3JSC10throwErrorEPNS_9ExecStateENS_9ErrorTypeERKNS_7UStringEiiS5_
04dd0330 T _ZN3JSC10throwErrorEPNS_9ExecStateENS_9ErrorTypeEPKc
04dd0488 T _ZN3JSC10throwErrorEPNS_9ExecStateENS_9ErrorTypeERKNS_7UStringE
04dd058c T _ZN3JSC10throwErrorEPNS_9ExecStateENS_9ErrorTypeE
04dd06d0 T _ZN3JSC5Error6createEPNS_9ExecStateENS_9ErrorTypeEPKc
04dd0810 T _ZN3JSC16ErrorConstructor16getConstructDataERNS_13ConstructDataE
04dd0824 T _ZN3JSC16ErrorConstructor11getCallDataERNS_8CallDataE
04dd0838 T _ZN3JSC16ErrorConstructorC1EPNS_9ExecStateEN3WTF10PassRefPtrINS_9StructureEEEPNS_14ErrorPrototypeE
04dd0a7c T _ZN3JSC16ErrorConstructorC2EPNS_9ExecStateEN3WTF10PassRefPtrINS_9StructureEEEPNS_14ErrorPrototypeE
04dd0cc0 T _ZN3JSC14constructErrorEPNS_9ExecStateERKNS_7ArgListE
04dd10cc T _ZN3JSC13ErrorInstanceC1EN3WTF10PassRefPtrINS_9StructureEEE
04dd1100 T _ZN3JSC13ErrorInstanceC2EN3WTF10PassRefPtrINS_9StructureEEE
04dd19a4 T _ZN3JSC14ErrorPrototypeC2EPNS_9ExecStateEN3WTF10PassRefPtrINS_9StructureEEEPS5_
04dd1e6c T _ZN3JSC14ErrorPrototypeC1EPNS_9ExecStateEN3WTF10PassRefPtrINS_9StructureEEEPS5_
04dd2334 T _ZN3JSC9ExecState9thisValueEv
04dd2348 T _ZN3JSC19FunctionConstructor16getConstructDataERNS_13ConstructDataE
04dd235c T _ZN3JSC19FunctionConstructor11getCallDataERNS_8CallDataE
04dd2370 T _ZN3JSC19FunctionConstructorC1EPNS_9ExecStateEN3WTF10PassRefPtrINS_9StructureEEEPNS_17FunctionPrototypeE
04dd25b4 T _ZN3JSC19FunctionConstructorC2EPNS_9ExecStateEN3WTF10PassRefPtrINS_9StructureEEEPNS_17FunctionPrototypeE
04dd27f8 T _ZN3JSC17constructFunctionEPNS_9ExecStateERKNS_7ArgListERKNS_10IdentifierERKNS_7UStringEi
04dd35e4 T _ZN3JSC17constructFunctionEPNS_9ExecStateERKNS_7ArgListE
04dd3774 T _ZN3JSC17FunctionPrototype11getCallDataERNS_8CallDataE
04dd42d4 T _ZN3JSC17FunctionPrototypeC2EPNS_9ExecStateEN3WTF10PassRefPtrINS_9StructureEEE
04dd4430 T _ZN3JSC17FunctionPrototype21addFunctionPropertiesEPNS_9ExecStateEPNS_9StructureE
04dd4750 T _ZN3JSC17FunctionPrototypeC1EPNS_9ExecStateEN3WTF10PassRefPtrINS_9StructureEEE
04dd5020 T _ZN3JSC12GetterSetter18getPrimitiveNumberEPNS_9ExecStateERdRNS_10JSValuePtrE
04dd503c T _ZNK3JSC12GetterSetter9toBooleanEPNS_9ExecStateE
04dd5044 T _ZNK3JSC12GetterSetter8toNumberEPNS_9ExecStateE
04dd5050 T _ZNK3JSC12GetterSetter14isGetterSetterEv
04dd5058 T _ZNK3JSC12GetterSetter8toObjectEPNS_9ExecStateE
04dd5090 T _ZNK3JSC12GetterSetter8toStringEPNS_9ExecStateE
04dd50e8 T _ZNK3JSC12GetterSetter11toPrimitiveEPNS_9ExecStateENS_22PreferredPrimitiveTypeE
04dd50f0 T _ZN3JSC12GetterSetter4markEv
04dd51f0 T _ZN3JSC18GlobalEvalFunction4markEv
04dd526c T _ZN3JSC18GlobalEvalFunctionC1EPNS_9ExecStateEN3WTF10PassRefPtrINS_9StructureEEEiRKNS_10IdentifierEPFNS_10JSValuePtrES2_PNS_8JSObjectESA_RKNS_7ArgListEEPNS_14JSGlobalObjectE
04dd5350 T _ZN3JSC18GlobalEvalFunctionC2EPNS_9ExecStateEN3WTF10PassRefPtrINS_9StructureEEEiRKNS_10IdentifierEPFNS_10JSValuePtrES2_PNS_8JSObjectESA_RKNS_7ArgListEEPNS_14JSGlobalObjectE
04dd5434 T _ZN3JSC10Identifier5equalEPKNS_7UString3RepEPKc
04dd54ac T _ZN3JSC10Identifier5equalEPKNS_7UString3RepEPKti
04dd5524 T _ZN3JSC10Identifier24checkSameIdentifierTableEPNS_9ExecStateEPNS_7UString3RepE
04dd5528 T _ZN3JSC10Identifier24checkSameIdentifierTableEPNS_12JSGlobalDataEPNS_7UString3RepE
04dd552c T _ZN3JSC21createIdentifierTableEv
04dd558c T _ZN3JSC21deleteIdentifierTableEPNS_15IdentifierTableE
04dd567c T _ZN3JSC10Identifier6removeEPNS_7UString3RepE
04dd570c T _ZN3JSC10Identifier11addSlowCaseEPNS_12JSGlobalDataEPNS_7UString3RepE
04dd58ac T _ZN3JSC10Identifier11addSlowCaseEPNS_9ExecStateEPNS_7UString3RepE
04dd58f0 T _ZN3JSC10Identifier3addEPNS_12JSGlobalDataEPKti
04dd5aa0 T _ZN3JSC10Identifier3addEPNS_9ExecStateEPKti
04dd5ae4 T _ZN3JSC10Identifier3addEPNS_12JSGlobalDataEPKc
04dd5d80 T _ZN3JSC10Identifier3addEPNS_9ExecStateEPKc
04dd5dc4 T _ZNK3JSC16InternalFunction9classInfoEv
04dd5dd0 T _ZN3JSC16InternalFunction4nameEPNS_12JSGlobalDataE
04dd5f3c T _ZN3JSC16InternalFunctionC2EPNS_12JSGlobalDataEN3WTF10PassRefPtrINS_9StructureEEERKNS_10IdentifierE
04dd6248 T _ZN3JSC16InternalFunctionC1EPNS_12JSGlobalDataEN3WTF10PassRefPtrINS_9StructureEEERKNS_10IdentifierE
04dd6554 T _ZN3JSC11checkSyntaxEPNS_9ExecStateERKNS_10SourceCodeE
04dd6750 T _ZN3JSC8evaluateEPNS_9ExecStateERNS_10ScopeChainERKNS_10SourceCodeENS_10JSValuePtrE
04dd6ad4 T _ZN3JSC7JSArray16lazyCreationDataEv
04dd6ae0 T _ZN3JSC7JSArray19setLazyCreationDataEPv
04dd6b20 T _ZN3JSC7JSArray20increaseVectorLengthEj
04dd6bf0 T _ZN3JSC7JSArray14deletePropertyEPNS_9ExecStateERKNS_10IdentifierE
04dd6d38 T _ZN3JSC7JSArray11fillArgListEPNS_9ExecStateERNS_7ArgListE
04dd7098 T _ZN3JSC7JSArrayC2EN3WTF10PassRefPtrINS_9StructureEEE
04dd7120 T _ZN3JSC7JSArrayD1Ev
04dd72a4 T _ZN3JSC7JSArray17compactForSortingEv
04dd7594 T _ZN3JSC7JSArray4sortEPNS_9ExecStateE
04dd7954 T _ZN3JSC7JSArray4markEv
04dd7b10 T _ZN3JSC7JSArray9setLengthEj
04dd7d94 T _ZN3JSC7JSArray3putEPNS_9ExecStateERKNS_10IdentifierENS_10JSValuePtrERNS_15PutPropertySlotE
04dd8074 T _ZN3JSC7JSArray3popEv
04dd824c T _ZN3JSC7JSArrayC2EPNS_9ExecStateEN3WTF10PassRefPtrINS_9StructureEEERKNS_7ArgListE
04dd832c T _ZN3JSC7JSArrayC1EN3WTF10PassRefPtrINS_9StructureEEEj
04dd841c T _ZN3JSC7JSArrayC2EN3WTF10PassRefPtrINS_9StructureEEEj
04dd850c T _ZN3JSC7JSArrayD2Ev
04dd8690 T _ZN3JSC7JSArrayD0Ev
04dd8838 T _ZN3JSC7JSArray16getPropertyNamesEPNS_9ExecStateERNS_17PropertyNameArrayE
04dd8ba8 T _ZN3JSC7JSArray14deletePropertyEPNS_9ExecStateEj
04dd8e1c T _ZN3JSC7JSArray11putSlowCaseEPNS_9ExecStateEjNS_10JSValuePtrE
04dd9554 T _ZN3JSC7JSArray4pushEPNS_9ExecStateENS_10JSValuePtrE
04dd96a8 T _ZN3JSC7JSArray3putEPNS_9ExecStateEjNS_10JSValuePtrE
04dd9770 T _ZN3JSC7JSArray18getOwnPropertySlotEPNS_9ExecStateEjRNS_12PropertySlotE
04dd99b0 T _ZN3JSC7JSArray18getOwnPropertySlotEPNS_9ExecStateERKNS_10IdentifierERNS_12PropertySlotE
04dd9cd4 T _ZN3JSC7JSArrayC1EN3WTF10PassRefPtrINS_9StructureEEE
04dd9d5c T _ZN3JSC19constructEmptyArrayEPNS_9ExecStateE
04dd9e74 T _ZN3JSC19constructEmptyArrayEPNS_9ExecStateEj
04dd9f94 T _ZN3JSC7JSArrayC1EPNS_9ExecStateEN3WTF10PassRefPtrINS_9StructureEEERKNS_7ArgListE
04dda074 T _ZN3JSC14constructArrayEPNS_9ExecStateERKNS_7ArgListE
04dda1a8 T _ZN3JSC14constructArrayEPNS_9ExecStateENS_10JSValuePtrE
04dda3c0 T _ZN3JSC7JSArray4sortEPNS_9ExecStateENS_10JSValuePtrENS_8CallTypeERKNS_8CallDataE
04ddb78c T _ZN3JSC11JSByteArray3putEPNS_9ExecStateEjNS_10JSValuePtrE
04ddb7c4 T _ZN3JSC11JSByteArray15createStructureENS_10JSValuePtrE
04ddb84c T _ZN3JSC11JSByteArray3putEPNS_9ExecStateERKNS_10IdentifierENS_10JSValuePtrERNS_15PutPropertySlotE
04ddb93c T _ZN3JSC11JSByteArray18getOwnPropertySlotEPNS_9ExecStateERKNS_10IdentifierERNS_12PropertySlotE
04ddbc04 T _ZN3JSC11JSByteArray18getOwnPropertySlotEPNS_9ExecStateEjRNS_12PropertySlotE
04ddbf50 T _ZN3JSC11JSByteArray16getPropertyNamesEPNS_9ExecStateERNS_17PropertyNameArrayE
04ddc11c T _ZN3JSC11JSByteArrayC1EPNS_9ExecStateEN3WTF10PassRefPtrINS_9StructureEEEPNS_9ByteArrayEPKNS_9ClassInfoE
04ddc450 T _ZN3JSC11JSByteArrayC2EPNS_9ExecStateEN3WTF10PassRefPtrINS_9StructureEEEPNS_9ByteArrayEPKNS_9ClassInfoE
04ddc784 T _ZNK3JSC6JSCell9getUInt32ERj
04ddc78c T _ZNK3JSC6JSCell17getTruncatedInt32ERi
04ddc794 T _ZNK3JSC6JSCell18getTruncatedUInt32ERj
04ddc79c T _ZNK3JSC6JSCell9getNumberEv
04ddc7c4 T _ZN3JSC6JSCell9getObjectEv
04ddc7e4 T _ZN3JSC6JSCell11getCallDataERNS_8CallDataE
04ddc7ec T _ZN3JSC6JSCell16getConstructDataERNS_13ConstructDataE
04ddc7f4 T _ZN3JSC6JSCell3putEPNS_9ExecStateERKNS_10IdentifierENS_10JSValuePtrERNS_15PutPropertySlotE
04ddc874 T _ZN3JSC6JSCell3putEPNS_9ExecStateEjNS_10JSValuePtrE
04ddc8e4 T _ZN3JSC6JSCell14deletePropertyEPNS_9ExecStateERKNS_10IdentifierE
04ddc940 T _ZN3JSC6JSCell14deletePropertyEPNS_9ExecStateEj
04ddc99c T _ZNK3JSC6JSCell12toThisObjectEPNS_9ExecStateE
04ddc9c8 T _ZNK3JSC6JSCell12toThisStringEPNS_9ExecStateE
04ddca34 T _ZNK3JSC6JSCell9classInfoEv
04ddca3c T _ZN3JSC6JSCell11getJSNumberEv
04ddca44 T _ZNK3JSC6JSCell14isGetterSetterEv
04ddca88 T _GLOBAL__I__ZN3JSC3NaNE
04ddcac0 T _ZN3JSC6JSCell14toThisJSStringEPNS_9ExecStateE
04ddcb84 T _ZN3JSC6JSCellnwEjPNS_9ExecStateE
04ddcbc0 T _ZN3JSC6JSCell18getOwnPropertySlotEPNS_9ExecStateERKNS_10IdentifierERNS_12PropertySlotE
04ddcea0 T _ZNK3JSC6JSCell9getStringEv
04ddceec T _ZNK3JSC6JSCell9getObjectEv
04ddcf0c T _ZNK3JSC6JSCell9getNumberERd
04ddcf38 T _ZN3JSC6JSCell18getOwnPropertySlotEPNS_9ExecStateEjRNS_12PropertySlotE
04ddd028 T _ZNK3JSC6JSCell9getStringERNS_7UStringE
04ddd0c8 T _ZN3JSC10JSFunction11getCallDataERNS_8CallDataE
04ddd0e4 T _ZN3JSC10JSFunction14deletePropertyEPNS_9ExecStateERKNS_10IdentifierE
04ddd158 T _ZN3JSC10JSFunction3putEPNS_9ExecStateERKNS_10IdentifierENS_10JSValuePtrERNS_15PutPropertySlotE
04ddd1c8 T _ZN3JSC10JSFunction15argumentsGetterEPNS_9ExecStateERKNS_10IdentifierERKNS_12PropertySlotE
04ddd208 T _ZN3JSC10JSFunction16getConstructDataERNS_13ConstructDataE
04ddd224 T _ZN3JSC10JSFunction12lengthGetterEPNS_9ExecStateERKNS_10IdentifierERKNS_12PropertySlotE
04ddd25c T _ZN3JSC10JSFunction12callerGetterEPNS_9ExecStateERKNS_10IdentifierERKNS_12PropertySlotE
04ddd29c T _ZN3JSC10JSFunction4markEv
04ddd35c T _ZN3JSC10JSFunction4callEPNS_9ExecStateENS_10JSValuePtrERKNS_7ArgListE
04ddd5fc T _ZN3JSC10JSFunctionD2Ev
04ddd7d0 T _ZN3JSC10JSFunction9constructEPNS_9ExecStateERKNS_7ArgListE
04dddc24 T _ZN3JSC10JSFunctionC1EPNS_9ExecStateERKNS_10IdentifierEPNS_16FunctionBodyNodeEPNS_14ScopeChainNodeE
04ddddb0 T _ZN3JSC10JSFunctionC2EPNS_9ExecStateERKNS_10IdentifierEPNS_16FunctionBodyNodeEPNS_14ScopeChainNodeE
04dddf3c T _ZN3JSC10JSFunction18getOwnPropertySlotEPNS_9ExecStateERKNS_10IdentifierERNS_12PropertySlotE
04dde914 T _ZN3JSC10JSFunctionD0Ev
04ddeb0c T _ZN3JSC10JSFunctionD1Ev
04dded40 T _ZN3JSC16parseIntOverflowEPKcii
04ddee70 T _ZN3JSC15isStrWhiteSpaceEt
04ddf218 T _ZN3JSC28globalFuncEncodeURIComponentEPNS_9ExecStateEPNS_8JSObjectENS_10JSValuePtrERKNS_7ArgListE
04ddf250 T _ZN3JSC19globalFuncEncodeURIEPNS_9ExecStateEPNS_8JSObjectENS_10JSValuePtrERKNS_7ArgListE
04ddf288 T _ZN3JSC18globalFuncIsFiniteEPNS_9ExecStateEPNS_8JSObjectENS_10JSValuePtrERKNS_7ArgListE
04ddf3ac T _ZN3JSC15globalFuncIsNaNEPNS_9ExecStateEPNS_8JSObjectENS_10JSValuePtrERKNS_7ArgListE
04ddf4a8 T _ZN3JSC18globalFuncUnescapeEPNS_9ExecStateEPNS_8JSObjectENS_10JSValuePtrERKNS_7ArgListE
04ddf7d8 T _ZN3JSC16globalFuncEscapeEPNS_9ExecStateEPNS_8JSObjectENS_10JSValuePtrERKNS_7ArgListE
04ddfc80 T _ZN3JSC20globalFuncParseFloatEPNS_9ExecStateEPNS_8JSObjectENS_10JSValuePtrERKNS_7ArgListE
04ddfefc T _ZN3JSC18globalFuncParseIntEPNS_9ExecStateEPNS_8JSObjectENS_10JSValuePtrERKNS_7ArgListE
04de0594 T _ZN3JSC14globalFuncEvalEPNS_9ExecStateEPNS_8JSObjectENS_10JSValuePtrERKNS_7ArgListE
04de0fac T _ZN3JSC28globalFuncDecodeURIComponentEPNS_9ExecStateEPNS_8JSObjectENS_10JSValuePtrERKNS_7ArgListE
04de0fe8 T _ZN3JSC19globalFuncDecodeURIEPNS_9ExecStateEPNS_8JSObjectENS_10JSValuePtrERKNS_7ArgListE
04de1024 T _ZN3JSC11JSImmediate12nonInlineNaNEv
04de1030 T _ZN3JSC11JSImmediate8toStringENS_10JSValuePtrE
04de10e0 T _ZN3JSC11JSImmediate8toObjectENS_10JSValuePtrEPNS_9ExecStateE
04de1244 T _ZN3JSC11JSImmediate12toThisObjectENS_10JSValuePtrEPNS_9ExecStateE
04de13bc T _ZN3JSC11JSImmediate9prototypeENS_10JSValuePtrEPNS_9ExecStateE
04de1554 T _ZN3JSC6JSLockC1EPNS_9ExecStateE
04de1560 T _ZN3JSC6JSLock9lockCountEv
04de1568 T _ZN3JSC6JSLock26currentThreadIsHoldingLockEv
04de1570 T _ZN3JSC6JSLock4lockEb
04de1574 T _ZN3JSC6JSLock6unlockEb
04de1578 T _ZN3JSC6JSLock4lockEPNS_9ExecStateE
04de157c T _ZN3JSC6JSLock6unlockEPNS_9ExecStateE
04de1580 T _ZN3JSC6JSLock12DropAllLocksD2Ev
04de1584 T _ZN3JSC6JSLockC2EPNS_9ExecStateE
04de1590 T _ZN3JSC6JSLock12DropAllLocksC1Eb
04de1594 T _ZN3JSC6JSLock12DropAllLocksC2Eb
04de1598 T _ZN3JSC6JSLock12DropAllLocksC1EPNS_9ExecStateE
04de159c T _ZN3JSC6JSLock12DropAllLocksC2EPNS_9ExecStateE
04de15a0 T _ZN3JSC6JSLock12DropAllLocksD1Ev
04de15a4 T _ZN3JSC12JSNumberCell18getPrimitiveNumberEPNS_9ExecStateERdRNS_10JSValuePtrE
04de15bc T _ZNK3JSC12JSNumberCell9toBooleanEPNS_9ExecStateE
04de15e0 T _ZNK3JSC12JSNumberCell8toNumberEPNS_9ExecStateE
04de15e8 T _ZNK3JSC12JSNumberCell9getUInt32ERj
04de169c T _ZNK3JSC12JSNumberCell17getTruncatedInt32ERi
04de16d8 T _ZNK3JSC12JSNumberCell18getTruncatedUInt32ERj
04de1748 T _ZNK3JSC12JSNumberCell12toThisObjectEPNS_9ExecStateE
04de1780 T _ZNK3JSC12JSNumberCell8toObjectEPNS_9ExecStateE
04de17b8 T _ZNK3JSC12JSNumberCell12toThisStringEPNS_9ExecStateE
04de1838 T _ZNK3JSC12JSNumberCell8toStringEPNS_9ExecStateE
04de18b8 T _ZNK3JSC12JSNumberCell11toPrimitiveEPNS_9ExecStateENS_22PreferredPrimitiveTypeE
04de18bc T _ZN3JSC12jsNumberCellEPNS_12JSGlobalDataEd
04de1920 T _ZN3JSC12jsNumberCellEPNS_9ExecStateEd
04de1994 T _ZN3JSC12JSNumberCell11getJSNumberEv
04de1998 T _ZN3JSC5jsNaNEPNS_12JSGlobalDataE
04de19f8 T _ZN3JSC5jsNaNEPNS_9ExecStateE
04de1a68 T _ZNK3JSC8JSObject20propertyIsEnumerableEPNS_9ExecStateERKNS_10IdentifierE
04de1ab0 T _ZNK3JSC8JSObject9toBooleanEPNS_9ExecStateE
04de1ab8 T _ZNK3JSC8JSObject8toObjectEPNS_9ExecStateE
04de1abc T _ZNK3JSC8JSObject12toThisObjectEPNS_9ExecStateE
04de1ac0 T _ZN3JSC8JSObject15unwrappedObjectEv
04de1ac4 T _ZN3JSC8JSObject23allocatePropertyStorageEjj
04de1b98 T _ZNK3JSC8JSObject9classNameEv
04de1c2c T _ZN3JSC8JSObject16getPropertyNamesEPNS_9ExecStateERNS_17PropertyNameArrayE
04de1c60 T _ZNK3JSC8JSObject21findPropertyHashEntryEPNS_9ExecStateERKNS_10IdentifierE
04de1d58 T _ZNK3JSC8JSObject8toNumberEPNS_9ExecStateE
04de1e44 T _ZN3JSC8JSObject22fillGetterPropertySlotERNS_12PropertySlotEPNS_10JSValuePtrE
04de1e80 T _ZNK3JSC8JSObject14hasOwnPropertyEPNS_9ExecStateERKNS_10IdentifierE
04de1ec4 T _ZNK3JSC8JSObject11hasPropertyEPNS_9ExecStateEj
04de1f9c T _ZNK3JSC8JSObject21getPropertyAttributesEPNS_9ExecStateERKNS_10IdentifierERj
04de206c T _ZNK3JSC8JSObject8toStringEPNS_9ExecStateE
04de216c T _ZN3JSC8JSObject11hasInstanceEPNS_9ExecStateENS_10JSValuePtrES3_
04de2230 T _ZN3JSC8JSObject17putWithAttributesEPNS_9ExecStateEjNS_10JSValuePtrEj
04de23b0 T _ZN3JSC8JSObject4markEv
04de2520 T _ZN3JSC8JSObject18getPrimitiveNumberEPNS_9ExecStateERdRNS_10JSValuePtrE
04de2614 T _ZN3JSC8JSObject34putDirectFunctionWithoutTransitionEPNS_9ExecStateEPNS_16InternalFunctionEj
04de2778 T _ZN3JSC8JSObject12lookupGetterEPNS_9ExecStateERKNS_10IdentifierE
04de294c T _ZNK3JSC8JSObject11hasPropertyEPNS_9ExecStateERKNS_10IdentifierE
04de2bdc T _ZN3JSC8JSObject12lookupSetterEPNS_9ExecStateERKNS_10IdentifierE
04de2db0 T _ZN3JSC8JSObject3putEPNS_9ExecStateEjNS_10JSValuePtrE
04de2f30 T _ZN3JSC8JSObject18getOwnPropertySlotEPNS_9ExecStateEjRNS_12PropertySlotE
04de30a4 T _ZN3JSC8JSObject14deletePropertyEPNS_9ExecStateEj
04de3204 T _ZNK3JSC8JSObject12defaultValueEPNS_9ExecStateENS_22PreferredPrimitiveTypeE
04de3f74 T _ZN3JSC20constructEmptyObjectEPNS_9ExecStateE
04de4028 T _ZN3JSC8JSObject17createInheritorIDEv
04de4124 T _ZN3JSC8JSObject12removeDirectERKNS_10IdentifierE
04de4248 T _ZN3JSC8JSObject14deletePropertyEPNS_9ExecStateERKNS_10IdentifierE
04de434c T _ZN3JSC8JSObject12defineSetterEPNS_9ExecStateERKNS_10IdentifierEPS0_
04de45f8 T _ZN3JSC8JSObject12defineGetterEPNS_9ExecStateERKNS_10IdentifierEPS0_
04de48a4 T _ZN3JSC8JSObject3putEPNS_9ExecStateERKNS_10IdentifierENS_10JSValuePtrERNS_15PutPropertySlotE
04de4dec T _ZN3JSC8JSObject17putWithAttributesEPNS_9ExecStateERKNS_10IdentifierENS_10JSValuePtrEj
04de4e44 T _ZN3JSC8JSObject17putDirectFunctionEPNS_9ExecStateEPNS_16InternalFunctionEj
04de4f88 T _ZNK3JSC8JSString11toPrimitiveEPNS_9ExecStateENS_22PreferredPrimitiveTypeE
04de4f8c T _ZNK3JSC8JSString9toBooleanEPNS_9ExecStateE
04de4fa4 T _ZNK3JSC8JSString8toStringEPNS_9ExecStateE
04de4fc4 T _ZN3JSC8JSString14toThisJSStringEPNS_9ExecStateE
04de4fc8 T _ZNK3JSC8JSString12toThisObjectEPNS_9ExecStateE
04de50e4 T _ZNK3JSC8JSString8toNumberEPNS_9ExecStateE
04de5114 T _ZN3JSC8JSString18getPrimitiveNumberEPNS_9ExecStateERdRNS_10JSValuePtrE
04de515c T _ZNK3JSC8JSString12toThisStringEPNS_9ExecStateE
04de517c T _ZN3JSC13jsOwnedStringEPNS_12JSGlobalDataERKNS_7UStringE
04de52b8 T _ZNK3JSC8JSString8toObjectEPNS_9ExecStateE
04de53d4 T _ZN3JSC8JSString18getOwnPropertySlotEPNS_9ExecStateERKNS_10IdentifierERNS_12PropertySlotE
04de5758 T _ZN3JSC8JSString18getOwnPropertySlotEPNS_9ExecStateEjRNS_12PropertySlotE
04de5a98 T _ZN3JSC11jsSubstringEPNS_12JSGlobalDataERKNS_7UStringEjj
04de5cdc T _ZN3JSC8jsStringEPNS_12JSGlobalDataERKNS_7UStringE
04de5e78 T _ZN3JSC15toInt32SlowCaseEdRb
04de5fe8 T _ZN3JSC16toUInt32SlowCaseEdRb
04de61a0 T _ZNK3JSC7JSValue16toUInt32SlowCaseEPNS_9ExecStateERb
04de626c T _ZNK3JSC7JSValue9toIntegerEPNS_9ExecStateE
04de6448 T _ZNK3JSC7JSValue15toInt32SlowCaseEPNS_9ExecStateERb
04de6514 T _ZNK3JSC7JSValue20toIntegerPreserveNaNEPNS_9ExecStateE
04de669c T _ZNK3JSC7JSValue7toFloatEPNS_9ExecStateE
04de6738 T _ZN3JSC15JSWrapperObject4markEv
04de67c8 T _ZN3JSC5Lexer5shiftEj
04de6868 T _ZN3JSC5Lexer7setCodeERKNS_10SourceCodeE
04de6920 T _ZN3JSC5Lexer8nextLineEv
04de6938 T _ZN3JSC5Lexer7setDoneENS0_5StateE
04de6948 T _ZN3JSC5Lexer16isLineTerminatorEv
04de69b4 T _ZN3JSC5Lexer10isHexDigitEi
04de69e0 T _ZN3JSC5Lexer12isOctalDigitEi
04de69f4 T _ZN3JSC5Lexer15matchPunctuatorERiiiii
04de6ec4 T _ZN3JSC5Lexer12singleEscapeEt
04de6f38 T _ZN3JSC5Lexer12convertOctalEiii
04de6f54 T _ZN3JSC5Lexer10convertHexEi
04de6f88 T _ZN3JSC5Lexer10convertHexEii
04de6fe8 T _ZN3JSC5Lexer14convertUnicodeEiiii
04de7088 T _ZN3JSC5Lexer12isIdentStartEi
04de7110 T _ZNK3JSC5Lexer12isWhiteSpaceEv
04de716c T _ZN3JSC5Lexer11isIdentPartEi
04de71f8 T _ZN3JSC5Lexer8record16Et
04de728c T _ZN3JSC5Lexer8record16Ei
04de72bc T _ZN3JSC5Lexer7record8Ei
04de734c T _ZN3JSC5LexerC1EPNS_12JSGlobalDataE
04de7534 T _ZN3JSC5LexerC2EPNS_12JSGlobalDataE
04de771c T _ZN3JSC5Lexer5clearEv
04de79c4 T _ZN3JSC5Lexer10scanRegExpEv
04de7ce8 T _ZN3JSC5LexerD1Ev
04de7fb4 T _ZN3JSC5LexerD2Ev
04de8280 T _ZN3JSC5Lexer3lexEPvS1_
04de9a84 T _Z8jscyylexPvS_S_
04de9ac4 T _ZNK3JSC9HashTable11createTableEPNS_12JSGlobalDataE
04de9bf8 T _ZNK3JSC9HashTable11deleteTableEv
04de9cd4 T _ZN3JSC23setUpStaticFunctionSlotEPNS_9ExecStateEPKNS_9HashEntryEPNS_8JSObjectERKNS_10IdentifierERNS_12PropertySlotE
04dea228 T _ZN3JSC10MathObject18getOwnPropertySlotEPNS_9ExecStateERKNS_10IdentifierERNS_12PropertySlotE
04deabd0 T _ZN3JSC10MathObjectC2EPNS_9ExecStateEN3WTF10PassRefPtrINS_9StructureEEE
04decdb8 T _ZN3JSC10MathObjectC1EPNS_9ExecStateEN3WTF10PassRefPtrINS_9StructureEEE
04ded86c T _ZN3JSC22NativeErrorConstructor16getConstructDataERNS_13ConstructDataE
04ded880 T _ZN3JSC22NativeErrorConstructor11getCallDataERNS_8CallDataE
04ded894 T _ZN3JSC22NativeErrorConstructor9constructEPNS_9ExecStateERKNS_7ArgListE
04dedadc T _ZN3JSC22NativeErrorConstructorC1EPNS_9ExecStateEN3WTF10PassRefPtrINS_9StructureEEEPNS_20NativeErrorPrototypeE
04dedec8 T _ZN3JSC22NativeErrorConstructorC2EPNS_9ExecStateEN3WTF10PassRefPtrINS_9StructureEEEPNS_20NativeErrorPrototypeE
04dee2b4 T _ZN3JSC20NativeErrorPrototypeC2EPNS_9ExecStateEN3WTF10PassRefPtrINS_9StructureEEERKNS_7UStringES9_
04dee74c T _ZN3JSC20NativeErrorPrototypeC1EPNS_9ExecStateEN3WTF10PassRefPtrINS_9StructureEEERKNS_7UStringES9_
04deebe4 T _ZN3JSC16ParserRefCounted12releaseNodesERNS_12NodeReleaserE
04deebe8 T _ZN3JSC13StatementNode6setLocEii
04deebf4 T _ZN3JSC18EmptyStatementNode12emitBytecodeERNS_17BytecodeGeneratorEPNS_10RegisterIDE
04deebfc T _ZN3JSC16FunctionBodyNode13finishParsingEPNS_10IdentifierEj
04deec08 T _ZN3JSC13ConstDeclNode12emitBytecodeERNS_17BytecodeGeneratorEPNS_10RegisterIDE
04deec6c T _ZN3JSC16ParserRefCountedD2Ev
04deec7c T _ZN3JSC16ParserRefCounted16deleteNewObjectsEPNS_12JSGlobalDataE
04deed0c T _ZN3JSC12FuncDeclNode12makeFunctionEPNS_9ExecStateEPNS_14ScopeChainNodeE
04deed9c T _ZN3JSC16ParserRefCountedC1EPNS_12JSGlobalDataE
04deee48 T _ZN3JSC16ParserRefCountedC2EPNS_12JSGlobalDataE
04deeef4 T _ZN3JSC4NodeC1EPNS_12JSGlobalDataE
04deef50 T _ZN3JSC4NodeC2EPNS_12JSGlobalDataE
04deefac T _ZN3JSC13StatementNodeC1EPNS_12JSGlobalDataE
04deeff8 T _ZN3JSC13StatementNodeC2EPNS_12JSGlobalDataE
04def044 T _ZN3JSC9ScopeNodeC1EPNS_12JSGlobalDataE
04def0a8 T _ZN3JSC9ScopeNodeC2EPNS_12JSGlobalDataE
04def10c T _ZN3JSC16FunctionBodyNodeC1EPNS_12JSGlobalDataE
04def164 T _ZN3JSC16FunctionBodyNode6createEPNS_12JSGlobalDataE
04def1c4 T _ZN3JSC16FunctionBodyNodeC2EPNS_12JSGlobalDataE
04def21c T _ZN3JSC16FunctionBodyNode14copyParametersEv
04def2ac T _ZNK3JSC16FunctionBodyNode11paramStringEv
04def3b4 T _ZN3JSC21DebuggerStatementNode12emitBytecodeERNS_17BytecodeGeneratorEPNS_10RegisterIDE
04def404 T _ZN3JSC8NullNode12emitBytecodeERNS_17BytecodeGeneratorEPNS_10RegisterIDE
04def45c T _ZN3JSC16FunctionBodyNode4markEv
04def540 T _ZNK3JSC11ResolveNode6isPureERNS_17BytecodeGeneratorE
04def578 T _ZN3JSC12FuncDeclNode12emitBytecodeERNS_17BytecodeGeneratorEPNS_10RegisterIDE
04def598 T _ZN3JSC8ThisNode12emitBytecodeERNS_17BytecodeGeneratorEPNS_10RegisterIDE
04def5fc T _ZN3JSC10StringNode12emitBytecodeERNS_17BytecodeGeneratorEPNS_10RegisterIDE
04def650 T _ZN3JSC10NumberNode12emitBytecodeERNS_17BytecodeGeneratorEPNS_10RegisterIDE
04def6a8 T _ZN3JSC11BooleanNode12emitBytecodeERNS_17BytecodeGeneratorEPNS_10RegisterIDE
04def700 T _ZN3JSC16ParserRefCountedD0Ev
04def738 T _ZN3JSC16ParserRefCountedD1Ev
04def9f4 T _ZN3JSC13CaseBlockNode18tryOptimizedSwitchERN3WTF6VectorIPNS_14ExpressionNodeELj8EEERiS7_
04defb74 T _ZN3JSC16ParserRefCounted3refEv
04defcc0 T _ZN3JSC16ParserRefCounted5derefEv
04defdb8 T _ZN3JSC13ConstDeclNodeC1EPNS_12JSGlobalDataERKNS_10IdentifierEPNS_14ExpressionNodeE
04defe60 T _ZN3JSC16ParserRefCounted9hasOneRefEv
04deff14 T _ZN3JSC13ConstDeclNodeC2EPNS_12JSGlobalDataERKNS_10IdentifierEPNS_14ExpressionNodeE
04deffbc T _ZN3JSC9ForInNodeC1EPNS_12JSGlobalDataERKNS_10IdentifierEPNS_14ExpressionNodeES7_PNS_13StatementNodeEiii
04df0224 T _ZN3JSC9ForInNodeC2EPNS_12JSGlobalDataEPNS_14ExpressionNodeES4_PNS_13StatementNodeE
04df032c T _ZN3JSC9ForInNodeC1EPNS_12JSGlobalDataEPNS_14ExpressionNodeES4_PNS_13StatementNodeE
04df0434 T _ZN3JSC9ForInNodeC2EPNS_12JSGlobalDataERKNS_10IdentifierEPNS_14ExpressionNodeES7_PNS_13StatementNodeEiii
04df069c T _ZN3JSC14SourceElements6appendEN3WTF10PassRefPtrINS_13StatementNodeEEE
04df0760 T _ZN3JSC16FunctionBodyNode13finishParsingERKNS_10SourceCodeEPNS_13ParameterNodeE
04df093c T _ZN3JSC12NodeReleaser15releaseAllNodesEPNS_16ParserRefCountedE
04df0ab0 T _ZN3JSC13CaseBlockNodeD0Ev
04df0b70 T _ZN3JSC13CaseBlockNodeD1Ev
04df0c1c T _ZN3JSC13CaseBlockNodeD2Ev
04df0cc8 T _ZN3JSC14ClauseListNodeD0Ev
04df0d6c T _ZN3JSC14ClauseListNodeD1Ev
04df0dfc T _ZN3JSC14ClauseListNodeD2Ev
04df0e8c T _ZN3JSC13ArgumentsNodeD0Ev
04df0f14 T _ZN3JSC13ArgumentsNodeD1Ev
04df0f88 T _ZN3JSC13ArgumentsNodeD2Ev
04df0ffc T _ZN3JSC12NodeReleaser5adoptEN3WTF10PassRefPtrINS_16ParserRefCountedEEE
04df1168 T _ZN3JSC13ParameterNode12releaseNodesERNS_12NodeReleaserE
04df11d8 T _ZN3JSC14ClauseListNode12releaseNodesERNS_12NodeReleaserE
04df12a8 T _ZN3JSC23FunctionCallResolveNode12releaseNodesERNS_12NodeReleaserE
04df1318 T _ZN3JSC17ObjectLiteralNode12releaseNodesERNS_12NodeReleaserE
04df1388 T _ZN3JSC12NodeReleaser21adoptFunctionBodyNodeERN3WTF6RefPtrINS_16FunctionBodyNodeEEE
04df1468 T _ZN3JSC13ArgumentsNode12releaseNodesERNS_12NodeReleaserE
04df14d8 T _ZN3JSC16PropertyListNode12releaseNodesERNS_12NodeReleaserE
04df15a8 T _ZN3JSC18ConstStatementNode12releaseNodesERNS_12NodeReleaserE
04df1618 T _ZN3JSC9ArrayNode12releaseNodesERNS_12NodeReleaserE
04df1688 T _ZN3JSC9BlockNodeC1EPNS_12JSGlobalDataEPNS_14SourceElementsE
04df173c T _ZN3JSC9BlockNodeC2EPNS_12JSGlobalDataEPNS_14SourceElementsE
04df17f0 T _ZN3JSC16FunctionBodyNode31bytecodeForExceptionInfoReparseEPNS_14ScopeChainNodeE
04df1a54 T _ZN3JSC8EvalNode31bytecodeForExceptionInfoReparseEPNS_14ScopeChainNodeE
04df1d90 T _ZN3JSC13CaseBlockNode12releaseNodesERNS_12NodeReleaserE
04df1eac T _ZN3JSC12FuncDeclNode12releaseNodesERNS_12NodeReleaserE
04df1f50 T _ZN3JSC12FuncExprNode12releaseNodesERNS_12NodeReleaserE
04df1ff4 T _ZN3JSC13ParameterNodeD0Ev
04df20b4 T _ZN3JSC13ParameterNodeD1Ev
04df2184 T _ZN3JSC13ParameterNodeD2Ev
04df2254 T _ZN3JSC11ProgramNode16generateBytecodeEPNS_14ScopeChainNodeE
04df266c T _ZN3JSC16FunctionBodyNode16generateBytecodeEPNS_14ScopeChainNodeE
04df29e4 T _ZN3JSC13ScopeNodeDataC1EPNS_14SourceElementsEPN3WTF6VectorISt4pairINS_10IdentifierEjELj0EEEPNS4_INS3_6RefPtrINS_12FuncDeclNodeEEELj0EEEi
04df2b00 T _ZN3JSC9ScopeNodeC1EPNS_12JSGlobalDataERKNS_10SourceCodeEPNS_14SourceElementsEPN3WTF6VectorISt4pairINS_10IdentifierEjELj0EEEPNS9_INS8_6RefPtrINS_12FuncDeclNodeEEELj0EEEji
04df2c0c T _ZN3JSC9ScopeNodeC2EPNS_12JSGlobalDataERKNS_10SourceCodeEPNS_14SourceElementsEPN3WTF6VectorISt4pairINS_10IdentifierEjELj0EEEPNS9_INS8_6RefPtrINS_12FuncDeclNodeEEELj0EEEji
04df2d18 T _ZN3JSC16FunctionBodyNodeC1EPNS_12JSGlobalDataEPNS_14SourceElementsEPN3WTF6VectorISt4pairINS_10IdentifierEjELj0EEEPNS6_INS5_6RefPtrINS_12FuncDeclNodeEEELj0EEERKNS_10SourceCodeEji
04df2d94 T _ZN3JSC16FunctionBodyNode6createEPNS_12JSGlobalDataEPNS_14SourceElementsEPN3WTF6VectorISt4pairINS_10IdentifierEjELj0EEEPNS6_INS5_6RefPtrINS_12FuncDeclNodeEEELj0EEERKNS_10SourceCodeEji
04df2e54 T _ZN3JSC16FunctionBodyNodeC2EPNS_12JSGlobalDataEPNS_14SourceElementsEPN3WTF6VectorISt4pairINS_10IdentifierEjELj0EEEPNS6_INS5_6RefPtrINS_12FuncDeclNodeEEELj0EEERKNS_10SourceCodeEji
04df2ed0 T _ZN3JSC8EvalNodeC1EPNS_12JSGlobalDataEPNS_14SourceElementsEPN3WTF6VectorISt4pairINS_10IdentifierEjELj0EEEPNS6_INS5_6RefPtrINS_12FuncDeclNodeEEELj0EEERKNS_10SourceCodeEji
04df2f40 T _ZN3JSC8EvalNode6createEPNS_12JSGlobalDataEPNS_14SourceElementsEPN3WTF6VectorISt4pairINS_10IdentifierEjELj0EEEPNS6_INS5_6RefPtrINS_12FuncDeclNodeEEELj0EEERKNS_10SourceCodeEji
04df3000 T _ZN3JSC8EvalNodeC2EPNS_12JSGlobalDataEPNS_14SourceElementsEPN3WTF6VectorISt4pairINS_10IdentifierEjELj0EEEPNS6_INS5_6RefPtrINS_12FuncDeclNodeEEELj0EEERKNS_10SourceCodeEji
04df3070 T _ZN3JSC11ProgramNodeC1EPNS_12JSGlobalDataEPNS_14SourceElementsEPN3WTF6VectorISt4pairINS_10IdentifierEjELj0EEEPNS6_INS5_6RefPtrINS_12FuncDeclNodeEEELj0EEERKNS_10SourceCodeEji
04df30e0 T _ZN3JSC11ProgramNode6createEPNS_12JSGlobalDataEPNS_14SourceElementsEPN3WTF6VectorISt4pairINS_10IdentifierEjELj0EEEPNS6_INS5_6RefPtrINS_12FuncDeclNodeEEELj0EEERKNS_10SourceCodeEji
04df31a0 T _ZN3JSC11ProgramNodeC2EPNS_12JSGlobalDataEPNS_14SourceElementsEPN3WTF6VectorISt4pairINS_10IdentifierEjELj0EEEPNS6_INS5_6RefPtrINS_12FuncDeclNodeEEELj0EEERKNS_10SourceCodeEji
04df3210 T _ZN3JSC13ScopeNodeDataC2EPNS_14SourceElementsEPN3WTF6VectorISt4pairINS_10IdentifierEjELj0EEEPNS4_INS3_6RefPtrINS_12FuncDeclNodeEEELj0EEEi
04df332c T _ZN3JSC16PropertyListNodeD0Ev
04df33dc T _ZN3JSC16PropertyListNodeD1Ev
04df3478 T _ZN3JSC16PropertyListNodeD2Ev
04df3514 T _ZN3JSC20EvalFunctionCallNode12releaseNodesERNS_12NodeReleaserE
04df3584 T _ZN3JSC8EvalNode16generateBytecodeEPNS_14ScopeChainNodeE
04df38c8 T _ZN3JSC11ElementNodeD2Ev
04df3958 T _ZN3JSC12PropertyNodeD1Ev
04df3a28 T _ZN3JSC11ElementNodeD0Ev
04df3acc T _ZN3JSC12PropertyNodeD2Ev
04df3b9c T _ZN3JSC12PropertyNodeD0Ev
04df3c5c T _ZN3JSC11ElementNodeD1Ev
04df3cec T _ZN3JSC16ArgumentListNodeD1Ev
04df3d88 T _ZN3JSC14CaseClauseNodeD0Ev
04df3e58 T _ZN3JSC14CaseClauseNodeD2Ev
04df3f14 T _ZN3JSC14CaseClauseNodeD1Ev
04df3fd0 T _ZN3JSC10ReturnNodeD1Ev
04df4050 T _ZN3JSC16ArgumentListNodeD2Ev
04df40ec T _ZN3JSC16ArgumentListNodeD0Ev
04df419c T _ZN3JSC12FuncExprNode12emitBytecodeERNS_17BytecodeGeneratorEPNS_10RegisterIDE
04df424c T _ZN3JSC17TypeOfResolveNode12emitBytecodeERNS_17BytecodeGeneratorEPNS_10RegisterIDE
04df4454 T _ZN3JSC23FunctionCallResolveNode12emitBytecodeERNS_17BytecodeGeneratorEPNS_10RegisterIDE
04df49b8 T _ZN3JSC20EvalFunctionCallNode12emitBytecodeERNS_17BytecodeGeneratorEPNS_10RegisterIDE
04df4c64 T _ZN3JSC11ResolveNode12emitBytecodeERNS_17BytecodeGeneratorEPNS_10RegisterIDE
04df4e7c T _ZN3JSC23ThrowableExpressionData14emitThrowErrorERNS_17BytecodeGeneratorENS_9ErrorTypeEPKcRKNS_10IdentifierE
04df52d8 T _ZN3JSC23ThrowableExpressionData14emitThrowErrorERNS_17BytecodeGeneratorENS_9ErrorTypeEPKc
04df555c T _ZN3JSC9BreakNode12emitBytecodeERNS_17BytecodeGeneratorEPNS_10RegisterIDE
04df56ac T _ZN3JSC12ContinueNode12emitBytecodeERNS_17BytecodeGeneratorEPNS_10RegisterIDE
04df57fc T _ZN3JSC15AssignErrorNode12emitBytecodeERNS_17BytecodeGeneratorEPNS_10RegisterIDE
04df5838 T _ZN3JSC15PrefixErrorNode12emitBytecodeERNS_17BytecodeGeneratorEPNS_10RegisterIDE
04df5888 T _ZN3JSC16PostfixErrorNode12emitBytecodeERNS_17BytecodeGeneratorEPNS_10RegisterIDE
04df58d8 T _ZN3JSC10RegExpNode12emitBytecodeERNS_17BytecodeGeneratorEPNS_10RegisterIDE
04df5b9c T _ZN3JSC17PrefixResolveNode12emitBytecodeERNS_17BytecodeGeneratorEPNS_10RegisterIDE
04df6214 T _ZN3JSC18PostfixResolveNode12emitBytecodeERNS_17BytecodeGeneratorEPNS_10RegisterIDE
04df676c T _ZN3JSC17DeleteResolveNode12emitBytecodeERNS_17BytecodeGeneratorEPNS_10RegisterIDE
04df6a50 T _ZN3JSC9ScopeNode12releaseNodesERNS_12NodeReleaserE
04df6b2c T _ZN3JSC7TryNode12releaseNodesERNS_12NodeReleaserE
04df6c48 T _ZN3JSC9BlockNode12releaseNodesERNS_12NodeReleaserE
04df6d14 T _ZN3JSC9LabelNode12releaseNodesERNS_12NodeReleaserE
04df6d84 T _ZN3JSC12FuncExprNode12makeFunctionEPNS_9ExecStateEPNS_14ScopeChainNodeE
04df6f60 T _ZN3JSC16VarStatementNodeD0Ev
04df6ff4 T _ZN3JSC16VarStatementNodeD1Ev
04df7074 T _ZN3JSC16VarStatementNodeD2Ev
04df70f4 T _ZN3JSC9BlockNodeD0Ev
04df71b4 T _ZN3JSC9BlockNodeD1Ev
04df7260 T _ZN3JSC9BlockNodeD2Ev
04df730c T _ZN3JSC18ConstStatementNodeD0Ev
04df73a0 T _ZN3JSC18ConstStatementNodeD1Ev
04df7420 T _ZN3JSC18ConstStatementNodeD2Ev
04df74a0 T _ZN3JSC10ReturnNodeD2Ev
04df7520 T _ZN3JSC9ForInNodeD0Ev
04df763c T _ZN3JSC9ForInNodeD1Ev
04df7774 T _ZN3JSC9ForInNodeD2Ev
04df78ac T _ZN3JSC7ForNodeD0Ev
04df7994 T _ZN3JSC7ForNodeD1Ev
04df7a68 T _ZN3JSC7ForNodeD2Ev
04df7b3c T _ZN3JSC9WhileNodeD0Ev
04df7bec T _ZN3JSC9WhileNodeD1Ev
04df7c88 T _ZN3JSC9WhileNodeD2Ev
04df7d24 T _ZN3JSC11DoWhileNodeD0Ev
04df7dd4 T _ZN3JSC11DoWhileNodeD1Ev
04df7e70 T _ZN3JSC11DoWhileNodeD2Ev
04df7f0c T _ZN3JSC6IfNodeD0Ev
04df7fbc T _ZN3JSC6IfNodeD1Ev
04df8058 T _ZN3JSC6IfNodeD2Ev
04df80f4 T _ZN3JSC10IfElseNodeD0Ev
04df817c T _ZN3JSC10IfElseNodeD1Ev
04df81f0 T _ZN3JSC10IfElseNodeD2Ev
04df8264 T _ZN3JSC12FuncDeclNodeD0Ev
04df8368 T _ZN3JSC12FuncDeclNodeD1Ev
04df8488 T _ZN3JSC12FuncDeclNodeD2Ev
04df85a8 T _ZN3JSC9ScopeNodeD0Ev
04df87ac T _ZN3JSC9ScopeNodeD1Ev
04df899c T _ZN3JSC9ScopeNodeD2Ev
04df8b8c T _ZN3JSC16FunctionBodyNodeD0Ev
04df8cb8 T _ZN3JSC16FunctionBodyNodeD1Ev
04df8dd4 T _ZN3JSC16FunctionBodyNodeD2Ev
04df8ef0 T _ZN3JSC7TryNodeD0Ev
04df8ff4 T _ZN3JSC7TryNodeD1Ev
04df90e4 T _ZN3JSC7TryNodeD2Ev
04df91d4 T _ZN3JSC9ThrowNodeD0Ev
04df9268 T _ZN3JSC9ThrowNodeD1Ev
04df92e8 T _ZN3JSC9ThrowNodeD2Ev
04df9368 T _ZN3JSC9LabelNodeD0Ev
04df9434 T _ZN3JSC9LabelNodeD1Ev
04df951c T _ZN3JSC9LabelNodeD2Ev
04df9604 T _ZN3JSC10SwitchNodeD0Ev
04df96b4 T _ZN3JSC10SwitchNodeD1Ev
04df9750 T _ZN3JSC10SwitchNodeD2Ev
04df97ec T _ZN3JSC8WithNodeD0Ev
04df989c T _ZN3JSC8WithNodeD1Ev
04df9938 T _ZN3JSC8WithNodeD2Ev
04df99d4 T _ZN3JSC10ReturnNodeD0Ev
04df9a68 T _ZN3JSC19BracketAccessorNodeD0Ev
04df9b18 T _ZN3JSC19BracketAccessorNodeD1Ev
04df9bb4 T _ZN3JSC19BracketAccessorNodeD2Ev
04df9c50 T _ZN3JSC17ObjectLiteralNodeD0Ev
04df9ce4 T _ZN3JSC17ObjectLiteralNodeD1Ev
04df9d64 T _ZN3JSC17ObjectLiteralNodeD2Ev
04df9de4 T _ZN3JSC9ArrayNodeD0Ev
04df9e78 T _ZN3JSC9ArrayNodeD1Ev
04df9ef8 T _ZN3JSC15ConditionalNodeD2Ev
04df9fb0 T _ZN3JSC13LogicalOpNodeD0Ev
04dfa060 T _ZN3JSC13LogicalOpNodeD1Ev
04dfa0fc T _ZN3JSC13LogicalOpNodeD2Ev
04dfa198 T _ZN3JSC12BinaryOpNodeD0Ev
04dfa248 T _ZN3JSC12BinaryOpNodeD1Ev
04dfa2e4 T _ZN3JSC12BinaryOpNodeD2Ev
04dfa380 T _ZN3JSC11UnaryOpNodeD0Ev
04dfa414 T _ZN3JSC11UnaryOpNodeD1Ev
04dfa494 T _ZN3JSC11UnaryOpNodeD2Ev
04dfa514 T _ZN3JSC15PrefixErrorNodeD0Ev
04dfa5a8 T _ZN3JSC15PrefixErrorNodeD1Ev
04dfa628 T _ZN3JSC15PrefixErrorNodeD2Ev
04dfa6a8 T _ZN3JSC13PrefixDotNodeD0Ev
04dfa774 T _ZN3JSC13PrefixDotNodeD1Ev
04dfa82c T _ZN3JSC13PrefixDotNodeD2Ev
04dfa8e4 T _ZN3JSC17PrefixBracketNodeD0Ev
04dfa994 T _ZN3JSC17PrefixBracketNodeD1Ev
04dfaa30 T _ZN3JSC17PrefixBracketNodeD2Ev
04dfaacc T _ZN3JSC15TypeOfValueNodeD0Ev
04dfab60 T _ZN3JSC15TypeOfValueNodeD1Ev
04dfabe0 T _ZN3JSC15TypeOfValueNodeD2Ev
04dfac60 T _ZN3JSC8VoidNodeD0Ev
04dfacf4 T _ZN3JSC8VoidNodeD1Ev
04dfad74 T _ZN3JSC8VoidNodeD2Ev
04dfadf4 T _ZN3JSC15DeleteValueNodeD0Ev
04dfae88 T _ZN3JSC15DeleteValueNodeD1Ev
04dfaf08 T _ZN3JSC15DeleteValueNodeD2Ev
04dfaf88 T _ZN3JSC13DeleteDotNodeD0Ev
04dfb054 T _ZN3JSC13DeleteDotNodeD1Ev
04dfb10c T _ZN3JSC13DeleteDotNodeD2Ev
04dfb1c4 T _ZN3JSC17DeleteBracketNodeD0Ev
04dfb274 T _ZN3JSC17DeleteBracketNodeD1Ev
04dfb310 T _ZN3JSC17DeleteBracketNodeD2Ev
04dfb3ac T _ZN3JSC16PostfixErrorNodeD0Ev
04dfb440 T _ZN3JSC16PostfixErrorNodeD1Ev
04dfb4c0 T _ZN3JSC16PostfixErrorNodeD2Ev
04dfb540 T _ZN3JSC14PostfixDotNodeD0Ev
04dfb60c T _ZN3JSC14PostfixDotNodeD1Ev
04dfb6c4 T _ZN3JSC14PostfixDotNodeD2Ev
04dfb77c T _ZN3JSC18PostfixBracketNodeD0Ev
04dfb82c T _ZN3JSC18PostfixBracketNodeD1Ev
04dfb8c8 T _ZN3JSC18PostfixBracketNodeD2Ev
04dfb964 T _ZN3JSC19FunctionCallDotNodeD0Ev
04dfba4c T _ZN3JSC19FunctionCallDotNodeD1Ev
04dfbb20 T _ZN3JSC19FunctionCallDotNodeD2Ev
04dfbbf4 T _ZN3JSC23FunctionCallBracketNodeD0Ev
04dfbcc0 T _ZN3JSC23FunctionCallBracketNodeD1Ev
04dfbd78 T _ZN3JSC23FunctionCallBracketNodeD2Ev
04dfbe30 T _ZN3JSC23FunctionCallResolveNodeD0Ev
04dfbefc T _ZN3JSC23FunctionCallResolveNodeD1Ev
04dfbfe4 T _ZN3JSC23FunctionCallResolveNodeD2Ev
04dfc0cc T _ZN3JSC21FunctionCallValueNodeD0Ev
04dfc17c T _ZN3JSC21FunctionCallValueNodeD1Ev
04dfc218 T _ZN3JSC21FunctionCallValueNodeD2Ev
04dfc2b4 T _ZN3JSC20EvalFunctionCallNodeD0Ev
04dfc348 T _ZN3JSC20EvalFunctionCallNodeD1Ev
04dfc3c8 T _ZN3JSC20EvalFunctionCallNodeD2Ev
04dfc448 T _ZN3JSC11NewExprNodeD0Ev
04dfc4f8 T _ZN3JSC11NewExprNodeD1Ev
04dfc594 T _ZN3JSC11NewExprNodeD2Ev
04dfc630 T _ZN3JSC15DotAccessorNodeD0Ev
04dfc6fc T _ZN3JSC15DotAccessorNodeD1Ev
04dfc7b4 T _ZN3JSC15DotAccessorNodeD2Ev
04dfc86c T _ZN3JSC9ArrayNodeD2Ev
04dfc8ec T _ZN3JSC12FuncExprNodeD0Ev
04dfc9f0 T _ZN3JSC12FuncExprNodeD1Ev
04dfcb10 T _ZN3JSC12FuncExprNodeD2Ev
04dfcc30 T _ZN3JSC13ConstDeclNodeD0Ev
04dfcd18 T _ZN3JSC13ConstDeclNodeD1Ev
04dfce1c T _ZN3JSC13ConstDeclNodeD2Ev
04dfcf20 T _ZN3JSC9CommaNodeD0Ev
04dfcfd0 T _ZN3JSC9CommaNodeD1Ev
04dfd06c T _ZN3JSC9CommaNodeD2Ev
04dfd108 T _ZN3JSC21ReadModifyBracketNodeD0Ev
04dfd1d4 T _ZN3JSC21ReadModifyBracketNodeD1Ev
04dfd28c T _ZN3JSC21ReadModifyBracketNodeD2Ev
04dfd344 T _ZN3JSC17AssignBracketNodeD0Ev
04dfd410 T _ZN3JSC17AssignBracketNodeD1Ev
04dfd4c8 T _ZN3JSC17AssignBracketNodeD2Ev
04dfd580 T _ZN3JSC15AssignErrorNodeD0Ev
04dfd630 T _ZN3JSC15AssignErrorNodeD1Ev
04dfd6cc T _ZN3JSC15AssignErrorNodeD2Ev
04dfd768 T _ZN3JSC17ReadModifyDotNodeD0Ev
04dfd850 T _ZN3JSC17ReadModifyDotNodeD1Ev
04dfd924 T _ZN3JSC17ReadModifyDotNodeD2Ev
04dfd9f8 T _ZN3JSC13AssignDotNodeD0Ev
04dfdae0 T _ZN3JSC13AssignDotNodeD1Ev
04dfdbb4 T _ZN3JSC13AssignDotNodeD2Ev
04dfdc88 T _ZN3JSC17AssignResolveNodeD0Ev
04dfdd54 T _ZN3JSC17AssignResolveNodeD1Ev
04dfde3c T _ZN3JSC17AssignResolveNodeD2Ev
04dfdf24 T _ZN3JSC21ReadModifyResolveNodeD0Ev
04dfdff0 T _ZN3JSC21ReadModifyResolveNodeD1Ev
04dfe0d8 T _ZN3JSC21ReadModifyResolveNodeD2Ev
04dfe1c0 T _ZN3JSC15ConditionalNodeD0Ev
04dfe28c T _ZN3JSC15ConditionalNodeD1Ev
04dfe344 T _ZN3JSC17ExprStatementNode12emitBytecodeERNS_17BytecodeGeneratorEPNS_10RegisterIDE
04dfe4c8 T _ZN3JSC9CommaNode12emitBytecodeERNS_17BytecodeGeneratorEPNS_10RegisterIDE
04dfe780 T _ZN3JSC17AssignResolveNode12emitBytecodeERNS_17BytecodeGeneratorEPNS_10RegisterIDE
04dfefd0 T _ZN3JSC13LogicalOpNode12emitBytecodeERNS_17BytecodeGeneratorEPNS_10RegisterIDE
04dff414 T _ZN3JSC15DeleteValueNode12emitBytecodeERNS_17BytecodeGeneratorEPNS_10RegisterIDE
04dff5cc T _ZN3JSC16ArgumentListNode12emitBytecodeERNS_17BytecodeGeneratorEPNS_10RegisterIDE
04dff750 T _ZN3JSC17ObjectLiteralNode12emitBytecodeERNS_17BytecodeGeneratorEPNS_10RegisterIDE
04dff95c T _ZN3JSC13DeleteDotNode12emitBytecodeERNS_17BytecodeGeneratorEPNS_10RegisterIDE
04dffcc0 T _ZN3JSC7TryNode12emitBytecodeERNS_17BytecodeGeneratorEPNS_10RegisterIDE
04e007b4 T _ZN3JSC9ThrowNode12emitBytecodeERNS_17BytecodeGeneratorEPNS_10RegisterIDE
04e00b0c T _ZN3JSC9LabelNode12emitBytecodeERNS_17BytecodeGeneratorEPNS_10RegisterIDE
04e00d80 T _ZN3JSC8WithNode12emitBytecodeERNS_17BytecodeGeneratorEPNS_10RegisterIDE
04e011a0 T _ZN3JSC10ReturnNode12emitBytecodeERNS_17BytecodeGeneratorEPNS_10RegisterIDE
04e014c0 T _ZN3JSC11ElementNode12releaseNodesERNS_12NodeReleaserE
04e01590 T _ZN3JSC9ThrowNode12releaseNodesERNS_12NodeReleaserE
04e01600 T _ZN3JSC14CaseClauseNode12releaseNodesERNS_12NodeReleaserE
04e01670 T _ZN3JSC8WithNode12releaseNodesERNS_12NodeReleaserE
04e01740 T _ZN3JSC9WhileNode12releaseNodesERNS_12NodeReleaserE
04e01810 T _ZN3JSC15PrefixErrorNode12releaseNodesERNS_12NodeReleaserE
04e01880 T _ZN3JSC17PrefixBracketNode12releaseNodesERNS_12NodeReleaserE
04e01950 T _ZN3JSC10ReturnNode12releaseNodesERNS_12NodeReleaserE
04e019c0 T _ZN3JSC11NewExprNode12releaseNodesERNS_12NodeReleaserE
04e01a90 T _ZN3JSC16ArgumentListNode12releaseNodesERNS_12NodeReleaserE
04e01b60 T _ZN3JSC17ReadModifyDotNode12releaseNodesERNS_12NodeReleaserE
04e01c30 T _ZN3JSC16PostfixErrorNode12releaseNodesERNS_12NodeReleaserE
04e01ca0 T _ZN3JSC14PostfixDotNode12releaseNodesERNS_12NodeReleaserE
04e01d10 T _ZN3JSC10SwitchNode12releaseNodesERNS_12NodeReleaserE
04e01de0 T _ZN3JSC15DotAccessorNode12releaseNodesERNS_12NodeReleaserE
04e01e50 T _ZN3JSC12PropertyNode12releaseNodesERNS_12NodeReleaserE
04e01ec0 T _ZN3JSC15TypeOfValueNode12releaseNodesERNS_12NodeReleaserE
04e01f30 T _ZN3JSC15DeleteValueNode12releaseNodesERNS_12NodeReleaserE
04e01fa0 T _ZN3JSC13DeleteDotNode12releaseNodesERNS_12NodeReleaserE
04e02010 T _ZN3JSC9ForInNode12releaseNodesERNS_12NodeReleaserE
04e02174 T _ZN3JSC21FunctionCallValueNode12releaseNodesERNS_12NodeReleaserE
04e02244 T _ZN3JSC19FunctionCallDotNode12releaseNodesERNS_12NodeReleaserE
04e02314 T _ZN3JSC23FunctionCallBracketNode12releaseNodesERNS_12NodeReleaserE
04e02430 T _ZN3JSC11DoWhileNode12releaseNodesERNS_12NodeReleaserE
04e02500 T _ZN3JSC16VarStatementNode12releaseNodesERNS_12NodeReleaserE
04e02570 T _ZN3JSC13ConstDeclNode12releaseNodesERNS_12NodeReleaserE
04e02640 T _ZN3JSC19BracketAccessorNode12releaseNodesERNS_12NodeReleaserE
04e02710 T _ZN3JSC17AssignResolveNode12releaseNodesERNS_12NodeReleaserE
04e02780 T _ZN3JSC21ReadModifyResolveNode12releaseNodesERNS_12NodeReleaserE
04e027f0 T _ZN3JSC13PrefixDotNode12releaseNodesERNS_12NodeReleaserE
04e02860 T _ZN3JSC21ReadModifyBracketNode12releaseNodesERNS_12NodeReleaserE
04e0297c T _ZN3JSC17AssignBracketNode12releaseNodesERNS_12NodeReleaserE
04e02a98 T _ZN3JSC17DeleteBracketNode12releaseNodesERNS_12NodeReleaserE
04e02b68 T _ZN3JSC13LogicalOpNode12releaseNodesERNS_12NodeReleaserE
04e02c38 T _ZN3JSC11UnaryOpNode12releaseNodesERNS_12NodeReleaserE
04e02ca8 T _ZN3JSC8VoidNode12releaseNodesERNS_12NodeReleaserE
04e02d18 T _ZN3JSC7ForNode12releaseNodesERNS_12NodeReleaserE
04e02e7c T _ZN3JSC18PostfixBracketNode12releaseNodesERNS_12NodeReleaserE
04e02f4c T _ZN3JSC15AssignErrorNode12releaseNodesERNS_12NodeReleaserE
04e0301c T _ZN3JSC9CommaNode12releaseNodesERNS_12NodeReleaserE
04e030ec T _ZN3JSC15ConditionalNode12releaseNodesERNS_12NodeReleaserE
04e03208 T _ZN3JSC6IfNode12releaseNodesERNS_12NodeReleaserE
04e032d8 T _ZN3JSC10IfElseNode12releaseNodesERNS_12NodeReleaserE
04e03370 T _ZN3JSC13AssignDotNode12releaseNodesERNS_12NodeReleaserE
04e03440 T _ZN3JSC12BinaryOpNode12releaseNodesERNS_12NodeReleaserE
04e03510 T _ZN3JSC7ForNode12emitBytecodeERNS_17BytecodeGeneratorEPNS_10RegisterIDE
04e03d24 T _ZN3JSC9WhileNode12emitBytecodeERNS_17BytecodeGeneratorEPNS_10RegisterIDE
04e041a4 T _ZN3JSC9ForInNode12emitBytecodeERNS_17BytecodeGeneratorEPNS_10RegisterIDE
04e050ec T _ZN3JSC21FunctionCallValueNode12emitBytecodeERNS_17BytecodeGeneratorEPNS_10RegisterIDE
04e05378 T _ZN3JSC16VarStatementNode12emitBytecodeERNS_17BytecodeGeneratorEPNS_10RegisterIDE
04e054ec T _ZN3JSC16PropertyListNode12emitBytecodeERNS_17BytecodeGeneratorEPNS_10RegisterIDE
04e05850 T _ZN3JSC10IfElseNode12emitBytecodeERNS_17BytecodeGeneratorEPNS_10RegisterIDE
04e05dc8 T _ZN3JSC14PostfixDotNode12emitBytecodeERNS_17BytecodeGeneratorEPNS_10RegisterIDE
04e063c4 T _ZN3JSC15DotAccessorNode12emitBytecodeERNS_17BytecodeGeneratorEPNS_10RegisterIDE
04e06728 T _ZN3JSC11DoWhileNode12emitBytecodeERNS_17BytecodeGeneratorEPNS_10RegisterIDE
04e06bc8 T _ZN3JSC17DeleteBracketNode12emitBytecodeERNS_17BytecodeGeneratorEPNS_10RegisterIDE
04e0706c T _ZN3JSC15ConditionalNode12emitBytecodeERNS_17BytecodeGeneratorEPNS_10RegisterIDE
04e075d8 T _ZN3JSC11NewExprNode12emitBytecodeERNS_17BytecodeGeneratorEPNS_10RegisterIDE
04e077ec T _ZN3JSC13ConstDeclNode14emitCodeSingleERNS_17BytecodeGeneratorE
04e07be8 T _ZN3JSC19FunctionCallDotNode12emitBytecodeERNS_17BytecodeGeneratorEPNS_10RegisterIDE
04e08084 T _ZN3JSC13PrefixDotNode12emitBytecodeERNS_17BytecodeGeneratorEPNS_10RegisterIDE
04e08664 T _ZN3JSC9ArrayNode12emitBytecodeERNS_17BytecodeGeneratorEPNS_10RegisterIDE
04e08a84 T _ZN3JSC6IfNode12emitBytecodeERNS_17BytecodeGeneratorEPNS_10RegisterIDE
04e08e00 T _ZN3JSC18PostfixBracketNode12emitBytecodeERNS_17BytecodeGeneratorEPNS_10RegisterIDE
04e09540 T _ZN3JSC23FunctionCallBracketNode12emitBytecodeERNS_17BytecodeGeneratorEPNS_10RegisterIDE
04e09af0 T _ZN3JSC8VoidNode12emitBytecodeERNS_17BytecodeGeneratorEPNS_10RegisterIDE
04e09e60 T _ZN3JSC18ConstStatementNode12emitBytecodeERNS_17BytecodeGeneratorEPNS_10RegisterIDE
04e09fd4 T _ZN3JSC11UnaryOpNode12emitBytecodeERNS_17BytecodeGeneratorEPNS_10RegisterIDE
04e0a1b4 T _ZN3JSC21ReadModifyResolveNode12emitBytecodeERNS_17BytecodeGeneratorEPNS_10RegisterIDE
04e0b2b0 T _ZN3JSC15TypeOfValueNode12emitBytecodeERNS_17BytecodeGeneratorEPNS_10RegisterIDE
04e0b608 T _ZN3JSC17PrefixBracketNode12emitBytecodeERNS_17BytecodeGeneratorEPNS_10RegisterIDE
04e0bd2c T _ZN3JSC16FunctionBodyNode12emitBytecodeERNS_17BytecodeGeneratorEPNS_10RegisterIDE
04e0c034 T _ZN3JSC8EvalNode12emitBytecodeERNS_17BytecodeGeneratorEPNS_10RegisterIDE
04e0c318 T _ZN3JSC9BlockNode12emitBytecodeERNS_17BytecodeGeneratorEPNS_10RegisterIDE
04e0c52c T _ZN3JSC11ProgramNode12emitBytecodeERNS_17BytecodeGeneratorEPNS_10RegisterIDE
04e0c810 T _ZN3JSC13CaseBlockNode20emitBytecodeForBlockERNS_17BytecodeGeneratorEPNS_10RegisterIDES4_
04e0d710 T _ZN3JSC10SwitchNode12emitBytecodeERNS_17BytecodeGeneratorEPNS_10RegisterIDE
04e0d95c T _ZN3JSC19ReverseBinaryOpNode12emitBytecodeERNS_17BytecodeGeneratorEPNS_10RegisterIDE
04e0df00 T _ZN3JSC15StrictEqualNode12emitBytecodeERNS_17BytecodeGeneratorEPNS_10RegisterIDE
04e0e414 T _ZN3JSC9EqualNode12emitBytecodeERNS_17BytecodeGeneratorEPNS_10RegisterIDE
04e0eb9c T _ZN3JSC12BinaryOpNode12emitBytecodeERNS_17BytecodeGeneratorEPNS_10RegisterIDE
04e0f39c T _ZN3JSC21ReadModifyBracketNode12emitBytecodeERNS_17BytecodeGeneratorEPNS_10RegisterIDE
04e1002c T _ZN3JSC19BracketAccessorNode12emitBytecodeERNS_17BytecodeGeneratorEPNS_10RegisterIDE
04e10688 T _ZN3JSC17ReadModifyDotNode12emitBytecodeERNS_17BytecodeGeneratorEPNS_10RegisterIDE
04e10fcc T _ZN3JSC13AssignDotNode12emitBytecodeERNS_17BytecodeGeneratorEPNS_10RegisterIDE
04e116f0 T _ZN3JSC14InstanceOfNode12emitBytecodeERNS_17BytecodeGeneratorEPNS_10RegisterIDE
04e11fb8 T _ZN3JSC21ThrowableBinaryOpNode12emitBytecodeERNS_17BytecodeGeneratorEPNS_10RegisterIDE
04e126c0 T _ZN3JSC17AssignBracketNode12emitBytecodeERNS_17BytecodeGeneratorEPNS_10RegisterIDE
04e1312c T _ZN3JSC17NumberConstructor16getConstructDataERNS_13ConstructDataE
04e13140 T _ZN3JSC17NumberConstructor11getCallDataERNS_8CallDataE
04e13254 T _ZN3JSC17NumberConstructor18getOwnPropertySlotEPNS_9ExecStateERKNS_10IdentifierERNS_12PropertySlotE
04e1364c T _ZN3JSC17NumberConstructorC1EPNS_9ExecStateEN3WTF10PassRefPtrINS_9StructureEEEPNS_15NumberPrototypeE
04e13880 T _ZN3JSC17NumberConstructorC2EPNS_9ExecStateEN3WTF10PassRefPtrINS_9StructureEEEPNS_15NumberPrototypeE
04e13cf8 T _ZN3JSC12NumberObject11getJSNumberEv
04e13d00 T _ZN3JSC12NumberObjectC1EN3WTF10PassRefPtrINS_9StructureEEE
04e13d38 T _ZN3JSC34constructNumberFromImmediateNumberEPNS_9ExecStateENS_10JSValuePtrE
04e13e68 T _ZN3JSC15constructNumberEPNS_9ExecStateEPNS_12JSNumberCellE
04e13f98 T _ZN3JSC12NumberObjectC2EN3WTF10PassRefPtrINS_9StructureEEE
04e152dc T _ZN3JSC15NumberPrototypeC1EPNS_9ExecStateEN3WTF10PassRefPtrINS_9StructureEEEPS5_
04e158f0 T _ZN3JSC15NumberPrototypeC2EPNS_9ExecStateEN3WTF10PassRefPtrINS_9StructureEEEPS5_
04e17ec4 T _ZN3JSC17ObjectConstructor16getConstructDataERNS_13ConstructDataE
04e17ed8 T _ZN3JSC17ObjectConstructor11getCallDataERNS_8CallDataE
04e1801c T _ZN3JSC17ObjectConstructorC1EPNS_9ExecStateEN3WTF10PassRefPtrINS_9StructureEEEPNS_15ObjectPrototypeE
04e18380 T _ZN3JSC17ObjectConstructorC2EPNS_9ExecStateEN3WTF10PassRefPtrINS_9StructureEEEPNS_15ObjectPrototypeE
04e19198 T _ZN3JSC23objectProtoFuncToStringEPNS_9ExecStateEPNS_8JSObjectENS_10JSValuePtrERKNS_7ArgListE
04e1989c T _ZN3JSC15ObjectPrototypeC1EPNS_9ExecStateEN3WTF10PassRefPtrINS_9StructureEEEPS5_
04e1a164 T _ZN3JSC15ObjectPrototypeC2EPNS_9ExecStateEN3WTF10PassRefPtrINS_9StructureEEEPS5_
04e1aa2c T _ZN3JSC19strictEqualSlowCaseENS_10JSValuePtrES0_
04e1aa70 T _ZN3JSC21throwOutOfMemoryErrorEPNS_9ExecStateE
04e1aac0 T _ZN3JSC11strictEqualENS_10JSValuePtrES0_
04e1ab80 T _ZN3JSC13equalSlowCaseEPNS_9ExecStateENS_10JSValuePtrES2_
04e1abc4 T _ZN3JSC5equalEPNS_9ExecStateENS_10JSValuePtrES2_
04e1ac3c T _ZN3JSC6Parser5parseEPNS_12JSGlobalDataEPiPNS_7UStringE
04e1ae10 T _ZN3JSC6Parser16didFinishParsingEPNS_14SourceElementsEPNS_20ParserRefCountedDataIN3WTF6VectorISt4pairINS_10IdentifierEjELj0EEEEEPNS3_INS5_INS4_6RefPtrINS_12FuncDeclNodeEEELj0EEEEEjii
04e1af3c T _ZN3JSC6Parser14reparseInPlaceEPNS_12JSGlobalDataEPNS_16FunctionBodyNodeE
04e1b1d4 T _ZN3JSC17PropertyNameArray3addEPNS_7UString3RepE
04e1b448 T _ZN3JSC12PropertySlot14functionGetterEPNS_9ExecStateERKNS_10IdentifierERKS0_
04e1b52c T _ZN3JSC17PrototypeFunction11getCallDataERNS_8CallDataE
04e1b53c T _ZN3JSC17PrototypeFunctionC1EPNS_9ExecStateEN3WTF10PassRefPtrINS_9StructureEEEiRKNS_10IdentifierEPFNS_10JSValuePtrES2_PNS_8JSObjectESA_RKNS_7ArgListEE
04e1b8b8 T _ZN3JSC17PrototypeFunctionC2EPNS_9ExecStateEN3WTF10PassRefPtrINS_9StructureEEEiRKNS_10IdentifierEPFNS_10JSValuePtrES2_PNS_8JSObjectESA_RKNS_7ArgListEE
04e1bc34 T _ZN3JSC17PrototypeFunctionC1EPNS_9ExecStateEiRKNS_10IdentifierEPFNS_10JSValuePtrES2_PNS_8JSObjectES6_RKNS_7ArgListEE
04e1bff4 T _ZN3JSC17PrototypeFunctionC2EPNS_9ExecStateEiRKNS_10IdentifierEPFNS_10JSValuePtrES2_PNS_8JSObjectES6_RKNS_7ArgListEE
04e1c3b4 T _ZN3JSC6RegExp6createEPNS_12JSGlobalDataERKNS_7UStringES5_
04e1c560 T _ZN3JSC6RegExp6createEPNS_12JSGlobalDataERKNS_7UStringE
04e1c654 T _ZN3JSC6RegExpD1Ev
04e1c710 T _ZN3JSC6RegExpD2Ev
04e1c7cc T _ZN3JSC6RegExp5matchERKNS_7UStringEiPN3WTF11OwnArrayPtrIiEE
04e1c974 T _ZN3JSC17RegExpConstructor16getConstructDataERNS_13ConstructDataE
04e1c988 T _ZN3JSC17RegExpConstructor11getCallDataERNS_8CallDataE
04e1c99c T _ZNK3JSC17RegExpConstructor5inputEv
04e1c9a4 T _ZN3JSC17RegExpConstructor12setMultilineEb
04e1c9b8 T _ZNK3JSC17RegExpConstructor9multilineEv
04e1c9c8 T _ZNK3JSC17RegExpConstructor10getBackrefEPNS_9ExecStateEj
04e1cdd8 T _ZN3JSC17RegExpConstructor18getOwnPropertySlotEPNS_9ExecStateERKNS_10IdentifierERNS_12PropertySlotE
04e1d0ec T _ZNK3JSC17RegExpConstructor15getRightContextEPNS_9ExecStateE
04e1d1d4 T _ZNK3JSC17RegExpConstructor14getLeftContextEPNS_9ExecStateE
04e1d2b4 T _ZNK3JSC17RegExpConstructor12getLastParenEPNS_9ExecStateE
04e1d3b8 T _ZN3JSC17RegExpConstructor8setInputERKNS_7UStringE
04e1d438 T _ZN3JSC17RegExpConstructor12performMatchEPNS_6RegExpERKNS_7UStringEiRiS6_PPi
04e1d714 T _ZN3JSC18RegExpMatchesArray17fillArrayInstanceEPNS_9ExecStateE
04e1d978 T _ZN3JSC18RegExpMatchesArrayD0Ev
04e1da94 T _ZN3JSC18RegExpMatchesArrayD1Ev
04e1db94 T _ZN3JSC18RegExpMatchesArrayD2Ev
04e1dc94 T _ZN3JSC15constructRegExpEPNS_9ExecStateERKNS_7ArgListE
04e1e194 T _ZN3JSC18RegExpMatchesArrayC1EPNS_9ExecStateEPNS_24RegExpConstructorPrivateE
04e1e430 T _ZNK3JSC17RegExpConstructor14arrayOfMatchesEPNS_9ExecStateE
04e1e4a0 T _ZN3JSC18RegExpMatchesArrayC2EPNS_9ExecStateEPNS_24RegExpConstructorPrivateE
04e1e73c T _ZN3JSC17RegExpConstructorC2EPNS_9ExecStateEN3WTF10PassRefPtrINS_9StructureEEEPNS_15RegExpPrototypeE
04e1e9c0 T _ZN3JSC17RegExpConstructorC1EPNS_9ExecStateEN3WTF10PassRefPtrINS_9StructureEEEPNS_15RegExpPrototypeE
04e1ec44 T _ZN3JSC17RegExpConstructor3putEPNS_9ExecStateERKNS_10IdentifierENS_10JSValuePtrERNS_15PutPropertySlotE
04e1ef14 T _ZN3JSC12RegExpObject11getCallDataERNS_8CallDataE
04e1f070 T _ZN3JSC12RegExpObject18getOwnPropertySlotEPNS_9ExecStateERKNS_10IdentifierERNS_12PropertySlotE
04e1f32c T _ZN3JSC12RegExpObjectC2EN3WTF10PassRefPtrINS_9StructureEEENS2_INS_6RegExpEEE
04e1f434 T _ZN3JSC12RegExpObjectD2Ev
04e1f5ec T _ZN3JSC12RegExpObject5matchEPNS_9ExecStateERKNS_7ArgListE
04e1fac0 T _ZN3JSC12RegExpObject4execEPNS_9ExecStateERKNS_7ArgListE
04e1fb90 T _ZN3JSC12RegExpObject4testEPNS_9ExecStateERKNS_7ArgListE
04e1fbcc T _ZN3JSC12RegExpObjectD0Ev
04e1fd9c T _ZN3JSC12RegExpObjectD1Ev
04e1ff54 T _ZN3JSC12RegExpObjectC1EN3WTF10PassRefPtrINS_9StructureEEENS2_INS_6RegExpEEE
04e1ffe4 T _ZN3JSC12RegExpObject3putEPNS_9ExecStateERKNS_10IdentifierENS_10JSValuePtrERNS_15PutPropertySlotE
04e21804 T _ZN3JSC15RegExpPrototypeC1EPNS_9ExecStateEN3WTF10PassRefPtrINS_9StructureEEEPS5_
04e21c1c T _ZN3JSC15RegExpPrototypeC2EPNS_9ExecStateEN3WTF10PassRefPtrINS_9StructureEEEPS5_
04e22034 T _ZNK3JSC10ScopeChain10localDepthEv
04e220b0 T _ZN3JSC12SmallStringsC1Ev
04e220dc T _ZN3JSC19SmallStringsStorageD1Ev
04e2210c T _ZN3JSC19SmallStringsStorageD2Ev
04e2213c T _ZN3JSC19SmallStringsStorageC1Ev
04e221f4 T _ZN3JSC19SmallStringsStorageC2Ev
04e222ac T _ZN3JSC12SmallStringsC2Ev
04e222d8 T _ZN3JSC12SmallStringsD2Ev
04e22330 T _ZN3JSC12SmallStrings4markEv
04e22424 T _ZN3JSC12SmallStrings17createEmptyStringEPNS_12JSGlobalDataE
04e2250c T _ZN3JSC12SmallStringsD1Ev
04e22564 T _ZN3JSC12SmallStrings27createSingleCharacterStringEPNS_12JSGlobalDataEh
04e2268c T _ZN3JSC12SmallStrings24singleCharacterStringRepEh
04e2278c T _ZN3JSC17StringConstructor16getConstructDataERNS_13ConstructDataE
04e227a0 T _ZN3JSC17StringConstructor11getCallDataERNS_8CallDataE
04e22d20 T _ZN3JSC17StringConstructorC1EPNS_9ExecStateEN3WTF10PassRefPtrINS_9StructureEEEPS5_PNS_15StringPrototypeE
04e2304c T _ZN3JSC17StringConstructorC2EPNS_9ExecStateEN3WTF10PassRefPtrINS_9StructureEEEPS5_PNS_15StringPrototypeE
04e235e0 T _ZN3JSC12StringObject3putEPNS_9ExecStateERKNS_10IdentifierENS_10JSValuePtrERNS_15PutPropertySlotE
04e23634 T _ZN3JSC12StringObject14toThisJSStringEPNS_9ExecStateE
04e2363c T _ZNK3JSC12StringObject8toStringEPNS_9ExecStateE
04e23660 T _ZN3JSC12StringObject14deletePropertyEPNS_9ExecStateERKNS_10IdentifierE
04e236b4 T _ZNK3JSC12StringObject12toThisStringEPNS_9ExecStateE
04e236d8 T _ZN3JSC12StringObject18getOwnPropertySlotEPNS_9ExecStateERKNS_10IdentifierERNS_12PropertySlotE
04e23bb0 T _ZN3JSC12StringObject16getPropertyNamesEPNS_9ExecStateERNS_17PropertyNameArrayE
04e23d8c T _ZN3JSC12StringObject18getOwnPropertySlotEPNS_9ExecStateEjRNS_12PropertySlotE
04e2427c T _ZN3JSC12StringObjectC2EPNS_9ExecStateEN3WTF10PassRefPtrINS_9StructureEEERKNS_7UStringE
04e242f8 T _ZN3JSC12StringObjectC1EN3WTF10PassRefPtrINS_9StructureEEEPNS_8JSStringE
04e24330 T _ZN3JSC12StringObjectC1EPNS_9ExecStateEN3WTF10PassRefPtrINS_9StructureEEERKNS_7UStringE
04e243ac T _ZN3JSC12StringObjectC2EPNS_9ExecStateEN3WTF10PassRefPtrINS_9StructureEEE
04e24460 T _ZN3JSC12StringObjectC2EN3WTF10PassRefPtrINS_9StructureEEEPNS_8JSStringE
04e24498 T _ZN3JSC12StringObjectC1EPNS_9ExecStateEN3WTF10PassRefPtrINS_9StructureEEE
04e245fc T _ZN3JSC15StringPrototype18getOwnPropertySlotEPNS_9ExecStateERKNS_10IdentifierERNS_12PropertySlotE
04e246fc T _ZN3JSC15StringPrototypeC1EPNS_9ExecStateEN3WTF10PassRefPtrINS_9StructureEEE
04e24844 T _ZN3JSC15StringPrototypeC2EPNS_9ExecStateEN3WTF10PassRefPtrINS_9StructureEEE
04e2d51c T _ZN3JSC9StructureC1ENS_10JSValuePtrERKNS_8TypeInfoE
04e2d580 T _ZN3JSC9Structure18startIgnoringLeaksEv
04e2d584 T _ZN3JSC9Structure17stopIgnoringLeaksEv
04e2d5ec T _ZN3JSC9Structure27growPropertyStorageCapacityEv
04e2d610 T _ZN3JSC9Structure30insertIntoPropertyMapHashTableERKNS_16PropertyMapEntryE
04e2d710 T _ZN3JSC9StructureC2ENS_10JSValuePtrERKNS_8TypeInfoE
04e2d774 T _ZN3JSC9Structure26rehashPropertyMapHashTableEj
04e2d8b8 T _ZN3JSC9Structure26rehashPropertyMapHashTableEv
04e2d8ec T _ZN3JSC9Structure26expandPropertyMapHashTableEv
04e2d924 T _ZN3JSC9Structure26createPropertyMapHashTableEj
04e2d98c T _ZN3JSC9Structure26createPropertyMapHashTableEv
04e2d9bc T _ZN3JSC9Structure3putERKNS_10IdentifierEj
04e2dc5c T _ZN3JSC9Structure17copyPropertyTableEv
04e2dd80 T _ZN3JSC9Structure14dumpStatisticsEv
04e2ddb8 T _ZN3JSC9Structure24fromDictionaryTransitionEPS0_
04e2de14 T _ZN3JSC9Structure22materializePropertyMapEv
04e2e094 T _ZN3JSC9Structure6removeERKNS_10IdentifierE
04e2e360 T _ZN3JSC9Structure3getERKNS_10IdentifierERj
04e2e4cc T _ZN3JSC9Structure34getEnumerablePropertyNamesInternalERNS_17PropertyNameArrayE
04e2eb18 T _ZN3JSC9Structure40addPropertyTransitionToExistingStructureEPS0_RKNS_10IdentifierEjRj
04e2ec74 T _ZN3JSC9StructureD1Ev
04e2f1f4 T _ZN3JSC9Structure22toDictionaryTransitionEPS0_
04e2f2ec T _ZN3JSC9Structure22getterSetterTransitionEPS0_
04e2f3cc T _ZN3JSC9Structure24removePropertyTransitionEPS0_RKNS_10IdentifierERj
04e2f450 T _ZN3JSC9Structure25changePrototypeTransitionEPS0_NS_10JSValuePtrE
04e2f540 T _ZN3JSC9Structure21addPropertyTransitionEPS0_RKNS_10IdentifierEjRj
04e2fb40 T _ZN3JSC9Structure21clearEnumerationCacheEv
04e2fd44 T _ZN3JSC9Structure31removePropertyWithoutTransitionERKNS_10IdentifierE
04e2fde4 T _ZN3JSC9Structure28addPropertyWithoutTransitionERKNS_10IdentifierEj
04e2feec T _ZN3JSC9Structure26createCachedPrototypeChainEv
04e3007c T _ZN3JSC9StructureD2Ev
04e305fc T _ZN3JSC9Structure26getEnumerablePropertyNamesEPNS_9ExecStateERNS_17PropertyNameArrayEPNS_8JSObjectE
04e30c58 T _ZN3JSC23structureChainsAreEqualEPNS_14StructureChainES1_
04e30cb4 T _ZN3JSC14StructureChainC1EPNS_9StructureE
04e30fdc T _ZN3JSC14StructureChainC2EPNS_9StructureE
04e31304 T _ZN3JSC7UString3Rep11computeHashEPKti
04e313ac T _ZN3JSC7UString3Rep11computeHashEPKci
04e31454 T _ZN3JSC7UString7nullRepEv
04e31460 T _ZN3JSC7CStringD1Ev
04e3149c T _ZN3JSC7CStringD2Ev
04e314d8 T _ZN3JSC7CStringaSERKS0_
04e3159c T _ZN3JSC7CStringaSEPKc
04e3163c T _ZN3JSC7CString6appendERKS0_
04e31740 T _ZN3JSC7CStringC1ERKS0_
04e317d8 T _ZN3JSC7CStringC2ERKS0_
04e31870 T _ZN3JSC7CStringC1EPKcj
04e318e8 T _ZN3JSC7CStringC2EPKcj
04e31960 T _ZN3JSC7CStringC1EPKc
04e319e0 T _ZN3JSC7CStringC2EPKc
04e31a60 T _ZN3JSC7UString3Rep6createEPti
04e31af8 T _ZN3JSC9createRepEPKc
04e31c14 T _ZN3JSC7UString4nullEv
04e31cb4 T _ZN3JSC7compareERKNS_7UStringES2_
04e31d74 T _ZN3JSCgtERKNS_7UStringES2_
04e31e24 T _ZN3JSCltERKNS_7UStringES2_
04e31ed4 T _ZN3JSCeqERKNS_7UStringES2_
04e31fe0 T _ZNK3JSC7UString5rfindEti
04e3206c T _ZNK3JSC7UString5rfindERKS0_i
04e321dc T _ZNK3JSC7UString4findEti
04e32260 T _ZNK3JSC7UString4findERKS0_i
04e323cc T _ZNK3JSC7UStringixEi
04e3240c T _ZNK3JSC7UString6is8BitEv
04e32478 T _ZNK3JSC7UString5asciiEv
04e32550 T _ZN3JSC5equalEPKNS_7UString3RepES3_
04e325e8 T _ZNK3JSC7UString14toStrictUInt32EPb
04e326d8 T _ZN3JSCeqERKNS_7CStringES2_
04e32748 T _ZN3JSCeqERKNS_7UStringEPKc
04e327fc T _ZN3JSC7CString5adoptEPcj
04e32808 T _ZNK3JSC7UString10getCStringERN3WTF6VectorIcLj32EEE
04e328d4 T _ZNK3JSC7UString8toDoubleEbb
04e32dd8 T _ZNK3JSC7UString8toUInt32EPbb
04e32e90 T _ZNK3JSC7UString8toDoubleEv
04e32ec4 T _ZNK3JSC7UString8toUInt32EPb
04e32f78 T _ZNK3JSC7UString8toDoubleEb
04e32fa8 T _ZNK3JSC7UString10UTF8StringEb
04e33124 T _ZN3JSC7UString3Rep7destroyEv
04e331dc T _ZN3JSC7UString3Rep6createEN3WTF10PassRefPtrIS1_EEii
04e332f4 T _ZN3JSC7UString8makeNullEv
04e3336c T _ZN3JSC7UStringC2EPKc
04e333b0 T _ZN3JSC7UStringC1EPKc
04e333f4 T _ZN3JSC7UString4fromEd
04e337f0 T _ZNK3JSC7UString6substrEii
04e33928 T _ZN3JSC7UStringaSEPKc
04e33b44 T _ZN3JSC7UString14expandCapacityEi
04e33c84 T _ZN3JSC7UString6appendEt
04e345dc T _ZN3JSC7UString6appendEPKc
04e346c0 T _ZN3JSC11concatenateEPNS_7UString3RepEd
04e34b90 T _ZN3JSC7UString17expandPreCapacityEi
04e34d40 T _ZN3JSC7UString3Rep13createCopyingEPKti
04e35480 T _ZN3JSC7UString6appendEPKti
04e35568 T _ZN3JSC11concatenateEPNS_7UString3RepEi
04e35730 T _ZN3JSC7UStringC1ERKN3WTF6VectorItLj0EEE
04e35814 T _ZN3JSC7UStringC2ERKN3WTF6VectorItLj0EEE
04e358f8 T _ZN3JSC7UStringC1EPtib
04e359d8 T _ZN3JSC7UStringC2EPtib
04e35ab8 T _ZN3JSC7UStringC1EPKti
04e35b90 T _ZN3JSC7UString4fromEl
04e35cc0 T _ZN3JSC7UString4fromEj
04e35d90 T _ZN3JSC7UString4fromEi
04e35ec0 T _ZN3JSC7UStringC2EPKti
04e35f98 T _ZN3JSC7UString3Rep14createFromUTF8EPKc
04e36170 T _ZN3JSC7UString6appendERKS0_
04e365f8 T _ZNK3JSC7UString30spliceSubstringsWithSeparatorsEPKNS0_5RangeEiPKS0_i
04e369f4 T _ZN3JSC11concatenateEPNS_7UString3RepES2_
04e3700c T _ZN3JSC12HeavyProfile22addAncestorsAsChildrenEPNS_11ProfileNodeES2_
04e37408 T _ZN3JSC12HeavyProfile13mergeProfilesEPNS_11ProfileNodeES2_
04e374e8 T _ZN3JSC12HeavyProfile7addNodeEPNS_11ProfileNodeE
04e377bc T _ZN3JSC12HeavyProfile22generateHeavyStructureEv
04e37998 T _ZN3JSC12HeavyProfileC1EPNS_11TreeProfileE
04e37a34 T _ZN3JSC12HeavyProfileC2EPNS_11TreeProfileE
04e37ad0 T _ZN3JSC7Profile7forEachEMNS_11ProfileNodeEFvvE
04e37c40 T _ZN3JSC7Profile10restoreAllEv
04e37c90 T _ZN3JSC7Profile6createERKNS_7UStringEj
04e37cd8 T _ZN3JSC7Profile5focusEPKNS_11ProfileNodeE
04e37da8 T _ZN3JSC7Profile7excludeEPKNS_11ProfileNodeE
04e37e70 T _ZN3JSC7ProfileD1Ev
04e37fe4 T _ZN3JSC7ProfileD2Ev
04e38158 T _ZN3JSC7ProfileC1ERKNS_7UStringEj
04e38444 T _ZN3JSC7ProfileC2ERKNS_7UStringEj
04e38730 T _ZN3JSC7ProfileD0Ev
04e388c8 T _ZN3JSC16ProfileGenerator16removeProfileEndEv
04e38998 T _ZNK3JSC16ProfileGenerator5titleEv
04e389a4 T _ZN3JSC16ProfileGenerator18removeProfileStartEv
04e38a64 T _ZN3JSC16ProfileGenerator24addParentForConsoleStartEPNS_9ExecStateE
04e38eb0 T _ZN3JSC16ProfileGeneratorC2ERKNS_7UStringEPNS_9ExecStateEj
04e39260 T _ZN3JSC16ProfileGenerator10didExecuteERKNS_14CallIdentifierE
04e395ac T _ZN3JSC16ProfileGenerator11willExecuteERKNS_14CallIdentifierE
04e39714 T _ZN3JSC16ProfileGeneratorC1ERKNS_7UStringEPNS_9ExecStateEj
04e39ac4 T _ZN3JSC16ProfileGenerator6createERKNS_7UStringEPNS_9ExecStateEj
04e39b54 T _ZN3JSC16ProfileGenerator13stopProfilingEv
04e3a018 T _ZNK3JSC11ProfileNode25traverseNextNodePostOrderEv
04e3a05c T _ZNK3JSC11ProfileNode24traverseNextNodePreOrderEb
04e3a0b0 T _ZN3JSC11ProfileNode14setTreeVisibleEPS0_b
04e3a138 T _ZN3JSC11ProfileNode7restoreEv
04e3a154 T _ZN3JSC11ProfileNode22resetChildrensSiblingsEv
04e3a1d8 T _ZN3JSC11ProfileNode10startTimerEv
04e3a228 T _ZN3JSC11ProfileNodeC1ERKNS_14CallIdentifierEPS0_S4_
04e3a2f0 T _ZN3JSC11ProfileNodeC2ERKNS_14CallIdentifierEPS0_S4_
04e3a3b8 T _ZN3JSC11ProfileNode16endAndRecordCallEv
04e3a43c T _ZN3JSC11ProfileNode10didExecuteEv
04e3a478 T _ZN3JSC11ProfileNode13stopProfilingEv
04e3a554 T _ZN3JSC11ProfileNode25calculateVisibleTotalTimeEv
04e3a5bc T _ZN3JSC11ProfileNodeC1EPS0_S1_
04e3a670 T _ZN3JSC11ProfileNodeC2EPS0_S1_
04e3a724 T _ZNK3JSC11ProfileNode9findChildEPS0_
04e3a80c T _ZN3JSC11ProfileNode5focusERKNS_14CallIdentifierE
04e3a8f8 T _ZN3JSC11ProfileNode7excludeERKNS_14CallIdentifierE
04e3a9c4 T _ZN3JSC11ProfileNode11willExecuteERKNS_14CallIdentifierE
04e3acbc T _ZN3JSC11ProfileNode11removeChildEPS0_
04e3aee0 T _ZN3JSC11ProfileNode8addChildEN3WTF10PassRefPtrIS0_EE
04e3b084 T _ZN3JSC11ProfileNode10insertNodeEN3WTF10PassRefPtrIS0_EE
04e3b3ac T _ZN3JSC11ProfileNode4sortEPFbRKN3WTF6RefPtrIS0_EES5_E
04e3b41c T _ZN3JSC8Profiler8profilerEv
04e3b4a0 T _ZN3JSC8Profiler20createCallIdentifierEPNS_12JSGlobalDataENS_10JSValuePtrERKNS_7UStringEi
04e3ba78 T _ZN3JSC8Profiler10didExecuteEPNS_9ExecStateERKNS_7UStringEi
04e3bc3c T _ZN3JSC8Profiler10didExecuteEPNS_9ExecStateENS_10JSValuePtrE
04e3be64 T _ZN3JSC8Profiler11willExecuteEPNS_9ExecStateERKNS_7UStringEi
04e3c028 T _ZN3JSC8Profiler11willExecuteEPNS_9ExecStateENS_10JSValuePtrE
04e3c250 T _ZN3JSC8Profiler13stopProfilingEPNS_9ExecStateERKNS_7UStringE
04e3c6d4 T _ZN3JSC8Profiler14startProfilingEPNS_9ExecStateERKNS_7UStringE
04e3caec T _ZN3JSC11TreeProfileC1ERKNS_7UStringEj
04e3cb38 T _ZN3JSC11TreeProfile6createERKNS_7UStringEj
04e3cbb8 T _ZN3JSC11TreeProfileC2ERKNS_7UStringEj
04e3cc04 T _ZN3JSC11TreeProfile12heavyProfileEv
04e3cce4 T _ZN3WTF27releaseFastMallocFreeMemoryEv
04e3cce8 T _ZN3WTF20fastMallocStatisticsEv
04e3cd00 T _ZN3WTF11fastReallocEPvj
04e3cd6c T _ZN3WTF14tryFastReallocEPvj
04e3cd98 T _ZN3WTF8fastFreeEPv
04e3cdc4 T _ZN3WTF10fastCallocEjj
04e3ce30 T _ZN3WTF13tryFastCallocEjj
04e3ce5c T _ZN3WTF10fastMallocEj
04e3cec8 T _ZN3WTF13tryFastMallocEj
04e3cef4 T _ZN3WTF19tryFastZeroedMallocEj
04e3cf58 T _ZN3WTF16fastZeroedMallocEj
04e3d060 T _ZN3WTF12createThreadEPFPvS0_ES0_PKc
04e3d138 T _ZN3WTF13ThreadPrivate3runEv
04e3d174 T _ZN3WTF12detachThreadEj
04e3d178 T _ZN3WTF15ThreadCondition9broadcastEv
04e3d1a8 T _ZN3WTF15ThreadCondition6signalEv
04e3d1d8 T _ZN3WTF15ThreadCondition4waitERNS_5MutexE
04e3d210 T _ZN3WTF15ThreadCondition9timedWaitERNS_5MutexEd
04e3d2c4 T _ZN3WTF15ThreadConditionD2Ev
04e3d31c T _ZN3WTF5Mutex6unlockEv
04e3d34c T _ZN3WTF38unlockAtomicallyInitializedStaticMutexEv
04e3d380 T _ZN3WTF5Mutex7tryLockEv
04e3d3b0 T _ZN3WTF5Mutex4lockEv
04e3d3e0 T _ZN3WTF36lockAtomicallyInitializedStaticMutexEv
04e3d414 T _ZN3WTF5MutexD1Ev
04e3d4a0 T _ZN3WTF5MutexC1Ev
04e3d500 T _ZN3WTF5MutexC2Ev
04e3d87c T _ZN3WTF13ThreadPrivateC1EPFPvS1_ES1_
04e3d8ec T _ZN3WTF13ThreadPrivateC2EPFPvS1_ES1_
04e3d95c T _ZN3WTF5MutexD2Ev
04e3d9b4 T _ZN3WTF15ThreadConditionC1Ev
04e3da10 T _ZN3WTF15ThreadConditionC2Ev
04e3da6c T _ZN3WTF15ThreadConditionD1Ev
04e3dac4 T _ZN3WTF12isMainThreadEv
04e3dbd4 T _ZN3WTF13currentThreadEv
04e3dc48 T _ZN3WTF20createThreadInternalEPFPvS0_ES0_PKc
04e3dcf8 T _ZN3WTF19initializeThreadingEv
04e3de38 T _ZN3WTF23waitForThreadCompletionEjPPv
04e3dfd0 T _ZNK3WTF17MainThreadInvoker10metaObjectEv
04e3e040 T _ZN3WTF17MainThreadInvoker11qt_metacastEPKc
04e3e0e0 T _ZN3WTF17MainThreadInvoker8dispatchEv
04e3e10c T _ZN3WTF17MainThreadInvoker11qt_metacallEN11QMetaObject4CallEiPPv
04e3e184 T _ZN3WTF17MainThreadInvokerC1Ev
04e3e320 T _ZN3WTF17MainThreadInvokerC2Ev
04e3e398 T _ZN3WTF37scheduleDispatchFunctionsOnMainThreadEv
04e3e954 T _Z10jscyyerrorPKc
04e41040 T _Z10jscyyparsePv
04e8a0f8 T _ZN3JSC12RuntimeArray14deletePropertyEPNS_9ExecStateERKNS_10IdentifierE
04e8a100 T _ZN3JSC12RuntimeArray14deletePropertyEPNS_9ExecStateEj
04e8a108 T _ZN3JSC12RuntimeArray18getOwnPropertySlotEPNS_9ExecStateEjRNS_12PropertySlotE
04e8a1d4 T _ZN3JSC12RuntimeArray11indexGetterEPNS_9ExecStateERKNS_10IdentifierERKNS_12PropertySlotE
04e8a210 T _ZN3JSC12RuntimeArray3putEPNS_9ExecStateERKNS_10IdentifierENS_10JSValuePtrERNS_15PutPropertySlotE
04e8a368 T _ZN3JSC12RuntimeArray18getOwnPropertySlotEPNS_9ExecStateERKNS_10IdentifierERNS_12PropertySlotE
04e8a654 T _ZN3JSC12RuntimeArray12lengthGetterEPNS_9ExecStateERKNS_10IdentifierERKNS_12PropertySlotE
04e8a6ac T _ZN3JSC12RuntimeArray3putEPNS_9ExecStateEjNS_10JSValuePtrE
04e8a770 T _ZN3JSC12RuntimeArrayC2EPNS_9ExecStateEPNS_8Bindings5ArrayE
04e8a91c T _ZN3JSC12RuntimeArrayC1EPNS_9ExecStateEPNS_8Bindings5ArrayE
04e8aac8 T _ZN3JSC8Bindings8Instance21setDidExecuteFunctionEPFvPNS_9ExecStateEPNS_8JSObjectEE
04e8aad4 T _ZN3JSC8Bindings8Instance18didExecuteFunctionEv
04e8aae0 T _ZN3JSC8Bindings8Instance5beginEv
04e8ab0c T _ZN3JSC8Bindings8Instance3endEv
04e8ab38 T _ZNK3JSC8Bindings8Instance15getValueOfFieldEPNS_9ExecStateEPKNS0_5FieldE
04e8ab70 T _ZNK3JSC8Bindings8Instance15setValueOfFieldEPNS_9ExecStateEPKNS0_5FieldENS_10JSValuePtrE
04e8abb4 T _ZN3JSC8Bindings5ArrayC2EN3WTF10PassRefPtrINS0_10RootObjectEEE
04e8abd4 T _ZNK3JSC8Bindings8Instance10rootObjectEv
04e8abf4 T _ZN3JSC8Bindings5ArrayD0Ev
04e8acbc T _ZN3JSC8Bindings8InstanceC2EN3WTF10PassRefPtrINS0_10RootObjectEEE
04e8ace4 T _ZN3JSC8Bindings8InstanceC1EN3WTF10PassRefPtrINS0_10RootObjectEEE
04e8ad0c T _ZN3JSC8Bindings5ArrayC1EN3WTF10PassRefPtrINS0_10RootObjectEEE
04e8ad2c T _ZN3JSC8Bindings5ArrayD1Ev
04e8adb8 T _ZN3JSC8Bindings5ArrayD2Ev
04e8ae44 T _ZN3JSC8Bindings8InstanceD0Ev
04e8af0c T _ZN3JSC8Bindings8InstanceD1Ev
04e8af98 T _ZN3JSC8Bindings8InstanceD2Ev
04e8b024 T _ZN3JSC8Bindings8Instance19createRuntimeObjectEPNS_9ExecStateEN3WTF10PassRefPtrIS1_EE
04e8b16c T _ZN3JSC8Bindings8Instance11getInstanceEPNS_8JSObjectENS1_15BindingLanguageE
04e8b218 T _ZN3JSC13RuntimeMethod11getCallDataERNS_8CallDataE
04e8b22c T _ZN3JSC13RuntimeMethod12lengthGetterEPNS_9ExecStateERKNS_10IdentifierERKNS_12PropertySlotE
04e8b28c T _ZN3JSC13RuntimeMethod18getOwnPropertySlotEPNS_9ExecStateERKNS_10IdentifierERNS_12PropertySlotE
04e8b504 T _ZN3JSC13RuntimeMethodC2EPNS_9ExecStateERKNS_10IdentifierERN3WTF6VectorIPNS_8Bindings6MethodELj0EEE
04e8bdb8 T _ZN3JSC13RuntimeMethodC1EPNS_9ExecStateERKNS_10IdentifierERN3WTF6VectorIPNS_8Bindings6MethodELj0EEE
04e8c00c T _ZN3JSC16RuntimeObjectImp14deletePropertyEPNS_9ExecStateERKNS_10IdentifierE
04e8c014 T _ZN3JSC16RuntimeObjectImp10invalidateEv
04e8c088 T _ZN3JSC16RuntimeObjectImp23throwInvalidAccessErrorEPNS_9ExecStateE
04e8c0c0 T _ZN3JSC16RuntimeObjectImp11getCallDataERNS_8CallDataE
04e8c138 T _ZN3JSC16RuntimeObjectImp16getPropertyNamesEPNS_9ExecStateERNS_17PropertyNameArrayE
04e8c1f8 T _ZN3JSC16RuntimeObjectImp16getConstructDataERNS_13ConstructDataE
04e8c270 T _ZN3JSC16RuntimeObjectImp11fieldGetterEPNS_9ExecStateERKNS_10IdentifierERKNS_12PropertySlotE
04e8c3d8 T _ZN3JSC16RuntimeObjectImp20fallbackObjectGetterEPNS_9ExecStateERKNS_10IdentifierERKNS_12PropertySlotE
04e8c528 T _ZN3JSC22callRuntimeConstructorEPNS_9ExecStateEPNS_8JSObjectERKNS_7ArgListE
04e8c74c T _ZNK3JSC16RuntimeObjectImp12defaultValueEPNS_9ExecStateENS_22PreferredPrimitiveTypeE
04e8c89c T _ZN3JSC16RuntimeObjectImp3putEPNS_9ExecStateERKNS_10IdentifierENS_10JSValuePtrERNS_15PutPropertySlotE
04e8cac8 T _ZN3JSC16RuntimeObjectImp12methodGetterEPNS_9ExecStateERKNS_10IdentifierERKNS_12PropertySlotE
04e8ccdc T _ZN3JSC16RuntimeObjectImp18getOwnPropertySlotEPNS_9ExecStateERKNS_10IdentifierERNS_12PropertySlotE
04e8d110 T _ZN3JSC16RuntimeObjectImpD1Ev
04e8d2b4 T _ZN3JSC16RuntimeObjectImpC1EPNS_9ExecStateEN3WTF10PassRefPtrINS_8Bindings8InstanceEEE
04e8d490 T _ZN3JSC16RuntimeObjectImpC2EPNS_9ExecStateEN3WTF10PassRefPtrINS_8Bindings8InstanceEEE
04e8d66c T _ZN3JSC16RuntimeObjectImpC2EPNS_9ExecStateEN3WTF10PassRefPtrINS_9StructureEEENS4_INS_8Bindings8InstanceEEE
04e8d6f8 T _ZN3JSC16RuntimeObjectImpC1EPNS_9ExecStateEN3WTF10PassRefPtrINS_9StructureEEENS4_INS_8Bindings8InstanceEEE
04e8d784 T _ZN3JSC16RuntimeObjectImpD2Ev
04e8d928 T _ZN3JSC16RuntimeObjectImpD0Ev
04e8daf8 T _ZNK3JSC8Bindings10RootObject12nativeHandleEv
04e8db00 T _ZNK3JSC8Bindings10RootObject12globalObjectEv
04e8db08 T _ZN3JSC8Bindings10RootObject19removeRuntimeObjectEPNS_16RuntimeObjectImpE
04e8dc3c T _ZN3JSC8Bindings10RootObject16addRuntimeObjectEPNS_16RuntimeObjectImpE
04e8dc7c T _ZN3JSC8Bindings10RootObjectC1EPKvPNS_14JSGlobalObjectE
04e8dd6c T _ZN3JSC8Bindings10RootObject6createEPKvPNS_14JSGlobalObjectE
04e8ddec T _ZN3JSC8Bindings14findRootObjectEPNS_14JSGlobalObjectE
04e8def8 T _ZN3JSC8Bindings10RootObjectC2EPKvPNS_14JSGlobalObjectE
04e8dfe8 T _ZN3JSC8Bindings10RootObject13gcIsProtectedEPNS_8JSObjectE
04e8e024 T _ZN3JSC8Bindings24findProtectingRootObjectEPNS_8JSObjectE
04e8e154 T _ZN3JSC8Bindings10RootObject9gcProtectEPNS_8JSObjectE
04e8e22c T _ZN3JSC8Bindings10RootObject11gcUnprotectEPNS_8JSObjectE
04e8e380 T _ZN3JSC8Bindings10RootObject10invalidateEv
04e8e61c T _ZN3JSC8Bindings10RootObjectD1Ev
04e8e6dc T _ZN3JSC8Bindings10RootObjectD2Ev
04ea97ac T _Z15getPropertyName13CSSPropertyID
04ea9bbc T _Z12getValueNamet
0528fdc0 T _ZN3JSC8Bindings7QtClassC2EPK11QMetaObject
0528fdd4 T _ZN3JSC8Bindings7QtClassC1EPK11QMetaObject
0528fde8 T _ZNK3JSC8Bindings7QtClass4nameEv
0528fdf4 T _ZNK3JSC8Bindings7QtClass12methodsNamedERKNS_10IdentifierEPNS0_8InstanceE
0528fe0c T _ZN3JSC8Bindings7QtClassD2Ev
0528fe1c T _ZN3JSC8Bindings7QtClassD0Ev
0528fe54 T _ZN3JSC8Bindings7QtClassD1Ev
0528fe64 T _ZN3JSC8Bindings7QtClass14classForObjectEP7QObject
0528ffa0 T _ZN3JSC8Bindings7QtClass14fallbackObjectEPNS_9ExecStateEPNS0_8InstanceERKNS_10IdentifierE
05290698 T _ZNK3JSC8Bindings7QtClass10fieldNamedERKNS_10IdentifierEPNS0_8InstanceE
052911fc T _ZN3JSC8Bindings10QtInstance5beginEv
05291200 T _ZN3JSC8Bindings10QtInstance3endEv
05291204 T _ZNK3JSC8Bindings10QtInstance12booleanValueEv
05291324 T _GLOBAL__D__ZN3JSC8Bindings18QtRuntimeObjectImpC2EPNS_9ExecStateEN3WTF10PassRefPtrINS0_8InstanceEEE
0529135c T _GLOBAL__I__ZN3JSC8Bindings18QtRuntimeObjectImpC2EPNS_9ExecStateEN3WTF10PassRefPtrINS0_8InstanceEEE
05291394 T _ZNK3JSC8Bindings10QtInstance11numberValueEPNS_9ExecStateE
052913c8 T _ZNK3JSC8Bindings10QtInstance8getClassEv
05291428 T _ZN3JSC8Bindings10QtInstance12invokeMethodEPNS_9ExecStateERKN3WTF6VectorIPNS0_6MethodELj0EEERKNS_7ArgListE
05291430 T _ZN3JSC8Bindings10QtInstance4markEv
05291768 T _ZN3JSC8Bindings18QtRuntimeObjectImpC1EPNS_9ExecStateEN3WTF10PassRefPtrINS0_8InstanceEEE
052919f8 T _ZN3JSC8Bindings10QtInstanceC1EP7QObjectN3WTF10PassRefPtrINS0_10RootObjectEEEN13QScriptEngine14ValueOwnershipE
05291b30 T _ZN3JSC8Bindings10QtInstanceC2EP7QObjectN3WTF10PassRefPtrINS0_10RootObjectEEEN13QScriptEngine14ValueOwnershipE
05291c68 T _ZN3JSC8Bindings18QtRuntimeObjectImp15removeFromCacheEv
05291cd4 T _ZN3JSC8Bindings18QtRuntimeObjectImp10invalidateEv
05291d20 T _ZN3JSC8Bindings18QtRuntimeObjectImpD0Ev
05291d8c T _ZN3JSC8Bindings18QtRuntimeObjectImpD1Ev
05291de4 T _ZN3JSC8Bindings18QtRuntimeObjectImpD2Ev
05291e3c T _ZN3JSC8Bindings18QtRuntimeObjectImpC2EPNS_9ExecStateEN3WTF10PassRefPtrINS0_8InstanceEEE
052920cc T _ZN3JSC8Bindings10QtInstance13getQtInstanceEP7QObjectN3WTF10PassRefPtrINS0_10RootObjectEEEN13QScriptEngine14ValueOwnershipE
0529243c T _ZN3JSC8Bindings10QtInstance16getRuntimeObjectEPNS_9ExecStateEN3WTF10PassRefPtrIS1_EE
0529272c T _ZN3JSC8Bindings10QtInstance16getPropertyNamesEPNS_9ExecStateERNS_17PropertyNameArrayE
05292bbc T _ZN3JSC8Bindings10QtInstanceD0Ev
052930a0 T _ZN3JSC8Bindings10QtInstanceD1Ev
05293570 T _ZN3JSC8Bindings10QtInstanceD2Ev
05293a40 T _ZNK3JSC8Bindings7QtField4nameEv
05293b80 T _ZNK3JSC8Bindings7QtField17valueFromInstanceEPNS_9ExecStateEPKNS0_8InstanceE
05294044 T _ZNK3JSC8Bindings7QtField18setValueToInstanceEPNS_9ExecStateEPKNS0_8InstanceENS_10JSValuePtrE
05294310 T _ZNK3JSC8Bindings10QtInstance11stringValueEPNS_9ExecStateE
05294994 T _ZNK3JSC8Bindings10QtInstance7valueOfEPNS_9ExecStateE
052949c0 T _ZNK3JSC8Bindings10QtInstance12defaultValueEPNS_9ExecStateENS_22PreferredPrimitiveTypeE
05294a3c T _ZN3JSC8Bindings19QtRuntimeMetaMethod11getCallDataERNS_8CallDataE
05294a50 T _ZN3JSC8Bindings25QtRuntimeConnectionMethod11getCallDataERNS_8CallDataE
05294a64 T _ZNK3JSC8Bindings18QtConnectionObject10metaObjectEv
05294a70 T _ZN3JSC8Bindings18QtConnectionObject5matchEP7QObjectiPNS_8JSObjectES5_
05294b6c T _GLOBAL__D__ZN3JSC8Bindings22convertValueToQVariantEPNS_9ExecStateENS_10JSValuePtrEN9QMetaType4TypeEPiPN3WTF7HashSetIPNS_8JSObjectENS7_7PtrHashISA_EENS7_10HashTraitsISA_EEEE
05294ba4 T _GLOBAL__I__ZN3JSC8Bindings22convertValueToQVariantEPNS_9ExecStateENS_10JSValuePtrEN9QMetaType4TypeEPiPN3WTF7HashSetIPNS_8JSObjectENS7_7PtrHashISA_EENS7_10HashTraitsISA_EEEE
05294bdc T _ZNK3JSC8Bindings17QtMethodMatchType6typeIdEv
05294c3c T _ZN3JSC8Bindings18QtConnectionObject11qt_metacastEPKc
05294cdc T _ZN3JSC8Bindings25QtRuntimeConnectionMethod12lengthGetterEPNS_9ExecStateERKNS_10IdentifierERKNS_12PropertySlotE
05294d0c T _ZN3JSC8Bindings19QtRuntimeMetaMethod12lengthGetterEPNS_9ExecStateERKNS_10IdentifierERKNS_12PropertySlotE
05294d3c T _ZNK3JSC8Bindings17QtMethodMatchType4nameEv
05294de8 T _ZN3JSC8Bindings19QtRuntimeMetaMethod4markEv
05294e64 T _ZN3JSC8Bindings18QtConnectionObjectC2EN3WTF10PassRefPtrINS0_10QtInstanceEEEiPNS_8JSObjectES7_
05294fa0 T _ZN3JSC8Bindings18QtConnectionObjectC1EN3WTF10PassRefPtrINS0_10QtInstanceEEEiPNS_8JSObjectES7_
052950dc T _ZN3JSC8Bindings19QtRuntimeMetaMethod18getOwnPropertySlotEPNS_9ExecStateERKNS_10IdentifierERNS_12PropertySlotE
052953cc T _ZN3JSC8Bindings19QtRuntimeMethodDataD1Ev
05295444 T _ZN3JSC8Bindings15QtRuntimeMethodD2Ev
05295594 T _ZN3JSC8Bindings18QtConnectionObjectD1Ev
052957e4 T _ZN3JSC8Bindings18QtConnectionObjectD0Ev
05295a18 T _ZN3JSC8Bindings19QtRuntimeMethodDataD2Ev
05295a90 T _ZN3JSC8Bindings19QtRuntimeMethodDataD0Ev
05295b40 T _ZN3JSC8Bindings18QtConnectionObjectD2Ev
05295d90 T _ZN3JSC8Bindings15QtRuntimeMethodC2EPNS0_19QtRuntimeMethodDataEPNS_9ExecStateERKNS_10IdentifierEN3WTF10PassRefPtrINS0_10QtInstanceEEE
0529603c T _ZN3JSC8Bindings25QtRuntimeConnectionMethodC1EPNS_9ExecStateERKNS_10IdentifierEbN3WTF10PassRefPtrINS0_10QtInstanceEEEiRK10QByteArray
05296194 T _ZN3JSC8Bindings19QtRuntimeMetaMethod16disconnectGetterEPNS_9ExecStateERKNS_10IdentifierERKNS_12PropertySlotE
052962c4 T _ZN3JSC8Bindings19QtRuntimeMetaMethod13connectGetterEPNS_9ExecStateERKNS_10IdentifierERKNS_12PropertySlotE
052963f4 T _ZN3JSC8Bindings25QtRuntimeConnectionMethodC2EPNS_9ExecStateERKNS_10IdentifierEbN3WTF10PassRefPtrINS0_10QtInstanceEEEiRK10QByteArray
0529654c T _ZN3JSC8Bindings19QtRuntimeMetaMethodC1EPNS_9ExecStateERKNS_10IdentifierEN3WTF10PassRefPtrINS0_10QtInstanceEEEiRK10QByteArrayb
052966b0 T _ZN3JSC8Bindings19QtRuntimeMetaMethodC2EPNS_9ExecStateERKNS_10IdentifierEN3WTF10PassRefPtrINS0_10QtInstanceEEEiRK10QByteArrayb
05296b00 T _ZN3JSC8Bindings29QtRuntimeConnectionMethodDataD0Ev
05296b90 T _ZN3JSC8Bindings29QtRuntimeConnectionMethodDataD1Ev
05296c30 T _ZN3JSC8Bindings29QtRuntimeConnectionMethodDataD2Ev
05296cd0 T _ZN3JSC8Bindings23QtRuntimeMetaMethodDataD0Ev
05296d60 T _ZN3JSC8Bindings23QtRuntimeMetaMethodDataD1Ev
05296e00 T _ZN3JSC8Bindings23QtRuntimeMetaMethodDataD2Ev
05296ea0 T _ZN3JSC8Bindings15QtRuntimeMethodC1EPNS0_19QtRuntimeMethodDataEPNS_9ExecStateERKNS_10IdentifierEN3WTF10PassRefPtrINS0_10QtInstanceEEE
0529714c T _ZN3JSC8Bindings22convertQVariantToValueEPNS_9ExecStateEN3WTF10PassRefPtrINS0_10RootObjectEEERK8QVariant
05298764 T _ZN3JSC8Bindings18QtConnectionObject7executeEPPv
052995cc T _ZN3JSC8Bindings18QtConnectionObject11qt_metacallEN11QMetaObject4CallEiPPv
05299654 T _ZN3JSC8Bindings25QtRuntimeConnectionMethod18getOwnPropertySlotEPNS_9ExecStateERKNS_10IdentifierERNS_12PropertySlotE
052998cc T _ZN3JSC8Bindings25QtRuntimeConnectionMethod4callEPNS_9ExecStateEPNS_8JSObjectENS_10JSValuePtrERKNS_7ArgListE
0529abec T _ZN3JSC8Bindings22convertValueToQVariantEPNS_9ExecStateENS_10JSValuePtrEN9QMetaType4TypeEPiPN3WTF7HashSetIPNS_8JSObjectENS7_7PtrHashISA_EENS7_10HashTraitsISA_EEEE
0529e9dc T _ZN3JSC8Bindings22convertValueToQVariantEPNS_9ExecStateENS_10JSValuePtrEN9QMetaType4TypeEPi
0529ea58 T _ZN3JSC8Bindings19QtRuntimeMetaMethod4callEPNS_9ExecStateEPNS_8JSObjectENS_10JSValuePtrERKNS_7ArgListE
052a15a4 T _ZN3JSC8Bindings15QtRuntimeMethodD0Ev
052a1720 T _ZN3JSC8Bindings15QtRuntimeMethodD1Ev
052d3888 T _Z25qt_dump_editing_callbacksb
052d3894 T _Z27qt_dump_set_accepts_editingb
052d696c T _ZN13EditCommandQtD2Ev
052d69d8 T _ZN13EditCommandQt4undoEv
052d6a14 T _ZN13EditCommandQt4redoEv
052d6a9c T _ZN13EditCommandQtD1Ev
052d6b08 T _Z20qt_dump_frame_loaderb
052d6b14 T _Z31qt_dump_resource_load_callbacksb
052d9f18 T _GLOBAL__D__Z20qt_dump_frame_loaderb
052d9f50 T _GLOBAL__I__Z20qt_dump_frame_loaderb
052de964 T _ZNK9QWebFrame4pageEv
052de970 T _ZNK9QWebFrame15scrollBarPolicyEN2Qt11OrientationE
052de990 T _ZNK9QWebFrame16scrollBarMinimumEN2Qt11OrientationE
052de998 T _ZN16QWebFramePrivate4coreEP9QWebFrame
052de9a4 T _ZN17QWebHitTestResultC2EP24QWebHitTestResultPrivate
052de9ac T _ZN17QWebHitTestResultC1EP24QWebHitTestResultPrivate
052de9b4 T _ZN17QWebHitTestResultC2Ev
052de9c0 T _ZN17QWebHitTestResultC1Ev
052de9cc T _ZNK17QWebHitTestResult6isNullEv
052de9dc T _ZNK17QWebHitTestResult17isContentEditableEv
052de9f8 T _ZNK17QWebHitTestResult17isContentSelectedEv
052dea14 T _ZNK17QWebHitTestResult15linkTargetFrameEv
052dea30 T _ZNK17QWebHitTestResult6pixmapEv
052deaa4 T _ZNK17QWebHitTestResult8imageUrlEv
052deb18 T _ZNK17QWebHitTestResult7linkUrlEv
052deb8c T _ZNK17QWebHitTestResult9linkTitleEv
052dec00 T _ZN17QWebHitTestResultC2ERKS_
052dedac T _ZNK9QWebFrame3urlEv
052dee64 T _ZN9QWebFrame5eventEP6QEvent
052dee90 T _ZNK9QWebFrame8geometryEv
052def74 T _ZNK9QWebFrame3posEv
052df078 T _ZNK16QWebFramePrivate17verticalScrollBarEv
052df0d8 T _ZNK16QWebFramePrivate19horizontalScrollBarEv
052df138 T _ZNK9QWebFrame16scrollBarMaximumEN2Qt11OrientationE
052df1a4 T _ZNK9QWebFrame12contentsSizeEv
052df260 T _ZNK9QWebFrame10zoomFactorEv
052df294 T _ZNK9QWebFrame18textSizeMultiplierEv
052df2c8 T _ZN9QWebFrame13setZoomFactorEf
052df330 T _ZN9QWebFrame21setTextSizeMultiplierEf
052df368 T _ZN9QWebFrame6renderEP8QPainter
052df48c T _ZNK9QWebFrame14scrollPositionEv
052df530 T _ZN9QWebFrame6scrollEii
052df5f8 T _ZNK9QWebFrame14scrollBarValueEN2Qt11OrientationE
052df66c T _ZN9QWebFrame17setScrollBarValueEN2Qt11OrientationEi
052df760 T _ZNK9QWebFrame9frameNameEv
052df7bc T _ZNK9QWebFrame11childFramesEv
052df8dc T _ZNK9QWebFrame5titleEv
052df9ac T _ZN9QWebFrameD0Ev
052dfab4 T _ZN9QWebFrameD1Ev
052dfbb0 T _ZN9QWebFrameD2Ev
052dfcac T _Z36qt_drt_setJavaScriptProfilingEnabledP9QWebFrameb
052dfd48 T _ZNK17QWebHitTestResult13alternateTextEv
052dfd90 T _ZNK17QWebHitTestResult8linkTextEv
052dfdd8 T _ZNK17QWebHitTestResult5titleEv
052dfe20 T _ZN9QWebFrame18setScrollBarPolicyEN2Qt11OrientationENS0_15ScrollBarPolicyE
052dff7c T _ZNK17QWebHitTestResult3posEv
052dffac T _ZNK17QWebHitTestResult12boundingRectEv
052dfff4 T _ZN9QWebFrame6renderEP8QPainterRK7QRegion
052e0274 T _ZN9QWebFrame17setScrollPositionERK6QPoint
052e02f4 T _ZNK17QWebHitTestResult5frameEv
052e0310 T _ZNK9QWebFrame4iconEv
052e03a4 T _ZNK9QWebFrame11parentFrameEv
052e03e8 T _ZNK9QWebFrame14securityOriginEv
052e08f0 T _ZN9QWebFrameC1EPS_P13QWebFrameData
052e09cc T _ZN9QWebFrameC2EPS_P13QWebFrameData
052e0aa8 T _ZNK9QWebFrame14renderTreeDumpEv
052e0c18 T _ZNK9QWebFrame11toPlainTextEv
052e0d98 T _ZNK9QWebFrame6toHtmlEv
052e0ed8 T _ZN9QWebFrameC2EP8QWebPageP13QWebFrameData
052e1250 T _ZN9QWebFrame27addToJavaScriptWindowObjectERK7QStringP7QObjectN13QScriptEngine14ValueOwnershipE
052e16e8 T _ZN9QWebFrame27addToJavaScriptWindowObjectERK7QStringP7QObject
052e1718 T _ZNK9QWebFrame8metaDataEv
052e1c78 T _ZN17QWebHitTestResultaSERKS_
052e28fc T _ZNK9QWebFrame14hitTestContentERK6QPoint
052e2ad4 T _ZN9QWebFrame7setHtmlERK7QStringRK4QUrl
052e3258 T _ZN17QWebHitTestResultC1ERKS_
052e3404 T _ZN9QWebFrame18evaluateJavaScriptERK7QString
052e38cc T _GLOBAL__D__Z36qt_drt_setJavaScriptProfilingEnabledP9QWebFrameb
052e3904 T _GLOBAL__I__Z36qt_drt_setJavaScriptProfilingEnabledP9QWebFrameb
052e4130 T _ZN9QWebFrame10setContentERK10QByteArrayRK7QStringRK4QUrl
052e48c4 T _ZN17QWebHitTestResultD1Ev
052e4adc T _ZN17QWebHitTestResultD2Ev
052e4cf4 T _ZN9QWebFrameC1EP8QWebPageP13QWebFrameData
052e506c T _ZN9QWebFrame4loadERK15QNetworkRequestN21QNetworkAccessManager9OperationERK10QByteArray
052e5a90 T _ZN9QWebFrame4loadERK4QUrl
052e5ce4 T _ZN9QWebFrame6setUrlERK4QUrl
052e60f8 T _Z10qt_drt_runb
052e6104 T _ZN15QWebPagePrivate26editorCommandForWebActionsEN8QWebPage9WebActionE
052e6274 T _ZNK8QWebPage7historyEv
052e6280 T _ZNK8QWebPage4viewEv
052e628c T _ZN8QWebPage15javaScriptAlertEP9QWebFrameRK7QString
052e6290 T _ZN8QWebPage17javaScriptConfirmEP9QWebFrameRK7QString
052e6298 T _ZN8QWebPage16javaScriptPromptEP9QWebFrameRK7QStringS4_PS2_
052e62a0 T _ZN8QWebPage12createPluginERK7QStringRK4QUrlRK11QStringListS8_
052e62a8 T _ZNK8QWebPage10isModifiedEv
052e62b0 T _ZNK8QWebPage17isContentEditableEv
052e62bc T _ZN8QWebPage28setForwardUnsupportedContentEb
052e62c8 T _ZNK8QWebPage25forwardUnsupportedContentEv
052e62d4 T _ZN8QWebPage23setLinkDelegationPolicyENS_20LinkDelegationPolicyE
052e62e0 T _ZNK8QWebPage20linkDelegationPolicyEv
052e62ec T _ZN8QWebPage9extensionENS_9ExtensionEPKNS_15ExtensionOptionEPNS_15ExtensionReturnE
052e62f4 T _ZNK8QWebPage17supportsExtensionENS_9ExtensionE
052e62fc T _ZNK8QWebPage8settingsEv
052e6308 T _ZN8QWebPage10chooseFileEP9QWebFrameRK7QString
052e6328 T _ZN8QWebPage23setNetworkAccessManagerEP21QNetworkAccessManager
052e63a4 T _ZN8QWebPage16setPluginFactoryEP17QWebPluginFactory
052e63b0 T _ZNK8QWebPage13pluginFactoryEv
052e63bc T _ZN15QWebPagePrivate24_q_onLoadProgressChangedEi
052e63ec T _ZNK8QWebPage10totalBytesEv
052e63fc T _ZNK8QWebPage13bytesReceivedEv
052e640c T _ZNK8QWebPage10metaObjectEv
052e6418 T _ZN15QWebPagePrivate23acceptNavigationRequestEP9QWebFrameRK15QNetworkRequestN8QWebPage14NavigationTypeE
052e6484 T _ZN8QWebPage26restoreFrameStateRequestedEP9QWebFrame
052e64d4 T _ZN8QWebPage23saveFrameStateRequestedEP9QWebFrameP15QWebHistoryItem
052e6530 T _ZN8QWebPage21databaseQuotaExceededEP9QWebFrame7QString
052e6584 T _ZN8QWebPage15contentsChangedEv
052e65c0 T _ZN8QWebPage17microFocusChangedEv
052e65fc T _ZN8QWebPage17downloadRequestedERK15QNetworkRequest
052e6644 T _ZN8QWebPage18unsupportedContentEP13QNetworkReply
052e6694 T _ZN8QWebPage32menuBarVisibilityChangeRequestedEb
052e66e4 T _ZN8QWebPage34statusBarVisibilityChangeRequestedEb
052e6734 T _ZN8QWebPage32toolBarVisibilityChangeRequestedEb
052e6784 T _ZN8QWebPage11linkClickedERK4QUrl
052e67cc T _ZN8QWebPage14printRequestedEP9QWebFrame
052e681c T _ZN8QWebPage20windowCloseRequestedEv
052e6858 T _ZN8QWebPage15scrollRequestedEiiRK5QRect
052e68b8 T _ZN8QWebPage16repaintRequestedERK5QRect
052e6900 T _ZN8QWebPage23geometryChangeRequestedERK5QRect
052e6948 T _ZN8QWebPage12frameCreatedEP9QWebFrame
052e6998 T _ZN8QWebPage16selectionChangedEv
052e69d4 T _ZN8QWebPage16statusBarMessageERK7QString
052e6a1c T _ZN8QWebPage11linkHoveredERK7QStringS2_S2_
052e6a6c T _ZN8QWebPage12loadFinishedEb
052e6abc T _ZN8QWebPage12loadProgressEi
052e6b0c T _ZN8QWebPage11loadStartedEv
052e6b48 T _ZN8QWebPage11qt_metacastEPKc
052e6be8 T _ZNK8QWebPage20networkAccessManagerEv
052e6c88 T _ZNK8QWebPage12viewportSizeEv
052e6db0 T _ZN15QWebPagePrivate15handleScrollingEP9QKeyEvent
052e6f8c T _ZN15QWebPagePrivate21shortcutOverrideEventEP9QKeyEvent
052e70c4 T _ZNK8QWebPage7paletteEv
052e7108 T _ZN8QWebPage10setPaletteERK8QPalette
052e72b4 T _ZN15QWebPagePrivate14dragLeaveEventEP15QDragLeaveEvent
052e7390 T _ZN15QWebPagePrivate14dragEnterEventEP15QDragEnterEvent
052e752c T _ZN15QWebPagePrivate13focusOutEventEP11QFocusEvent
052e75a4 T _ZN15QWebPagePrivate10wheelEventEP11QWheelEvent
052e765c T _ZN15QWebPagePrivate17mouseReleaseEventEP11QMouseEvent
052e772c T _ZN15QWebPagePrivate21mouseTripleClickEventEP11QMouseEvent
052e77fc T _ZN15QWebPagePrivate21mouseDoubleClickEventEP11QMouseEvent
052e7914 T _ZN15QWebPagePrivate15mousePressEventEP11QMouseEvent
052e7a8c T _ZN15QWebPagePrivate14mouseMoveEventEP11QMouseEvent
052e7b50 T _ZN15QWebPagePrivate10leaveEventEP6QEvent
052e7c04 T _ZN15QWebPagePrivate10timerEventEP11QTimerEvent
052e7c6c T _ZN15QWebPagePrivate21_q_webActionTriggeredEb
052e7d4c T _ZNK15QWebPagePrivate7frameAtERK6QPoint
052e7f1c T _ZN15QWebPagePrivateD2Ev
052e819c T _ZNK8QWebPage12currentFrameEv
052e8214 T _Z20qt_webpage_groupNameP8QWebPage
052e8270 T _ZN8QWebPage23swallowContextMenuEventEP17QContextMenuEvent
052e8454 T _ZN8QWebPage12createWindowENS_13WebWindowTypeE
052e84e8 T _ZN15QWebPagePrivateD1Ev
052e8650 T _ZN8QWebPageD0Ev
052e8728 T _ZN8QWebPageD1Ev
052e87e4 T _ZN8QWebPageD2Ev
052e88a0 T _ZN8QWebPage25createStandardContextMenuEv
052e88f0 T _ZN15QWebPagePrivate16contextMenuEventEP17QContextMenuEvent
052e8960 T _ZN15QWebPagePrivate9dropEventEP10QDropEvent
052e8ac8 T _ZN15QWebPagePrivate13dragMoveEventEP14QDragMoveEvent
052e8c64 T _ZN15QWebPagePrivate12focusInEventEP11QFocusEvent
052e8e68 T _GLOBAL__D__ZN15QWebPagePrivate6drtRunE
052e8ea0 T _GLOBAL__I__ZN15QWebPagePrivate6drtRunE
052e8ed8 T _ZNK8QWebPage12selectedTextEv
052e8fc0 T _ZN15QWebPagePrivate13keyPressEventEP9QKeyEvent
052e92f4 T _ZN15QWebPagePrivate12updateActionEN8QWebPage9WebActionE
052e9614 T _ZN15QWebPagePrivate19updateEditorActionsEv
052e9898 T _ZN8QWebPage18setContentEditableEb
052e9950 T _ZN15QWebPagePrivate23updateNavigationActionsEv
052e99c4 T _ZN15QWebPagePrivate15createMainFrameEv
052e9bbc T _ZNK8QWebPage9mainFrameEv
052e9c00 T _ZNK8QWebPage15setViewportSizeERK5QSize
052e9d30 T _ZN8QWebPage7setViewEP7QWidget
052e9dcc T _ZN15QWebPagePrivateC1EP8QWebPage
052ea148 T _ZN8QWebPageC1EP7QObject
052ea234 T _ZN8QWebPageC2EP7QObject
052ea320 T _ZN8QWebPage8findTextERK7QString6QFlagsINS_8FindFlagEE
052ea410 T _ZN15QWebPagePrivateC2EP8QWebPage
052ea78c T _Z23qt_webpage_setGroupNameP8QWebPageRK7QString
052ea850 T _ZN15QWebPagePrivate15keyReleaseEventEP9QKeyEvent
052eb094 T _ZN8QWebPage11qt_metacallEN11QMetaObject4CallEiPPv
052eb7a4 T _ZN8QWebPage23acceptNavigationRequestEP9QWebFrameRK15QNetworkRequestNS_14NavigationTypeE
052eb9e8 T _ZN8QWebPage13triggerActionENS_9WebActionEb
052ecbb8 T _ZN8QWebPage24javaScriptConsoleMessageERK7QStringiS2_
052ecf48 T _ZNK8QWebPage15userAgentForUrlERK4QUrl
052ed418 T _ZN8QWebPage18focusNextPrevChildEb
052ed584 T _ZNK8QWebPage6actionENS_9WebActionE
052ef260 T _ZNK8QWebPage16inputMethodQueryEN2Qt16InputMethodQueryE
052ef848 T _ZN15QWebPagePrivate16inputMethodEventEP17QInputMethodEvent
052efbb0 T _ZN8QWebPage5eventEP6QEvent
052f0440 T _ZN8QWebPage30updatePositionDependentActionsERK6QPoint
052f09c0 T _ZNK8QWebView8sizeHintEv
052f09d4 T _ZNK8QWebView5printEP8QPrinter
052f09d8 T _ZN8QWebView4stopEv
052f0a20 T _ZN8QWebView4backEv
052f0a68 T _ZN8QWebView7forwardEv
052f0ab0 T _ZN8QWebView6reloadEv
052f0af8 T _ZN8QWebView12createWindowEN8QWebPage13WebWindowTypeE
052f0b00 T _ZN8QWebView15mousePressEventEP11QMouseEvent
052f0b68 T _ZN8QWebView14dragEnterEventEP15QDragEnterEvent
052f0ba8 T _ZN8QWebView14dragLeaveEventEP15QDragLeaveEvent
052f0be8 T _ZN8QWebView13dragMoveEventEP14QDragMoveEvent
052f0c28 T _ZN8QWebView9dropEventEP10QDropEvent
052f0c68 T _ZN8QWebView16inputMethodEventEP17QInputMethodEvent
052f0ca8 T _ZNK8QWebView16inputMethodQueryEN2Qt16InputMethodQueryE
052f0d28 T _ZN8QWebView18focusNextPrevChildEb
052f0dbc T _ZN8QWebView13focusOutEventEP11QFocusEvent
052f0e1c T _ZN8QWebView12focusInEventEP11QFocusEvent
052f0e7c T _ZN8QWebView10paintEventEP11QPaintEvent
052f0fd4 T _ZN8QWebView11resizeEventEP12QResizeEvent
052f1018 T _ZN8QWebView8findTextERK7QString6QFlagsIN8QWebPage8FindFlagEE
052f1070 T _ZNK8QWebView10isModifiedEv
052f10b8 T _ZNK8QWebView4iconEv
052f1148 T _ZNK8QWebView3urlEv
052f11d8 T _ZNK8QWebView5titleEv
052f1274 T _ZN8QWebView7setPageEP8QWebPage
052f150c T _ZNK8QWebView4pageEv
052f15b4 T _ZNK8QWebView18textSizeMultiplierEv
052f1600 T _ZN8QWebView21setTextSizeMultiplierEf
052f165c T _ZNK8QWebView10zoomFactorEv
052f16a8 T _ZN8QWebView13setZoomFactorEf
052f1704 T _ZN8QWebView17triggerPageActionEN8QWebPage9WebActionEb
052f1760 T _ZNK8QWebView10pageActionEN8QWebPage9WebActionE
052f17ac T _ZN8QWebView6setUrlERK4QUrl
052f1808 T _ZNK8QWebView8settingsEv
052f1844 T _ZNK8QWebView7historyEv
052f1880 T _ZN8QWebView10setContentERK10QByteArrayRK7QStringRK4QUrl
052f18fc T _ZN8QWebView7setHtmlERK7QStringRK4QUrl
052f1968 T _ZN8QWebView4loadERK15QNetworkRequestN21QNetworkAccessManager9OperationERK10QByteArray
052f19e4 T _ZN8QWebView4loadERK4QUrl
052f1a40 T _ZN8QWebView15keyReleaseEventEP9QKeyEvent
052f1abc T _ZN8QWebView13keyPressEventEP9QKeyEvent
052f1b38 T _ZN8QWebView14mouseMoveEventEP11QMouseEvent
052f1ba0 T _ZN8QWebView10wheelEventEP11QWheelEvent
052f1c08 T _ZN8QWebView16contextMenuEventEP17QContextMenuEvent
052f1c70 T _ZN8QWebView17mouseReleaseEventEP11QMouseEvent
052f1cd8 T _ZN8QWebView21mouseDoubleClickEventEP11QMouseEvent
052f1d40 T _ZN8QWebView11changeEventEP6QEvent
052f1e0c T _ZN8QWebViewD0Ev
052f1f10 T _ZNK8QWebView12selectedTextEv
052f1f94 T _ZN8QWebViewC2EP7QWidget
052f208c T _ZN8QWebViewD1Ev
052f2174 T _ZN8QWebViewD2Ev
052f225c T _ZN8QWebViewC1EP7QWidget
052f2354 T _ZN8QWebView5eventEP6QEvent
052f25cc T _ZN15QWebHistoryItemC1ERKS_
052f25f0 T _ZN11QWebHistoryC2Ev
052f25fc T _ZN11QWebHistoryC1Ev
052f2608 T _ZN15QWebHistoryItemC2ERKS_
052f262c T _ZN11QWebHistory19setMaximumItemCountEi
052f2660 T _ZNK11QWebHistory16maximumItemCountEv
052f2694 T _ZNK11QWebHistory16currentItemIndexEv
052f26c8 T _ZNK11QWebHistory9canGoBackEv
052f2708 T _ZNK11QWebHistory12canGoForwardEv
052f2748 T _ZNK15QWebHistoryItem7isValidEv
052f275c T _ZNK15QWebHistoryItem8userDataEv
052f27dc T _ZNK15QWebHistoryItem4iconEv
052f287c T _ZNK15QWebHistoryItem11lastVisitedEv
052f2948 T _ZNK15QWebHistoryItem5titleEv
052f29e4 T _ZN15QWebHistoryItem11setUserDataERK8QVariant
052f2a24 T _ZNK11QWebHistory5countEv
052f2a5c T _ZN11QWebHistoryD1Ev
052f2afc T _ZN11QWebHistoryD2Ev
052f2b9c T _ZNK15QWebHistoryItem11originalUrlEv
052f2d04 T _ZNK15QWebHistoryItem3urlEv
052f2e6c T _ZN15QWebHistoryItemC1EP22QWebHistoryItemPrivate
052f2f68 T _ZNK11QWebHistory6itemAtEi
052f300c T _ZNK11QWebHistory11forwardItemEv
052f30ac T _ZNK11QWebHistory11currentItemEv
052f314c T _ZNK11QWebHistory8backItemEv
052f31ec T _ZN15QWebHistoryItemD2Ev
052f32ac T _ZN11QWebHistory5clearEv
052f34ac T _ZN15QWebHistoryItemC2EP22QWebHistoryItemPrivate
052f35a8 T _ZN15QWebHistoryItemaSERKS_
052f36b8 T _ZN15QWebHistoryItemD1Ev
052f3778 T _ZN11QWebHistory8goToItemERK15QWebHistoryItem
052f3824 T _ZN11QWebHistory7forwardEv
052f38c8 T _ZN11QWebHistory4backEv
052f396c T _ZNK11QWebHistory12forwardItemsEi
052f3b90 T _ZNK11QWebHistory9backItemsEi
052f3db4 T _ZNK11QWebHistory5itemsEv
052f3f14 T _Z45qt_websettings_offlineWebApplicationCachePathv
052f3f78 T _ZN12QWebSettings18offlineStoragePathEv
052f3fdc T _ZN12QWebSettings19maximumPagesInCacheEv
052f400c T _ZN12QWebSettings22setMaximumPagesInCacheEi
052f4090 T _ZN12QWebSettings17clearIconDatabaseEv
052f4118 T _ZNK12QWebSettings17userStyleSheetUrlEv
052f4314 T _ZN12QWebSettings24setObjectCacheCapacitiesEiii
052f444c T _Z39qt_websettings_localStorageDatabasePathP12QWebSettings
052f4698 T _ZN12QWebSettings21setOfflineStoragePathERK7QString
052f477c T _ZN12QWebSettings16iconDatabasePathEv
052f48a8 T _ZN12QWebSettings19setIconDatabasePathERK7QString
052f4a80 T _ZN12QWebSettingsD2Ev
052f4cbc T _ZN12QWebSettingsD1Ev
052f4ef8 T _ZN12QWebSettings10iconForUrlERK4QUrl
052f5090 T _Z48qt_websettings_setOfflineWebApplicationCachePathRK7QString
052f5938 T _ZN12QWebSettings10webGraphicENS_10WebGraphicE
052f5a14 T _ZN12QWebSettings13setWebGraphicENS_10WebGraphicERK7QPixmap
052f5c54 T _ZN12QWebSettingsC1Ev
052f76c8 T _ZN12QWebSettings14globalSettingsEv
052f7750 T _ZN12QWebSettings26offlineStorageDefaultQuotaEv
052f7788 T _ZN12QWebSettings29setOfflineStorageDefaultQuotaEx
052f77d8 T _ZNK12QWebSettings13testAttributeENS_12WebAttributeE
052f7924 T _ZNK12QWebSettings10fontFamilyENS_10FontFamilyE
052f7b58 T _ZNK12QWebSettings8fontSizeENS_8FontSizeE
052f7c80 T _ZN19QWebSettingsPrivate5applyEv
052f9ab0 T _Z42qt_websettings_setLocalStorageDatabasePathP12QWebSettingsRK7QString
052f9b00 T _ZN12QWebSettings14resetAttributeENS_12WebAttributeE
052f9b6c T _ZN12QWebSettings12setAttributeENS_12WebAttributeEb
052f9d08 T _ZN12QWebSettings15resetFontFamilyENS_10FontFamilyE
052f9d74 T _ZN12QWebSettings13setFontFamilyENS_10FontFamilyERK7QString
052f9f00 T _ZN12QWebSettings20setUserStyleSheetUrlERK4QUrl
052f9f54 T _ZN12QWebSettings13resetFontSizeENS_8FontSizeE
052f9fc0 T _ZN12QWebSettings11setFontSizeENS_8FontSizeEi
052fa39c T _ZN12QWebSettingsC2Ev
052fbe10 T _ZN20QWebHistoryInterface16defaultInterfaceEv
052fbe1c T _ZN20QWebHistoryInterfaceD0Ev
052fbec4 T _ZN20QWebHistoryInterfaceD1Ev
052fbf34 T _ZN20QWebHistoryInterfaceD2Ev
052fbfa4 T _ZN20QWebHistoryInterfaceC1EP7QObject
052fbfe8 T _ZN20QWebHistoryInterfaceC2EP7QObject
052fc02c T _ZN20QWebHistoryInterface19setDefaultInterfaceEPS_
052fc168 T _ZN17QWebPluginFactory14refreshPluginsEv
052fc16c T _ZN17QWebPluginFactory9extensionENS_9ExtensionEPKNS_15ExtensionOptionEPNS_15ExtensionReturnE
052fc174 T _ZNK17QWebPluginFactory17supportsExtensionENS_9ExtensionE
052fc17c T _ZN17QWebPluginFactoryD0Ev
052fc1d4 T _ZN17QWebPluginFactoryD1Ev
052fc20c T _ZN17QWebPluginFactoryD2Ev
052fc244 T _ZN17QWebPluginFactoryC1EP7QObject
052fc288 T _ZN17QWebPluginFactoryC2EP7QObject
052fc2cc T _ZN18QWebSecurityOriginC1ERKS_
052fc2f0 T _ZN18QWebSecurityOriginC2ERKS_
052fc314 T _ZNK18QWebSecurityOrigin13databaseUsageEv
052fc364 T _ZN18QWebSecurityOrigin16setDatabaseQuotaEx
052fc3d4 T _ZNK18QWebSecurityOrigin13databaseQuotaEv
052fc424 T _ZNK18QWebSecurityOrigin4portEv
052fc434 T _ZNK18QWebSecurityOrigin4hostEv
052fc504 T _ZN18QWebSecurityOriginD1Ev
052fc694 T _ZNK18QWebSecurityOrigin6schemeEv
052fc764 T _ZN18QWebSecurityOriginD2Ev
052fc8f4 T _ZN18QWebSecurityOriginaSERKS_
052fcad0 T _ZN18QWebSecurityOriginC2EP25QWebSecurityOriginPrivate
052fcc98 T _ZNK18QWebSecurityOrigin9databasesEv
052fcfec T _ZN18QWebSecurityOriginC1EP25QWebSecurityOriginPrivate
052fd1b4 T _ZN18QWebSecurityOrigin10allOriginsEv
052fd484 T _ZN12QWebDatabaseC2ERKS_
052fd4a8 T _ZNK12QWebDatabase4nameEv
052fd4ec T _ZN12QWebDatabase14removeDatabaseERKS_
052fd540 T _ZN12QWebDatabaseC1ERKS_
052fd564 T _ZNK12QWebDatabase8fileNameEv
052fd660 T _ZNK12QWebDatabase4sizeEv
052fd794 T _ZNK12QWebDatabase6originEv
052fd954 T _ZN12QWebDatabaseC1EP19QWebDatabasePrivate
052fdb64 T _ZNK12QWebDatabase12expectedSizeEv
052fdc98 T _ZNK12QWebDatabase11displayNameEv
052fddcc T _ZN12QWebDatabaseC2EP19QWebDatabasePrivate
052fdfdc T _ZN12QWebDatabaseaSERKS_
052fe200 T _ZN12QWebDatabaseD2Ev
052fe3d8 T _ZN12QWebDatabaseD1Ev
055e6ac8 T _Z10cssyyparsePv
055fe55c T _Z12xpathyyerrorPKc
055fe564 T _Z10xpathyylexP7YYSTYPE
055fe59c T _Z12xpathyyparsePv
05600748 T _ZNK17QWebPluginFactory10metaObjectEv
05600754 T _ZN17QWebPluginFactory11qt_metacallEN11QMetaObject4CallEiPPv
05600780 T _ZN17QWebPluginFactory11qt_metacastEPKc
05600820 T _ZNK9QWebFrame10metaObjectEv
0560082c T _ZN9QWebFrame11iconChangedEv
05600868 T _ZN9QWebFrame22initialLayoutCompletedEv
056008a4 T _ZN9QWebFrame10urlChangedERK4QUrl
056008ec T _ZN9QWebFrame12titleChangedERK7QString
05600934 T _ZN9QWebFrame15provisionalLoadEv
05600970 T _ZN9QWebFrame29javaScriptWindowObjectClearedEv
056009ac T _ZN9QWebFrame11qt_metacallEN11QMetaObject4CallEiPPv
05600df4 T _ZN9QWebFrame11qt_metacastEPKc
05600e94 T _ZNK8QWebView10metaObjectEv
05600ea0 T _ZN8QWebView10urlChangedERK4QUrl
05600ee8 T _ZN8QWebView11iconChangedEv
05600f24 T _ZN8QWebView16selectionChangedEv
05600f60 T _ZN8QWebView11linkClickedERK4QUrl
05600fa8 T _ZN8QWebView16statusBarMessageERK7QString
05600ff0 T _ZN8QWebView12titleChangedERK7QString
05601038 T _ZN8QWebView12loadFinishedEb
05601088 T _ZN8QWebView12loadProgressEi
056010d8 T _ZN8QWebView11loadStartedEv
05601114 T _ZN8QWebView11qt_metacastEPKc
056011b4 T _ZN8QWebView11qt_metacallEN11QMetaObject4CallEiPPv
056016ec T _ZNK20QWebHistoryInterface10metaObjectEv
056016f8 T _ZN20QWebHistoryInterface11qt_metacallEN11QMetaObject4CallEiPPv
05601724 T _ZN20QWebHistoryInterface11qt_metacastEPKc
056017c4 T _Z24qCleanupResources_WebKitv
05601810 T _Z21qInitResources_WebKitv
056018e4 T _GLOBAL__D__Z21qInitResources_WebKitv
0560191c T _GLOBAL__I__Z21qInitResources_WebKitv
05601ae4 W _ZN3WTF6VectorINS_19FunctionWithContextELj0EE6shrinkEj
05601aec W _ZN3WTF6VectorINS_19FunctionWithContextELj0EE15reserveCapacityEj
05601c0c W _ZN3WTF6VectorINS_19FunctionWithContextELj0EE14expandCapacityEj
05601c9c W _ZN3WTF6VectorINS_19FunctionWithContextELj0EE14expandCapacityEjPKS1_
05601d4c W _ZNK3JSC21UStringSourceProvider4dataEv
05601d70 W _ZNK3JSC21UStringSourceProvider6lengthEv
05601d7c W _ZN3JSC6JSCell4markEv
05601dac W _ZNK3JSC6JSCell8isObjectEPKNS_9ClassInfoE
05601e28 W _ZN3JSC7JSValueD1Ev
05601e38 W _ZN3JSC6JSCellD1Ev
05601e48 W _ZNK3JSC21UStringSourceProvider8getRangeEii
05601e8c W _ZN3JSC7JSValueD0Ev
05601ec4 W _ZN3JSC6JSCellD0Ev
05601efc W _ZN3JSC14SourceProviderD1Ev
05601f68 W _ZN3JSC21UStringSourceProviderD1Ev
05602028 W _ZN3JSC21UStringSourceProviderD0Ev
05602110 W _ZN3JSC14SourceProviderD0Ev
056021b4 W _ZNK3JSC8JSObject14isGlobalObjectEv
056021bc W _ZNK3JSC8JSObject16isVariableObjectEv
056021c4 W _ZNK3JSC8JSObject19isWatchdogExceptionEv
056021cc W _ZNK3JSC8JSObject22isNotAnObjectErrorStubEv
056021d4 W _ZNK3JSC8JSObject11toPrimitiveEPNS_9ExecStateENS_22PreferredPrimitiveTypeE
05602200 W _ZNK3JSC21JSCallbackConstructor9classInfoEv
0560220c W _ZN3WTF6VectorIPK13OpaqueJSValueLj16EE6shrinkEj
05602214 W _ZN3JSC8JSObject18getOwnPropertySlotEPNS_9ExecStateERKNS_10IdentifierERNS_12PropertySlotE
05602458 W _ZNK3JSC18JSCallbackFunction9classInfoEv
05602464 W _ZN3JSC18JSCallbackFunctionD1Ev
0560258c W _ZN3JSC18JSCallbackFunctionD0Ev
056026e0 W _ZN3WTF6VectorIPFvPK15OpaqueJSContextP13OpaqueJSValueELj16EE6shrinkEj
056026e8 W _ZN3WTF9HashTableIP13OpaqueJSClassSt4pairIS2_P24OpaqueJSClassContextDataENS_18PairFirstExtractorIS6_EENS_7PtrHashIS2_EENS_14PairHashTraitsINS_10HashTraitsIS2_EENSC_IS5_EEEESD_E4findIS2_NS_22IdentityHashTranslatorIS2_S6_SA_EEEENS_17HashTableIteratorIS2_S6_S8_SA_SF_SD_EERKT_
05602838 W _ZNK3JSC16JSCallbackObjectINS_8JSObjectEE9classInfoEv
05602844 W _ZN3WTF9HashTableIP13OpaqueJSClassSt4pairIS2_P24OpaqueJSClassContextDataENS_18PairFirstExtractorIS6_EENS_7PtrHashIS2_EENS_14PairHashTraitsINS_10HashTraitsIS2_EENSC_IS5_EEEESD_E15deallocateTableEPS6_i
05602870 W _ZN3WTF9HashTableIP13OpaqueJSClassSt4pairIS2_P24OpaqueJSClassContextDataENS_18PairFirstExtractorIS6_EENS_7PtrHashIS2_EENS_14PairHashTraitsINS_10HashTraitsIS2_EENSC_IS5_EEEESD_E13allocateTableEi
056028a0 W _ZN3WTF9HashTableIP13OpaqueJSClassSt4pairIS2_P24OpaqueJSClassContextDataENS_18PairFirstExtractorIS6_EENS_7PtrHashIS2_EENS_14PairHashTraitsINS_10HashTraitsIS2_EENSC_IS5_EEEESD_E6rehashEi
05602a78 W _ZN3WTF9HashTableIP13OpaqueJSClassSt4pairIS2_P24OpaqueJSClassContextDataENS_18PairFirstExtractorIS6_EENS_7PtrHashIS2_EENS_14PairHashTraitsINS_10HashTraitsIS2_EENSC_IS5_EEEESD_E6expandEv
05602b0c W _ZN3WTF7HashMapIP13OpaqueJSClassP24OpaqueJSClassContextDataNS_7PtrHashIS2_EENS_10HashTraitsIS2_EENS7_IS4_EEE3addERKS2_RKS4_
05602db4 W _ZN3WTF9HashTableINS_6RefPtrIN3JSC7UString3RepEEESt4pairIS5_P19StaticFunctionEntryENS_18PairFirstExtractorIS9_EENS_7StrHashIS5_EENS_14PairHashTraitsINS_10HashTraitsIS5_EENSF_IS8_EEEESG_E13allocateTableEi
05602de4 W _ZN3WTF9HashTableINS_6RefPtrIN3JSC7UString3RepEEESt4pairIS5_P16StaticValueEntryENS_18PairFirstExtractorIS9_EENS_7StrHashIS5_EENS_14PairHashTraitsINS_10HashTraitsIS5_EENSF_IS8_EEEESG_E13allocateTableEi
05602e14 W _ZN3JSC16JSCallbackObjectINS_8JSObjectEE16getConstructDataERNS_13ConstructDataE
05602e50 W _ZN3JSC16JSCallbackObjectINS_8JSObjectEE11getCallDataERNS_8CallDataE
05602e8c W _ZNK3JSC16JSCallbackObjectINS_8JSObjectEE8toNumberEPNS_9ExecStateE
056030a4 W _ZN3JSC16JSCallbackObjectINS_8JSObjectEE11hasInstanceEPNS_9ExecStateENS_10JSValuePtrES5_
056031a4 W _ZN3JSC16JSCallbackObjectINS_8JSObjectEE4callEPNS_9ExecStateEPS1_NS_10JSValuePtrERKNS_7ArgListE
056033fc W _ZNK3JSC16JSCallbackObjectINS_8JSObjectEE8toStringEPNS_9ExecStateE
056035b8 W _ZN3WTF6VectorIPFvPK15OpaqueJSContextP13OpaqueJSValueELj16EE15reserveCapacityEj
056036cc W _ZN3WTF6VectorIPFvPK15OpaqueJSContextP13OpaqueJSValueELj16EE14expandCapacityEj
0560375c W _ZN3WTF6VectorIPFvPK15OpaqueJSContextP13OpaqueJSValueELj16EE14expandCapacityEjPKS7_
0560380c W _ZN3JSC16JSCallbackObjectINS_8JSObjectEE4initEPNS_9ExecStateE
056039e0 W _ZN3JSC16JSCallbackObjectINS_8JSObjectEE9constructEPNS_9ExecStateEPS1_RKNS_7ArgListE
05603be8 W _ZN3WTF9HashTableINS_6RefPtrIN3JSC7UString3RepEEESt4pairIS5_P19StaticFunctionEntryENS_18PairFirstExtractorIS9_EENS_7StrHashIS5_EENS_14PairHashTraitsINS_10HashTraitsIS5_EENSF_IS8_EEEESG_E15deallocateTableEPS9_i
05603ca0 W _ZN3WTF9HashTableINS_6RefPtrIN3JSC7UString3RepEEESt4pairIS5_P16StaticValueEntryENS_18PairFirstExtractorIS9_EENS_7StrHashIS5_EENS_14PairHashTraitsINS_10HashTraitsIS5_EENSF_IS8_EEEESG_E15deallocateTableEPS9_i
05603d58 W _ZN3JSC16JSCallbackObjectINS_8JSObjectEE14deletePropertyEPNS_9ExecStateEj
05603eb8 W _ZNK3JSC16JSCallbackObjectINS_8JSObjectEE9classNameEv
05603fa4 W _ZN3WTF9HashTableINS_6RefPtrIN3JSC7UString3RepEEESt4pairIS5_P16StaticValueEntryENS_18PairFirstExtractorIS9_EENS_7StrHashIS5_EENS_14PairHashTraitsINS_10HashTraitsIS5_EENSF_IS8_EEEESG_E4findIS5_NS_22IdentityHashTranslatorIS5_S9_SD_EEEENS_17HashTableIteratorIS5_S9_SB_SD_SI_SG_EERKT_
05604164 W _ZNK3WTF9HashTableINS_6RefPtrIN3JSC7UString3RepEEESt4pairIS5_P19StaticFunctionEntryENS_18PairFirstExtractorIS9_EENS_7StrHashIS5_EENS_14PairHashTraitsINS_10HashTraitsIS5_EENSF_IS8_EEEESG_E8containsIPS4_NS_29RefPtrHashMapRawKeyTranslatorISL_S9_SI_SD_EEEEbRKT_
056042f8 W _ZN3WTF20deleteAllPairSecondsIP16StaticValueEntryKNS_7HashMapINS_6RefPtrIN3JSC7UString3RepEEES2_NS_7StrHashIS8_EENS_10HashTraitsIS8_EENSB_IS2_EEEEEEvRT0_
056043c4 W _ZN3WTF9HashTableINS_6RefPtrIN3JSC7UString3RepEEESt4pairIS5_P19StaticFunctionEntryENS_18PairFirstExtractorIS9_EENS_7StrHashIS5_EENS_14PairHashTraitsINS_10HashTraitsIS5_EENSF_IS8_EEEESG_E4findIS5_NS_22IdentityHashTranslatorIS5_S9_SD_EEEENS_17HashTableIteratorIS5_S9_SB_SD_SI_SG_EERKT_
05604584 W _ZN3JSC16JSCallbackObjectINS_8JSObjectEE18getOwnPropertySlotEPNS_9ExecStateEjRNS_12PropertySlotE
056046f8 W _ZN3WTF9HashTableINS_6RefPtrIN3JSC7UString3RepEEESt4pairIS5_P16StaticValueEntryENS_18PairFirstExtractorIS9_EENS_7StrHashIS5_EENS_14PairHashTraitsINS_10HashTraitsIS5_EENSF_IS8_EEEESG_E6rehashEi
05604a44 W _ZN3WTF9HashTableINS_6RefPtrIN3JSC7UString3RepEEESt4pairIS5_P16StaticValueEntryENS_18PairFirstExtractorIS9_EENS_7StrHashIS5_EENS_14PairHashTraitsINS_10HashTraitsIS5_EENSF_IS8_EEEESG_E6expandEv
05604ad8 W _ZN3WTF7HashMapINS_6RefPtrIN3JSC7UString3RepEEEP16StaticValueEntryNS_7StrHashIS5_EENS_10HashTraitsIS5_EENSA_IS7_EEE3addERKS5_RKS7_
05604e48 W _ZNK3WTF9HashTableINS_6RefPtrIN3JSC7UString3RepEEESt4pairIS5_P16StaticValueEntryENS_18PairFirstExtractorIS9_EENS_7StrHashIS5_EENS_14PairHashTraitsINS_10HashTraitsIS5_EENSF_IS8_EEEESG_E8containsIPS4_NS_29RefPtrHashMapRawKeyTranslatorISL_S9_SI_SD_EEEEbRKT_
05604fdc W _ZN3WTF9HashTableINS_6RefPtrIN3JSC7UString3RepEEESt4pairIS5_P19StaticFunctionEntryENS_18PairFirstExtractorIS9_EENS_7StrHashIS5_EENS_14PairHashTraitsINS_10HashTraitsIS5_EENSF_IS8_EEEESG_E6rehashEi
05605328 W _ZN3WTF9HashTableINS_6RefPtrIN3JSC7UString3RepEEESt4pairIS5_P19StaticFunctionEntryENS_18PairFirstExtractorIS9_EENS_7StrHashIS5_EENS_14PairHashTraitsINS_10HashTraitsIS5_EENSF_IS8_EEEESG_E6expandEv
056053bc W _ZN3WTF7HashMapINS_6RefPtrIN3JSC7UString3RepEEEP19StaticFunctionEntryNS_7StrHashIS5_EENS_10HashTraitsIS5_EENSA_IS7_EEE3addERKS5_RKS7_
0560572c W _ZN3JSC16JSCallbackObjectINS_8JSObjectEE16getPropertyNamesEPNS_9ExecStateERNS_17PropertyNameArrayE
05605b18 W _ZN3WTF20deleteAllPairSecondsIP19StaticFunctionEntryKNS_7HashMapINS_6RefPtrIN3JSC7UString3RepEEES2_NS_7StrHashIS8_EENS_10HashTraitsIS8_EENSB_IS2_EEEEEEvRT0_
05605bdc W _ZN3JSC16JSCallbackObjectINS_8JSObjectEED1Ev
05605d84 W _ZNK3WTF7HashMapINS_6RefPtrIN3JSC7UString3RepEEEP16StaticValueEntryNS_7StrHashIS5_EENS_10HashTraitsIS5_EENSA_IS7_EEE3getEPS4_
05605f14 W _ZNK3WTF7HashMapINS_6RefPtrIN3JSC7UString3RepEEEP19StaticFunctionEntryNS_7StrHashIS5_EENS_10HashTraitsIS5_EENSA_IS7_EEE3getEPS4_
056060a4 W _ZN3JSC16JSCallbackObjectINS_8JSObjectEEC1EPNS_9ExecStateEN3WTF10PassRefPtrINS_9StructureEEEP13OpaqueJSClassPv
05606178 W _ZN3JSC16JSCallbackObjectINS_8JSObjectEE17staticValueGetterEPNS_9ExecStateERKNS_10IdentifierERKNS_12PropertySlotE
05606398 W _ZN3JSC16JSCallbackObjectINS_8JSObjectEE14deletePropertyEPNS_9ExecStateERKNS_10IdentifierE
05606628 W _ZN3JSC16JSCallbackObjectINS_8JSObjectEE14callbackGetterEPNS_9ExecStateERKNS_10IdentifierERKNS_12PropertySlotE
056067fc W _ZN3JSC16JSCallbackObjectINS_8JSObjectEE18getOwnPropertySlotEPNS_9ExecStateERKNS_10IdentifierERNS_12PropertySlotE
05606d3c W _ZN3JSC16JSCallbackObjectINS_8JSObjectEE3putEPNS_9ExecStateERKNS_10IdentifierENS_10JSValuePtrERNS_15PutPropertySlotE
05607234 W _ZN3JSC16JSCallbackObjectINS_8JSObjectEED0Ev
05607400 W _ZN3JSC16JSCallbackObjectINS_8JSObjectEE20staticFunctionGetterEPNS_9ExecStateERKNS_10IdentifierERKNS_12PropertySlotE
0560791c W _ZNK3JSC14JSGlobalObject17supportsProfilingEv
05607924 W _ZNK3JSC14JSGlobalObject14isGlobalObjectEv
0560792c W _ZNK3JSC14JSGlobalObject21shouldInterruptScriptEv
05607934 W _ZNK3JSC14JSGlobalObject16allowsAccessFromEPKS0_
0560793c W _ZNK3JSC16JSCallbackObjectINS_14JSGlobalObjectEE9classInfoEv
05607948 W _ZN3WTF9HashTableIPN3JSC16ProgramCodeBlockES3_NS_17IdentityExtractorIS3_EENS_7PtrHashIS3_EENS_10HashTraitsIS3_EES9_E15deallocateTableEPS3_i
05607974 W _ZN3JSC16JSCallbackObjectINS_14JSGlobalObjectEE16getConstructDataERNS_13ConstructDataE
056079b0 W _ZN3JSC16JSCallbackObjectINS_14JSGlobalObjectEE11getCallDataERNS_8CallDataE
056079ec W _ZN3JSC16JSCallbackObjectINS_14JSGlobalObjectEE11hasInstanceEPNS_9ExecStateENS_10JSValuePtrES5_
05607aec W _ZNK3JSC16JSCallbackObjectINS_14JSGlobalObjectEE8toStringEPNS_9ExecStateE
05607ca8 W _ZNK3JSC16JSCallbackObjectINS_14JSGlobalObjectEE8toNumberEPNS_9ExecStateE
05607ec0 W _ZN3JSC16JSCallbackObjectINS_14JSGlobalObjectEE4callEPNS_9ExecStateEPNS_8JSObjectENS_10JSValuePtrERKNS_7ArgListE
05608118 W _ZN3JSC16JSCallbackObjectINS_14JSGlobalObjectEED0Ev
056081e8 W _ZN3JSC16JSCallbackObjectINS_14JSGlobalObjectEED1Ev
056082a8 W _ZN3JSC16JSCallbackObjectINS_14JSGlobalObjectEE4initEPNS_9ExecStateE
0560847c W _ZN3JSC14JSGlobalObject18getOwnPropertySlotEPNS_9ExecStateERKNS_10IdentifierERNS_12PropertySlotERb
05608720 W _ZN3WTF9HashTableINS_6RefPtrIN3JSC7UString3RepEEESt4pairIS5_NS2_16SymbolTableEntryEENS_18PairFirstExtractorIS8_EENS2_17IdentifierRepHashENS_14PairHashTraitsINS_10HashTraitsIS5_EENS2_26SymbolTableIndexHashTraitsEEESE_E15deallocateTableEPS8_i
056087d8 W _ZN3JSC16JSCallbackObjectINS_14JSGlobalObjectEE14deletePropertyEPNS_9ExecStateEj
05608938 W _ZNK3JSC16JSCallbackObjectINS_14JSGlobalObjectEE9classNameEv
05608a24 W _ZN3JSC16JSCallbackObjectINS_14JSGlobalObjectEE9constructEPNS_9ExecStateEPNS_8JSObjectERKNS_7ArgListE
05608c2c W _ZN3JSC16JSCallbackObjectINS_14JSGlobalObjectEE16getPropertyNamesEPNS_9ExecStateERNS_17PropertyNameArrayE
05609018 W _ZN3JSC16JSCallbackObjectINS_14JSGlobalObjectEE18getOwnPropertySlotEPNS_9ExecStateEjRNS_12PropertySlotE
0560918c W _ZN3JSC14JSGlobalObject18JSGlobalObjectDataD0Ev
0560971c W _ZN3JSC14JSGlobalObject18JSGlobalObjectDataD1Ev
05609ccc W _ZN3JSC16JSCallbackObjectINS_14JSGlobalObjectEE14deletePropertyEPNS_9ExecStateERKNS_10IdentifierE
05609f5c W _ZN3JSC16JSCallbackObjectINS_14JSGlobalObjectEEC1EP13OpaqueJSClass
0560a180 W _ZN3JSC16JSCallbackObjectINS_14JSGlobalObjectEE17staticValueGetterEPNS_9ExecStateERKNS_10IdentifierERKNS_12PropertySlotE
0560a3a0 W _ZN3JSC16JSCallbackObjectINS_14JSGlobalObjectEE14callbackGetterEPNS_9ExecStateERKNS_10IdentifierERKNS_12PropertySlotE
0560a574 W _ZN3JSC16JSCallbackObjectINS_14JSGlobalObjectEE20staticFunctionGetterEPNS_9ExecStateERKNS_10IdentifierERKNS_12PropertySlotE
0560ab68 W _ZN3JSC16JSCallbackObjectINS_14JSGlobalObjectEE18getOwnPropertySlotEPNS_9ExecStateERKNS_10IdentifierERNS_12PropertySlotE
0560b190 W _ZN3JSC16JSCallbackObjectINS_14JSGlobalObjectEE3putEPNS_9ExecStateERKNS_10IdentifierENS_10JSValuePtrERNS_15PutPropertySlotE
0560b688 W _ZN3JSC16JSCallbackObjectINS_14JSGlobalObjectEE10getPrivateEv
0560b694 W _ZN3JSC16JSCallbackObjectINS_8JSObjectEE10getPrivateEv
0560b6a0 W _ZN3JSC16JSCallbackObjectINS_14JSGlobalObjectEE10setPrivateEPv
0560b6ac W _ZN3JSC16JSCallbackObjectINS_8JSObjectEE10setPrivateEPv
0560b6b8 W _ZN3WTF6VectorIN3JSC8RegisterELj8EE6shrinkEj
0560b6c0 W _ZN3WTF9HashTableIPN3JSC7ArgListES3_NS_17IdentityExtractorIS3_EENS_7PtrHashIS3_EENS_10HashTraitsIS3_EES9_E4findIS3_NS_22IdentityHashTranslatorIS3_S3_S7_EEEENS_17HashTableIteratorIS3_S3_S5_S7_S9_S9_EERKT_
0560b810 W _ZN3WTF9HashTableIPN3JSC7UString3RepES4_NS_17IdentityExtractorIS4_EENS_7PtrHashIS4_EENS_10HashTraitsIS4_EESA_E15deallocateTableEPS4_i
0560b83c W _ZN3WTF9HashTableIPN3JSC7ArgListES3_NS_17IdentityExtractorIS3_EENS_7PtrHashIS3_EENS_10HashTraitsIS3_EES9_E15deallocateTableEPS3_i
0560b868 W _ZN3WTF9HashTableIPN3JSC7ArgListES3_NS_17IdentityExtractorIS3_EENS_7PtrHashIS3_EENS_10HashTraitsIS3_EES9_E13allocateTableEi
0560b898 W _ZN3WTF9HashTableIPN3JSC7ArgListES3_NS_17IdentityExtractorIS3_EENS_7PtrHashIS3_EENS_10HashTraitsIS3_EES9_E6rehashEi
0560ba60 W _ZN3WTF9HashTableIPN3JSC7ArgListES3_NS_17IdentityExtractorIS3_EENS_7PtrHashIS3_EENS_10HashTraitsIS3_EES9_E6removeEPS3_
0560badc W _ZN3WTF9HashTableIPN3JSC7ArgListES3_NS_17IdentityExtractorIS3_EENS_7PtrHashIS3_EENS_10HashTraitsIS3_EES9_E47removeAndInvalidateWithoutEntryConsistencyCheckEPS3_
0560bb08 W _ZN3WTF6VectorI11JSRetainPtrIP14OpaqueJSStringELj0EE6shrinkEj
0560bba4 W _ZN3WTF6VectorI11JSRetainPtrIP14OpaqueJSStringELj0EE15reserveCapacityEj
0560bd0c W _ZN3WTF6VectorI11JSRetainPtrIP14OpaqueJSStringELj0EE14expandCapacityEj
0560bd9c W _ZN3WTF6VectorI11JSRetainPtrIP14OpaqueJSStringELj0EE14expandCapacityEjPKS4_
0560be4c W _ZN3WTF6VectorIN3JSC10IdentifierELj20EE6shrinkEj
0560bf0c W _ZN3WTF6VectorItLj1024EE6shrinkEj
0560bf14 W _ZNK3JSC16JSCallbackObjectINS_14JSGlobalObjectEE8inheritsEP13OpaqueJSClass
0560bf54 W _ZNK3JSC16JSCallbackObjectINS_8JSObjectEE8inheritsEP13OpaqueJSClass
0560bf94 W _ZN3WTF20deleteAllPairSecondsIP24OpaqueJSClassContextDataKNS_7HashMapIP13OpaqueJSClassS2_NS_7PtrHashIS5_EENS_10HashTraitsIS5_EENS8_IS2_EEEEEEvRT0_
0560c078 W _ZN3WTF9HashTableIPN3JSC16ParserRefCountedESt4pairIS3_jENS_18PairFirstExtractorIS5_EENS_7PtrHashIS3_EENS_14PairHashTraitsINS_10HashTraitsIS3_EENSB_IjEEEESC_E15deallocateTableEPS5_i
0560c0a4 W _ZN3WTF9HashTableIPN3JSC16ParserRefCountedES3_NS_17IdentityExtractorIS3_EENS_7PtrHashIS3_EENS_10HashTraitsIS3_EES9_E15deallocateTableEPS3_i
0560c0d0 W _ZN3WTF9HashTableIPN3JSC8JSObjectES3_NS_17IdentityExtractorIS3_EENS_7PtrHashIS3_EENS_10HashTraitsIS3_EES9_E15deallocateTableEPS3_i
0560c0fc W _ZN3JSC17CommonIdentifiersD1Ev
0560c954 W _ZN3WTF10RefCountedIN3JSC9StructureEE5derefEv
0560c9d0 W _ZN3JSC9Structure6createENS_10JSValuePtrERKNS_8TypeInfoE
0560ca54 W _ZN3JSC8JSObject26putDirectWithoutTransitionERKNS_10IdentifierENS_10JSValuePtrEj
0560caf0 W _ZN3WTF9HashTableINS_6RefPtrIN3JSC7UString3RepEEESt4pairIS5_NS2_16SymbolTableEntryEENS_18PairFirstExtractorIS8_EENS2_17IdentifierRepHashENS_14PairHashTraitsINS_10HashTraitsIS5_EENS2_26SymbolTableIndexHashTraitsEEESE_E13allocateTableEi
0560cb20 W _ZN3WTF9HashTableINS_6RefPtrIN3JSC7UString3RepEEESt4pairIS5_NS2_16SymbolTableEntryEENS_18PairFirstExtractorIS8_EENS2_17IdentifierRepHashENS_14PairHashTraitsINS_10HashTraitsIS5_EENS2_26SymbolTableIndexHashTraitsEEESE_E4findIS5_NS_22IdentityHashTranslatorIS5_S8_SB_EEEENS_17HashTableIteratorIS5_S8_SA_SB_SG_SE_EERKT_
0560cc3c W _ZN3WTF9HashTableINS_6RefPtrIN3JSC7UString3RepEEESt4pairIS5_NS2_16SymbolTableEntryEENS_18PairFirstExtractorIS8_EENS2_17IdentifierRepHashENS_14PairHashTraitsINS_10HashTraitsIS5_EENS2_26SymbolTableIndexHashTraitsEEESE_E6rehashEi
0560cef4 W _ZN3WTF9HashTableINS_6RefPtrIN3JSC7UString3RepEEESt4pairIS5_NS2_16SymbolTableEntryEENS_18PairFirstExtractorIS8_EENS2_17IdentifierRepHashENS_14PairHashTraitsINS_10HashTraitsIS5_EENS2_26SymbolTableIndexHashTraitsEEESE_E6expandEv
0560cf88 W _ZN3WTF7HashMapINS_6RefPtrIN3JSC7UString3RepEEENS2_16SymbolTableEntryENS2_17IdentifierRepHashENS_10HashTraitsIS5_EENS2_26SymbolTableIndexHashTraitsEE3addEPS4_RKS6_
0560d2b8 W _ZN3WTF9HashTableINS_6RefPtrIN3JSC7UString3RepEEESt4pairIS5_NS2_16SymbolTableEntryEENS_18PairFirstExtractorIS8_EENS2_17IdentifierRepHashENS_14PairHashTraitsINS_10HashTraitsIS5_EENS2_26SymbolTableIndexHashTraitsEEESE_E4findIPS4_NS_29RefPtrHashMapRawKeyTranslatorISJ_S8_SG_SB_EEEENS_17HashTableIteratorIS5_S8_SA_SB_SG_SE_EERKT_
0560d3d4 W _ZN3JSC14JSGlobalObject18getOwnPropertySlotEPNS_9ExecStateERKNS_10IdentifierERNS_12PropertySlotE
0560d738 W _ZN3JSC19JSStaticScopeObject18getOwnPropertySlotEPNS_9ExecStateERKNS_10IdentifierERNS_12PropertySlotE
0560d820 W _ZN3JSC19JSStaticScopeObject18getOwnPropertySlotEPNS_9ExecStateERKNS_10IdentifierERNS_12PropertySlotERb
0560d930 W _ZNK3WTF7HashMapINS_6RefPtrIN3JSC7UString3RepEEENS2_16SymbolTableEntryENS2_17IdentifierRepHashENS_10HashTraitsIS5_EENS2_26SymbolTableIndexHashTraitsEE3getEPS4_
0560d9e4 W _ZN3JSC16JSVariableObjectD0Ev
0560db38 W _ZNK3WTF9HashTableINS_6RefPtrIN3JSC7UString3RepEEESt4pairIS5_NS2_16SymbolTableEntryEENS_18PairFirstExtractorIS8_EENS2_17IdentifierRepHashENS_14PairHashTraitsINS_10HashTraitsIS5_EENS2_26SymbolTableIndexHashTraitsEEESE_E8containsIPS4_NS_29RefPtrHashMapRawKeyTranslatorISJ_S8_SG_SB_EEEEbRKT_
0560dbf8 W _ZN3JSC16JSVariableObjectD1Ev
0560dd20 W _ZNK3JSC12JSActivation9classInfoEv
0560dd2c W _ZN3JSC8JSObject9putDirectERKNS_10IdentifierENS_10JSValuePtrEjbRNS_15PutPropertySlotE
0560e010 W _ZN3JSC13JSNotAnObjectD1Ev
0560e138 W _ZN3JSC13JSNotAnObjectD0Ev
0560e28c W _ZN3WTF6VectorIiLj0EE6shrinkEj
0560e294 W _ZN3WTF6VectorIN3JSC11HandlerInfoELj0EE6shrinkEj
0560e29c W _ZN3WTF6VectorIN3JSC10JSValuePtrELj0EE6shrinkEj
0560e2a4 W _ZN3WTF6VectorIN3JSC19ExpressionRangeInfoELj0EE6shrinkEj
0560e2ac W _ZN3WTF6VectorIN3JSC8LineInfoELj0EE6shrinkEj
0560e2b4 W _ZN3WTF6VectorIN3JSC20GetByIdExceptionInfoELj0EE6shrinkEj
0560e2bc W _ZN3WTF6VectorIN3JSC11InstructionELj0EE6shrinkEj
0560e2c4 W _ZN3WTF6VectorIjLj0EE6shrinkEj
0560e2cc W _ZN3WTF6VectorIN3JSC8RegisterELj0EE6shrinkEj
0560e2d4 W _ZN3WTF6VectorIiLj0EEC1ERKS1_
0560e38c W _ZN3WTF6VectorINS_6RefPtrIN3JSC12FuncExprNodeEEELj0EE6shrinkEj
0560e428 W _ZN3WTF6VectorINS_6RefPtrIN3JSC12FuncDeclNodeEEELj0EE6shrinkEj
0560e4c4 W _ZN3WTF6VectorINS_6RefPtrIN3JSC6RegExpEEELj0EE6shrinkEj
0560e5ac W _ZN3WTF6VectorINS_6RefPtrIN3JSC12FuncExprNodeEEELj0EE14shrinkCapacityEj
0560e6ec W _ZN3WTF6VectorIN3JSC11InstructionELj0EE14shrinkCapacityEj
0560e82c W _ZN3WTF6VectorIjLj0EE14shrinkCapacityEj
0560e96c W _ZN3WTF6VectorIN3JSC8RegisterELj0EE14shrinkCapacityEj
0560eaac W _ZN3WTF6VectorINS_6RefPtrIN3JSC12FuncDeclNodeEEELj0EE14shrinkCapacityEj
0560ebec W _ZN3WTF6VectorIN3JSC10JSValuePtrELj0EE14shrinkCapacityEj
0560ed38 W _ZN3WTF6VectorINS_6RefPtrIN3JSC6RegExpEEELj0EE14shrinkCapacityEj
0560ee78 W _ZN3WTF6VectorIN3JSC19ExpressionRangeInfoELj0EE14shrinkCapacityEj
0560efd4 W _ZN3WTF6VectorIN3JSC8LineInfoELj0EE14shrinkCapacityEj
0560f128 W _ZN3WTF6VectorIN3JSC20GetByIdExceptionInfoELj0EE14shrinkCapacityEj
0560f274 W _ZN3WTF6VectorIN3JSC11HandlerInfoELj0EE14shrinkCapacityEj
0560f3d8 W _ZN3WTF9HashTableINS_6RefPtrIN3JSC7UString3RepEEESt4pairIS5_NS2_14OffsetLocationEENS_18PairFirstExtractorIS8_EENS_7StrHashIS5_EENS_14PairHashTraitsINS_10HashTraitsIS5_EENSE_IS7_EEEESF_E13allocateTableEi
0560f438 W _ZN3WTF6VectorIN3JSC10IdentifierELj0EE6shrinkEj
0560f4f8 W _ZN3WTF6VectorIN3JSC10IdentifierELj0EE14shrinkCapacityEj
0560f6b8 W _ZN3WTF9HashTableINS_6RefPtrIN3JSC7UString3RepEEESt4pairIS5_NS1_INS2_8EvalNodeEEEENS_18PairFirstExtractorIS9_EENS_7StrHashIS5_EENS_14PairHashTraitsINS_10HashTraitsIS5_EENSF_IS8_EEEESG_E15deallocateTableEPS9_i
0560f7ac W _ZN3WTF9HashTableINS_6RefPtrIN3JSC7UString3RepEEESt4pairIS5_NS2_14OffsetLocationEENS_18PairFirstExtractorIS8_EENS_7StrHashIS5_EENS_14PairHashTraitsINS_10HashTraitsIS5_EENSE_IS7_EEEESF_E15deallocateTableEPS8_i
0560f864 W _ZN3WTF6VectorIN3JSC15StringJumpTableELj0EE6shrinkEj
0560f8fc W _ZN3WTF6VectorIN3JSC15SimpleJumpTableELj0EE6shrinkEj
0560f9fc W _ZN3WTF6VectorIN3JSC15SimpleJumpTableELj0EE14shrinkCapacityEj
0560fbf0 W _ZN3JSC6Parser7reparseINS_8EvalNodeEEEN3WTF10PassRefPtrIT_EEPNS_12JSGlobalDataEPS5_
0560fd8c W _ZN3JSC6Parser7reparseINS_16FunctionBodyNodeEEEN3WTF10PassRefPtrIT_EEPNS_12JSGlobalDataEPS5_
0560ff40 W _ZN3WTF9HashTableINS_6RefPtrIN3JSC7UString3RepEEESt4pairIS5_NS2_14OffsetLocationEENS_18PairFirstExtractorIS8_EENS_7StrHashIS5_EENS_14PairHashTraitsINS_10HashTraitsIS5_EENSE_IS7_EEEESF_E6rehashEi
0561028c W _ZN3WTF9HashTableINS_6RefPtrIN3JSC7UString3RepEEESt4pairIS5_NS2_14OffsetLocationEENS_18PairFirstExtractorIS8_EENS_7StrHashIS5_EENS_14PairHashTraitsINS_10HashTraitsIS5_EENSE_IS7_EEEESF_E6expandEv
05610320 W _ZN3WTF9HashTableINS_6RefPtrIN3JSC7UString3RepEEESt4pairIS5_NS2_14OffsetLocationEENS_18PairFirstExtractorIS8_EENS_7StrHashIS5_EENS_14PairHashTraitsINS_10HashTraitsIS5_EENSE_IS7_EEEESF_E4findIS5_NS_22IdentityHashTranslatorIS5_S8_SC_EEEENS_17HashTableIteratorIS5_S8_SA_SC_SH_SF_EERKT_
056104e0 W _ZN3WTF9HashTableINS_6RefPtrIN3JSC7UString3RepEEESt4pairIS5_NS2_14OffsetLocationEENS_18PairFirstExtractorIS8_EENS_7StrHashIS5_EENS_14PairHashTraitsINS_10HashTraitsIS5_EENSE_IS7_EEEESF_EC1ERKSI_
05610830 W _ZN3WTF6VectorIN3JSC15StringJumpTableELj0EE14shrinkCapacityEj
056109cc W _ZN3WTF6VectorIiLj8EE6shrinkEj
056109d4 W _ZN3WTF6VectorIN3JSC18ControlFlowContextELj0EE6shrinkEj
056109dc W _ZN3WTF6VectorIN3JSC10SwitchInfoELj0EE6shrinkEj
056109e4 W _ZN3WTF6VectorIPN3JSC10RegisterIDELj32EE6shrinkEj
056109ec W _ZN3WTF6VectorINS_6RefPtrIN3JSC10RegisterIDEEELj16EE6shrinkEj
05610a38 W _ZN3WTF6VectorINS_6RefPtrIN3JSC10RegisterIDEEELj8EE6shrinkEj
05610a84 W _ZN3WTF6VectorIN3JSC10RegisterIDELj512EE6shrinkEj
05610a8c W _ZN3WTF6VectorIN3JSC10LabelScopeELj256EE6shrinkEj
05610af4 W _ZN3WTF9HashTableIdSt4pairIdN3JSC10JSValuePtrEENS_18PairFirstExtractorIS4_EENS_9FloatHashIdEENS_14PairHashTraitsINS_10HashTraitsIdEENSA_IS3_EEEESB_E15isDeletedBucketERKS4_
05610b14 W _ZN3WTF18PairFirstExtractorISt4pairIdN3JSC10JSValuePtrEEE7extractERKS4_
05610b18 W _ZN3WTF9HashTableIdSt4pairIdN3JSC10JSValuePtrEENS_18PairFirstExtractorIS4_EENS_9FloatHashIdEENS_14PairHashTraitsINS_10HashTraitsIdEENSA_IS3_EEEESB_E13isEmptyBucketERKS4_
05610b34 W _ZN3WTF14PairHashTraitsINS_10HashTraitsIdEENS1_IN3JSC10JSValuePtrEEEE10emptyValueEv
05610b4c W _ZN3WTF9HashTableIPN3JSC23JSValueEncodedAsPointerESt4pairIS3_jENS_18PairFirstExtractorIS5_EENS_7PtrHashIS3_EENS_14PairHashTraitsINS1_17BytecodeGenerator17JSValueHashTraitsENS_10HashTraitsIjEEEESC_E4findIS3_NS_22IdentityHashTranslatorIS3_S5_S9_EEEENS_17HashTableIteratorIS3_S5_S7_S9_SF_SC_EERKT_
05610c9c W _ZN3WTF9HashTableIPN3JSC7UString3RepESt4pairIS4_PNS1_8JSStringEENS_18PairFirstExtractorIS8_EENS1_17IdentifierRepHashENS_14PairHashTraitsINS_10HashTraitsIS4_EENSD_IS7_EEEESE_E4findIS4_NS_22IdentityHashTranslatorIS4_S8_SB_EEEENS_17HashTableIteratorIS4_S8_SA_SB_SG_SE_EERKT_
05610db8 W _ZN3WTF22IdentityHashTranslatorIdSt4pairIdN3JSC10JSValuePtrEENS_9FloatHashIdEEE5equalERKdS9_
05610dd0 W _ZNSt4pairIdN3JSC10JSValuePtrEE4swapERS2_
05610df4 W _ZN3WTF9HashTableIdSt4pairIdN3JSC10JSValuePtrEENS_18PairFirstExtractorIS4_EENS_9FloatHashIdEENS_14PairHashTraitsINS_10HashTraitsIdEENSA_IS3_EEEESB_E13allocateTableEi
05610e8c W _ZN3WTF6VectorIN3JSC20GetByIdExceptionInfoELj0EE15reserveCapacityEj
05610f9c W _ZN3WTF6VectorIN3JSC20GetByIdExceptionInfoELj0EE14expandCapacityEj
0561102c W _ZN3WTF6VectorIN3JSC20GetByIdExceptionInfoELj0EE14expandCapacityEjPKS2_
056110dc W _ZN3WTF6VectorIN3JSC10SwitchInfoELj0EE15reserveCapacityEj
056111f4 W _ZN3WTF6VectorIN3JSC10SwitchInfoELj0EE14expandCapacityEj
05611284 W _ZN3WTF6VectorIN3JSC10SwitchInfoELj0EE14expandCapacityEjPKS2_
05611334 W _ZN3WTF6VectorIN3JSC18ControlFlowContextELj0EE15reserveCapacityEj
05611454 W _ZN3WTF6VectorIN3JSC18ControlFlowContextELj0EE14expandCapacityEj
056114e4 W _ZN3WTF6VectorIN3JSC18ControlFlowContextELj0EE14expandCapacityEjPKS2_
05611594 W _ZN3WTF9HashTableIPN3JSC7UString3RepESt4pairIS4_PNS1_8JSStringEENS_18PairFirstExtractorIS8_EENS1_17IdentifierRepHashENS_14PairHashTraitsINS_10HashTraitsIS4_EENSD_IS7_EEEESE_E15deallocateTableEPS8_i
056115c0 W _ZN3WTF9HashTableIdSt4pairIdN3JSC10JSValuePtrEENS_18PairFirstExtractorIS4_EENS_9FloatHashIdEENS_14PairHashTraitsINS_10HashTraitsIdEENSA_IS3_EEEESB_E15deallocateTableEPS4_i
05611650 W _ZN3WTF9HashTableIPN3JSC23JSValueEncodedAsPointerESt4pairIS3_jENS_18PairFirstExtractorIS5_EENS_7PtrHashIS3_EENS_14PairHashTraitsINS1_17BytecodeGenerator17JSValueHashTraitsENS_10HashTraitsIjEEEESC_E15deallocateTableEPS5_i
0561167c W _ZN3WTF6VectorIN3JSC10RegisterIDELj512EE15reserveCapacityEj
05611790 W _ZN3WTF6VectorIN3JSC10RegisterIDELj512EE14expandCapacityEj
05611820 W _ZN3WTF6VectorIPNS0_IN3JSC5LabelELj256EEELj32EE15reserveCapacityEj
05611934 W _ZN3WTF6VectorIPNS0_IN3JSC5LabelELj256EEELj32EE14expandCapacityEj
056119c4 W _ZN3WTF6VectorIPNS0_IN3JSC5LabelELj256EEELj32EE14expandCapacityEjPKS4_
05611a74 W _ZN3WTF6VectorIPNS0_IN3JSC10LabelScopeELj256EEELj32EE15reserveCapacityEj
05611b88 W _ZN3WTF6VectorIPNS0_IN3JSC10LabelScopeELj256EEELj32EE14expandCapacityEj
05611c18 W _ZN3WTF6VectorIPNS0_IN3JSC10LabelScopeELj256EEELj32EE14expandCapacityEjPKS4_
05611cc8 W _ZN3WTF6VectorIPNS0_IN3JSC10RegisterIDELj512EEELj32EE15reserveCapacityEj
05611ddc W _ZN3WTF6VectorIPNS0_IN3JSC10RegisterIDELj512EEELj32EE14expandCapacityEj
05611e6c W _ZN3WTF6VectorIPNS0_IN3JSC10RegisterIDELj512EEELj32EE14expandCapacityEjPKS4_
05611f1c W _ZN3WTF6VectorIN3JSC11InstructionELj0EE15reserveCapacityEj
05612040 W _ZN3WTF6VectorIN3JSC11InstructionELj0EE14expandCapacityEj
056120d0 W _ZN3WTF6VectorINS_6RefPtrIN3JSC12FuncExprNodeEEELj0EE15reserveCapacityEj
056121f4 W _ZN3WTF6VectorINS_6RefPtrIN3JSC12FuncExprNodeEEELj0EE14expandCapacityEj
05612284 W _ZN3WTF6VectorIjLj0EE15reserveCapacityEj
056123a8 W _ZN3WTF6VectorIjLj0EE14expandCapacityEj
05612438 W _ZN3WTF6VectorIjLj0EE14expandCapacityEjPKj
056124e8 W _ZN3WTF6VectorIN3JSC8RegisterELj0EE15reserveCapacityEj
0561260c W _ZN3WTF6VectorIN3JSC8RegisterELj0EE14expandCapacityEj
0561269c W _ZN3WTF6VectorIN3JSC8RegisterELj0EE14expandCapacityEjPKS2_
0561274c W _ZN3WTF9HashTableIPN3JSC7UString3RepESt4pairIS4_PNS1_8JSStringEENS_18PairFirstExtractorIS8_EENS1_17IdentifierRepHashENS_14PairHashTraitsINS_10HashTraitsIS4_EENSD_IS7_EEEESE_E13allocateTableEi
0561277c W _ZN3WTF9HashTableIPN3JSC7UString3RepESt4pairIS4_PNS1_8JSStringEENS_18PairFirstExtractorIS8_EENS1_17IdentifierRepHashENS_14PairHashTraitsINS_10HashTraitsIS4_EENSD_IS7_EEEESE_E6rehashEi
05612920 W _ZN3WTF9HashTableIPN3JSC7UString3RepESt4pairIS4_PNS1_8JSStringEENS_18PairFirstExtractorIS8_EENS1_17IdentifierRepHashENS_14PairHashTraitsINS_10HashTraitsIS4_EENSD_IS7_EEEESE_E6expandEv
056129b4 W _ZN3WTF7HashMapIPN3JSC7UString3RepEPNS1_8JSStringENS1_17IdentifierRepHashENS_10HashTraitsIS4_EENS8_IS6_EEE3addERKS4_RKS6_
05612c28 W _ZN3WTF9HashTableIPN3JSC23JSValueEncodedAsPointerESt4pairIS3_jENS_18PairFirstExtractorIS5_EENS_7PtrHashIS3_EENS_14PairHashTraitsINS1_17BytecodeGenerator17JSValueHashTraitsENS_10HashTraitsIjEEEESC_E13allocateTableEi
05612c58 W _ZN3WTF9HashTableIPN3JSC23JSValueEncodedAsPointerESt4pairIS3_jENS_18PairFirstExtractorIS5_EENS_7PtrHashIS3_EENS_14PairHashTraitsINS1_17BytecodeGenerator17JSValueHashTraitsENS_10HashTraitsIjEEEESC_E6rehashEi
05612e30 W _ZN3WTF9HashTableIPN3JSC23JSValueEncodedAsPointerESt4pairIS3_jENS_18PairFirstExtractorIS5_EENS_7PtrHashIS3_EENS_14PairHashTraitsINS1_17BytecodeGenerator17JSValueHashTraitsENS_10HashTraitsIjEEEESC_E6expandEv
05612ec4 W _ZN3WTF7HashMapIPN3JSC23JSValueEncodedAsPointerEjNS_7PtrHashIS3_EENS1_17BytecodeGenerator17JSValueHashTraitsENS_10HashTraitsIjEEE3addERKS3_RKj
0561316c W _ZN3WTF9HashTableINS_6RefPtrIN3JSC7UString3RepEEES5_NS_17IdentityExtractorIS5_EENS2_17IdentifierRepHashENS_10HashTraitsIS5_EESA_E13allocateTableEi
0561319c W _ZN3WTF6VectorIN3JSC10RegisterIDELj512EE4growEj
05613228 W _ZN3WTF6VectorIPN3JSC10RegisterIDELj32EE15reserveCapacityEj
0561333c W _ZN3WTF6VectorIPN3JSC10RegisterIDELj32EE14expandCapacityEj
056133cc W _ZN3WTF6VectorIPN3JSC10RegisterIDELj32EE14expandCapacityEjPKS3_
0561347c W _ZN3WTF22IdentityHashTranslatorIdSt4pairIdN3JSC10JSValuePtrEENS_9FloatHashIdEEE4hashERKd
05613550 W _ZN3WTF9HashTableIdSt4pairIdN3JSC10JSValuePtrEENS_18PairFirstExtractorIS4_EENS_9FloatHashIdEENS_14PairHashTraitsINS_10HashTraitsIdEENSA_IS3_EEEESB_E6rehashEi
056137ec W _ZN3WTF9HashTableIdSt4pairIdN3JSC10JSValuePtrEENS_18PairFirstExtractorIS4_EENS_9FloatHashIdEENS_14PairHashTraitsINS_10HashTraitsIdEENSA_IS3_EEEESB_E6expandEv
05613880 W _ZN3WTF9HashTableIdSt4pairIdN3JSC10JSValuePtrEENS_18PairFirstExtractorIS4_EENS_9FloatHashIdEENS_14PairHashTraitsINS_10HashTraitsIdEENSA_IS3_EEEESB_E4findIdNS_22IdentityHashTranslatorIdS4_S8_EEEENS_17HashTableIteratorIdS4_S6_S8_SD_SB_EERKT_
05613a1c W _ZN3WTF6VectorIN3JSC11HandlerInfoELj0EE15reserveCapacityEj
05613b44 W _ZN3WTF6VectorIN3JSC11HandlerInfoELj0EE14expandCapacityEj
05613bd4 W _ZN3WTF6VectorIN3JSC11HandlerInfoELj0EE14expandCapacityEjPKS2_
05613c84 W _ZN3WTF6VectorINS_6RefPtrIN3JSC12FuncDeclNodeEEELj0EE15reserveCapacityEj
05613da8 W _ZN3WTF6VectorINS_6RefPtrIN3JSC12FuncDeclNodeEEELj0EE14expandCapacityEj
05613e38 W _ZN3WTF6VectorIN3JSC10JSValuePtrELj0EE15reserveCapacityEj
05613f48 W _ZN3WTF6VectorIN3JSC10JSValuePtrELj0EE14expandCapacityEj
05613fd8 W _ZN3WTF6VectorIN3JSC10JSValuePtrELj0EE14expandCapacityEjPKS2_
05614088 W _ZN3WTF6VectorINS_6RefPtrIN3JSC6RegExpEEELj0EE15reserveCapacityEj
056141ac W _ZN3WTF6VectorINS_6RefPtrIN3JSC6RegExpEEELj0EE14expandCapacityEj
0561423c W _ZN3WTF6VectorIN3JSC19ExpressionRangeInfoELj0EE15reserveCapacityEj
0561435c W _ZN3WTF6VectorIN3JSC19ExpressionRangeInfoELj0EE14expandCapacityEj
056143ec W _ZN3WTF6VectorIN3JSC19ExpressionRangeInfoELj0EE14expandCapacityEjPKS2_
0561449c W _ZN3WTF6VectorIN3JSC8LineInfoELj0EE15reserveCapacityEj
056145b4 W _ZN3WTF6VectorIN3JSC8LineInfoELj0EE14expandCapacityEj
05614644 W _ZN3WTF6VectorIN3JSC8LineInfoELj0EE14expandCapacityEjPKS2_
056146f4 W _ZN3WTF9HashTableIdSt4pairIdN3JSC10JSValuePtrEENS_18PairFirstExtractorIS4_EENS_9FloatHashIdEENS_14PairHashTraitsINS_10HashTraitsIdEENSA_IS3_EEEESB_E3addIdS3_NS_17HashMapTranslatorIS4_SD_S8_EEEES1_INS_17HashTableIteratorIdS4_S6_S8_SD_SB_EEbERKT_RKT0_
05614a30 W _ZN3WTF7HashMapIdN3JSC10JSValuePtrENS_9FloatHashIdEENS_10HashTraitsIdEENS5_IS2_EEE3addERKdRKS2_
05614a88 W _ZN3WTF6VectorINS_6RefPtrIN3JSC10RegisterIDEEELj16EE15reserveCapacityEj
05614b9c W _ZN3WTF6VectorINS_6RefPtrIN3JSC10RegisterIDEEELj16EE14expandCapacityEj
05614c2c W _ZN3WTF6VectorIiLj0EE15reserveCapacityEj
05614d50 W _ZN3WTF6VectorIiLj0EE14expandCapacityEj
05614de0 W _ZN3WTF6VectorIiLj0EE6resizeEj
05614e5c W _ZN3WTF6VectorIN3JSC5LabelELj256EE6shrinkEj
05614f48 W _ZN3WTF6VectorINS_6RefPtrIN3JSC10RegisterIDEEELj8EE15reserveCapacityEj
0561505c W _ZN3WTF6VectorINS_6RefPtrIN3JSC10RegisterIDEEELj8EE14expandCapacityEj
056150ec W _ZN3WTF9HashTableINS_6RefPtrIN3JSC7UString3RepEEESt4pairIS5_iENS_18PairFirstExtractorIS7_EENS2_17IdentifierRepHashENS_14PairHashTraitsINS_10HashTraitsIS5_EENS2_17BytecodeGenerator28IdentifierMapIndexHashTraitsEEESD_E15deallocateTableEPS7_i
056151a4 W _ZN3WTF9HashTableINS_6RefPtrIN3JSC7UString3RepEEES5_NS_17IdentityExtractorIS5_EENS2_17IdentifierRepHashENS_10HashTraitsIS5_EESA_E15deallocateTableEPS5_i
0561525c W _ZN3WTF9HashTableINS_6RefPtrIN3JSC7UString3RepEEESt4pairIS5_NS2_16SymbolTableEntryEENS_18PairFirstExtractorIS8_EENS2_17IdentifierRepHashENS_14PairHashTraitsINS_10HashTraitsIS5_EENS2_26SymbolTableIndexHashTraitsEEESE_E5clearEv
056152b0 W _ZN3WTF6VectorIN3JSC10IdentifierELj0EE15reserveCapacityEj
0561542c W _ZN3WTF6VectorIN3JSC10IdentifierELj0EE14expandCapacityEj
056154bc W _ZN3WTF6VectorIN3JSC10IdentifierELj0EE14expandCapacityEjPKS2_
0561556c W _ZN3WTF9HashTableINS_6RefPtrIN3JSC7UString3RepEEESt4pairIS5_iENS_18PairFirstExtractorIS7_EENS2_17IdentifierRepHashENS_14PairHashTraitsINS_10HashTraitsIS5_EENS2_17BytecodeGenerator28IdentifierMapIndexHashTraitsEEESD_E13allocateTableEi
056155d4 W _ZN3WTF9HashTableINS_6RefPtrIN3JSC7UString3RepEEES5_NS_17IdentityExtractorIS5_EENS2_17IdentifierRepHashENS_10HashTraitsIS5_EESA_E6rehashEi
05615774 W _ZN3WTF9HashTableINS_6RefPtrIN3JSC7UString3RepEEES5_NS_17IdentityExtractorIS5_EENS2_17IdentifierRepHashENS_10HashTraitsIS5_EESA_E6expandEv
05615808 W _ZNK3WTF9HashTableINS_6RefPtrIN3JSC7UString3RepEEES5_NS_17IdentityExtractorIS5_EENS2_17IdentifierRepHashENS_10HashTraitsIS5_EESA_E8containsIS5_NS_22IdentityHashTranslatorIS5_S5_S8_EEEEbRKT_
056158c8 W _ZN3WTF6VectorIN3JSC15SimpleJumpTableELj0EE15reserveCapacityEj
05615a98 W _ZN3WTF6VectorIN3JSC15SimpleJumpTableELj0EE14expandCapacityEj
05615b28 W _ZN3WTF6VectorIN3JSC15SimpleJumpTableELj0EE14expandCapacityEjPKS2_
05615bd8 W _ZN3WTF6VectorIiLj8EE15reserveCapacityEj
05615cec W _ZN3WTF6VectorIiLj8EE14expandCapacityEj
05615d7c W _ZN3WTF6VectorIiLj8EE14expandCapacityEjPKi
05615e2c W _ZN3WTF6VectorIiLj0EE14shrinkCapacityEj
05615f6c W _ZN3WTF6VectorIiLj0EE4fillERKij
05616088 W _ZN3WTF9HashTableINS_6RefPtrIN3JSC7UString3RepEEESt4pairIS5_iENS_18PairFirstExtractorIS7_EENS2_17IdentifierRepHashENS_14PairHashTraitsINS_10HashTraitsIS5_EENS2_17BytecodeGenerator28IdentifierMapIndexHashTraitsEEESD_E6rehashEi
05616340 W _ZN3WTF9HashTableINS_6RefPtrIN3JSC7UString3RepEEESt4pairIS5_iENS_18PairFirstExtractorIS7_EENS2_17IdentifierRepHashENS_14PairHashTraitsINS_10HashTraitsIS5_EENS2_17BytecodeGenerator28IdentifierMapIndexHashTraitsEEESD_E6expandEv
056163d4 W _ZN3WTF9HashTableINS_6RefPtrIN3JSC7UString3RepEEESt4pairIS5_iENS_18PairFirstExtractorIS7_EENS2_17IdentifierRepHashENS_14PairHashTraitsINS_10HashTraitsIS5_EENS2_17BytecodeGenerator28IdentifierMapIndexHashTraitsEEESD_E4findIS5_NS_22IdentityHashTranslatorIS5_S7_SA_EEEENS_17HashTableIteratorIS5_S7_S9_SA_SG_SD_EERKT_
056164f0 W _ZN3WTF7HashMapINS_6RefPtrIN3JSC7UString3RepEEEiNS2_17IdentifierRepHashENS_10HashTraitsIS5_EENS2_17BytecodeGenerator28IdentifierMapIndexHashTraitsEE3addEPS4_RKi
05616828 W _ZN3WTF7HashMapINS_6RefPtrIN3JSC7UString3RepEEENS2_14OffsetLocationENS_7StrHashIS5_EENS_10HashTraitsIS5_EENS9_IS6_EEE3addEPS4_RKS6_
05616b90 W _ZN3WTF6VectorIN3JSC15StringJumpTableELj0EE15reserveCapacityEj
05616ce8 W _ZN3WTF6VectorIN3JSC15StringJumpTableELj0EE14expandCapacityEj
05616d78 W _ZN3WTF6VectorIN3JSC15StringJumpTableELj0EE14expandCapacityEjPKS2_
05616e28 W _ZN3WTF7HashMapINS_6RefPtrIN3JSC7UString3RepEEENS2_16SymbolTableEntryENS2_17IdentifierRepHashENS_10HashTraitsIS5_EENS2_26SymbolTableIndexHashTraitsEE3setEPS4_RKS6_
05617160 W _ZN3WTF9HashTableINS_6RefPtrIN3JSC7UString3RepEEES5_NS_17IdentityExtractorIS5_EENS2_17IdentifierRepHashENS_10HashTraitsIS5_EESA_E4findIS5_NS_22IdentityHashTranslatorIS5_S5_S8_EEEENS_17HashTableIteratorIS5_S5_S7_S8_SA_SA_EERKT_
0561727c W _ZN3WTF7HashSetINS_6RefPtrIN3JSC7UString3RepEEENS2_17IdentifierRepHashENS_10HashTraitsIS5_EEE3addERKS5_
05617588 W _ZNK3JSC22JSNotAnObjectErrorStub22isNotAnObjectErrorStubEv
05617590 W _ZNK3JSC25InterruptedExecutionError19isWatchdogExceptionEv
05617598 W _ZN3JSC8jsNumberEPNS_9ExecStateEi
05617614 W _ZN3JSC25InterruptedExecutionErrorD1Ev
0561773c W _ZN3JSC22JSNotAnObjectErrorStubD0Ev
05617890 W _ZN3JSC22JSNotAnObjectErrorStubD1Ev
056179b8 W _ZN3JSC25InterruptedExecutionErrorD0Ev
05617b0c W _ZN3WTF9HashTableIPvSt4pairIS1_N3JSC8OpcodeIDEENS_18PairFirstExtractorIS5_EENS_7PtrHashIS1_EENS_14PairHashTraitsINS_10HashTraitsIS1_EENSB_IS4_EEEESC_E4findIS1_NS_22IdentityHashTranslatorIS1_S5_S9_EEEENS_17HashTableIteratorIS1_S5_S7_S9_SE_SC_EERKT_
05617c5c W _ZN3WTF9HashTableIPvSt4pairIS1_N3JSC8OpcodeIDEENS_18PairFirstExtractorIS5_EENS_7PtrHashIS1_EENS_14PairHashTraitsINS_10HashTraitsIS1_EENSB_IS4_EEEESC_E13allocateTableEi
05617cbc W _ZN3WTF9HashTableIPvSt4pairIS1_N3JSC8OpcodeIDEENS_18PairFirstExtractorIS5_EENS_7PtrHashIS1_EENS_14PairHashTraitsINS_10HashTraitsIS1_EENSB_IS4_EEEESC_E15deallocateTableEPS5_i
05617ce8 W _ZN3WTF9HashTableIPvSt4pairIS1_N3JSC8OpcodeIDEENS_18PairFirstExtractorIS5_EENS_7PtrHashIS1_EENS_14PairHashTraitsINS_10HashTraitsIS1_EENSB_IS4_EEEESC_E6rehashEi
05617ed0 W _ZN3WTF9HashTableIPvSt4pairIS1_N3JSC8OpcodeIDEENS_18PairFirstExtractorIS5_EENS_7PtrHashIS1_EENS_14PairHashTraitsINS_10HashTraitsIS1_EENSB_IS4_EEEESC_E6expandEv
05617f64 W _ZN3WTF7HashMapIPvN3JSC8OpcodeIDENS_7PtrHashIS1_EENS_10HashTraitsIS1_EENS6_IS3_EEE3addERKS1_RKS3_
0561820c W _ZNK3JSC12JSNumberCell7toInt32Ev
05618288 W _ZN3WTF9HashTableINS_6RefPtrIN3JSC7UString3RepEEESt4pairIS5_NS1_INS2_8EvalNodeEEEENS_18PairFirstExtractorIS9_EENS_7StrHashIS5_EENS_14PairHashTraitsINS_10HashTraitsIS5_EENSF_IS8_EEEESG_E13allocateTableEi
056182b8 W _ZN3JSC6Parser5parseINS_8EvalNodeEEEN3WTF10PassRefPtrIT_EEPNS_9ExecStateEPNS_8DebuggerERKNS_10SourceCodeEPiPNS_7UStringE
056184b0 W _ZNK3WTF9HashTableIPvSt4pairIS1_N3JSC8OpcodeIDEENS_18PairFirstExtractorIS5_EENS_7PtrHashIS1_EENS_14PairHashTraitsINS_10HashTraitsIS1_EENSB_IS4_EEEESC_E8containsIS1_NS_22IdentityHashTranslatorIS1_S5_S9_EEEEbRKT_
056185a4 W _ZN3WTF9HashTableINS_6RefPtrIN3JSC7UString3RepEEESt4pairIS5_NS2_14OffsetLocationEENS_18PairFirstExtractorIS8_EENS_7StrHashIS5_EENS_14PairHashTraitsINS_10HashTraitsIS5_EENSE_IS7_EEEESF_E4findIPS4_NS_29RefPtrHashMapRawKeyTranslatorISK_S8_SH_SC_EEEENS_17HashTableIteratorIS5_S8_SA_SC_SH_SF_EERKT_
05618764 W _ZNK3JSC7JSValue3getEPNS_9ExecStateERKNS_10IdentifierERNS_12PropertySlotE
05618be8 W _ZNK3WTF7HashMapINS_6RefPtrIN3JSC7UString3RepEEENS1_INS2_8EvalNodeEEENS_7StrHashIS5_EENS_10HashTraitsIS5_EENSA_IS7_EEE3getEPS4_
05618db0 W _ZN3WTF9HashTableINS_6RefPtrIN3JSC7UString3RepEEESt4pairIS5_NS1_INS2_8EvalNodeEEEENS_18PairFirstExtractorIS9_EENS_7StrHashIS5_EENS_14PairHashTraitsINS_10HashTraitsIS5_EENSF_IS8_EEEESG_E4findIS5_NS_22IdentityHashTranslatorIS5_S9_SD_EEEENS_17HashTableIteratorIS5_S9_SB_SD_SI_SG_EERKT_
05618f70 W _ZN3WTF9HashTableINS_6RefPtrIN3JSC7UString3RepEEESt4pairIS5_NS1_INS2_8EvalNodeEEEENS_18PairFirstExtractorIS9_EENS_7StrHashIS5_EENS_14PairHashTraitsINS_10HashTraitsIS5_EENSF_IS8_EEEESG_E6rehashEi
0561935c W _ZN3WTF9HashTableINS_6RefPtrIN3JSC7UString3RepEEESt4pairIS5_NS1_INS2_8EvalNodeEEEENS_18PairFirstExtractorIS9_EENS_7StrHashIS5_EENS_14PairHashTraitsINS_10HashTraitsIS5_EENSF_IS8_EEEESG_E6expandEv
056193f0 W _ZN3WTF7HashMapINS_6RefPtrIN3JSC7UString3RepEEENS1_INS2_8EvalNodeEEENS_7StrHashIS5_EENS_10HashTraitsIS5_EENSA_IS7_EEE3setEPS4_RKS7_
056197b4 W _ZNK3WTF7HashMapIPvN3JSC8OpcodeIDENS_7PtrHashIS1_EENS_10HashTraitsIS1_EENS6_IS3_EEE3getERKS1_
056198a0 W _ZN3WTF9HashTableIPN3JSC9ScopeNodeESt4pairIS3_PNS1_17ScopeSampleRecordEENS_18PairFirstExtractorIS7_EENS_7PtrHashIS3_EENS_14PairHashTraitsINS_10HashTraitsIS3_EENSD_IS6_EEEESE_E4findIS3_NS_22IdentityHashTranslatorIS3_S7_SB_EEEENS_17HashTableIteratorIS3_S7_S9_SB_SG_SE_EERKT_
056199f0 W _ZN3WTF9HashTableIPN3JSC9ScopeNodeESt4pairIS3_PNS1_17ScopeSampleRecordEENS_18PairFirstExtractorIS7_EENS_7PtrHashIS3_EENS_14PairHashTraitsINS_10HashTraitsIS3_EENSD_IS6_EEEESE_E13allocateTableEi
05619a20 W _ZN3WTF9HashTableIPN3JSC9ScopeNodeESt4pairIS3_PNS1_17ScopeSampleRecordEENS_18PairFirstExtractorIS7_EENS_7PtrHashIS3_EENS_14PairHashTraitsINS_10HashTraitsIS3_EENSD_IS6_EEEESE_E15deallocateTableEPS7_i
05619a4c W _ZN3WTF9HashTableIPN3JSC9ScopeNodeESt4pairIS3_PNS1_17ScopeSampleRecordEENS_18PairFirstExtractorIS7_EENS_7PtrHashIS3_EENS_14PairHashTraitsINS_10HashTraitsIS3_EENSD_IS6_EEEESE_E6rehashEi
05619c24 W _ZN3WTF9HashTableIPN3JSC9ScopeNodeESt4pairIS3_PNS1_17ScopeSampleRecordEENS_18PairFirstExtractorIS7_EENS_7PtrHashIS3_EENS_14PairHashTraitsINS_10HashTraitsIS3_EENSD_IS6_EEEESE_E6expandEv
05619cb8 W _ZN3WTF7HashMapIPN3JSC9ScopeNodeEPNS1_17ScopeSampleRecordENS_7PtrHashIS3_EENS_10HashTraitsIS3_EENS8_IS5_EEE3setERKS3_RKS5_
05619f58 W _ZN3WTF9HashTableIPN3JSC7ArgListES3_NS_17IdentityExtractorIS3_EENS_7PtrHashIS3_EENS_10HashTraitsIS3_EES9_E6expandEv
05619fec W _ZN3WTF7HashSetIPN3JSC7ArgListENS_7PtrHashIS3_EENS_10HashTraitsIS3_EEE3addERKS3_
0561a270 W _ZN3WTF6VectorIN3JSC8RegisterELj8EE15reserveCapacityEj
0561a384 W _ZN3WTF6VectorIN3JSC8RegisterELj8EE14expandCapacityEj
0561a414 W _ZN3WTF6VectorIN3JSC8RegisterELj8EE14expandCapacityEjPKS2_
0561a4c4 W _ZN3WTF6VectorIN3JSC8RegisterELj8EE11appendRangeIPKS2_EEvT_S7_
0561a588 W _ZNK3JSC9Arguments9classInfoEv
0561a594 W _ZN3JSC8jsNumberEPNS_9ExecStateEj
0561a5fc W _ZN3JSC16ArrayConstructorD1Ev
0561a724 W _ZN3JSC16ArrayConstructorD0Ev
0561a878 W _ZN3JSC9ExecState10arrayTableEPS0_
0561a888 W _ZNK3JSC14ArrayPrototype9classInfoEv
0561a894 W _ZN3WTF6VectorItLj256EE6shrinkEj
0561a89c W _ZN3WTF9HashTableIPN3JSC8JSObjectES3_NS_17IdentityExtractorIS3_EENS_7PtrHashIS3_EENS_10HashTraitsIS3_EES9_E4findIS3_NS_22IdentityHashTranslatorIS3_S3_S7_EEEENS_17HashTableIteratorIS3_S3_S5_S7_S9_S9_EERKT_
0561a9ec W _ZNK3JSC8JSObject3getEPNS_9ExecStateERKNS_10IdentifierE
0561acd8 W _ZN3WTF9HashTableIPN3JSC8JSObjectES3_NS_17IdentityExtractorIS3_EENS_7PtrHashIS3_EENS_10HashTraitsIS3_EES9_E13allocateTableEi
0561ad08 W _ZN3WTF9HashTableIPN3JSC8JSObjectES3_NS_17IdentityExtractorIS3_EENS_7PtrHashIS3_EENS_10HashTraitsIS3_EES9_E6rehashEi
0561aed0 W _ZN3WTF9HashTableIPN3JSC8JSObjectES3_NS_17IdentityExtractorIS3_EENS_7PtrHashIS3_EENS_10HashTraitsIS3_EES9_E6removeEPS3_
0561af4c W _ZN3WTF9HashTableIPN3JSC8JSObjectES3_NS_17IdentityExtractorIS3_EENS_7PtrHashIS3_EENS_10HashTraitsIS3_EES9_E47removeAndInvalidateWithoutEntryConsistencyCheckEPS3_
0561af78 W _ZN3WTF9HashTableIPN3JSC8JSObjectES3_NS_17IdentityExtractorIS3_EENS_7PtrHashIS3_EENS_10HashTraitsIS3_EES9_E6expandEv
0561b00c W _ZN3WTF7HashSetIPN3JSC8JSObjectENS_7PtrHashIS3_EENS_10HashTraitsIS3_EEE3addERKS3_
0561b290 W _ZN3WTF6VectorItLj256EE15reserveCapacityEj
0561b39c W _ZN3WTF6VectorItLj256EE14expandCapacityEj
0561b42c W _ZN3WTF6VectorItLj256EE14expandCapacityEjPKt
0561b4dc W _ZN3WTF6VectorItLj256EE6appendItEEvPKT_j
0561b58c W _ZN3JSC14ArrayPrototypeD0Ev
0561b5e4 W _ZN3JSC14ArrayPrototypeD1Ev
0561b61c W _ZNK3JSC12PropertySlot8getValueEPNS_9ExecStateEj
0561b790 W _ZN3JSC18BooleanConstructorD1Ev
0561b8b8 W _ZN3JSC18BooleanConstructorD0Ev
0561ba0c W _ZNK3JSC13BooleanObject9classInfoEv
0561ba18 W _ZN3JSC13BooleanObjectD1Ev
0561bb40 W _ZN3JSC13BooleanObjectD0Ev
0561bc94 W _ZN3JSC16BooleanPrototypeD0Ev
0561bde8 W _ZN3JSC16BooleanPrototypeD1Ev
0561bf10 W _ZN3JSC21CollectorHeapIteratorILNS_8HeapTypeE0EEppEv
0561bf9c W _ZN3JSC21CollectorHeapIteratorILNS_8HeapTypeE0EEC1EPPNS_14CollectorBlockES5_
0561c030 W _ZNK3WTF9HashTableIPN3JSC6JSCellESt4pairIS3_jENS_18PairFirstExtractorIS5_EENS_7PtrHashIS3_EENS_14PairHashTraitsINS_10HashTraitsIS3_EENSB_IjEEEESC_E8containsIS3_NS_22IdentityHashTranslatorIS3_S5_S9_EEEEbRKT_
0561c124 W _ZN3WTF9HashTableIPKcSt4pairIS2_jENS_18PairFirstExtractorIS4_EENS_7PtrHashIS2_EENS_14PairHashTraitsINS_10HashTraitsIS2_EENSA_IjEEEESB_E4findIS2_NS_22IdentityHashTranslatorIS2_S4_S8_EEEENS_17HashTableIteratorIS2_S4_S6_S8_SD_SB_EERKT_
0561c274 W _ZN3WTF9HashTableIPKcSt4pairIS2_jENS_18PairFirstExtractorIS4_EENS_7PtrHashIS2_EENS_14PairHashTraitsINS_10HashTraitsIS2_EENSA_IjEEEESB_E13allocateTableEi
0561c2a4 W _ZN3WTF9HashTableIPN3JSC6JSCellESt4pairIS3_jENS_18PairFirstExtractorIS5_EENS_7PtrHashIS3_EENS_14PairHashTraitsINS_10HashTraitsIS3_EENSB_IjEEEESC_E13allocateTableEi
0561c2d4 W _ZN3WTF9HashTableIPKcSt4pairIS2_jENS_18PairFirstExtractorIS4_EENS_7PtrHashIS2_EENS_14PairHashTraitsINS_10HashTraitsIS2_EENSA_IjEEEESB_E15deallocateTableEPS4_i
0561c300 W _ZN3WTF9HashTableIPKcSt4pairIS2_jENS_18PairFirstExtractorIS4_EENS_7PtrHashIS2_EENS_14PairHashTraitsINS_10HashTraitsIS2_EENSA_IjEEEESB_E6rehashEi
0561c4d8 W _ZN3WTF9HashTableIPKcSt4pairIS2_jENS_18PairFirstExtractorIS4_EENS_7PtrHashIS2_EENS_14PairHashTraitsINS_10HashTraitsIS2_EENSA_IjEEEESB_E6expandEv
0561c56c W _ZN3WTF7HashMapIPKcjNS_7PtrHashIS2_EENS_10HashTraitsIS2_EENS5_IjEEE3addERKS2_RKj
0561c814 W _ZN3WTF9HashTableIPN3JSC6JSCellESt4pairIS3_jENS_18PairFirstExtractorIS5_EENS_7PtrHashIS3_EENS_14PairHashTraitsINS_10HashTraitsIS3_EENSB_IjEEEESC_E15deallocateTableEPS5_i
0561c840 W _ZN3WTF9HashTableIPN3JSC6JSCellESt4pairIS3_jENS_18PairFirstExtractorIS5_EENS_7PtrHashIS3_EENS_14PairHashTraitsINS_10HashTraitsIS3_EENSB_IjEEEESC_E6rehashEi
0561ca18 W _ZN3WTF9HashTableIPN3JSC6JSCellESt4pairIS3_jENS_18PairFirstExtractorIS5_EENS_7PtrHashIS3_EENS_14PairHashTraitsINS_10HashTraitsIS3_EENSB_IjEEEESC_E6removeEPS5_
0561ca94 W _ZN3WTF9HashTableIPN3JSC6JSCellESt4pairIS3_jENS_18PairFirstExtractorIS5_EENS_7PtrHashIS3_EENS_14PairHashTraitsINS_10HashTraitsIS3_EENSB_IjEEEESC_E47removeAndInvalidateWithoutEntryConsistencyCheckEPS5_
0561cac0 W _ZN3WTF9HashTableIPN3JSC6JSCellESt4pairIS3_jENS_18PairFirstExtractorIS5_EENS_7PtrHashIS3_EENS_14PairHashTraitsINS_10HashTraitsIS3_EENSB_IjEEEESC_E6expandEv
0561cb54 W _ZN3JSC4Heap5sweepILNS_8HeapTypeE1EEEjv
0561cdf4 W _ZN3JSC4Heap5sweepILNS_8HeapTypeE0EEEjv
0561d0fc W _ZN3WTF9HashTableIPN3JSC6JSCellESt4pairIS3_jENS_18PairFirstExtractorIS5_EENS_7PtrHashIS3_EENS_14PairHashTraitsINS_10HashTraitsIS3_EENSB_IjEEEESC_E4findIS3_NS_22IdentityHashTranslatorIS3_S5_S9_EEEENS_17HashTableIteratorIS3_S5_S7_S9_SE_SC_EERKT_
0561d24c W _ZN3WTF7HashMapIPN3JSC6JSCellEjNS_7PtrHashIS3_EENS_10HashTraitsIS3_EENS6_IjEEE3addERKS3_RKj
0561d4f4 W _ZN3JSC17GregorianDateTimeC1ERK2tm
0561d5ec W _ZN3JSC15DateConstructorD1Ev
0561d714 W _ZN3JSC15DateConstructorD0Ev
0561d868 W _ZNK3JSC12DateInstance9classInfoEv
0561d874 W _ZN3JSC9ExecState9dateTableEPS0_
0561d884 W _ZNK3JSC13DatePrototype9classInfoEv
0561d890 W _ZN3JSC13DatePrototypeD0Ev
0561d8e8 W _ZN3JSC13DatePrototypeD1Ev
0561d920 W _ZN3WTF9HashTableIPN3JSC14JSGlobalObjectES3_NS_17IdentityExtractorIS3_EENS_7PtrHashIS3_EENS_10HashTraitsIS3_EES9_E4findIS3_NS_22IdentityHashTranslatorIS3_S3_S7_EEEENS_17HashTableIteratorIS3_S3_S5_S7_S9_S9_EERKT_
0561da70 W _ZN3WTF9HashTableIPN3JSC14JSGlobalObjectES3_NS_17IdentityExtractorIS3_EENS_7PtrHashIS3_EENS_10HashTraitsIS3_EES9_E13allocateTableEi
0561daa0 W _ZN3WTF9HashTableIPN3JSC14JSGlobalObjectES3_NS_17IdentityExtractorIS3_EENS_7PtrHashIS3_EENS_10HashTraitsIS3_EES9_E15deallocateTableEPS3_i
0561dacc W _ZN3WTF9HashTableIPN3JSC14JSGlobalObjectES3_NS_17IdentityExtractorIS3_EENS_7PtrHashIS3_EENS_10HashTraitsIS3_EES9_E6rehashEi
0561dc94 W _ZN3WTF9HashTableIPN3JSC14JSGlobalObjectES3_NS_17IdentityExtractorIS3_EENS_7PtrHashIS3_EENS_10HashTraitsIS3_EES9_E6removeEPS3_
0561dd10 W _ZN3WTF9HashTableIPN3JSC14JSGlobalObjectES3_NS_17IdentityExtractorIS3_EENS_7PtrHashIS3_EENS_10HashTraitsIS3_EES9_E47removeAndInvalidateWithoutEntryConsistencyCheckEPS3_
0561dd3c W _ZN3WTF9HashTableIPN3JSC14JSGlobalObjectES3_NS_17IdentityExtractorIS3_EENS_7PtrHashIS3_EENS_10HashTraitsIS3_EES9_E6expandEv
0561ddd0 W _ZN3WTF7HashSetIPN3JSC14JSGlobalObjectENS_7PtrHashIS3_EENS_10HashTraitsIS3_EEE3addERKS3_
0561e054 W _ZN3JSC16ErrorConstructorD1Ev
0561e17c W _ZN3JSC16ErrorConstructorD0Ev
0561e2d0 W _ZNK3JSC13ErrorInstance9classInfoEv
0561e2dc W _ZN3JSC13ErrorInstanceD1Ev
0561e404 W _ZN3JSC13ErrorInstanceD0Ev
0561e558 W _ZN3JSC14ErrorPrototypeD1Ev
0561e680 W _ZN3JSC14ErrorPrototypeD0Ev
0561e7d4 W _ZN3JSC6Parser5parseINS_11ProgramNodeEEEN3WTF10PassRefPtrIT_EEPNS_9ExecStateEPNS_8DebuggerERKNS_10SourceCodeEPiPNS_7UStringE
0561e9cc W _ZN3JSC19FunctionConstructorD0Ev
0561eb20 W _ZN3JSC19FunctionConstructorD1Ev
0561ec48 W _ZN3JSC17FunctionPrototypeD0Ev
0561ed9c W _ZN3JSC17FunctionPrototypeD1Ev
0561eec4 W _ZN3JSC12GetterSetterD1Ev
0561eed4 W _ZN3JSC12GetterSetterD0Ev
0561ef0c W _ZN3JSC18GlobalEvalFunctionD1Ev
0561f034 W _ZN3JSC18GlobalEvalFunctionD0Ev
0561f188 W _ZN3WTF9HashTableIPKcSt4pairIS2_NS_6RefPtrIN3JSC7UString3RepEEEENS_18PairFirstExtractorIS9_EENS_7PtrHashIS2_EENS_14PairHashTraitsINS_10HashTraitsIS2_EENSF_IS8_EEEESG_E4findIS2_NS_22IdentityHashTranslatorIS2_S9_SD_EEEENS_17HashTableIteratorIS2_S9_SB_SD_SI_SG_EERKT_
0561f2d8 W _ZN3WTF9HashTableIPKcSt4pairIS2_NS_6RefPtrIN3JSC7UString3RepEEEENS_18PairFirstExtractorIS9_EENS_7PtrHashIS2_EENS_14PairHashTraitsINS_10HashTraitsIS2_EENSF_IS8_EEEESG_E13allocateTableEi
0561f308 W _ZN3WTF9HashTableIPN3JSC7UString3RepES4_NS_17IdentityExtractorIS4_EENS_7StrHashIS4_EENS_10HashTraitsIS4_EESA_E13allocateTableEi
0561f338 W _ZN3WTF9HashTableIPN3JSC7UString3RepES4_NS_17IdentityExtractorIS4_EENS_7StrHashIS4_EENS_10HashTraitsIS4_EESA_E15deallocateTableEPS4_i
0561f364 W _ZN3WTF9HashTableIPKcSt4pairIS2_NS_6RefPtrIN3JSC7UString3RepEEEENS_18PairFirstExtractorIS9_EENS_7PtrHashIS2_EENS_14PairHashTraitsINS_10HashTraitsIS2_EENSF_IS8_EEEESG_E15deallocateTableEPS9_i
0561f430 W _ZN3WTF9HashTableIPKcSt4pairIS2_NS_6RefPtrIN3JSC7UString3RepEEEENS_18PairFirstExtractorIS9_EENS_7PtrHashIS2_EENS_14PairHashTraitsINS_10HashTraitsIS2_EENSF_IS8_EEEESG_E6rehashEi
0561f71c W _ZN3WTF9HashTableIPKcSt4pairIS2_NS_6RefPtrIN3JSC7UString3RepEEEENS_18PairFirstExtractorIS9_EENS_7PtrHashIS2_EENS_14PairHashTraitsINS_10HashTraitsIS2_EENSF_IS8_EEEESG_E6expandEv
0561f7b0 W _ZN3WTF7HashMapIPKcNS_6RefPtrIN3JSC7UString3RepEEENS_7PtrHashIS2_EENS_10HashTraitsIS2_EENSA_IS7_EEE3addERKS2_RKS7_
0561fad4 W _ZN3WTF9HashTableIPN3JSC7UString3RepES4_NS_17IdentityExtractorIS4_EENS_7StrHashIS4_EENS_10HashTraitsIS4_EESA_E6rehashEi
0561fd1c W _ZN3WTF9HashTableIPN3JSC7UString3RepES4_NS_17IdentityExtractorIS4_EENS_7StrHashIS4_EENS_10HashTraitsIS4_EESA_E6removeEPS4_
0561fd98 W _ZN3WTF9HashTableIPN3JSC7UString3RepES4_NS_17IdentityExtractorIS4_EENS_7StrHashIS4_EENS_10HashTraitsIS4_EESA_E47removeAndInvalidateWithoutEntryConsistencyCheckEPS4_
0561fdc4 W _ZN3WTF9HashTableIPN3JSC7UString3RepES4_NS_17IdentityExtractorIS4_EENS_7StrHashIS4_EENS_10HashTraitsIS4_EESA_E6expandEv
0561fe58 W _ZN3WTF9HashTableIPN3JSC7UString3RepES4_NS_17IdentityExtractorIS4_EENS_7StrHashIS4_EENS_10HashTraitsIS4_EESA_E4findIS4_NS_22IdentityHashTranslatorIS4_S4_S8_EEEENS_17HashTableIteratorIS4_S4_S6_S8_SA_SA_EERKT_
05620088 W _ZN3WTF7HashSetIPN3JSC7UString3RepENS_7StrHashIS4_EENS_10HashTraitsIS4_EEE3addINS1_11UCharBufferENS1_21UCharBufferTranslatorEEESt4pairINS_24HashTableIteratorAdapterINS_9HashTableIS4_S4_NS_17IdentityExtractorIS4_EES6_S8_S8_EES4_EEbERKT_
05620384 W _ZN3WTF7HashSetIPN3JSC7UString3RepENS_7StrHashIS4_EENS_10HashTraitsIS4_EEE3addIPKcNS1_17CStringTranslatorEEESt4pairINS_24HashTableIteratorAdapterINS_9HashTableIS4_S4_NS_17IdentityExtractorIS4_EES6_S8_S8_EES4_EEbERKT_
056206a4 W _ZN3WTF7HashSetIPN3JSC7UString3RepENS_7StrHashIS4_EENS_10HashTraitsIS4_EEE3addERKS4_
0562093c W _ZN3JSC16InternalFunctionD0Ev
05620a90 W _ZN3JSC16InternalFunctionD1Ev
05620bb8 W _ZNK3JSC7JSArray9classInfoEv
05620bc4 W _ZN3WTF6VectorIN3JSC26AVLTreeNodeForArrayCompareELj0EE6shrinkEj
05620bcc W _ZN3WTF9HashTableIjSt4pairIjN3JSC10JSValuePtrEENS_18PairFirstExtractorIS4_EENS_7IntHashIjEENS_14PairHashTraitsINS_10HashTraitsIjEENSA_IS3_EEEESB_E4findIjNS_22IdentityHashTranslatorIjS4_S8_EEEENS_17HashTableIteratorIjS4_S6_S8_SD_SB_EERKT_
05620d1c W _ZN3WTF9HashTableIjSt4pairIjN3JSC10JSValuePtrEENS_18PairFirstExtractorIS4_EENS_7IntHashIjEENS_14PairHashTraitsINS_10HashTraitsIjEENSA_IS3_EEEESB_E15deallocateTableEPS4_i
05620d48 W _ZN3WTF6VectorIN3JSC26AVLTreeNodeForArrayCompareELj0EE15reserveCapacityEj
05620e68 W _ZN3WTF6VectorIN3JSC26AVLTreeNodeForArrayCompareELj0EE14expandCapacityEj
05620ef8 W _ZN3WTF6VectorIN3JSC26AVLTreeNodeForArrayCompareELj0EE6resizeEj
05620fa4 W _ZN3WTF9HashTableIjSt4pairIjN3JSC10JSValuePtrEENS_18PairFirstExtractorIS4_EENS_7IntHashIjEENS_14PairHashTraitsINS_10HashTraitsIjEENSA_IS3_EEEESB_E13allocateTableEi
05621004 W _ZN3WTF9HashTableIjSt4pairIjN3JSC10JSValuePtrEENS_18PairFirstExtractorIS4_EENS_7IntHashIjEENS_14PairHashTraitsINS_10HashTraitsIjEENSA_IS3_EEEESB_E6rehashEi
056211ec W _ZN3WTF9HashTableIjSt4pairIjN3JSC10JSValuePtrEENS_18PairFirstExtractorIS4_EENS_7IntHashIjEENS_14PairHashTraitsINS_10HashTraitsIjEENSA_IS3_EEEESB_E6removeEPS4_
05621268 W _ZN3WTF9HashTableIjSt4pairIjN3JSC10JSValuePtrEENS_18PairFirstExtractorIS4_EENS_7IntHashIjEENS_14PairHashTraitsINS_10HashTraitsIjEENSA_IS3_EEEESB_E47removeAndInvalidateWithoutEntryConsistencyCheckEPS4_
05621294 W _ZN3WTF9HashTableIjSt4pairIjN3JSC10JSValuePtrEENS_18PairFirstExtractorIS4_EENS_7IntHashIjEENS_14PairHashTraitsINS_10HashTraitsIjEENSA_IS3_EEEESB_E6expandEv
05621328 W _ZN3WTF9HashTableIjSt4pairIjN3JSC10JSValuePtrEENS_18PairFirstExtractorIS4_EENS_7IntHashIjEENS_14PairHashTraitsINS_10HashTraitsIjEENSA_IS3_EEEESB_EC1ERKSE_
05621590 W _ZN3WTF7HashMapIjN3JSC10JSValuePtrENS_7IntHashIjEENS_10HashTraitsIjEENS5_IS2_EEE3setERKjRKS2_
05621830 W _ZN3WTF6VectorISt4pairIN3JSC10JSValuePtrENS2_7UStringEELj0EE6shrinkEj
056218f0 W _ZNK3WTF9HashTableIjSt4pairIjN3JSC10JSValuePtrEENS_18PairFirstExtractorIS4_EENS_7IntHashIjEENS_14PairHashTraitsINS_10HashTraitsIjEENSA_IS3_EEEESB_E8containsIjNS_22IdentityHashTranslatorIjS4_S8_EEEEbRKT_
056219e4 W _ZN3JSC32AVLTreeAbstractorForArrayCompare15compare_key_keyENS_10JSValuePtrES1_
05621c0c W _ZN3WTF7HashMapIjN3JSC10JSValuePtrENS_7IntHashIjEENS_10HashTraitsIjEENS5_IS2_EEE4takeERKj
05621cc0 W _ZN3WTF7AVLTreeIN3JSC32AVLTreeAbstractorForArrayCompareELj44ENS_18AVLTreeDefaultBSetILj44EEEE7balanceEi
056222cc W _ZNK3JSC11JSByteArray9classInfoEv
056222d4 W _ZN3JSC11JSByteArray8setIndexEPNS_9ExecStateEjNS_10JSValuePtrE
05622400 W _ZN3JSC11JSByteArrayD0Ev
05622590 W _ZN3JSC11JSByteArrayD1Ev
056226f8 W _ZNK3JSC10JSFunction9classInfoEv
05622704 W _ZN3JSC12JSNumberCellD1Ev
05622714 W _ZN3JSC12JSNumberCellD0Ev
0562274c W _ZN3JSC8JSObjectD0Ev
056228a0 W _ZN3JSC8JSObjectD1Ev
056229c8 W _ZN3JSC8JSStringD1Ev
05622a5c W _ZN3JSC8JSStringD0Ev
05622b18 W _ZN3JSC15JSWrapperObjectD1Ev
05622c40 W _ZN3JSC15JSWrapperObjectD0Ev
05622d94 W _ZN3WTF6VectorIcLj0EE6shrinkEj
05622d9c W _ZN3WTF6VectorItLj0EE6shrinkEj
05622da4 W _ZN3WTF6VectorIPNS0_IN3JSC10IdentifierELj64EEELj32EE6shrinkEj
05622dac W _ZN3WTF6VectorIPNS0_IN3JSC10IdentifierELj64EEELj32EE15reserveCapacityEj
05622ec0 W _ZN3WTF6VectorIPNS0_IN3JSC10IdentifierELj64EEELj32EE14expandCapacityEj
05622f50 W _ZN3WTF6VectorIPNS0_IN3JSC10IdentifierELj64EEELj32EE14expandCapacityEjPKS4_
05623000 W _ZN3WTF6VectorIPNS0_IN3JSC10IdentifierELj64EEELj32EE6resizeEj
0562307c W _ZN3WTF6VectorIcLj0EE14shrinkCapacityEj
0562319c W _ZN3WTF6VectorItLj0EE15reserveCapacityEj
056232b8 W _ZN3WTF6VectorItLj0EE14expandCapacityEj
05623348 W _ZN3WTF6VectorItLj0EE14expandCapacityEjPKt
056233f8 W _ZN3WTF6VectorIcLj0EE15reserveCapacityEj
056234dc W _ZN3WTF6VectorIcLj0EE14expandCapacityEj
0562356c W _ZN3WTF6VectorIcLj0EE14expandCapacityEjPKc
05623614 W _ZN3WTF6VectorIN3JSC10IdentifierELj64EE6shrinkEj
056236d4 W _ZN3WTF6VectorIN3JSC10IdentifierELj64EE14shrinkCapacityEj
056238e0 W _ZN3WTF6VectorItLj0EE14shrinkCapacityEj
05623a14 W _ZN3JSC9ExecState9mathTableEPS0_
05623a24 W _ZNK3JSC10MathObject9classInfoEv
05623a30 W _ZN3JSC10MathObjectD1Ev
05623b58 W _ZN3JSC10MathObjectD0Ev
05623cac W _ZNK3JSC22NativeErrorConstructor9classInfoEv
05623cb8 W _ZN3JSC22NativeErrorConstructorD1Ev
05623e38 W _ZN3JSC8JSObject9putDirectERKNS_10IdentifierENS_10JSValuePtrEj
05624074 W _ZN3JSC22NativeErrorConstructorD0Ev
0562421c W _ZN3JSC20NativeErrorPrototypeD1Ev
05624344 W _ZN3JSC20NativeErrorPrototypeD0Ev
05624498 W _ZNK3JSC14ExpressionNode8isNumberEv
056244a0 W _ZNK3JSC14ExpressionNode8isStringEv
056244a8 W _ZNK3JSC14ExpressionNode6isNullEv
056244b0 W _ZNK3JSC14ExpressionNode6isPureERNS_17BytecodeGeneratorE
056244b8 W _ZNK3JSC14ExpressionNode10isLocationEv
056244c0 W _ZNK3JSC14ExpressionNode13isResolveNodeEv
056244c8 W _ZNK3JSC14ExpressionNode21isBracketAccessorNodeEv
056244d0 W _ZNK3JSC14ExpressionNode17isDotAccessorNodeEv
056244d8 W _ZNK3JSC14ExpressionNode14isFuncExprNodeEv
056244e0 W _ZN3JSC14ExpressionNode14stripUnaryPlusEv
056244e4 W _ZNK3JSC13StatementNode16isEmptyStatementEv
056244ec W _ZNK3JSC13StatementNode12isReturnNodeEv
056244f4 W _ZNK3JSC13StatementNode15isExprStatementEv
056244fc W _ZNK3JSC13StatementNode7isBlockEv
05624504 W _ZNK3JSC13StatementNode6isLoopEv
0562450c W _ZNK3JSC8NullNode6isNullEv
05624514 W _ZNK3JSC11BooleanNode6isPureERNS_17BytecodeGeneratorE
0562451c W _ZNK3JSC10NumberNode8isNumberEv
05624524 W _ZNK3JSC10NumberNode6isPureERNS_17BytecodeGeneratorE
0562452c W _ZNK3JSC10StringNode8isStringEv
05624534 W _ZNK3JSC10StringNode6isPureERNS_17BytecodeGeneratorE
0562453c W _ZNK3JSC11ResolveNode10isLocationEv
05624544 W _ZNK3JSC11ResolveNode13isResolveNodeEv
0562454c W _ZNK3JSC19BracketAccessorNode10isLocationEv
05624554 W _ZNK3JSC19BracketAccessorNode21isBracketAccessorNodeEv
0562455c W _ZNK3JSC15DotAccessorNode10isLocationEv
05624564 W _ZNK3JSC15DotAccessorNode17isDotAccessorNodeEv
0562456c W _ZNK3JSC14InstanceOfNode8opcodeIDEv
05624574 W _ZNK3JSC9EqualNode8opcodeIDEv
0562457c W _ZNK3JSC15StrictEqualNode8opcodeIDEv
05624584 W _ZNK3JSC9BlockNode7isBlockEv
0562458c W _ZNK3JSC18EmptyStatementNode16isEmptyStatementEv
05624594 W _ZNK3JSC17ExprStatementNode15isExprStatementEv
0562459c W _ZNK3JSC11DoWhileNode6isLoopEv
056245a4 W _ZNK3JSC9WhileNode6isLoopEv
056245ac W _ZNK3JSC7ForNode6isLoopEv
056245b4 W _ZNK3JSC9ForInNode6isLoopEv
056245bc W _ZNK3JSC10ReturnNode12isReturnNodeEv
056245c4 W _ZNK3JSC12FuncExprNode14isFuncExprNodeEv
056245cc W _ZN3WTF6VectorINS_6RefPtrIN3JSC5LabelEEELj8EE6shrinkEj
05624618 W _ZN3WTF6VectorIPN3JSC14ExpressionNodeELj8EE6shrinkEj
05624620 W _ZN3WTF6VectorIPNS0_IN3JSC10RegisterIDELj512EEELj32EE6shrinkEj
05624628 W _ZN3WTF6VectorIPNS0_IN3JSC10LabelScopeELj256EEELj32EE6shrinkEj
05624630 W _ZN3WTF6VectorIPNS0_IN3JSC5LabelELj256EEELj32EE6shrinkEj
05624638 W _ZN3WTF9HashTableIPN3JSC16ParserRefCountedES3_NS_17IdentityExtractorIS3_EENS_7PtrHashIS3_EENS_10HashTraitsIS3_EES9_E4findIS3_NS_22IdentityHashTranslatorIS3_S3_S7_EEEENS_17HashTableIteratorIS3_S3_S5_S7_S9_S9_EERKT_
05624788 W _ZN3WTF15deleteAllValuesIPN3JSC16ParserRefCountedEKNS_9HashTableIS3_S3_NS_17IdentityExtractorIS3_EENS_7PtrHashIS3_EENS_10HashTraitsIS3_EESA_EEEEvRT0_
0562484c W _ZN3WTF9HashTableIPN3JSC16ProgramCodeBlockES3_NS_17IdentityExtractorIS3_EENS_7PtrHashIS3_EENS_10HashTraitsIS3_EES9_E4findIS3_NS_22IdentityHashTranslatorIS3_S3_S7_EEEENS_17HashTableIteratorIS3_S3_S5_S7_S9_S9_EERKT_
0562499c W _ZN3WTF9HashTableIPN3JSC16ParserRefCountedESt4pairIS3_jENS_18PairFirstExtractorIS5_EENS_7PtrHashIS3_EENS_14PairHashTraitsINS_10HashTraitsIS3_EENSB_IjEEEESC_E4findIS3_NS_22IdentityHashTranslatorIS3_S5_S9_EEEENS_17HashTableIteratorIS3_S5_S7_S9_SE_SC_EERKT_
05624aec W _ZN3JSC4NodeD0Ev
05624b44 W _ZN3JSC4NodeD1Ev
05624b7c W _ZN3WTF9HashTableIPN3JSC16ParserRefCountedESt4pairIS3_jENS_18PairFirstExtractorIS5_EENS_7PtrHashIS3_EENS_14PairHashTraitsINS_10HashTraitsIS3_EENSB_IjEEEESC_E13allocateTableEi
05624bac W _ZN3WTF9HashTableIPN3JSC16ParserRefCountedES3_NS_17IdentityExtractorIS3_EENS_7PtrHashIS3_EENS_10HashTraitsIS3_EES9_E13allocateTableEi
05624bdc W _ZN3WTF9HashTableIPN3JSC16ProgramCodeBlockES3_NS_17IdentityExtractorIS3_EENS_7PtrHashIS3_EENS_10HashTraitsIS3_EES9_E13allocateTableEi
05624c0c W _ZN3WTF9HashTableIPN3JSC16ParserRefCountedESt4pairIS3_jENS_18PairFirstExtractorIS5_EENS_7PtrHashIS3_EENS_14PairHashTraitsINS_10HashTraitsIS3_EENSB_IjEEEESC_E6rehashEi
05624de4 W _ZN3WTF9HashTableIPN3JSC16ParserRefCountedESt4pairIS3_jENS_18PairFirstExtractorIS5_EENS_7PtrHashIS3_EENS_14PairHashTraitsINS_10HashTraitsIS3_EENSB_IjEEEESC_E6removeEPS5_
05624e60 W _ZN3WTF9HashTableIPN3JSC16ParserRefCountedESt4pairIS3_jENS_18PairFirstExtractorIS5_EENS_7PtrHashIS3_EENS_14PairHashTraitsINS_10HashTraitsIS3_EENSB_IjEEEESC_E47removeAndInvalidateWithoutEntryConsistencyCheckEPS5_
05624e8c W _ZN3WTF9HashTableIPN3JSC16ParserRefCountedESt4pairIS3_jENS_18PairFirstExtractorIS5_EENS_7PtrHashIS3_EENS_14PairHashTraitsINS_10HashTraitsIS3_EENSB_IjEEEESC_E6expandEv
05624f20 W _ZN3WTF7HashMapIPN3JSC16ParserRefCountedEjNS_7PtrHashIS3_EENS_10HashTraitsIS3_EENS6_IjEEE3addERKS3_RKj
056251c8 W _ZN3WTF9HashTableIPN3JSC16ParserRefCountedES3_NS_17IdentityExtractorIS3_EENS_7PtrHashIS3_EENS_10HashTraitsIS3_EES9_E6rehashEi
05625390 W _ZN3WTF9HashTableIPN3JSC16ParserRefCountedES3_NS_17IdentityExtractorIS3_EENS_7PtrHashIS3_EENS_10HashTraitsIS3_EES9_E6removeEPS3_
0562540c W _ZN3WTF9HashTableIPN3JSC16ParserRefCountedES3_NS_17IdentityExtractorIS3_EENS_7PtrHashIS3_EENS_10HashTraitsIS3_EES9_E47removeAndInvalidateWithoutEntryConsistencyCheckEPS3_
05625438 W _ZN3WTF9HashTableIPN3JSC16ParserRefCountedES3_NS_17IdentityExtractorIS3_EENS_7PtrHashIS3_EENS_10HashTraitsIS3_EES9_E6expandEv
056254cc W _ZN3WTF7HashSetIPN3JSC16ParserRefCountedENS_7PtrHashIS3_EENS_10HashTraitsIS3_EEE3addERKS3_
05625750 W _ZN3WTF9HashTableIPN3JSC16ProgramCodeBlockES3_NS_17IdentityExtractorIS3_EENS_7PtrHashIS3_EENS_10HashTraitsIS3_EES9_E6rehashEi
05625918 W _ZN3WTF9HashTableIPN3JSC16ProgramCodeBlockES3_NS_17IdentityExtractorIS3_EENS_7PtrHashIS3_EENS_10HashTraitsIS3_EES9_E6removeEPS3_
05625994 W _ZN3WTF9HashTableIPN3JSC16ProgramCodeBlockES3_NS_17IdentityExtractorIS3_EENS_7PtrHashIS3_EENS_10HashTraitsIS3_EES9_E47removeAndInvalidateWithoutEntryConsistencyCheckEPS3_
056259c0 W _ZN3WTF9HashTableIPN3JSC16ProgramCodeBlockES3_NS_17IdentityExtractorIS3_EENS_7PtrHashIS3_EENS_10HashTraitsIS3_EES9_E6expandEv
05625a54 W _ZN3WTF6VectorINS_6RefPtrIN3JSC16ParserRefCountedEEELj0EE15reserveCapacityEj
05625b78 W _ZN3WTF6VectorINS_6RefPtrIN3JSC16ParserRefCountedEEELj0EE14expandCapacityEj
05625c08 W _ZN3JSC8jsNumberEPNS_12JSGlobalDataEj
05625c70 W _ZN3WTF6VectorINS_6RefPtrIN3JSC5LabelEEELj8EE15reserveCapacityEj
05625d84 W _ZN3WTF6VectorINS_6RefPtrIN3JSC5LabelEEELj8EE14expandCapacityEj
05625e14 W _ZN3WTF6VectorIPN3JSC14ExpressionNodeELj8EE15reserveCapacityEj
05625f28 W _ZN3WTF6VectorIPN3JSC14ExpressionNodeELj8EE14expandCapacityEj
05625fb8 W _ZN3WTF6VectorIPN3JSC14ExpressionNodeELj8EE14expandCapacityEjPKS3_
05626068 W _ZN3WTF7HashSetIPN3JSC16ProgramCodeBlockENS_7PtrHashIS3_EENS_10HashTraitsIS3_EEE3addERKS3_
056262ec W _ZN3WTF6VectorINS_6RefPtrIN3JSC16ParserRefCountedEEELj0EE6shrinkEj
05626388 W _ZNK3WTF9HashTableIPN3JSC16ParserRefCountedESt4pairIS3_jENS_18PairFirstExtractorIS5_EENS_7PtrHashIS3_EENS_14PairHashTraitsINS_10HashTraitsIS3_EENSB_IjEEEESC_E8containsIS3_NS_22IdentityHashTranslatorIS3_S5_S9_EEEEbRKT_
0562647c W _ZNK3WTF9HashTableIPN3JSC16ParserRefCountedES3_NS_17IdentityExtractorIS3_EENS_7PtrHashIS3_EENS_10HashTraitsIS3_EES9_E8containsIS3_NS_22IdentityHashTranslatorIS3_S3_S7_EEEEbRKT_
05626570 W _ZN3WTF6VectorINS_6RefPtrIN3JSC12FuncDeclNodeEEELj0EEaSERKS5_
05626738 W _ZN3WTF6VectorINS_6RefPtrIN3JSC13StatementNodeEEELj0EE15reserveCapacityEj
0562685c W _ZN3WTF6VectorINS_6RefPtrIN3JSC13StatementNodeEEELj0EE14expandCapacityEj
056268ec W _ZN3WTF6VectorISt4pairIN3JSC10IdentifierEjELj0EE15reserveCapacityEj
05626a70 W _ZN3WTF6VectorISt4pairIN3JSC10IdentifierEjELj0EE6shrinkEj
05626b30 W _ZN3WTF6VectorINS_6RefPtrIN3JSC13StatementNodeEEELj0EE6shrinkEj
05626bcc W _ZN3WTF6VectorINS_6RefPtrIN3JSC13StatementNodeEEELj0EE14shrinkCapacityEj
05626d0c W _ZN3JSC17BytecodeGeneratorD1Ev
05627578 W _ZN3WTF6VectorISt4pairIN3JSC10IdentifierEjELj0EE14shrinkCapacityEj
05627740 W _ZN3WTF6VectorISt4pairIN3JSC10IdentifierEjELj0EEaSERKS5_
0562792c W _ZN3JSC17PrefixResolveNodeD1Ev
056279e8 W _ZN3JSC13StatementNodeD0Ev
05627a40 W _ZN3JSC13StatementNodeD1Ev
05627a78 W _ZN3JSC14ExpressionNodeD0Ev
05627ad0 W _ZN3JSC14ExpressionNodeD1Ev
05627b08 W _ZN3JSC18EmptyStatementNodeD0Ev
05627b60 W _ZN3JSC18EmptyStatementNodeD1Ev
05627b98 W _ZN3JSC21DebuggerStatementNodeD0Ev
05627bf0 W _ZN3JSC21DebuggerStatementNodeD1Ev
05627c28 W _ZN3JSC17ExprStatementNodeD0Ev
05627cac W _ZN3JSC17ExprStatementNodeD1Ev
05627d1c W _ZN3JSC12ContinueNodeD0Ev
05627dbc W _ZN3JSC12ContinueNodeD1Ev
05627e78 W _ZN3JSC9BreakNodeD0Ev
05627f18 W _ZN3JSC9BreakNodeD1Ev
05627fd4 W _ZN3JSC11ProgramNodeD0Ev
05628108 W _ZN3JSC11ProgramNodeD1Ev
05628224 W _ZN3JSC8EvalNodeD0Ev
05628358 W _ZN3JSC8EvalNodeD1Ev
05628474 W _ZN3JSC8NullNodeD0Ev
056284cc W _ZN3JSC8NullNodeD1Ev
05628504 W _ZN3JSC9EqualNodeD0Ev
0562855c W _ZN3JSC9EqualNodeD1Ev
05628594 W _ZN3JSC15StrictEqualNodeD0Ev
056285ec W _ZN3JSC15StrictEqualNodeD1Ev
05628624 W _ZN3JSC21ThrowableBinaryOpNodeD0Ev
0562867c W _ZN3JSC21ThrowableBinaryOpNodeD1Ev
056286b4 W _ZN3JSC14InstanceOfNodeD1Ev
056286ec W _ZN3JSC19ReverseBinaryOpNodeD0Ev
05628744 W _ZN3JSC19ReverseBinaryOpNodeD1Ev
0562877c W _ZN3JSC14InstanceOfNodeD0Ev
056287d4 W _ZN3JSC18PrePostResolveNodeD0Ev
05628874 W _ZN3JSC18PrePostResolveNodeD1Ev
05628930 W _ZN3JSC17PrefixResolveNodeD0Ev
056289d0 W _ZN3JSC11BooleanNodeD0Ev
05628a28 W _ZN3JSC11BooleanNodeD1Ev
05628a60 W _ZN3JSC10NumberNodeD0Ev
05628ab8 W _ZN3JSC10NumberNodeD1Ev
05628af0 W _ZN3JSC10StringNodeD0Ev
05628b90 W _ZN3JSC10StringNodeD1Ev
05628c4c W _ZN3JSC10RegExpNodeD0Ev
05628d24 W _ZN3JSC10RegExpNodeD1Ev
05628e18 W _ZN3JSC8ThisNodeD0Ev
05628e70 W _ZN3JSC8ThisNodeD1Ev
05628ea8 W _ZN3JSC11ResolveNodeD0Ev
05628f48 W _ZN3JSC11ResolveNodeD1Ev
05629004 W _ZN3JSC17DeleteResolveNodeD0Ev
056290a4 W _ZN3JSC17DeleteResolveNodeD1Ev
05629160 W _ZN3JSC17TypeOfResolveNodeD0Ev
05629200 W _ZN3JSC17TypeOfResolveNodeD1Ev
056292bc W _ZN3JSC18PostfixResolveNodeD0Ev
0562935c W _ZN3JSC18PostfixResolveNodeD1Ev
05629418 W _ZN3JSC9ExecState11numberTableEPS0_
05629428 W _ZNK3JSC17NumberConstructor9classInfoEv
05629434 W _ZN3JSC17NumberConstructorD0Ev
05629588 W _ZN3JSC17NumberConstructorD1Ev
056296b0 W _ZNK3JSC12NumberObject9classInfoEv
056296bc W _ZN3JSC12NumberObjectD1Ev
056297e4 W _ZN3JSC12NumberObjectD0Ev
05629938 W _ZN3WTF6VectorIcLj1024EE6shrinkEj
05629940 W _ZN3WTF6VectorIcLj2048EE6shrinkEj
05629948 W _ZN3JSC15NumberPrototypeD0Ev
05629a9c W _ZN3JSC15NumberPrototypeD1Ev
05629bc4 W _ZN3JSC17ObjectConstructorD0Ev
05629d18 W _ZN3JSC17ObjectConstructorD1Ev
05629e40 W _ZN3JSC15ObjectPrototypeD1Ev
05629f68 W _ZN3JSC15ObjectPrototypeD0Ev
0562a0bc W _ZN3JSC25strictEqualSlowCaseInlineENS_10JSValuePtrES0_
0562a23c W _ZN3JSC19equalSlowCaseInlineEPNS_9ExecStateENS_10JSValuePtrES2_
0562a7bc W _ZN3WTF9HashTableIPN3JSC7UString3RepES4_NS_17IdentityExtractorIS4_EENS_7PtrHashIS4_EENS_10HashTraitsIS4_EESA_E4findIS4_NS_22IdentityHashTranslatorIS4_S4_S8_EEEENS_17HashTableIteratorIS4_S4_S6_S8_SA_SA_EERKT_
0562a90c W _ZN3WTF9HashTableIPN3JSC7UString3RepES4_NS_17IdentityExtractorIS4_EENS_7PtrHashIS4_EENS_10HashTraitsIS4_EESA_E13allocateTableEi
0562a93c W _ZN3WTF9HashTableIPN3JSC7UString3RepES4_NS_17IdentityExtractorIS4_EENS_7PtrHashIS4_EENS_10HashTraitsIS4_EESA_E6rehashEi
0562ab04 W _ZN3WTF9HashTableIPN3JSC7UString3RepES4_NS_17IdentityExtractorIS4_EENS_7PtrHashIS4_EENS_10HashTraitsIS4_EESA_E6expandEv
0562ab98 W _ZN3WTF7HashSetIPN3JSC7UString3RepENS_7PtrHashIS4_EENS_10HashTraitsIS4_EEE3addERKS4_
0562ae1c W _ZN3WTF6VectorIN3JSC10IdentifierELj20EE15reserveCapacityEj
0562afb8 W _ZN3WTF6VectorIN3JSC10IdentifierELj20EE14expandCapacityEj
0562b048 W _ZN3WTF6VectorIN3JSC10IdentifierELj20EE14expandCapacityEjPKS2_
0562b0f8 W _ZN3JSC17PrototypeFunctionD1Ev
0562b220 W _ZN3JSC17PrototypeFunctionD0Ev
0562b374 W _ZN3JSC9ExecState22regExpConstructorTableEPS0_
0562b384 W _ZNK3JSC17RegExpConstructor9classInfoEv
0562b390 W _ZN3JSC18RegExpMatchesArray16getPropertyNamesEPNS_9ExecStateERNS_17PropertyNameArrayE
0562b41c W _ZN3JSC18RegExpMatchesArray14deletePropertyEPNS_9ExecStateEj
0562b4a8 W _ZN3JSC18RegExpMatchesArray14deletePropertyEPNS_9ExecStateERKNS_10IdentifierE
0562b534 W _ZN3JSC18RegExpMatchesArray3putEPNS_9ExecStateEjNS_10JSValuePtrE
0562b5d4 W _ZN3JSC18RegExpMatchesArray3putEPNS_9ExecStateERKNS_10IdentifierENS_10JSValuePtrERNS_15PutPropertySlotE
0562b684 W _ZN3JSC18RegExpMatchesArray18getOwnPropertySlotEPNS_9ExecStateEjRNS_12PropertySlotE
0562b720 W _ZN3JSC18RegExpMatchesArray18getOwnPropertySlotEPNS_9ExecStateERKNS_10IdentifierERNS_12PropertySlotE
0562b7bc W _ZN3JSC17RegExpConstructorD1Ev
0562b994 W _ZN3JSC17RegExpConstructorD0Ev
0562bb94 W _ZN3JSC9ExecState11regExpTableEPS0_
0562bba4 W _ZNK3JSC12RegExpObject9classInfoEv
0562bbb0 W _ZNK3JSC15RegExpPrototype9classInfoEv
0562bbbc W _ZN3JSC15RegExpPrototypeD1Ev
0562bce4 W _ZN3JSC15RegExpPrototypeD0Ev
0562be38 W _ZN3JSC17StringConstructorD1Ev
0562bf60 W _ZN3JSC17StringConstructorD0Ev
0562c0b4 W _ZNK3JSC12StringObject9classInfoEv
0562c0c0 W _ZN3JSC12StringObjectD0Ev
0562c214 W _ZN3JSC12StringObjectD1Ev
0562c33c W _ZN3JSC9ExecState11stringTableEPS0_
0562c34c W _ZNK3JSC15StringPrototype9classInfoEv
0562c358 W _ZN3WTF6VectorIN3JSC7UString5RangeELj16EE6shrinkEj
0562c360 W _ZN3WTF6VectorIN3JSC7UString5RangeELj16EE15reserveCapacityEj
0562c498 W _ZN3WTF6VectorIN3JSC7UString5RangeELj16EE14expandCapacityEj
0562c528 W _ZN3WTF6VectorIN3JSC7UString5RangeELj16EE14expandCapacityEjPKS3_
0562c5d8 W _ZN3WTF6VectorIN3JSC7UStringELj16EE15reserveCapacityEj
0562c774 W _ZN3WTF6VectorIN3JSC7UStringELj16EE14expandCapacityEj
0562c804 W _ZN3WTF6VectorIN3JSC7UStringELj16EE14expandCapacityEjPKS2_
0562c8b4 W _ZN3WTF6VectorIN3JSC7UStringELj16EE6shrinkEj
0562c974 W _ZN3WTF6VectorItLj0EE6resizeEj
0562c9f0 W _ZN3JSC15StringPrototypeD1Ev
0562cb18 W _ZN3JSC15StringPrototypeD0Ev
0562cc6c W _ZN3WTF6VectorIPN3JSC9StructureELj8EE6shrinkEj
0562cc74 W _ZN3WTF6VectorIPN3JSC16PropertyMapEntryELj1024EE6shrinkEj
0562cc7c W _ZN3WTF6VectorIjLj0EEC1ERKS1_
0562cd34 W _ZN3WTF9HashTableISt4pairINS_6RefPtrIN3JSC7UString3RepEEEjES1_IS7_PNS3_9StructureEENS_18PairFirstExtractorISA_EENS3_28StructureTransitionTableHashENS_14PairHashTraitsINS3_34StructureTransitionTableHashTraitsENS_10HashTraitsIS9_EEEESF_E13allocateTableEi
0562cd64 W _ZN3WTF6VectorIPN3JSC9StructureELj8EE15reserveCapacityEj
0562ce78 W _ZN3WTF6VectorIPN3JSC9StructureELj8EE14expandCapacityEj
0562cf08 W _ZN3WTF6VectorIPN3JSC9StructureELj8EE14expandCapacityEjPKS3_
0562cfb8 W _ZN3WTF6VectorIPN3JSC16PropertyMapEntryELj1024EE15reserveCapacityEj
0562d0cc W _ZN3WTF6VectorIPN3JSC16PropertyMapEntryELj1024EE14expandCapacityEj
0562d15c W _ZN3WTF6VectorIPN3JSC16PropertyMapEntryELj1024EE6resizeEj
0562d1d8 W _ZN3WTF9HashTableISt4pairINS_6RefPtrIN3JSC7UString3RepEEEjES1_IS7_PNS3_9StructureEENS_18PairFirstExtractorISA_EENS3_28StructureTransitionTableHashENS_14PairHashTraitsINS3_34StructureTransitionTableHashTraitsENS_10HashTraitsIS9_EEEESF_E15deallocateTableEPSA_i
0562d29c W _ZN3WTF9HashTableISt4pairINS_6RefPtrIN3JSC7UString3RepEEEjES1_IS7_PNS3_9StructureEENS_18PairFirstExtractorISA_EENS3_28StructureTransitionTableHashENS_14PairHashTraitsINS3_34StructureTransitionTableHashTraitsENS_10HashTraitsIS9_EEEESF_E4findIS7_NS_22IdentityHashTranslatorIS7_SA_SD_EEEENS_17HashTableIteratorIS7_SA_SC_SD_SI_SF_EERKT_
0562d3d0 W _ZNK3WTF7HashMapISt4pairINS_6RefPtrIN3JSC7UString3RepEEEjEPNS3_9StructureENS3_28StructureTransitionTableHashENS3_34StructureTransitionTableHashTraitsENS_10HashTraitsIS9_EEE3getERKS7_
0562d48c W _ZN3WTF9HashTableISt4pairINS_6RefPtrIN3JSC7UString3RepEEEjES1_IS7_PNS3_9StructureEENS_18PairFirstExtractorISA_EENS3_28StructureTransitionTableHashENS_14PairHashTraitsINS3_34StructureTransitionTableHashTraitsENS_10HashTraitsIS9_EEEESF_E6rehashEi
0562d770 W _ZN3WTF9HashTableISt4pairINS_6RefPtrIN3JSC7UString3RepEEEjES1_IS7_PNS3_9StructureEENS_18PairFirstExtractorISA_EENS3_28StructureTransitionTableHashENS_14PairHashTraitsINS3_34StructureTransitionTableHashTraitsENS_10HashTraitsIS9_EEEESF_E6removeEPSA_
0562d848 W _ZN3WTF9HashTableISt4pairINS_6RefPtrIN3JSC7UString3RepEEEjES1_IS7_PNS3_9StructureEENS_18PairFirstExtractorISA_EENS3_28StructureTransitionTableHashENS_14PairHashTraitsINS3_34StructureTransitionTableHashTraitsENS_10HashTraitsIS9_EEEESF_E47removeAndInvalidateWithoutEntryConsistencyCheckEPSA_
0562d874 W _ZN3WTF9HashTableISt4pairINS_6RefPtrIN3JSC7UString3RepEEEjES1_IS7_PNS3_9StructureEENS_18PairFirstExtractorISA_EENS3_28StructureTransitionTableHashENS_14PairHashTraitsINS3_34StructureTransitionTableHashTraitsENS_10HashTraitsIS9_EEEESF_E6expandEv
0562d908 W _ZN3WTF7HashMapISt4pairINS_6RefPtrIN3JSC7UString3RepEEEjEPNS3_9StructureENS3_28StructureTransitionTableHashENS3_34StructureTransitionTableHashTraitsENS_10HashTraitsIS9_EEE3addERKS7_RKS9_
0562dc80 W _ZN3WTF6VectorIcLj32EE6shrinkEj
0562dc88 W _ZN3WTF6VectorIcLj32EE15reserveCapacityEj
0562dd84 W _ZN3WTF6VectorIcLj32EE14expandCapacityEj
0562de14 W _ZN3WTF6VectorIcLj32EE6resizeEj
0562de90 W _ZN3JSC12HeavyProfile12heavyProfileEv
0562de94 W _ZN3JSC12HeavyProfile11treeProfileEv
0562de9c W _ZN3JSC12HeavyProfileD0Ev
0562def4 W _ZN3JSC12HeavyProfileD1Ev
0562df2c W _ZN3WTF9HashTableIN3JSC14CallIdentifierESt4pairIS2_PNS1_11ProfileNodeEENS_18PairFirstExtractorIS6_EENS1_18CallIdentifierHashENS_14PairHashTraitsINS_10HashTraitsIS2_EENSB_IS5_EEEESC_E4findIS2_NS_22IdentityHashTranslatorIS2_S6_S9_EEEENS_17HashTableIteratorIS2_S6_S8_S9_SE_SC_EERKT_
0562e288 W _ZN3WTF9HashTableIN3JSC14CallIdentifierESt4pairIS2_PNS1_11ProfileNodeEENS_18PairFirstExtractorIS6_EENS1_18CallIdentifierHashENS_14PairHashTraitsINS_10HashTraitsIS2_EENSB_IS5_EEEESC_E15deallocateTableEPS6_i
0562e3b4 W _ZN3WTF9HashTableIN3JSC14CallIdentifierESt4pairIS2_PNS1_11ProfileNodeEENS_18PairFirstExtractorIS6_EENS1_18CallIdentifierHashENS_14PairHashTraitsINS_10HashTraitsIS2_EENSB_IS5_EEEESC_E13allocateTableEi
0562e4f0 W _ZN3WTF9HashTableIN3JSC14CallIdentifierESt4pairIS2_PNS1_11ProfileNodeEENS_18PairFirstExtractorIS6_EENS1_18CallIdentifierHashENS_14PairHashTraitsINS_10HashTraitsIS2_EENSB_IS5_EEEESC_E6rehashEi
0562ebd8 W _ZN3WTF9HashTableIN3JSC14CallIdentifierESt4pairIS2_PNS1_11ProfileNodeEENS_18PairFirstExtractorIS6_EENS1_18CallIdentifierHashENS_14PairHashTraitsINS_10HashTraitsIS2_EENSB_IS5_EEEESC_E6expandEv
0562ec6c W _ZNK3WTF7HashMapIN3JSC14CallIdentifierEPNS1_11ProfileNodeENS1_18CallIdentifierHashENS_10HashTraitsIS2_EENS6_IS4_EEE3getERKS2_
0562ef6c W _ZN3WTF7HashMapIN3JSC14CallIdentifierEPNS1_11ProfileNodeENS1_18CallIdentifierHashENS_10HashTraitsIS2_EENS6_IS4_EEE3setERKS2_RKS4_
0562f5ac W _ZN3WTF6VectorINS_6RefPtrIN3JSC11ProfileNodeEEELj0EE6shrinkEj
0562f750 W _ZN3WTF6VectorINS_6RefPtrIN3JSC11ProfileNodeEEELj0EE15reserveCapacityEj
0562f874 W _ZN3WTF6VectorINS_6RefPtrIN3JSC11ProfileNodeEEELj0EE14expandCapacityEj
0562f904 W _ZN3WTF6VectorINS_6RefPtrIN3JSC11ProfileNodeEEELj0EE14shrinkCapacityEj
0562fa44 W _ZN3WTF10RefCountedIN3JSC11ProfileNodeEE5derefEv
0562fb70 W _ZSt20_Unguarded_partitionIPN3WTF6RefPtrIN3JSC11ProfileNodeEEEPFbRKS4_S7_EESt4pairIT_SB_ESB_SB_T0_
05631178 W _ZSt5_SortIPN3WTF6RefPtrIN3JSC11ProfileNodeEEEiPFbRKS4_S7_EEvT_SA_T0_T1_
05632970 W _ZN3WTF6VectorINS_6RefPtrIN3JSC16ProfileGeneratorEEELj0EE15reserveCapacityEj
05632a94 W _ZN3WTF6VectorINS_6RefPtrIN3JSC16ProfileGeneratorEEELj0EE14expandCapacityEj
05632b24 W _ZN3WTF6VectorINS_6RefPtrIN3JSC16ProfileGeneratorEEELj0EE14expandCapacityEjPKS4_
05632bd4 W _ZN3JSC11TreeProfile11treeProfileEv
05632bd8 W _ZN3JSC11TreeProfileD1Ev
05632c88 W _ZN3JSC11TreeProfileD0Ev
05632d28 W _ZN3WTF9HashTableIjSt4pairIjP7QThreadENS_18PairFirstExtractorIS4_EENS_7IntHashIjEENS_14PairHashTraitsINS_10HashTraitsIjEENSA_IS3_EEEESB_E4findIjNS_22IdentityHashTranslatorIjS4_S8_EEEENS_17HashTableIteratorIjS4_S6_S8_SD_SB_EERKT_
05632e78 W _ZN3WTF13ThreadPrivateD0Ev
05632ed0 W _ZN3WTF13ThreadPrivateD1Ev
05632f08 W _ZN3WTF9HashTableIjSt4pairIjP7QThreadENS_18PairFirstExtractorIS4_EENS_7IntHashIjEENS_14PairHashTraitsINS_10HashTraitsIjEENSA_IS3_EEEESB_E15deallocateTableEPS4_i
05632f34 W _ZN3WTF9HashTableIjSt4pairIjP7QThreadENS_18PairFirstExtractorIS4_EENS_7IntHashIjEENS_14PairHashTraitsINS_10HashTraitsIjEENSA_IS3_EEEESB_E13allocateTableEi
05632f64 W _ZN3WTF9HashTableIjSt4pairIjP7QThreadENS_18PairFirstExtractorIS4_EENS_7IntHashIjEENS_14PairHashTraitsINS_10HashTraitsIjEENSA_IS3_EEEESB_E6rehashEi
0563313c W _ZN3WTF9HashTableIjSt4pairIjP7QThreadENS_18PairFirstExtractorIS4_EENS_7IntHashIjEENS_14PairHashTraitsINS_10HashTraitsIjEENSA_IS3_EEEESB_E6removeEPS4_
056331b8 W _ZN3WTF9HashTableIjSt4pairIjP7QThreadENS_18PairFirstExtractorIS4_EENS_7IntHashIjEENS_14PairHashTraitsINS_10HashTraitsIjEENSA_IS3_EEEESB_E47removeAndInvalidateWithoutEntryConsistencyCheckEPS4_
056331e4 W _ZN3WTF9HashTableIjSt4pairIjP7QThreadENS_18PairFirstExtractorIS4_EENS_7IntHashIjEENS_14PairHashTraitsINS_10HashTraitsIjEENSA_IS3_EEEESB_E6expandEv
05633278 W _ZN3WTF7HashMapIjP7QThreadNS_7IntHashIjEENS_10HashTraitsIjEENS5_IS2_EEE3addERKjRKS2_
05633520 W _ZNK3WTF7HashMapIjP7QThreadNS_7IntHashIjEENS_10HashTraitsIjEENS5_IS2_EEE3getERKj
0563360c W _ZN3WTF17MainThreadInvokerD0Ev
05633664 W _ZN3WTF17MainThreadInvokerD1Ev
0563369c W _ZNK3JSC13UnaryPlusNode8opcodeIDEv
056336a4 W _ZNK3JSC10NegateNode8opcodeIDEv
056336ac W _ZNK3JSC14BitwiseNotNode8opcodeIDEv
056336b4 W _ZNK3JSC14LogicalNotNode8opcodeIDEv
056336bc W _ZNK3JSC8MultNode8opcodeIDEv
056336c4 W _ZNK3JSC7DivNode8opcodeIDEv
056336cc W _ZNK3JSC7ModNode8opcodeIDEv
056336d4 W _ZNK3JSC7AddNode8opcodeIDEv
056336dc W _ZNK3JSC7SubNode8opcodeIDEv
056336e4 W _ZNK3JSC13LeftShiftNode8opcodeIDEv
056336ec W _ZNK3JSC14RightShiftNode8opcodeIDEv
056336f4 W _ZNK3JSC22UnsignedRightShiftNode8opcodeIDEv
056336fc W _ZNK3JSC8LessNode8opcodeIDEv
05633704 W _ZNK3JSC11GreaterNode8opcodeIDEv
0563370c W _ZNK3JSC10LessEqNode8opcodeIDEv
05633714 W _ZNK3JSC13GreaterEqNode8opcodeIDEv
0563371c W _ZNK3JSC6InNode8opcodeIDEv
05633724 W _ZNK3JSC12NotEqualNode8opcodeIDEv
0563372c W _ZNK3JSC18NotStrictEqualNode8opcodeIDEv
05633734 W _ZNK3JSC10BitAndNode8opcodeIDEv
0563373c W _ZNK3JSC9BitOrNode8opcodeIDEv
05633744 W _ZNK3JSC10BitXOrNode8opcodeIDEv
0563374c W _ZN3JSC13UnaryPlusNode14stripUnaryPlusEv
05633754 W _Z14createNodeInfoIPN3JSC14ExpressionNodeEENS0_8NodeInfoIT_EES4_ji
05633764 W _Z14createNodeInfoIPN3JSC12PropertyNodeEENS0_8NodeInfoIT_EES4_ji
05633774 W _Z14createNodeInfoIPN3JSC13ArgumentsNodeEENS0_8NodeInfoIT_EES4_ji
05633784 W _Z25createNodeDeclarationInfoIPN3JSC13StatementNodeEENS0_19NodeDeclarationInfoIT_EES4_PNS0_20ParserRefCountedDataIN3WTF6VectorISt4pairINS0_10IdentifierEjELj0EEEEEPNS6_INS8_INS7_6RefPtrINS0_12FuncDeclNodeEEELj0EEEEEji
0563379c W _Z14createNodeInfoIPN3JSC13ConstDeclNodeEENS0_8NodeInfoIT_EES4_ji
056337ac W _Z25createNodeDeclarationInfoIPN3JSC13CaseBlockNodeEENS0_19NodeDeclarationInfoIT_EES4_PNS0_20ParserRefCountedDataIN3WTF6VectorISt4pairINS0_10IdentifierEjELj0EEEEEPNS6_INS8_INS7_6RefPtrINS0_12FuncDeclNodeEEELj0EEEEEji
056337c4 W _Z25createNodeDeclarationInfoIPN3JSC14CaseClauseNodeEENS0_19NodeDeclarationInfoIT_EES4_PNS0_20ParserRefCountedDataIN3WTF6VectorISt4pairINS0_10IdentifierEjELj0EEEEEPNS6_INS8_INS7_6RefPtrINS0_12FuncDeclNodeEEELj0EEEEEji
056337dc W _Z14createNodeInfoIPN3JSC12FuncExprNodeEENS0_8NodeInfoIT_EES4_ji
056337ec W _ZN3JSC13UnaryPlusNodeD0Ev
05633844 W _ZN3JSC13UnaryPlusNodeD1Ev
0563387c W _ZN3JSC10NegateNodeD0Ev
056338d4 W _ZN3JSC10NegateNodeD1Ev
0563390c W _ZN3JSC14BitwiseNotNodeD0Ev
05633964 W _ZN3JSC14BitwiseNotNodeD1Ev
0563399c W _ZN3JSC14LogicalNotNodeD0Ev
056339f4 W _ZN3JSC14LogicalNotNodeD1Ev
05633a2c W _ZN3JSC8MultNodeD0Ev
05633a84 W _ZN3JSC8MultNodeD1Ev
05633abc W _ZN3JSC7DivNodeD0Ev
05633b14 W _ZN3JSC7DivNodeD1Ev
05633b4c W _ZN3JSC7ModNodeD0Ev
05633ba4 W _ZN3JSC7ModNodeD1Ev
05633bdc W _ZN3JSC7AddNodeD0Ev
05633c34 W _ZN3JSC7AddNodeD1Ev
05633c6c W _ZN3JSC7SubNodeD0Ev
05633cc4 W _ZN3JSC7SubNodeD1Ev
05633cfc W _ZN3JSC13LeftShiftNodeD0Ev
05633d54 W _ZN3JSC13LeftShiftNodeD1Ev
05633d8c W _ZN3JSC14RightShiftNodeD0Ev
05633de4 W _ZN3JSC14RightShiftNodeD1Ev
05633e1c W _ZN3JSC22UnsignedRightShiftNodeD0Ev
05633e74 W _ZN3JSC22UnsignedRightShiftNodeD1Ev
05633eac W _ZN3JSC8LessNodeD0Ev
05633f04 W _ZN3JSC8LessNodeD1Ev
05633f3c W _ZN3JSC10LessEqNodeD0Ev
05633f94 W _ZN3JSC10LessEqNodeD1Ev
05633fcc W _ZN3JSC12NotEqualNodeD0Ev
05634024 W _ZN3JSC12NotEqualNodeD1Ev
0563405c W _ZN3JSC18NotStrictEqualNodeD0Ev
056340b4 W _ZN3JSC18NotStrictEqualNodeD1Ev
056340ec W _ZN3JSC10BitAndNodeD0Ev
05634144 W _ZN3JSC10BitAndNodeD1Ev
0563417c W _ZN3JSC9BitOrNodeD0Ev
056341d4 W _ZN3JSC9BitOrNodeD1Ev
0563420c W _ZN3JSC10BitXOrNodeD0Ev
05634264 W _ZN3JSC10BitXOrNodeD1Ev
0563429c W _ZN3JSC6InNodeD1Ev
056342d4 W _ZN3JSC11GreaterNodeD0Ev
0563432c W _ZN3JSC16VarDeclCommaNodeD0Ev
05634384 W _ZN3JSC16VarDeclCommaNodeD1Ev
056343bc W _ZN3JSC14SourceElementsD1Ev
0563444c W _ZN3WTF6VectorINS_6RefPtrIN3JSC12FuncDeclNodeEEELj0EE14expandCapacityEjPKS4_
056344fc W _ZN3WTF6VectorINS_6RefPtrIN3JSC12FuncDeclNodeEEELj0EE6appendIS4_EEvPKT_j
056345fc W _Z21mergeDeclarationListsIPN3JSC20ParserRefCountedDataIN3WTF6VectorINS2_6RefPtrINS0_12FuncDeclNodeEEELj0EEEEEET_SA_SA_
056346a8 W _ZN3JSC20ParserRefCountedDataIN3WTF6VectorINS1_6RefPtrINS_12FuncDeclNodeEEELj0EEEED1Ev
05634738 W _ZN3WTF6VectorISt4pairIN3JSC10IdentifierEjELj0EE14expandCapacityEj
056347c8 W _ZN3WTF6VectorISt4pairIN3JSC10IdentifierEjELj0EE14expandCapacityEjPKS4_
05634878 W _ZN3WTF6VectorISt4pairIN3JSC10IdentifierEjELj0EE6appendIS4_EEvPKT_j
0563494c W _Z21mergeDeclarationListsIPN3JSC20ParserRefCountedDataIN3WTF6VectorISt4pairINS0_10IdentifierEjELj0EEEEEET_SA_SA_
056349f8 W _ZN3JSC20ParserRefCountedDataIN3WTF6VectorISt4pairINS_10IdentifierEjELj0EEEED0Ev
05634a9c W _ZN3JSC6InNodeD0Ev
05634af4 W _ZN3JSC14SourceElementsD0Ev
05634b98 W _ZN3JSC20ParserRefCountedDataIN3WTF6VectorISt4pairINS_10IdentifierEjELj0EEEED1Ev
05634c28 W _ZN3JSC20ParserRefCountedDataIN3WTF6VectorINS1_6RefPtrINS_12FuncDeclNodeEEELj0EEEED0Ev
05634ccc W _ZN3JSC13GreaterEqNodeD1Ev
05634d04 W _ZN3JSC11GreaterNodeD1Ev
05634d3c W _ZN3JSC13GreaterEqNodeD0Ev
05634dbc W _ZN3WTF6VectorIN3JSC19ProtectedJSValuePtrELj0EE6shrinkEj
05635294 W _ZNK3JSC38StringObjectThatMasqueradesAsUndefined9toBooleanEPNS_9ExecStateE
0563529c W _ZN3JSC38StringObjectThatMasqueradesAsUndefinedD1Ev
056353c4 W _ZN3JSC38StringObjectThatMasqueradesAsUndefinedD0Ev
05635d90 W _ZN3WTF9HashTableIPKN3JSC9ClassInfoESt4pairIS4_PNS1_8JSObjectEENS_18PairFirstExtractorIS8_EENS_7PtrHashIS4_EENS_14PairHashTraitsINS_10HashTraitsIS4_EENSE_IS7_EEEESF_E15deallocateTableEPS8_i
05635dbc W _ZN3WTF9HashTableIPKN3JSC9ClassInfoESt4pairIS4_NS_6RefPtrINS1_9StructureEEEENS_18PairFirstExtractorIS9_EENS_7PtrHashIS4_EENS_14PairHashTraitsINS_10HashTraitsIS4_EENSF_IS8_EEEESG_E15deallocateTableEPS9_i
05635ea4 W _ZN3JSC14JSGlobalObject18JSGlobalObjectDataD2Ev
0563689c W _ZNK3WTF7HashMapIPKN3JSC9ClassInfoEPNS1_8JSObjectENS_7PtrHashIS4_EENS_10HashTraitsIS4_EENS9_IS6_EEE3getERKS4_
05636a7c W _ZN3WTF9HashTableIPKN3JSC9ClassInfoESt4pairIS4_PNS1_8JSObjectEENS_18PairFirstExtractorIS8_EENS_7PtrHashIS4_EENS_14PairHashTraitsINS_10HashTraitsIS4_EENSE_IS7_EEEESF_E13allocateTableEi
05636b0c W _ZN3WTF9HashTableIPKN3JSC9ClassInfoESt4pairIS4_PNS1_8JSObjectEENS_18PairFirstExtractorIS8_EENS_7PtrHashIS4_EENS_14PairHashTraitsINS_10HashTraitsIS4_EENSE_IS7_EEEESF_E6rehashEi
05636ce4 W _ZN3WTF9HashTableIPKN3JSC9ClassInfoESt4pairIS4_PNS1_8JSObjectEENS_18PairFirstExtractorIS8_EENS_7PtrHashIS4_EENS_14PairHashTraitsINS_10HashTraitsIS4_EENSE_IS7_EEEESF_E6expandEv
0563700c W _ZN3WTF9HashTableIPKN3JSC9ClassInfoESt4pairIS4_PNS1_8JSObjectEENS_18PairFirstExtractorIS8_EENS_7PtrHashIS4_EENS_14PairHashTraitsINS_10HashTraitsIS4_EENSE_IS7_EEEESF_E4findIS4_NS_22IdentityHashTranslatorIS4_S8_SC_EEEENS_17HashTableIteratorIS4_S8_SA_SC_SH_SF_EERKT_
0563715c W _ZN3WTF7HashMapIPKN3JSC9ClassInfoEPNS1_8JSObjectENS_7PtrHashIS4_EENS_10HashTraitsIS4_EENS9_IS6_EEE3setERKS4_RKS6_
05639c54 W _ZN3JSC6jsNullEv
05639c5c W _ZNK3JSC9ExecState10globalDataEv
05639cc8 W _ZN3WTF10PassRefPtrIN3JSC9StructureEED1Ev
05639d48 W _ZN3JSC6JSLockD1Ev
0563b328 W _ZN3WTF6VectorItLj0EE6appendItEEvPKT_j
0563d5c4 W _ZN3JSC8jsNumberEPNS_9ExecStateEs
0563df5c W _ZN3WTF9HashTableIPKN3JSC9HashTableESt4pairIS4_S2_ENS_18PairFirstExtractorIS6_EENS_7PtrHashIS4_EENS_14PairHashTraitsINS_10HashTraitsIS4_EENSC_IS2_EEEESD_E4findIS4_NS_22IdentityHashTranslatorIS4_S6_SA_EEEENS_17HashTableIteratorIS4_S6_S8_SA_SF_SD_EERKT_
0563e0ac W _ZN3WTF9HashTableIPKN3JSC9ClassInfoESt4pairIS4_NS_6RefPtrINS1_9StructureEEEENS_18PairFirstExtractorIS9_EENS_7PtrHashIS4_EENS_14PairHashTraitsINS_10HashTraitsIS4_EENSF_IS8_EEEESG_E4findIS4_NS_22IdentityHashTranslatorIS4_S9_SD_EEEENS_17HashTableIteratorIS4_S9_SB_SD_SI_SG_EERKT_
0563e1fc W _ZN3WTF9HashTableIPKN3JSC9ClassInfoESt4pairIS4_NS_6RefPtrINS1_9StructureEEEENS_18PairFirstExtractorIS9_EENS_7PtrHashIS4_EENS_14PairHashTraitsINS_10HashTraitsIS4_EENSF_IS8_EEEESG_E13allocateTableEi
0563e90c W _ZN3WTF9HashTableIPKN3JSC9HashTableESt4pairIS4_S2_ENS_18PairFirstExtractorIS6_EENS_7PtrHashIS4_EENS_14PairHashTraitsINS_10HashTraitsIS4_EENSC_IS2_EEEESD_E15deallocateTableEPS6_i
0563e938 W _ZN3WTF9HashTableIPKN3JSC9HashTableESt4pairIS4_S2_ENS_18PairFirstExtractorIS6_EENS_7PtrHashIS4_EENS_14PairHashTraitsINS_10HashTraitsIS4_EENSC_IS2_EEEESD_E13allocateTableEi
0563ea0c W _ZN3WTF9HashTableIPKN3JSC9HashTableESt4pairIS4_S2_ENS_18PairFirstExtractorIS6_EENS_7PtrHashIS4_EENS_14PairHashTraitsINS_10HashTraitsIS4_EENSC_IS2_EEEESD_E6rehashEi
0563ec34 W _ZN3WTF9HashTableIPKN3JSC9HashTableESt4pairIS4_S2_ENS_18PairFirstExtractorIS6_EENS_7PtrHashIS4_EENS_14PairHashTraitsINS_10HashTraitsIS4_EENSC_IS2_EEEESD_E6expandEv
0563ecc8 W _ZN3WTF7HashMapIPKN3JSC9HashTableES2_NS_7PtrHashIS4_EENS_10HashTraitsIS4_EENS7_IS2_EEE3setERKS4_RS3_
0563f0f8 W _ZNK3WTF7HashMapIPKN3JSC9ClassInfoENS_6RefPtrINS1_9StructureEEENS_7PtrHashIS4_EENS_10HashTraitsIS4_EENSA_IS7_EEE3getERKS4_
0563fc68 W _ZN3WTF9HashTableIPKN3JSC9ClassInfoESt4pairIS4_NS_6RefPtrINS1_9StructureEEEENS_18PairFirstExtractorIS9_EENS_7PtrHashIS4_EENS_14PairHashTraitsINS_10HashTraitsIS4_EENSF_IS8_EEEESG_E6rehashEi
0563ffa0 W _ZN3WTF9HashTableIPKN3JSC9ClassInfoESt4pairIS4_NS_6RefPtrINS1_9StructureEEEENS_18PairFirstExtractorIS9_EENS_7PtrHashIS4_EENS_14PairHashTraitsINS_10HashTraitsIS4_EENSF_IS8_EEEESG_E6expandEv
05640034 W _ZN3WTF7HashMapIPKN3JSC9ClassInfoENS_6RefPtrINS1_9StructureEEENS_7PtrHashIS4_EENS_10HashTraitsIS4_EENSA_IS7_EEE3setERKS4_RKS7_
05641ddc W _ZN3WTF9HashTableIPvSt4pairIS1_NS_6RefPtrIN3JSC8Bindings10RootObjectEEEENS_18PairFirstExtractorIS8_EENS_7PtrHashIS1_EENS_14PairHashTraitsINS_10HashTraitsIS1_EENSE_IS7_EEEESF_E4findIS1_NS_22IdentityHashTranslatorIS1_S8_SC_EEEENS_17HashTableIteratorIS1_S8_SA_SC_SH_SF_EERKT_
05641f2c W _ZN3WTF9HashTableIPvSt4pairIS1_NS_6RefPtrIN3JSC8Bindings10RootObjectEEEENS_18PairFirstExtractorIS8_EENS_7PtrHashIS1_EENS_14PairHashTraitsINS_10HashTraitsIS1_EENSE_IS7_EEEESF_E13allocateTableEi
05641f5c W _ZN3WTF9HashTableIPvSt4pairIS1_NS_6RefPtrIN3JSC8Bindings10RootObjectEEEENS_18PairFirstExtractorIS8_EENS_7PtrHashIS1_EENS_14PairHashTraitsINS_10HashTraitsIS1_EENSE_IS7_EEEESF_E15deallocateTableEPS8_i
05642044 W _ZN3WTF9HashTableIPvSt4pairIS1_NS_6RefPtrIN3JSC8Bindings10RootObjectEEEENS_18PairFirstExtractorIS8_EENS_7PtrHashIS1_EENS_14PairHashTraitsINS_10HashTraitsIS1_EENSE_IS7_EEEESF_E5clearEv
05642098 W _ZN3WTF9HashTableIPvSt4pairIS1_NS_6RefPtrIN3JSC8Bindings10RootObjectEEEENS_18PairFirstExtractorIS8_EENS_7PtrHashIS1_EENS_14PairHashTraitsINS_10HashTraitsIS1_EENSE_IS7_EEEESF_E6rehashEi
056423d0 W _ZN3WTF9HashTableIPvSt4pairIS1_NS_6RefPtrIN3JSC8Bindings10RootObjectEEEENS_18PairFirstExtractorIS8_EENS_7PtrHashIS1_EENS_14PairHashTraitsINS_10HashTraitsIS1_EENSE_IS7_EEEESF_E6removeEPS8_
056424c8 W _ZN3WTF9HashTableIPvSt4pairIS1_NS_6RefPtrIN3JSC8Bindings10RootObjectEEEENS_18PairFirstExtractorIS8_EENS_7PtrHashIS1_EENS_14PairHashTraitsINS_10HashTraitsIS1_EENSE_IS7_EEEESF_E47removeAndInvalidateWithoutEntryConsistencyCheckEPS8_
056424f4 W _ZN3WTF9HashTableIPvSt4pairIS1_NS_6RefPtrIN3JSC8Bindings10RootObjectEEEENS_18PairFirstExtractorIS8_EENS_7PtrHashIS1_EENS_14PairHashTraitsINS_10HashTraitsIS1_EENSE_IS7_EEEESF_E6expandEv
05642588 W _ZN3WTF7HashMapIPvNS_6RefPtrIN3JSC8Bindings10RootObjectEEENS_7PtrHashIS1_EENS_10HashTraitsIS1_EENS9_IS6_EEE3setERKS1_RKS6_
056428f8 W _ZN3WTF6VectorIN3JSC19ProtectedJSValuePtrELj0EE15reserveCapacityEj
05642ab4 W _ZN3WTF6VectorIN3JSC19ProtectedJSValuePtrELj0EE14expandCapacityEj
05642b44 W _ZNK3JSC12RuntimeArray9classInfoEv
05642b50 W _ZN3JSC12RuntimeArrayD1Ev
05642ca0 W _ZN3JSC12RuntimeArrayD0Ev
05642e1c W _ZNK3JSC8Bindings8Instance24getValueOfUndefinedFieldEPNS_9ExecStateERKNS_10IdentifierE
05642e24 W _ZN3JSC8Bindings8Instance32supportsSetValueOfUndefinedFieldEv
05642e2c W _ZN3JSC8Bindings8Instance24setValueOfUndefinedFieldEPNS_9ExecStateERKNS_10IdentifierENS_10JSValuePtrE
05642e30 W _ZNK3JSC8Bindings8Instance27supportsInvokeDefaultMethodEv
05642e38 W _ZNK3JSC8Bindings8Instance17supportsConstructEv
05642e40 W _ZN3JSC8Bindings8Instance15invokeConstructEPNS_9ExecStateERKNS_7ArgListE
05642e48 W _ZN3JSC8Bindings8Instance16getPropertyNamesEPNS_9ExecStateERNS_17PropertyNameArrayE
05642e4c W _ZN3JSC8Bindings8Instance12virtualBeginEv
05642e50 W _ZN3JSC8Bindings8Instance10virtualEndEv
05642e54 W _ZNK3JSC8Bindings8Instance7valueOfEPNS_9ExecStateE
05642f34 W _ZN3JSC8Bindings8Instance19invokeDefaultMethodEPNS_9ExecStateERKNS_7ArgListE
05642f3c W _ZN3WTF6VectorIPN3JSC8Bindings6MethodELj0EE6shrinkEj
05642f44 W _ZN3WTF6VectorIPN3JSC8Bindings6MethodELj0EEC1ERKS5_
05642ffc W _ZN3JSC13RuntimeMethodD1Ev
05643198 W _ZN3JSC13RuntimeMethodD0Ev
0564335c W _ZNK3JSC16RuntimeObjectImp9classInfoEv
05643368 W _ZN3WTF9HashTableIPN3JSC8Bindings10RootObjectES4_NS_17IdentityExtractorIS4_EENS_7PtrHashIS4_EENS_10HashTraitsIS4_EESA_E4findIS4_NS_22IdentityHashTranslatorIS4_S4_S8_EEEENS_17HashTableIteratorIS4_S4_S6_S8_SA_SA_EERKT_
056434b8 W _ZN3WTF9HashTableIPN3JSC8JSObjectESt4pairIS3_jENS_18PairFirstExtractorIS5_EENS_7PtrHashIS3_EENS_14PairHashTraitsINS_10HashTraitsIS3_EENSB_IjEEEESC_E4findIS3_NS_22IdentityHashTranslatorIS3_S5_S9_EEEENS_17HashTableIteratorIS3_S5_S7_S9_SE_SC_EERKT_
05643608 W _ZN3WTF9HashTableIPN3JSC16RuntimeObjectImpES3_NS_17IdentityExtractorIS3_EENS_7PtrHashIS3_EENS_10HashTraitsIS3_EES9_E4findIS3_NS_22IdentityHashTranslatorIS3_S3_S7_EEEENS_17HashTableIteratorIS3_S3_S5_S7_S9_S9_EERKT_
05643758 W _ZN3WTF9HashTableIPN3JSC8JSObjectESt4pairIS3_jENS_18PairFirstExtractorIS5_EENS_7PtrHashIS3_EENS_14PairHashTraitsINS_10HashTraitsIS3_EENSB_IjEEEESC_E13allocateTableEi
05643788 W _ZN3WTF9HashTableIPN3JSC16RuntimeObjectImpES3_NS_17IdentityExtractorIS3_EENS_7PtrHashIS3_EENS_10HashTraitsIS3_EES9_E13allocateTableEi
056437b8 W _ZN3WTF9HashTableIPN3JSC8Bindings10RootObjectES4_NS_17IdentityExtractorIS4_EENS_7PtrHashIS4_EENS_10HashTraitsIS4_EESA_E13allocateTableEi
056437e8 W _ZN3WTF9HashTableIPN3JSC16RuntimeObjectImpES3_NS_17IdentityExtractorIS3_EENS_7PtrHashIS3_EENS_10HashTraitsIS3_EES9_E15deallocateTableEPS3_i
05643814 W _ZN3WTF9HashTableIPN3JSC16RuntimeObjectImpES3_NS_17IdentityExtractorIS3_EENS_7PtrHashIS3_EENS_10HashTraitsIS3_EES9_E6rehashEi
056439dc W _ZN3WTF9HashTableIPN3JSC16RuntimeObjectImpES3_NS_17IdentityExtractorIS3_EENS_7PtrHashIS3_EENS_10HashTraitsIS3_EES9_E6removeEPS3_
05643a58 W _ZN3WTF9HashTableIPN3JSC16RuntimeObjectImpES3_NS_17IdentityExtractorIS3_EENS_7PtrHashIS3_EENS_10HashTraitsIS3_EES9_E47removeAndInvalidateWithoutEntryConsistencyCheckEPS3_
05643a84 W _ZN3WTF9HashTableIPN3JSC16RuntimeObjectImpES3_NS_17IdentityExtractorIS3_EENS_7PtrHashIS3_EENS_10HashTraitsIS3_EES9_E6expandEv
05643b18 W _ZN3WTF9HashTableIPN3JSC16RuntimeObjectImpES3_NS_17IdentityExtractorIS3_EENS_7PtrHashIS3_EENS_10HashTraitsIS3_EES9_E5clearEv
05643b6c W _ZN3WTF9HashTableIPN3JSC8JSObjectESt4pairIS3_jENS_18PairFirstExtractorIS5_EENS_7PtrHashIS3_EENS_14PairHashTraitsINS_10HashTraitsIS3_EENSB_IjEEEESC_E15deallocateTableEPS5_i
05643b98 W _ZN3WTF9HashTableIPN3JSC8JSObjectESt4pairIS3_jENS_18PairFirstExtractorIS5_EENS_7PtrHashIS3_EENS_14PairHashTraitsINS_10HashTraitsIS3_EENSB_IjEEEESC_E6rehashEi
05643d70 W _ZN3WTF9HashTableIPN3JSC8JSObjectESt4pairIS3_jENS_18PairFirstExtractorIS5_EENS_7PtrHashIS3_EENS_14PairHashTraitsINS_10HashTraitsIS3_EENSB_IjEEEESC_E6removeEPS5_
05643dec W _ZN3WTF9HashTableIPN3JSC8JSObjectESt4pairIS3_jENS_18PairFirstExtractorIS5_EENS_7PtrHashIS3_EENS_14PairHashTraitsINS_10HashTraitsIS3_EENSB_IjEEEESC_E47removeAndInvalidateWithoutEntryConsistencyCheckEPS5_
05643e18 W _ZN3WTF9HashTableIPN3JSC8JSObjectESt4pairIS3_jENS_18PairFirstExtractorIS5_EENS_7PtrHashIS3_EENS_14PairHashTraitsINS_10HashTraitsIS3_EENSB_IjEEEESC_E6expandEv
05643eac W _ZN3WTF9HashTableIPN3JSC8JSObjectESt4pairIS3_jENS_18PairFirstExtractorIS5_EENS_7PtrHashIS3_EENS_14PairHashTraitsINS_10HashTraitsIS3_EENSB_IjEEEESC_E5clearEv
05643f00 W _ZN3WTF9HashTableIPN3JSC8Bindings10RootObjectES4_NS_17IdentityExtractorIS4_EENS_7PtrHashIS4_EENS_10HashTraitsIS4_EESA_E15deallocateTableEPS4_i
05643f2c W _ZN3WTF9HashTableIPN3JSC8Bindings10RootObjectES4_NS_17IdentityExtractorIS4_EENS_7PtrHashIS4_EENS_10HashTraitsIS4_EESA_E6rehashEi
056440f4 W _ZN3WTF9HashTableIPN3JSC8Bindings10RootObjectES4_NS_17IdentityExtractorIS4_EENS_7PtrHashIS4_EENS_10HashTraitsIS4_EESA_E6removeEPS4_
05644170 W _ZN3WTF9HashTableIPN3JSC8Bindings10RootObjectES4_NS_17IdentityExtractorIS4_EENS_7PtrHashIS4_EENS_10HashTraitsIS4_EESA_E47removeAndInvalidateWithoutEntryConsistencyCheckEPS4_
0564419c W _ZN3WTF9HashTableIPN3JSC8Bindings10RootObjectES4_NS_17IdentityExtractorIS4_EENS_7PtrHashIS4_EENS_10HashTraitsIS4_EESA_E6expandEv
05644230 W _ZN3WTF7HashSetIPN3JSC16RuntimeObjectImpENS_7PtrHashIS3_EENS_10HashTraitsIS3_EEE3addERKS3_
056444b4 W _ZN3WTF7HashSetIPN3JSC8Bindings10RootObjectENS_7PtrHashIS4_EENS_10HashTraitsIS4_EEE3addERKS4_
05644738 W _ZN3WTF7HashMapIPN3JSC8JSObjectEjNS_7PtrHashIS3_EENS_10HashTraitsIS3_EENS6_IjEEE3addERKS3_RKj
056449e0 W _ZNK3WTF9HashTableIPN3JSC8JSObjectESt4pairIS3_jENS_18PairFirstExtractorIS5_EENS_7PtrHashIS3_EENS_14PairHashTraitsINS_10HashTraitsIS3_EENSB_IjEEEESC_E8containsIS3_NS_22IdentityHashTranslatorIS3_S5_S9_EEEEbRKT_
05644ad4 W _ZNK3WTF7HashMapIPN3JSC8JSObjectEjNS_7PtrHashIS3_EENS_10HashTraitsIS3_EENS6_IjEEE3getERKS3_
0564ff5c W _ZN3WTF6VectorItLj2048EE6shrinkEj
05652510 W _ZN3WTF9HashTableIiiNS_17IdentityExtractorIiEENS_7IntHashIjEENS_10HashTraitsIiEES6_E4findIiNS_22IdentityHashTranslatorIiiS4_EEEENS_17HashTableIteratorIiiS2_S4_S6_S6_EERKT_
05652660 W _ZN3WTF9HashTableIiiNS_17IdentityExtractorIiEENS_7IntHashIjEENS_10HashTraitsIiEES6_E15deallocateTableEPii
056526b8 W _ZN3WTF9HashTableIiiNS_17IdentityExtractorIiEENS_7IntHashIjEENS_10HashTraitsIiEES6_E13allocateTableEi
056526e8 W _ZN3WTF9HashTableIiiNS_17IdentityExtractorIiEENS_7IntHashIjEENS_10HashTraitsIiEES6_E6rehashEi
056528b0 W _ZN3WTF9HashTableIiiNS_17IdentityExtractorIiEENS_7IntHashIjEENS_10HashTraitsIiEES6_E6expandEv
05652944 W _ZN3WTF7HashSetIiNS_7IntHashIjEENS_10HashTraitsIiEEE3addERKi
05653290 W _ZNK3WTF9HashTableIiiNS_17IdentityExtractorIiEENS_7IntHashIjEENS_10HashTraitsIiEES6_E8containsIiNS_22IdentityHashTranslatorIiiS4_EEEEbRKT_
056555fc W _ZN3WTF6VectorIiLj0EE14expandCapacityEjPKi
05655c9c W _Z9findValuePKcj
05656118 W _Z8findPropPKcj
056586d8 W _ZN3WTF6VectorItLj0EE4growEj
0565a2f4 W _ZN3WTF6VectorItLj512EE6shrinkEj
0565a2fc W _ZN3WTF6VectorIfLj0EE6shrinkEj
05665b44 W _ZN3WTF6VectorIfLj0EE14shrinkCapacityEj
05665c84 W _ZN3WTF6VectorIfLj0EE15reserveCapacityEj
05665da8 W _ZN3WTF6VectorIfLj0EE14expandCapacityEj
05665e38 W _ZN3WTF6VectorIfLj0EE14expandCapacityEjPKf
0567f918 W _ZN7QVectorI30QXmlStreamNamespaceDeclarationE6appendERKS0_
05687c08 W _ZN3WTF6VectorIbLj0EE6shrinkEj
05687c10 W _ZN3WTF6VectorISt4pairIPtjELj0EE6shrinkEj
05687c18 W _ZN3WTF6VectorISt4pairIPtjELj0EE15reserveCapacityEj
05687d3c W _ZN3WTF6VectorISt4pairIPtjELj0EE14expandCapacityEj
05687dcc W _ZN3WTF6VectorISt4pairIPtjELj0EE14expandCapacityEjPKS3_
05689124 W _ZN3WTF6VectorItLj1024EE15reserveCapacityEj
05689230 W _ZN3WTF6VectorItLj1024EE14expandCapacityEj
056892c0 W _ZN3WTF6VectorItLj1024EE14expandCapacityEjPKt
05689370 W _ZN3WTF6VectorItLj1024EE6insertItEEvjPKT_j
05689458 W _ZN3WTF6VectorItLj1024EE7prependItEEvPKT_j
05689490 W _ZN3WTF6VectorItLj1024EE6appendItEEvPKT_j
0568e28c W _Z16findDoctypeEntryPKcj
0568f88c W _ZN3WTF6VectorIcLj0EE6appendIcEEvPKT_j
05694788 W _ZN3WTF6VectorIbLj0EE14shrinkCapacityEj
056948a8 W _ZN3WTF6VectorIbLj0EE15reserveCapacityEj
0569498c W _ZN3WTF6VectorIbLj0EE14expandCapacityEj
05694a1c W _ZN3WTF6VectorIbLj0EE14expandCapacityEjPKb
05696838 W _ZN3WTF6VectorItLj32EE6shrinkEj
05696840 W _ZN3WTF6VectorItLj16EE6shrinkEj
05696848 W _ZN3WTF6VectorItLj10EE6shrinkEj
05696850 W _ZN3WTF6VectorIcLj10EE6shrinkEj
05696858 W _ZN3WTF6VectorIcLj10EE15reserveCapacityEj
05696954 W _ZN3WTF6VectorIcLj10EE14expandCapacityEj
056969e4 W _ZN3WTF6VectorItLj16EE15reserveCapacityEj
05696af0 W _ZN3WTF6VectorItLj16EE14expandCapacityEj
05696b80 W _ZN3WTF6VectorItLj16EE14expandCapacityEjPKt
05696c30 W _ZN3WTF6VectorItLj16EE14shrinkCapacityEj
05696db0 W _ZN3WTF6VectorItLj32EE14shrinkCapacityEj
05696f30 W _ZN3WTF6VectorItLj10EE15reserveCapacityEj
0569703c W _ZN3WTF6VectorItLj10EE14expandCapacityEj
056970cc W _ZN3WTF6VectorItLj10EE14expandCapacityEjPKt
0569717c W _ZN3WTF6VectorItLj32EE15reserveCapacityEj
05697288 W _ZN3WTF6VectorItLj32EE14expandCapacityEj
05697318 W _ZN3WTF6VectorItLj32EE14expandCapacityEjPKt
0569748c W _ZN3WTF6VectorIPK13OpaqueJSValueLj0EE6shrinkEj
05697b08 W _ZN3WTF6VectorIPK13OpaqueJSValueLj0EE15reserveCapacityEj
05697c2c W _ZN3WTF6VectorIPK13OpaqueJSValueLj0EE14expandCapacityEj
05697cbc W _ZN3WTF6VectorIPK13OpaqueJSValueLj0EE14expandCapacityEjPKS3_
05697f44 W _ZN3WTF6VectorINS_6RefPtrIN3JSC7ProfileEEELj0EE15reserveCapacityEj
05698068 W _ZN3WTF6VectorINS_6RefPtrIN3JSC7ProfileEEELj0EE14expandCapacityEj
056980f8 W _ZN3WTF6VectorINS_6RefPtrIN3JSC7ProfileEEELj0EE14expandCapacityEjPKS4_
056987e4 W _ZN3WTF6VectorINS_6RefPtrIN3JSC7ProfileEEELj0EE6shrinkEj
056988ac W _ZN3WTF6VectorINS_6RefPtrIN3JSC7ProfileEEELj0EE14shrinkCapacityEj
056a04cc W _ZNK3JSC21CollectorHeapIteratorILNS_8HeapTypeE0EEdeEv
056a04dc W _ZNK3WTF7HashMapIiPNS_7HashSetIjNS_7IntHashIjEENS_10HashTraitsIjEEEES3_NS4_IiEENS4_IS7_EEE3getERKi
056a06b4 W _ZNK3WTF9HashTableIjjNS_17IdentityExtractorIjEENS_7IntHashIjEENS_10HashTraitsIjEES6_E8containsIjNS_22IdentityHashTranslatorIjjS4_EEEEbRKT_
056a08f8 W _ZN3WTF9HashTableIPN3JSC14SourceProviderESt4pairIS3_PNS1_9ExecStateEENS_18PairFirstExtractorIS7_EENS_7PtrHashIS3_EENS_14PairHashTraitsINS_10HashTraitsIS3_EENSD_IS6_EEEESE_E4findIS3_NS_22IdentityHashTranslatorIS3_S7_SB_EEEENS_17HashTableIteratorIS3_S7_S9_SB_SG_SE_EERKT_
056a0ab8 W _ZN3WTF6VectorIN3JSC12ProtectedPtrINS1_10JSFunctionEEELj0EE6shrinkEj
056a0b90 W _ZN3WTF9HashTableIPN3JSC14SourceProviderESt4pairIS3_PNS1_9ExecStateEENS_18PairFirstExtractorIS7_EENS_7PtrHashIS3_EENS_14PairHashTraitsINS_10HashTraitsIS3_EENSD_IS6_EEEESE_E15deallocateTableEPS7_i
056a0bbc W _ZN3WTF9HashTableIjjNS_17IdentityExtractorIjEENS_7IntHashIjEENS_10HashTraitsIjEES6_E15deallocateTableEPji
056a0be8 W _ZN3WTF9HashTableIiSt4pairIiPNS_7HashSetIjNS_7IntHashIjEENS_10HashTraitsIjEEEEENS_18PairFirstExtractorIS9_EES4_NS_14PairHashTraitsINS5_IiEENS5_IS8_EEEESD_E15deallocateTableEPS9_i
056a0c14 W _ZN3WTF9HashTableIiSt4pairIiPNS_7HashSetIjNS_7IntHashIjEENS_10HashTraitsIjEEEEENS_18PairFirstExtractorIS9_EES4_NS_14PairHashTraitsINS5_IiEENS5_IS8_EEEESD_E5clearEv
056a0cc0 W _ZN3WTF9HashTableIPN3JSC14SourceProviderESt4pairIS3_PNS1_9ExecStateEENS_18PairFirstExtractorIS7_EENS_7PtrHashIS3_EENS_14PairHashTraitsINS_10HashTraitsIS3_EENSD_IS6_EEEESE_E13allocateTableEi
056a0cf0 W _ZN3WTF9HashTableIPN3JSC14SourceProviderESt4pairIS3_PNS1_9ExecStateEENS_18PairFirstExtractorIS7_EENS_7PtrHashIS3_EENS_14PairHashTraitsINS_10HashTraitsIS3_EENSD_IS6_EEEESE_E6rehashEi
056a0ec8 W _ZN3WTF9HashTableIPN3JSC14SourceProviderESt4pairIS3_PNS1_9ExecStateEENS_18PairFirstExtractorIS7_EENS_7PtrHashIS3_EENS_14PairHashTraitsINS_10HashTraitsIS3_EENSD_IS6_EEEESE_E6expandEv
056a0f5c W _ZN3WTF7HashMapIPN3JSC14SourceProviderEPNS1_9ExecStateENS_7PtrHashIS3_EENS_10HashTraitsIS3_EENS8_IS5_EEE3addERKS3_RKS5_
056a1204 W _ZN3WTF9HashTableINS_6RefPtrIN3JSC16FunctionBodyNodeEEESt4pairIS4_S4_ENS_18PairFirstExtractorIS6_EENS_7PtrHashIS4_EENS_14PairHashTraitsINS_10HashTraitsIS4_EESD_EESD_E13allocateTableEi
056a1234 W _ZN3WTF9HashTableIjjNS_17IdentityExtractorIjEENS_7IntHashIjEENS_10HashTraitsIjEES6_E13allocateTableEi
056a1264 W _ZN3WTF9HashTableIjjNS_17IdentityExtractorIjEENS_7IntHashIjEENS_10HashTraitsIjEES6_E6rehashEi
056a142c W _ZN3WTF9HashTableIjjNS_17IdentityExtractorIjEENS_7IntHashIjEENS_10HashTraitsIjEES6_E6removeEPj
056a14a8 W _ZN3WTF9HashTableIjjNS_17IdentityExtractorIjEENS_7IntHashIjEENS_10HashTraitsIjEES6_E47removeAndInvalidateWithoutEntryConsistencyCheckEPj
056a14d4 W _ZN3WTF9HashTableIjjNS_17IdentityExtractorIjEENS_7IntHashIjEENS_10HashTraitsIjEES6_E6expandEv
056a1568 W _ZN3WTF9HashTableIiSt4pairIiPNS_7HashSetIjNS_7IntHashIjEENS_10HashTraitsIjEEEEENS_18PairFirstExtractorIS9_EES4_NS_14PairHashTraitsINS5_IiEENS5_IS8_EEEESD_E13allocateTableEi
056a1598 W _ZN3WTF9HashTableIiSt4pairIiPNS_7HashSetIjNS_7IntHashIjEENS_10HashTraitsIjEEEEENS_18PairFirstExtractorIS9_EES4_NS_14PairHashTraitsINS5_IiEENS5_IS8_EEEESD_E6rehashEi
056a1770 W _ZN3WTF9HashTableIiSt4pairIiPNS_7HashSetIjNS_7IntHashIjEENS_10HashTraitsIjEEEEENS_18PairFirstExtractorIS9_EES4_NS_14PairHashTraitsINS5_IiEENS5_IS8_EEEESD_E6removeEPS9_
056a17ec W _ZN3WTF9HashTableIiSt4pairIiPNS_7HashSetIjNS_7IntHashIjEENS_10HashTraitsIjEEEEENS_18PairFirstExtractorIS9_EES4_NS_14PairHashTraitsINS5_IiEENS5_IS8_EEEESD_E47removeAndInvalidateWithoutEntryConsistencyCheckEPS9_
056a1818 W _ZN3WTF9HashTableIiSt4pairIiPNS_7HashSetIjNS_7IntHashIjEENS_10HashTraitsIjEEEEENS_18PairFirstExtractorIS9_EES4_NS_14PairHashTraitsINS5_IiEENS5_IS8_EEEESD_E6expandEv
056a22cc W _ZN3WTF20deleteAllPairSecondsIPNS_7HashSetIjNS_7IntHashIjEENS_10HashTraitsIjEEEEKNS_7HashMapIiS7_S3_NS4_IiEENS4_IS7_EEEEEEvRT0_
056a23b4 W _ZN3WTF6VectorIN3JSC12ProtectedPtrINS1_10JSFunctionEEELj0EE15reserveCapacityEj
056a255c W _ZN3WTF6VectorIN3JSC12ProtectedPtrINS1_10JSFunctionEEELj0EE14expandCapacityEj
056a2870 W _ZN3WTF9HashTableINS_6RefPtrIN3JSC16FunctionBodyNodeEEESt4pairIS4_S4_ENS_18PairFirstExtractorIS6_EENS_7PtrHashIS4_EENS_14PairHashTraitsINS_10HashTraitsIS4_EESD_EESD_E15deallocateTableEPS6_i
056a2978 W _ZN3WTF9HashTableIjjNS_17IdentityExtractorIjEENS_7IntHashIjEENS_10HashTraitsIjEES6_E4findIjNS_22IdentityHashTranslatorIjjS4_EEEENS_17HashTableIteratorIjjS2_S4_S6_S6_EERKT_
056a2ac8 W _ZN3WTF7HashSetIjNS_7IntHashIjEENS_10HashTraitsIjEEE3addERKj
056a2d4c W _ZN3WTF9HashTableINS_6RefPtrIN3JSC16FunctionBodyNodeEEESt4pairIS4_S4_ENS_18PairFirstExtractorIS6_EENS_7PtrHashIS4_EENS_14PairHashTraitsINS_10HashTraitsIS4_EESD_EESD_E4findIS4_NS_22IdentityHashTranslatorIS4_S6_SA_EEEENS_17HashTableIteratorIS4_S6_S8_SA_SE_SD_EERKT_
056a2e9c W _ZN3WTF9HashTableIiSt4pairIiPNS_7HashSetIjNS_7IntHashIjEENS_10HashTraitsIjEEEEENS_18PairFirstExtractorIS9_EES4_NS_14PairHashTraitsINS5_IiEENS5_IS8_EEEESD_E4findIiNS_22IdentityHashTranslatorIiS9_S4_EEEENS_17HashTableIteratorIiS9_SB_S4_SF_SD_EERKT_
056a2fec W _ZN3WTF7HashMapIiPNS_7HashSetIjNS_7IntHashIjEENS_10HashTraitsIjEEEES3_NS4_IiEENS4_IS7_EEE3setERKiRKS7_
056a328c W _ZN3JSC6Parser5parseINS_16FunctionBodyNodeEEEN3WTF10PassRefPtrIT_EEPNS_9ExecStateEPNS_8DebuggerERKNS_10SourceCodeEPiPNS_7UStringE
056a3988 W _ZN3WTF9HashTableINS_6RefPtrIN3JSC16FunctionBodyNodeEEESt4pairIS4_S4_ENS_18PairFirstExtractorIS6_EENS_7PtrHashIS4_EENS_14PairHashTraitsINS_10HashTraitsIS4_EESD_EESD_E6rehashEi
056a3e20 W _ZN3WTF9HashTableINS_6RefPtrIN3JSC16FunctionBodyNodeEEESt4pairIS4_S4_ENS_18PairFirstExtractorIS6_EENS_7PtrHashIS4_EENS_14PairHashTraitsINS_10HashTraitsIS4_EESD_EESD_E6expandEv
056a3eb4 W _ZN3WTF7HashMapINS_6RefPtrIN3JSC16FunctionBodyNodeEEES4_NS_7PtrHashIS4_EENS_10HashTraitsIS4_EES8_E3addEPS3_RKS4_
056a43a0 W _ZNK3WTF7HashMapIPN3JSC7ProfileEPNS1_8JSObjectENS_7PtrHashIS3_EENS_10HashTraitsIS3_EENS8_IS5_EEE3getERKS3_
056a448c W _ZN3JSC7Profile25sortFunctionNameAscendingEv
056a44dc W _ZN3JSC7Profile26sortFunctionNameDescendingEv
056a452c W _ZN3JSC7Profile18sortCallsAscendingEv
056a457c W _ZN3JSC7Profile19sortCallsDescendingEv
056a45cc W _ZN3JSC7Profile21sortSelfTimeAscendingEv
056a461c W _ZN3JSC7Profile22sortSelfTimeDescendingEv
056a466c W _ZN3JSC7Profile22sortTotalTimeAscendingEv
056a46bc W _ZN3JSC7Profile23sortTotalTimeDescendingEv
056a470c W _ZN3JSC11ProfileNode25sortFunctionNameAscendingEv
056a4740 W _ZN3JSC11ProfileNode26sortFunctionNameDescendingEv
056a4774 W _ZN3JSC11ProfileNode18sortCallsAscendingEv
056a47a8 W _ZN3JSC11ProfileNode19sortCallsDescendingEv
056a47dc W _ZN3JSC11ProfileNode21sortSelfTimeAscendingEv
056a4810 W _ZN3JSC11ProfileNode22sortSelfTimeDescendingEv
056a4844 W _ZN3JSC11ProfileNode22sortTotalTimeAscendingEv
056a4878 W _ZN3JSC11ProfileNode23sortTotalTimeDescendingEv
056a48ac W _ZN3WTF9HashTableIPN3JSC7ProfileESt4pairIS3_PNS1_8JSObjectEENS_18PairFirstExtractorIS7_EENS_7PtrHashIS3_EENS_14PairHashTraitsINS_10HashTraitsIS3_EENSD_IS6_EEEESE_E13allocateTableEi
056a48dc W _ZN3WTF9HashTableIPN3JSC7ProfileESt4pairIS3_PNS1_8JSObjectEENS_18PairFirstExtractorIS7_EENS_7PtrHashIS3_EENS_14PairHashTraitsINS_10HashTraitsIS3_EENSD_IS6_EEEESE_E15deallocateTableEPS7_i
056a4908 W _ZN3WTF9HashTableIPN3JSC7ProfileESt4pairIS3_PNS1_8JSObjectEENS_18PairFirstExtractorIS7_EENS_7PtrHashIS3_EENS_14PairHashTraitsINS_10HashTraitsIS3_EENSD_IS6_EEEESE_E6rehashEi
056a4ae0 W _ZN3WTF9HashTableIPN3JSC7ProfileESt4pairIS3_PNS1_8JSObjectEENS_18PairFirstExtractorIS7_EENS_7PtrHashIS3_EENS_14PairHashTraitsINS_10HashTraitsIS3_EENSD_IS6_EEEESE_E6removeEPS7_
056a4b5c W _ZN3WTF9HashTableIPN3JSC7ProfileESt4pairIS3_PNS1_8JSObjectEENS_18PairFirstExtractorIS7_EENS_7PtrHashIS3_EENS_14PairHashTraitsINS_10HashTraitsIS3_EENSD_IS6_EEEESE_E47removeAndInvalidateWithoutEntryConsistencyCheckEPS7_
056a4b88 W _ZN3WTF9HashTableIPN3JSC7ProfileESt4pairIS3_PNS1_8JSObjectEENS_18PairFirstExtractorIS7_EENS_7PtrHashIS3_EENS_14PairHashTraitsINS_10HashTraitsIS3_EENSD_IS6_EEEESE_E6expandEv
056a4c1c W _ZN3JSC11ProfileNode31functionNameAscendingComparatorERKN3WTF6RefPtrIS0_EES5_
056a4c58 W _ZN3JSC11ProfileNode32functionNameDescendingComparatorERKN3WTF6RefPtrIS0_EES5_
056a4c94 W _ZN3JSC11ProfileNode28totalTimeAscendingComparatorERKN3WTF6RefPtrIS0_EES5_
056a4cb4 W _ZN3JSC11ProfileNode29totalTimeDescendingComparatorERKN3WTF6RefPtrIS0_EES5_
056a4cd4 W _ZN3JSC11ProfileNode27selfTimeAscendingComparatorERKN3WTF6RefPtrIS0_EES5_
056a4cf4 W _ZN3JSC11ProfileNode28selfTimeDescendingComparatorERKN3WTF6RefPtrIS0_EES5_
056a4d14 W _ZN3JSC11ProfileNode24callsAscendingComparatorERKN3WTF6RefPtrIS0_EES5_
056a4d34 W _ZN3JSC11ProfileNode25callsDescendingComparatorERKN3WTF6RefPtrIS0_EES5_
056a4d54 W _ZN3WTF9HashTableIPN3JSC7ProfileESt4pairIS3_PNS1_8JSObjectEENS_18PairFirstExtractorIS7_EENS_7PtrHashIS3_EENS_14PairHashTraitsINS_10HashTraitsIS3_EENSD_IS6_EEEESE_E4findIS3_NS_22IdentityHashTranslatorIS3_S7_SB_EEEENS_17HashTableIteratorIS3_S7_S9_SB_SG_SE_EERKT_
056a4ea4 W _ZN3WTF7HashMapIPN3JSC7ProfileEPNS1_8JSObjectENS_7PtrHashIS3_EENS_10HashTraitsIS3_EENS8_IS5_EEE3setERKS3_RKS5_
056a5144 W _ZNK3WTF7HashMapIPN3JSC11ProfileNodeEPNS1_8JSObjectENS_7PtrHashIS3_EENS_10HashTraitsIS3_EENS8_IS5_EEE3getERKS3_
056a5230 W _ZN3WTF9HashTableIPN3JSC11ProfileNodeESt4pairIS3_PNS1_8JSObjectEENS_18PairFirstExtractorIS7_EENS_7PtrHashIS3_EENS_14PairHashTraitsINS_10HashTraitsIS3_EENSD_IS6_EEEESE_E13allocateTableEi
056a5260 W _ZN3WTF9HashTableIPN3JSC11ProfileNodeESt4pairIS3_PNS1_8JSObjectEENS_18PairFirstExtractorIS7_EENS_7PtrHashIS3_EENS_14PairHashTraitsINS_10HashTraitsIS3_EENSD_IS6_EEEESE_E15deallocateTableEPS7_i
056a528c W _ZN3WTF9HashTableIPN3JSC11ProfileNodeESt4pairIS3_PNS1_8JSObjectEENS_18PairFirstExtractorIS7_EENS_7PtrHashIS3_EENS_14PairHashTraitsINS_10HashTraitsIS3_EENSD_IS6_EEEESE_E6rehashEi
056a5464 W _ZN3WTF9HashTableIPN3JSC11ProfileNodeESt4pairIS3_PNS1_8JSObjectEENS_18PairFirstExtractorIS7_EENS_7PtrHashIS3_EENS_14PairHashTraitsINS_10HashTraitsIS3_EENSD_IS6_EEEESE_E6removeEPS7_
056a54e0 W _ZN3WTF9HashTableIPN3JSC11ProfileNodeESt4pairIS3_PNS1_8JSObjectEENS_18PairFirstExtractorIS7_EENS_7PtrHashIS3_EENS_14PairHashTraitsINS_10HashTraitsIS3_EENSD_IS6_EEEESE_E47removeAndInvalidateWithoutEntryConsistencyCheckEPS7_
056a550c W _ZN3WTF9HashTableIPN3JSC11ProfileNodeESt4pairIS3_PNS1_8JSObjectEENS_18PairFirstExtractorIS7_EENS_7PtrHashIS3_EENS_14PairHashTraitsINS_10HashTraitsIS3_EENSD_IS6_EEEESE_E6expandEv
056a55a0 W _ZN3WTF9HashTableIPN3JSC11ProfileNodeESt4pairIS3_PNS1_8JSObjectEENS_18PairFirstExtractorIS7_EENS_7PtrHashIS3_EENS_14PairHashTraitsINS_10HashTraitsIS3_EENSD_IS6_EEEESE_E4findIS3_NS_22IdentityHashTranslatorIS3_S7_SB_EEEENS_17HashTableIteratorIS3_S7_S9_SB_SG_SE_EERKT_
056a56f0 W _ZN3WTF7HashMapIPN3JSC11ProfileNodeEPNS1_8JSObjectENS_7PtrHashIS3_EENS_10HashTraitsIS3_EENS8_IS5_EEE3setERKS3_RKS5_
056b5380 W _ZN3WTF6VectorIcLj64EE6shrinkEj
056b5388 W _ZN3WTF6VectorIcLj0EE4growEj
056d3644 W _Z9findColorPKcj
056d6868 W _ZN3WTF6VectorINS_7Unicode9DirectionELj8EE6shrinkEj
056d70b0 W _ZN3WTF6VectorINS_7Unicode9DirectionELj8EE15reserveCapacityEj
056d71e0 W _ZN3WTF6VectorINS_7Unicode9DirectionELj8EE14expandCapacityEj
056d7270 W _ZN3WTF6VectorINS_7Unicode9DirectionELj8EE14expandCapacityEjPKS2_
056d73b4 W _ZN3WTF6VectorINS_7Unicode9DirectionELj8EE14shrinkCapacityEj
056da318 W _ZN3WTF6VectorIcLj512EE6shrinkEj
056da320 W _ZN3WTF6VectorIcLj4096EE6shrinkEj
056da328 W _ZN3WTF6VectorISt4pairIiiELj0EE6shrinkEj
056da330 W _ZN3WTF6VectorIcLj512EE15reserveCapacityEj
056da42c W _ZN3WTF6VectorIcLj512EE14expandCapacityEj
056da4bc W _ZN3WTF6VectorIcLj512EE14expandCapacityEjPKc
056da564 W _ZN3WTF6VectorIcLj512EE6resizeEj
056da5e0 W _ZN3WTF6VectorISt4pairIiiELj0EE15reserveCapacityEj
056da704 W _ZN3WTF6VectorISt4pairIiiELj0EE14expandCapacityEj
056da794 W _ZN3WTF6VectorISt4pairIiiELj0EE14expandCapacityEjPKS2_
056da844 W _ZN3WTF6VectorItLj512EE15reserveCapacityEj
056da950 W _ZN3WTF6VectorItLj512EE14expandCapacityEj
056da9e0 W _ZN3WTF6VectorItLj512EE14expandCapacityEjPKt
056daa90 W _ZN3WTF6VectorItLj512EE6appendItEEvPKT_j
056dab40 W _ZN3WTF6VectorItLj512EE6appendIcEEvPKT_j
056dabf8 W _ZN3WTF6VectorItLj512EE14shrinkCapacityEj
056dad78 W _ZN3WTF6VectorISt4pairIiiELj0EE14shrinkCapacityEj
056db4ac W _ZN3WTF6VectorIcLj0EEC1ERKS1_
056dbd04 W _ZN3WTFeqIcLj0EEEbRKNS_6VectorIT_XT0_EEES5_
056de448 W _ZN3WTF6VectorIcLj0EE6appendIhEEvPKT_j
056de4f8 W _ZN3WTF6VectorIcLj256EE6shrinkEj
056de9b4 W _ZN3WTF9HashTableIPKcS2_NS_17IdentityExtractorIS2_EENS_7PtrHashIS2_EENS_10HashTraitsIS2_EES8_E4findIS2_NS_22IdentityHashTranslatorIS2_S2_S6_EEEENS_17HashTableIteratorIS2_S2_S4_S6_S8_S8_EERKT_
056deb04 W _ZN3WTF9HashTableIPKcS2_NS_17IdentityExtractorIS2_EENS_7PtrHashIS2_EENS_10HashTraitsIS2_EES8_E13allocateTableEi
056deb34 W _ZN3WTF9HashTableIPKcS2_NS_17IdentityExtractorIS2_EENS_7PtrHashIS2_EENS_10HashTraitsIS2_EES8_E15deallocateTableEPS2_i
056deb60 W _ZN3WTF9HashTableIPKcS2_NS_17IdentityExtractorIS2_EENS_7PtrHashIS2_EENS_10HashTraitsIS2_EES8_E6rehashEi
056ded28 W _ZN3WTF9HashTableIPKcS2_NS_17IdentityExtractorIS2_EENS_7PtrHashIS2_EENS_10HashTraitsIS2_EES8_E6expandEv
056dedbc W _ZN3WTF7HashSetIPKcNS_7PtrHashIS2_EENS_10HashTraitsIS2_EEE3addERKS2_
056df040 W _ZNK3WTF9HashTableIPKcS2_NS_17IdentityExtractorIS2_EENS_7PtrHashIS2_EENS_10HashTraitsIS2_EES8_E8containsIS2_NS_22IdentityHashTranslatorIS2_S2_S6_EEEEbRKT_
056e5bfc W _ZNK3WTF7HashMapIP9_NPStreamP4_NPPNS_7PtrHashIS2_EENS_10HashTraitsIS2_EENS7_IS4_EEE3getERKS2_
056e5da0 W _ZN3WTF9HashTableIP9_NPStreamSt4pairIS2_P4_NPPENS_18PairFirstExtractorIS6_EENS_7PtrHashIS2_EENS_14PairHashTraitsINS_10HashTraitsIS2_EENSC_IS5_EEEESD_E15deallocateTableEPS6_i
056e5dcc W _ZN3WTF6VectorIcLj0EE6resizeEj
056e5e48 W _ZN3WTF9HashTableIP9_NPStreamSt4pairIS2_P4_NPPENS_18PairFirstExtractorIS6_EENS_7PtrHashIS2_EENS_14PairHashTraitsINS_10HashTraitsIS2_EENSC_IS5_EEEESD_E13allocateTableEi
056e5e78 W _ZN3WTF9HashTableIP9_NPStreamSt4pairIS2_P4_NPPENS_18PairFirstExtractorIS6_EENS_7PtrHashIS2_EENS_14PairHashTraitsINS_10HashTraitsIS2_EENSC_IS5_EEEESD_E6rehashEi
056e6050 W _ZN3WTF9HashTableIP9_NPStreamSt4pairIS2_P4_NPPENS_18PairFirstExtractorIS6_EENS_7PtrHashIS2_EENS_14PairHashTraitsINS_10HashTraitsIS2_EENSC_IS5_EEEESD_E6removeEPS6_
056e60cc W _ZN3WTF9HashTableIP9_NPStreamSt4pairIS2_P4_NPPENS_18PairFirstExtractorIS6_EENS_7PtrHashIS2_EENS_14PairHashTraitsINS_10HashTraitsIS2_EENSC_IS5_EEEESD_E47removeAndInvalidateWithoutEntryConsistencyCheckEPS6_
056e60f8 W _ZN3WTF9HashTableIP9_NPStreamSt4pairIS2_P4_NPPENS_18PairFirstExtractorIS6_EENS_7PtrHashIS2_EENS_14PairHashTraitsINS_10HashTraitsIS2_EENSC_IS5_EEEESD_E6expandEv
056e621c W _ZN3WTF9HashTableIP9_NPStreamSt4pairIS2_P4_NPPENS_18PairFirstExtractorIS6_EENS_7PtrHashIS2_EENS_14PairHashTraitsINS_10HashTraitsIS2_EENSC_IS5_EEEESD_E4findIS2_NS_22IdentityHashTranslatorIS2_S6_SA_EEEENS_17HashTableIteratorIS2_S6_S8_SA_SF_SD_EERKT_
056e636c W _ZN3WTF7HashMapIP9_NPStreamP4_NPPNS_7PtrHashIS2_EENS_10HashTraitsIS2_EENS7_IS4_EEE3addERKS2_RKS4_
056e6618 W _ZN3WTF6VectorIbLj4EE6shrinkEj
056e6720 W _ZN3WTF6VectorIbLj4EE15reserveCapacityEj
056e681c W _ZN3WTF6VectorIbLj4EE14expandCapacityEj
056e68ac W _ZN3WTF6VectorIbLj4EE14expandCapacityEjPKb
056f3844 W _ZN3WTF6VectorIbLj0EE4fillERKbj
056f3964 W _ZN3WTF6VectorIbLj0EE6resizeEj
056f39e0 W _ZN3WTF6VectorIbLj0EEaSERKS1_
056fa4ac W _ZN3WTF6VectorIiLj0EE4growEj
056ffa04 W _ZN3WTF9HashTableIiiNS_17IdentityExtractorIiEENS_7IntHashIjEENS_10HashTraitsIiEES6_E5clearEv
0570c740 W _ZN3JSC8Bindings5Class14fallbackObjectEPNS_9ExecStateEPNS0_8InstanceERKNS_10IdentifierE
0570c748 W _ZNK3WTF7HashMapIPK11QMetaObjectPN3JSC8Bindings7QtClassENS_7PtrHashIS3_EENS_10HashTraitsIS3_EENSA_IS7_EEE3getERKS3_
0570c834 W _ZN5QHashI10QByteArrayPN3JSC8JSObjectEE13duplicateNodeEPN9QHashData4NodeEPv
0570c858 W _ZN3JSC8Bindings5FieldD0Ev
0570c890 W _ZN3JSC8Bindings5FieldD1Ev
0570c8a0 W _ZNK5QHashI7QStringPN3JSC8Bindings7QtFieldEE8findNodeERKS0_Pj
0570ca9c W _ZN3WTF9HashTableIPK11QMetaObjectSt4pairIS3_PN3JSC8Bindings7QtClassEENS_18PairFirstExtractorIS9_EENS_7PtrHashIS3_EENS_14PairHashTraitsINS_10HashTraitsIS3_EENSF_IS8_EEEESG_E13allocateTableEi
0570cacc W _ZN3WTF9HashTableIPK11QMetaObjectSt4pairIS3_PN3JSC8Bindings7QtClassEENS_18PairFirstExtractorIS9_EENS_7PtrHashIS3_EENS_14PairHashTraitsINS_10HashTraitsIS3_EENSF_IS8_EEEESG_E15deallocateTableEPS9_i
0570caf8 W _ZN3WTF9HashTableIPK11QMetaObjectSt4pairIS3_PN3JSC8Bindings7QtClassEENS_18PairFirstExtractorIS9_EENS_7PtrHashIS3_EENS_14PairHashTraitsINS_10HashTraitsIS3_EENSF_IS8_EEEESG_E6rehashEi
0570ccd0 W _ZN3WTF9HashTableIPK11QMetaObjectSt4pairIS3_PN3JSC8Bindings7QtClassEENS_18PairFirstExtractorIS9_EENS_7PtrHashIS3_EENS_14PairHashTraitsINS_10HashTraitsIS3_EENSF_IS8_EEEESG_E6expandEv
0570cd64 W _ZN3JSC8Bindings5ClassD0Ev
0570cd9c W _ZN3JSC8Bindings5ClassD1Ev
0570cdac W _ZN5QHashI7QStringPN3JSC8Bindings7QtFieldEE13duplicateNodeEPN9QHashData4NodeEPv
0570cdd0 W _ZNK5QHashI10QByteArrayPN3JSC8JSObjectEE8findNodeERKS0_Pj
0570d014 W _ZN5QHashI7QStringPN3JSC8Bindings7QtFieldEE8freeDataEP9QHashData
0570d138 W _ZN5QHashI7QStringPN3JSC8Bindings7QtFieldEE13detach_helperEv
0570d1c8 W _ZN5QHashI7QStringPN3JSC8Bindings7QtFieldEE6removeERKS0_
0570d450 W _ZN3WTF9HashTableIPK11QMetaObjectSt4pairIS3_PN3JSC8Bindings7QtClassEENS_18PairFirstExtractorIS9_EENS_7PtrHashIS3_EENS_14PairHashTraitsINS_10HashTraitsIS3_EENSF_IS8_EEEESG_E4findIS3_NS_22IdentityHashTranslatorIS3_S9_SD_EEEENS_17HashTableIteratorIS3_S9_SB_SD_SI_SG_EERKT_
0570d5a0 W _ZN3WTF7HashMapIPK11QMetaObjectPN3JSC8Bindings7QtClassENS_7PtrHashIS3_EENS_10HashTraitsIS3_EENSA_IS7_EEE3setERKS3_RKS7_
0570d840 W _ZN5QHashI10QByteArrayPN3JSC8JSObjectEE8freeDataEP9QHashData
0570d964 W _ZN5QHashI10QByteArrayPN3JSC8JSObjectEE13detach_helperEv
0570d9f4 W _ZNK3JSC8Bindings10QtInstance18getBindingLanguageEv
0570d9fc W _ZNK5QHashIPN3JSC8Bindings10QtInstanceEPNS0_8JSObjectEE8findNodeERKS3_Pj
0570da70 W _ZNK5QHashIPvPN3JSC8Bindings10QtInstanceEE8findNodeERKS0_Pj
0570dae4 W _ZNK5QHashIN3JSC10JSValuePtrE15QHashDummyValueE8findNodeERKS1_Pj
0570db60 W _ZN5QHashIPN3JSC8Bindings10QtInstanceEPNS0_8JSObjectEE13duplicateNodeEPN9QHashData4NodeEPv
0570db74 W _ZN3JSC8Bindings18QtRuntimeObjectImp4markEv
0570dbd0 W _ZN5QListIN3JSC10JSValuePtrEE4freeEPN9QListData4DataE
0570dc70 W _ZN5QListIN3JSC10JSValuePtrEED1Ev
0570dcd4 W _ZN5QListIPN3JSC8JSObjectEE4freeEPN9QListData4DataE
0570dd10 W _ZN5QListIPN3JSC8JSObjectEED1Ev
0570dd74 W _ZN5QListIPN3JSC8Bindings10QtInstanceEE4freeEPN9QListData4DataE
0570ddb0 W _ZN5QListIPN3JSC8Bindings10QtInstanceEED1Ev
0570de14 W _ZN5QListIPN3JSC8Bindings7QtFieldEE4freeEPN9QListData4DataE
0570de50 W _ZN5QListIPN3JSC8Bindings7QtFieldEED1Ev
0570deb4 W _ZN3JSC8Bindings7QtFieldD1Ev
0570df58 W _ZN5QHashIPN3JSC8Bindings10QtInstanceEPNS0_8JSObjectEE8freeDataEP9QHashData
0570e028 W _ZN5QHashIPvPN3JSC8Bindings10QtInstanceEE8freeDataEP9QHashData
0570e0f8 W _ZN5QHashIN3JSC10JSValuePtrE15QHashDummyValueE8freeDataEP9QHashData
0570e1c8 W _ZN5QHashIN3JSC10JSValuePtrE15QHashDummyValueE13detach_helperEv
0570e258 W _ZN5QHashIPvPN3JSC8Bindings10QtInstanceEE13detach_helperEv
0570e2e8 W _ZN5QHashIPN3JSC8Bindings10QtInstanceEPNS0_8JSObjectEE13detach_helperEv
0570e378 W _ZN5QHashIPvPN3JSC8Bindings10QtInstanceEE6removeERKS0_
0570e548 W _ZN5QListIPN3JSC8JSObjectEE13detach_helperEv
0570e5b0 W _ZN5QListIPN3JSC8Bindings10QtInstanceEE13detach_helperEv
0570e618 W _ZN5QListIPN3JSC8Bindings7QtFieldEE13detach_helperEv
0570e680 W _ZN5QListIPN3JSC8JSObjectEE6appendERKS2_
0570e6f0 W _ZN5QListIPN3JSC8Bindings10QtInstanceEE6appendERKS3_
0570e760 W _ZNK5QHashIPvPN3JSC8Bindings10QtInstanceEE6valuesERKS0_
0570e838 W _ZN5QListIPN3JSC8Bindings7QtFieldEE6appendERKS3_
0570e8a8 W _ZNK5QHashIPN3JSC8Bindings10QtInstanceEPNS0_8JSObjectEE3keyERKS5_RKS3_
0570e9a4 W _ZNK5QHashIPN3JSC8Bindings10QtInstanceEPNS0_8JSObjectEE3keyERKS5_
0570e9dc W _ZNK5QHashI10QByteArrayPN3JSC8JSObjectEE6valuesEv
0570eacc W _ZNK5QHashI7QStringPN3JSC8Bindings7QtFieldEE6valuesEv
0570ebbc W _ZN5QListIN3JSC10JSValuePtrEE13detach_helperEv
0570ecd0 W _ZN5QListIN3JSC10JSValuePtrEE6appendERKS1_
0570ed5c W _ZNK4QSetIN3JSC10JSValuePtrEE6toListEv
0570ee4c W _ZN5QHashIN3JSC10JSValuePtrE15QHashDummyValueE13duplicateNodeEPN9QHashData4NodeEPv
0570ee58 W _ZN5QHashIPvPN3JSC8Bindings10QtInstanceEE13duplicateNodeEPN9QHashData4NodeES0_
0570ee6c W _ZN5QHashIPN3JSC8Bindings10QtInstanceEPNS0_8JSObjectEE6removeERKS3_
0570f11c W _ZN3JSC8Bindings7QtFieldD0Ev
0570f1e8 W _ZNK4QMapIP7QObjectPN3JSC8Bindings18QtConnectionObjectEE15mutableFindNodeEPPN8QMapData4NodeERKS1_
0570f280 W _ZNK3WTF9HashTableIPN3JSC8JSObjectES3_NS_17IdentityExtractorIS3_EENS_7PtrHashIS3_EENS_10HashTraitsIS3_EES9_E8containsIS3_NS_22IdentityHashTranslatorIS3_S3_S7_EEEEbRKT_
0570f374 W _ZNK3JSC8Bindings7QtArrayIiE9getLengthEv
0570f37c W _ZNK3JSC8Bindings7QtArrayIP7QObjectE9getLengthEv
0570f384 W _ZNK3JSC8Bindings7QtArrayI7QStringE9getLengthEv
0570f38c W _ZNK3JSC8Bindings7QtArrayI8QVariantE9getLengthEv
0570f394 W _ZNK3JSC8Bindings7QtArrayIiE10rootObjectEv
0570f3b4 W _ZNK3JSC8Bindings7QtArrayIP7QObjectE10rootObjectEv
0570f3d4 W _ZNK3JSC8Bindings7QtArrayI7QStringE10rootObjectEv
0570f3f4 W _ZNK3JSC8Bindings7QtArrayI8QVariantE10rootObjectEv
0570f414 W _ZN4QMapIP7QObjectPN3JSC8Bindings18QtConnectionObjectEE8freeDataEP8QMapData
0570f448 W _Z21qMetaTypeDeleteHelperI8QVariantEvPT_
0570f498 W _ZN5QListIPN3JSC8Bindings18QtConnectionObjectEE4freeEPN9QListData4DataE
0570f4d4 W _ZN5QListIPN3JSC8Bindings18QtConnectionObjectEED1Ev
0570f608 W _Z21qMetaTypeDeleteHelperI5QListIiEEvPT_
0570f658 W _Z21qMetaTypeDeleteHelperI5QListIP7QObjectEEvPT_
0570f7dc W _ZN5QListIPN3JSC8Bindings18QtConnectionObjectEE13detach_helperEv
0570f844 W _ZN5QListIPN3JSC8Bindings18QtConnectionObjectEE6appendERKS3_
0570f8b4 W _ZNK4QMapIP7QObjectPN3JSC8Bindings18QtConnectionObjectEE6valuesERKS1_
0570fab4 W _Z24qMetaTypeConstructHelperI5QListIiEEPvPKT_
0570fbf4 W _Z24qMetaTypeConstructHelperI5QListIP7QObjectEEPvPKT_
0570fdf8 W _Z24qMetaTypeConstructHelperI8QVariantEPvPKT_
0570fea8 W _ZN15QVarLengthArrayI8QVariantLi10EE7reallocEii
05710018 W _ZN15QVarLengthArrayI8QVariantLi10EE6appendEPKS0_i
05710384 W _Z13qvariant_castI7QRegExpET_RK8QVariant
057104ec W _ZN3JSC8Bindings7QtArrayI8QVariantED0Ev
0571055c W _ZN3JSC8Bindings7QtArrayI8QVariantED1Ev
057105b8 W _ZN3JSC8Bindings7QtArrayIP7QObjectED0Ev
05710628 W _ZN3JSC8Bindings7QtArrayIP7QObjectED1Ev
05710684 W _ZN3JSC8Bindings7QtArrayIiED0Ev
057106f4 W _ZN3JSC8Bindings7QtArrayIiED1Ev
05710750 W _Z17qRegisterMetaTypeI8QVariantEiPKcPT_
0571078c W _ZN11QMetaTypeIdI8QVariantE14qt_metatype_idEv
057107e4 W _Z17qRegisterMetaTypeI5QListIiEEiPKcPT_
05710820 W _ZN11QMetaTypeIdI5QListIiEE14qt_metatype_idEv
05710878 W _Z17qRegisterMetaTypeI5QListIP7QObjectEEiPKcPT_
057108b4 W _ZN11QMetaTypeIdI5QListIP7QObjectEE14qt_metatype_idEv
0571090c W _ZN4QMapIP7QObjectPN3JSC8Bindings18QtConnectionObjectEE13detach_helperEv
05710ad0 W _ZN4QMapIP7QObjectPN3JSC8Bindings18QtConnectionObjectEE5eraseENS6_8iteratorE
05710c54 W _Z13qvariant_castIiET_RK8QVariant
05710cf0 W _Z13qvariant_castIP7QObjectET_RK8QVariant
05710d8c W _Z13qvariant_castI9QDateTimeET_RK8QVariant
05710ef4 W _Z13qvariant_castI5QTimeET_RK8QVariant
05710fac W _Z13qvariant_castI5QDateET_RK8QVariant
05711064 W _ZN3JSC8Bindings7QtArrayIiEC1E5QListIiEN9QMetaType4TypeEN3WTF10PassRefPtrINS0_10RootObjectEEE
0571117c W _ZN3JSC8Bindings7QtArrayIP7QObjectEC1E5QListIS3_EN9QMetaType4TypeEN3WTF10PassRefPtrINS0_10RootObjectEEE
05711294 W _ZN3JSC8Bindings7QtArrayI8QVariantEC1E5QListIS2_EN9QMetaType4TypeEN3WTF10PassRefPtrINS0_10RootObjectEEE
057113ac W _Z13qvariant_castI5QListIP7QObjectEET_RK8QVariant
057115c0 W _Z13qvariant_castI5QListIiEET_RK8QVariant
057117d4 W _Z13qvariant_castI8QVariantET_RKS0_
057119a4 W _ZN3JSC8Bindings19QtRuntimeMetaMethodD0Ev
057119fc W _ZN3JSC8Bindings19QtRuntimeMetaMethodD1Ev
05711a34 W _ZN3JSC8Bindings25QtRuntimeConnectionMethodD0Ev
05711a8c W _ZN3JSC8Bindings25QtRuntimeConnectionMethodD1Ev
05711ac4 W _Z13qvariant_castI10QByteArrayET_RK8QVariant
05711c74 W _ZN7QVectorIN3JSC8Bindings17QtMethodMatchTypeEE4freeEP16QVectorTypedDataIS2_E
05711d24 W _ZN7QVectorIN3JSC8Bindings17QtMethodMatchTypeEE7reallocEii
05711fd8 W _ZN7QVectorIN3JSC8Bindings17QtMethodMatchTypeEE13detach_helperEv
05712010 W _ZN7QVectorIN3JSC8Bindings17QtMethodMatchTypeEEaSERKS3_
057120b8 W _ZN7QVectorIN3JSC8Bindings17QtMethodMatchDataEE4freeEP16QVectorTypedDataIS2_E
05712200 W _ZN7QVectorIN3JSC8Bindings17QtMethodMatchDataEE7reallocEii
05712648 W _ZN7QVectorIN3JSC8Bindings17QtMethodMatchDataEE13detach_helperEv
05712680 W _ZN7QVectorIN3JSC8Bindings17QtMethodMatchDataEE6insertEPS2_iRKS2_
05712aec W _ZN7QVectorIN3JSC8Bindings17QtMethodMatchDataEE6appendERKS2_
05712e70 W _ZN7QVectorIN3JSC8Bindings17QtMethodMatchTypeEE6appendERKS2_
05713010 W _ZN3JSC8Bindings7QtArrayI7QStringEC1E5QListIS2_EN9QMetaType4TypeEN3WTF10PassRefPtrINS0_10RootObjectEEE
0571318c W _ZN3JSC8Bindings7QtArrayI7QStringED0Ev
057131fc W _ZN3JSC8Bindings7QtArrayI7QStringED1Ev
05713258 W _Z13qvariant_castI11QStringListET_RK8QVariant
0571342c W _Z13qvariant_castI4QMapI7QString8QVariantEET_RKS2_
05713658 W _ZNK3JSC8Bindings7QtArrayI8QVariantE7valueAtEPNS_9ExecStateEj
057137fc W _ZNK3JSC8Bindings7QtArrayI7QStringE7valueAtEPNS_9ExecStateEj
05713990 W _ZNK3JSC8Bindings7QtArrayIP7QObjectE7valueAtEPNS_9ExecStateEj
05713ae4 W _ZNK3JSC8Bindings7QtArrayIiE7valueAtEPNS_9ExecStateEj
05713c38 W _Z13qvariant_castI7QStringET_RK8QVariant
05713de8 W _ZNK3JSC8Bindings7QtArrayI8QVariantE10setValueAtEPNS_9ExecStateEjNS_10JSValuePtrE
05713f0c W _ZNK3JSC8Bindings7QtArrayI7QStringE10setValueAtEPNS_9ExecStateEjNS_10JSValuePtrE
05714088 W _ZNK3JSC8Bindings7QtArrayIP7QObjectE10setValueAtEPNS_9ExecStateEjNS_10JSValuePtrE
05714174 W _ZNK3JSC8Bindings7QtArrayIiE10setValueAtEPNS_9ExecStateEjNS_10JSValuePtrE
05714260 W _ZNK7QMatrix10isIdentityEv
05715d50 W _ZNK5QHashIi7QPixmapE8findNodeERKiPj
05716134 W _ZN5QHashIi7QPixmapE13duplicateNodeEPN9QHashData4NodeEPv
0571616c W _ZN5QHashIi7QPixmapE8freeDataEP9QHashData
05716270 W _ZN5QHashIi7QPixmapE13detach_helperEv
057164b4 W _ZN5QHashIi7QPixmapE4takeERKi
05716a68 W _ZN3WTF6VectorIcLj0EEaSERKS1_
0571736c W _ZN5QListI4QUrlED1Ev
0571c564 W _ZN5QListIN17QWebPluginFactory8MimeTypeEE4freeEPN9QListData4DataE
0571c6b8 W _ZN5QListIN17QWebPluginFactory8MimeTypeEED1Ev
0571c71c W _ZN5QListIN17QWebPluginFactory6PluginEE4freeEPN9QListData4DataE
0571c870 W _ZN5QListIN17QWebPluginFactory6PluginEED1Ev
0571cba8 W _ZNK4QMapIm7QStringE15mutableFindNodeEPPN8QMapData4NodeERKm
0571d0e0 W _ZN4QMapIm7QStringE8freeDataEP8QMapData
0571d18c W _ZN4QMapIm7QStringE13detach_helperEv
0571d780 W _ZN5QListIP9QWebFrameE13detach_helperEv
0571d7e8 W _ZN5QListIP9QWebFrameE6appendERKS1_
0571de48 W _ZThn8_N8QWebViewD0Ev
0571de50 W _ZThn8_N8QWebViewD1Ev
0571de58 W _ZN5QListI15QWebHistoryItemE4freeEPN9QListData4DataE
0571df28 W _ZN5QListI15QWebHistoryItemE13detach_helperEv
0571e05c W _ZN5QListI15QWebHistoryItemE6appendERKS0_
0571e1e0 W _ZNK5QHashIibE8findNodeERKiPj
0571e250 W _ZN5QHashIibE13duplicateNodeEPN9QHashData4NodeEPv
0571e25c W _ZN5QHashIibE8freeDataEP9QHashData
0571e32c W _ZN5QHashIibE13detach_helperEv
0571e51c W _ZN5QListIP19QWebSettingsPrivateE4freeEPN9QListData4DataE
0571e558 W _ZN5QListIP19QWebSettingsPrivateED1Ev
0571e5bc W _ZN5QListIP19QWebSettingsPrivateE13detach_helperEv
0571e81c W _ZN5QListIP19QWebSettingsPrivateE9removeAllERKS1_
0571e8f0 W _ZN5QListIP19QWebSettingsPrivateE6appendERKS1_
0571e960 W _ZN5QHashIibE6removeERKi
0571eb30 W _ZN5QHashIi7QPixmapE6removeERKi
0571ef04 W _ZN5QHashIi7QStringE6removeERKi
0571f158 W _ZN5QListI12QWebDatabaseE4freeEPN9QListData4DataE
0571f228 W _ZN5QListI12QWebDatabaseE13detach_helperEv
0571f35c W _ZN5QListI12QWebDatabaseE6appendERKS0_
0571f400 W _ZN5QListI18QWebSecurityOriginE4freeEPN9QListData4DataE
0571f4d0 W _ZN5QListI18QWebSecurityOriginE13detach_helperEv
0571f604 W _ZN5QListI18QWebSecurityOriginE6appendERKS0_
0571f834 W _ZN3WTF6VectorIxLj0EE6shrinkEj
0571f83c W _ZN3WTF6VectorIdLj0EE6shrinkEj
0571f844 W _ZN3WTF6VectorIdLj0EE14shrinkCapacityEj
0571f984 W _ZN3WTF6VectorIxLj0EE14shrinkCapacityEj
0571fac4 W _ZN3WTF6VectorIxLj0EE15reserveCapacityEj
0571fbe8 W _ZN3WTF6VectorIxLj0EE14expandCapacityEj
0571fc78 W _ZN3WTF6VectorIxLj0EE14expandCapacityEjPKx
0571fd28 W _ZN3WTF6VectorIdLj0EE15reserveCapacityEj
0571fe4c W _ZN3WTF6VectorIdLj0EE14expandCapacityEj
0571fedc W _ZN3WTF6VectorIdLj0EE14expandCapacityEjPKd
0575cc3c W _ZN3WTF6VectorIfLj0EEaSERKS1_
05784958 W _ZN3WTF6VectorISt4pairIjjELj0EE6shrinkEj
05784a98 W _ZN3WTF6VectorISt4pairIjjELj0EE14shrinkCapacityEj
05784f34 W _ZN3WTF6VectorISt4pairIjjELj0EE15reserveCapacityEj
05785058 W _ZN3WTF6VectorISt4pairIjjELj0EE14expandCapacityEj
057850e8 W _ZN3WTF6VectorISt4pairIjjELj0EE14expandCapacityEjPKS2_
057c43d8 W _ZN3WTF9HashTableIddNS_17IdentityExtractorIdEENS_9FloatHashIdEENS_10HashTraitsIdEES6_E15isDeletedBucketERKd
057c43f8 W _ZN3WTF9HashTableIddNS_17IdentityExtractorIdEENS_9FloatHashIdEENS_10HashTraitsIdEES6_E13isEmptyBucketERKd
057c4414 W _ZN3WTF22IdentityHashTranslatorIddNS_9FloatHashIdEEE5equalERKdS5_
057c442c W _ZN3WTF9HashTableIddNS_17IdentityExtractorIdEENS_9FloatHashIdEENS_10HashTraitsIdEES6_E16initializeBucketERd
057c4530 W _ZN3WTF22IdentityHashTranslatorIddNS_9FloatHashIdEEE4hashERKd
057c4604 W _ZN3WTF9HashTableIddNS_17IdentityExtractorIdEENS_9FloatHashIdEENS_10HashTraitsIdEES6_E4findIdNS_22IdentityHashTranslatorIddS4_EEEENS_17HashTableIteratorIddS2_S4_S6_S6_EERKT_
057c4788 W _ZN3WTF5MoverIdLb0EE4moveERdS2_
057c4794 W _ZN3WTF9HashTableIddNS_17IdentityExtractorIdEENS_9FloatHashIdEENS_10HashTraitsIdEES6_E15deallocateTableEPdi
057c47c0 W _ZN3WTF9HashTableIddNS_17IdentityExtractorIdEENS_9FloatHashIdEENS_10HashTraitsIdEES6_E13allocateTableEi
057c4858 W _ZN3WTF9HashTableIddNS_17IdentityExtractorIdEENS_9FloatHashIdEENS_10HashTraitsIdEES6_E6rehashEi
057c4ac4 W _ZN3WTF9HashTableIddNS_17IdentityExtractorIdEENS_9FloatHashIdEENS_10HashTraitsIdEES6_E6expandEv
057c4b68 W _ZN3WTF9HashTableIddNS_17IdentityExtractorIdEENS_9FloatHashIdEENS_10HashTraitsIdEES6_E3addIddNS_22IdentityHashTranslatorIddS4_EEEESt4pairINS_17HashTableIteratorIddS2_S4_S6_S6_EEbERKT_RKT0_
057c4e78 W _ZN3WTF7HashSetIdNS_9FloatHashIdEENS_10HashTraitsIdEEE3addERKd
057c521c W _ZNK3WTF9HashTableIddNS_17IdentityExtractorIdEENS_9FloatHashIdEENS_10HashTraitsIdEES6_E8containsIdNS_22IdentityHashTranslatorIddS4_EEEEbRKT_
057c72c8 W _ZN3WTF6VectorIfLj0EEC1ERKS1_
057cbf4c W _ZN3WTF6VectorIfLj0EEC2ERKS1_
057d9f00 W _ZN3JSC8jsNumberEPNS_9ExecStateEt
057e85a0 W _ZN3JSC8jsNumberEPNS_9ExecStateEy
058166fc W _ZN3JSC8jsNumberEPNS_9ExecStateEx
058195c0 W _ZN3JSC8jsNumberEPNS_9ExecStateEm
05822c34 W _ZN3JSC8jsNumberEPNS_9ExecStateEl
058a7060 W _ZNK4QMapIP7QActionjE15mutableFindNodeEPPN8QMapData4NodeERKS1_
058a70f8 W _ZN4QMapIP7QActionjE8freeDataEP8QMapData
058a71dc W _ZN4QMapIP7QActionjE13detach_helperEv
058a742c R _fini
058ab3d8 V _ZTV20C_BCM_BROWSER_SERVER
058ab5a8 V _ZTV22com_MM_Browser_adaptor
058ab738 V _ZTVN16BRO_Configurator22C_BCM_BRO_ConfiguratorE
058abae8 V _ZTVN10BRO_Common19C_BCM_BRO_BaseClassE
058abb00 V _ZTVN4DBus21C_BCM_BRO_DBusClientsE
058abb18 V _ZTVN4DBus21C_BCM_BRO_DBusWrapperE
058abb70 V _ZTVN7Manager17C_BCM_BRO_ManagerE
058abc28 V _ZTVN8Executor13C_BCM_BrowserE
058abc60 V _ZTV19C_BCM_DC_BRW_CLIENT
058abca8 V _ZTV22C_BCM_Drive_BRW_CLIENT
058abce8 V _ZTV21C_BCM_NAVI_BRW_CLIENT
058abf00 V _ZTV19C_BCM_NA_BRW_CLIENT
058abf48 V _ZTV20C_BCM_NVI_BRW_CLIENT
058abff0 V _ZTV19C_BCM_UP_BRW_CLIENT
058ac020 V _ZTVN16BRO_Configurator13SelectRequestE
058ac040 V _ZTVN16BRO_Configurator13DeleteRequestE
058ac060 V _ZTVN16BRO_Configurator13UpdateRequestE
058ac080 V _ZTVN16BRO_Configurator13InsertRequestE
058ac0a0 V _ZTVN16BRO_Configurator14GenericRequestE
058ac0c0 V _ZTVN8Executor21C_BCM_CON_Cheat_CodesE
058ac0d0 V _ZTVN12Configurator22C_BCM_CON_ConfiguratorE
058ac0f0 V _ZTTSt19basic_ostringstreamIcSt11char_traitsIcESaIcEE
058ac100 V _ZTVSt19basic_ostringstreamIcSt11char_traitsIcESaIcEE
058ac128 V _ZTCSt19basic_ostringstreamIcSt11char_traitsIcESaIcEE0_So
058ac150 V _ZTVN6Common25C_BCM_CON_ObserverMessageE
058ac230 V _ZTVN9Connector19C_BCM_CON_ConnectorE
058ac248 V _ZTVN7Manager21C_BCM_CON_DbusHandlerE
058ac258 V _ZTV28C_BCM_CON_DbusHandler_CLIENT
058ac2f8 V _ZTV28C_BCM_CON_DbusHandler_SERVER
058ac418 V _ZTV27com_MM_Connectivity_adaptor
058ac4a8 V _ZTVN9Connector25C_BCM_CON_DriverWrapperBTE
058ac4d8 V _ZTVN9Connector29C_BCM_CON_DriverWrapperBT_PANE
058ac508 V _ZTVN9Connector30C_BCM_CON_DriverWrapperUSB_CDCE
058ac538 V _ZTVN9Connector23C_BCM_CON_GenericDriverE
058ac568 V _ZTVN7Manager17C_BCM_CON_ManagerE
058ac650 V _ZTVN6Common12PANProfile_tE
058ac668 V _ZTVN6Common13WifiProfile_tE
058ac680 V _ZTVN6Common12DunProfile_tE
058ac698 V _ZTVN6Common15UsbCDCProfile_tE
058ac6b0 V _ZTVN6Common14Usb3gProfile_tE
058ac6c8 V _ZTVN6Common9Profile_tE
058ac6e0 V _ZTVN8Executor18C_BCM_ConnectivityE
058ac718 V _ZTVN6Common12C_BCM_SenderE
058ac728 V _ZTVN12Configurator13SelectRequestE
058ac748 V _ZTVN12Configurator13DeleteRequestE
058ac768 V _ZTVN12Configurator13UpdateRequestE
058ac788 V _ZTVN12Configurator13InsertRequestE
058ac7a8 V _ZTVN12Configurator14GenericRequestE
058af690 V _ZTV18C_HMI_INT_APP_BASE
058af778 V _ZTV21C_HMI_INT_DisplayData
058af7b8 V _ZTV12C_HMI_INT_F1
058af7e0 V _ZTV15C_HMI_INT_F1_Z0
058af820 V _ZTV29C_HMI_INET_BrowserMenu_BSC_Z1
058af888 V _ZTV33C_HMI_INET_DUNDatatransfer_BSC_Z1
058af8f0 V _ZTV39C_HMI_INET_DUNIdentifierEntering_VKB_Z1
058af970 V _ZTV46C_HMI_INET_DUNIdentifierModificationAPN_VKB_Z1
058af9f0 V _ZTV29C_HMI_INET_DUNSettings_CFM_Z1
058afa58 V _ZTV34C_HMI_INET_FavoriteEntering_VKB_Z1
058afae0 V _ZTV31C_HMI_INET_FavoritesMenu_M3Z_Z4
058afb48 V _ZTV29C_HMI_INET_HistoryMenu_M3Z_Z4
058afbb0 V _ZTV38C_HMI_INET_POPUP_AddToFavorites_QST_Z1
058afbf8 V _ZTV42C_HMI_INET_POPUP_BrowserOptionsMenu_CTX_Z4
058afc40 V _ZTV38C_HMI_INET_POPUP_DUNDNSEntering_VKB_Z1
058afc90 V _ZTV43C_HMI_INET_POPUP_FavoriteItemRemoval_QST_Z1
058afcd8 V _ZTV40C_HMI_INET_POPUP_FreeTextEntering_VKB_Z1
058afd28 V _ZTV43C_HMI_INET_POPUP_HistoricItemRemoval_QST_Z1
058afd70 V _ZTV46C_HMI_INET_POPUP_InternetConnectionFail_INF_Z1
058afdb8 V _ZTV46C_HMI_INET_POPUP_InternetConnectionLost_INF_Z1
058afe00 V _ZTV39C_HMI_INET_POPUP_LaunchPhoneCall_QST_Z1
058afe48 V _ZTV36C_HMI_INET_POPUP_PasswordSave_QST_Z1
058afe90 V _ZTV39C_HMI_INET_POPUP_SavePhoneNumber_QST_Z1
058afed8 V _ZTV33C_HMI_INET_POPUP_SaveVcard_QST_Z1
058aff20 V _ZTV46C_HMI_INET_POPUP_StopInternetConnection_INF_Z2
058aff68 V _ZTV39C_HMI_INET_POPUP_WebNotAvailable_INF_Z1
058affb0 V _ZTV40C_HMI_INET_POPUP_WebStopPlayingBT_QST_Z3
058afff8 V _ZTV28C_HMI_INET_Secondary_Menu_Z1
058b0060 V _ZTV29C_HMI_INET_URLEntering_VKB_Z1
058b00e8 V _ZTV27C_HMI_INET_UserGuide_BSC_Z1
058b0150 V _ZTV20C_HMI_INT_MENU_STATE
058b01b8 V _ZTV24C_HMI_INT_MENU_STATE_VKB
058b0238 V _ZTV15C_HMI_INT_POPUP
058b0250 V _ZTV19C_HMI_INT_POPUP_INF
058b0298 V _ZTV19C_HMI_INT_POPUP_PMS
058b02e0 V _ZTV21C_HMI_INT_POPUP_STATE
058b0328 V _ZTV25C_HMI_INT_POPUP_STATE_VKB
058b0370 V _ZTV38C_HMI_INT_POPUP_VIE_INFO_EXPORT_STATUS
058b03b8 V _ZTV16C_HMI_INT_Screen
058b03c8 V _ZTV13C_HMI_INT_VKB
058b0518 R _ZN22C_Addon_BrowserWrapper16staticMetaObjectE
058b187c R _ZN17C_Addon_CookieJar16staticMetaObjectE
058b1ad4 R _ZN7Binding16staticMetaObjectE
058b1ae4 R _ZN6Device16staticMetaObjectE
058b1af4 R _ZN7CarTime16staticMetaObjectE
058b1b04 R _ZN5Units16staticMetaObjectE
058b1b14 R _ZN4Trip16staticMetaObjectE
058b1b24 R _ZN3Car16staticMetaObjectE
058b1b34 R _ZN11SourceMedia16staticMetaObjectE
058b1b44 R _ZN11SourceRadio16staticMetaObjectE
058b1b54 R _ZN15CurrentPosition16staticMetaObjectE
058b1b64 R _ZN11Destination16staticMetaObjectE
058b1b74 R _ZN8Waypoint16staticMetaObjectE
058b1b84 R _ZN27C_Addon_JavascriptInterface16staticMetaObjectE
058b2e9c R _ZN22C_Addon_NetworkManager16staticMetaObjectE
058b3018 R _ZN15C_Addon_WebPage16staticMetaObjectE
058b312c R _ZN15C_Addon_WebView16staticMetaObjectE
058b6800 V _ZTV22C_Addon_BrowserWrapper
058b6838 V _ZTV17C_Addon_CookieJar
058b6878 V _ZTV27C_Addon_JavascriptInterface
058b68b0 V _ZTV8Waypoint
058b68e8 V _ZTV11Destination
058b6920 V _ZTV15CurrentPosition
058b6958 V _ZTV11SourceRadio
058b6990 V _ZTV11SourceMedia
058b69c8 V _ZTV3Car
058b6a00 V _ZTV4Trip
058b6a38 V _ZTV5Units
058b6a70 V _ZTV7CarTime
058b6aa8 V _ZTV6Device
058b6ae0 V _ZTV7Binding
058b6b18 V _ZTV22C_Addon_NetworkManager
058b6b58 V _ZTV15C_Addon_WebPage
058b6bc0 V _ZTV15C_Addon_WebView
058b6cc0 V _ZTVN18INET_ADDON_logging3LogE
058b6cd0 V _ZTTSt19basic_istringstreamIcSt11char_traitsIcESaIcEE
058b6ce0 V _ZTVSt19basic_istringstreamIcSt11char_traitsIcESaIcEE
058b6d08 V _ZTCSt19basic_istringstreamIcSt11char_traitsIcESaIcEE0_Si
058b6d30 V _ZTV20C_GUI_InternetClient
058b6d60 V _ZTV22C_Addon_SpyDataHandler
058b7634 R jsc_pcre_utf8_table1
058b764c R jsc_pcre_utf8_table2
058b7664 R jsc_pcre_utf8_table3
058b767c R jsc_pcre_utf8_table4
058b76bc R jsc_pcre_default_tables
058bd56c R _ZN3JSC21JSCallbackConstructor4infoE
058bd57c R _ZN3JSC18JSCallbackFunction4infoE
058bd58c R _ZN3JSC16JSCallbackObjectINS_8JSObjectEE4infoE
058bd59c R _ZN3JSC16JSCallbackObjectINS_14JSGlobalObjectEE4infoE
058bd5ac R kJSClassDefinitionEmpty
058bd5f0 R _ZN3JSC12JSActivation4infoE
058bd618 R _ZN3JSC9Arguments4infoE
058bd628 R _ZN3JSC14ArrayPrototype4infoE
058bd778 R _ZN3JSC13BooleanObject4infoE
058bd788 R _ZN3JSC12DateInstance4infoE
058bd894 R _ZN3JSC13DatePrototype4infoE
058bdd6c R _ZN3JSC13ErrorInstance4infoE
058bdd7c R _ZN3JSC16InternalFunction4infoE
058bdd8c R _ZN3JSC7JSArray4infoE
058bdd9c R _ZN3JSC11JSByteArray13s_defaultInfoE
058bddc0 R _ZN3JSC10JSFunction4infoE
058be4bc R _ZN3JSC10MathObject4infoE
058be5fc R _ZN3JSC22NativeErrorConstructor4infoE
058be794 R _ZN3JSC17NumberConstructor4infoE
058be804 R _ZN3JSC12NumberObject4infoE
058be814 R _ZN3JSC17RegExpConstructor4infoE
058be984 R _ZN3JSC12RegExpObject4infoE
058be9f4 R _ZN3JSC15RegExpPrototype4infoE
058bea04 R _ZN3JSC12StringObject4infoE
058bea14 R _ZN3JSC15StringPrototype4infoE
058bec58 R _ZN3WTF17MainThreadInvoker16staticMetaObjectE
058c3e14 R _ZN3JSC12RuntimeArray6s_infoE
058c3e24 R _ZN3JSC13RuntimeMethod6s_infoE
058c3e34 R _ZN3JSC16RuntimeObjectImp6s_infoE
058d8638 R _ZN3JSC8Bindings15QtRuntimeMethod6s_infoE
058d8648 R _ZN3JSC8Bindings18QtConnectionObject16staticMetaObjectE
058d92c0 R _ZN8QWebPage16staticMetaObjectE
058f4094 R _ZN17QWebPluginFactory16staticMetaObjectE
058f4124 R _ZN9QWebFrame16staticMetaObjectE
058f43cc R _ZN8QWebView16staticMetaObjectE
058f46d8 R _ZN20QWebHistoryInterface16staticMetaObjectE
059c1b98 V _ZTVN3JSC6JSCellE
059c1c0c V _ZTSN3JSC6JSCellE
059c1c1c V _ZTIN3JSC6JSCellE
059c1c28 V _ZTIN3JSC7JSValueE
059c1c40 V _ZTSN3JSC7JSValueE
059c1c50 V _ZTIN14WTFNoncopyable11NoncopyableE
059c1c58 V _ZTSN14WTFNoncopyable11NoncopyableE
059c1c78 V _ZTVN3JSC7JSValueE
059c1c88 V _ZTVN3JSC21UStringSourceProviderE
059c1ca4 V _ZTIN3JSC21UStringSourceProviderE
059c1cb0 V _ZTSN3JSC21UStringSourceProviderE
059c1cd0 V _ZTIN3JSC14SourceProviderE
059c1ce8 V _ZTSN3JSC14SourceProviderE
059c1d00 V _ZTIN3WTF10RefCountedIN3JSC14SourceProviderEEE
059c1d0c V _ZTSN3WTF10RefCountedIN3JSC14SourceProviderEEE
059c1d38 V _ZTIN3WTF14RefCountedBaseE
059c1d50 V _ZTSN3WTF14RefCountedBaseE
059c1d68 V _ZTVN3JSC14SourceProviderE
059c1d88 V _ZTVN3JSC21JSCallbackConstructorE
059c1e3c V _ZTSN3JSC21JSCallbackConstructorE
059c1e5c V _ZTIN3JSC21JSCallbackConstructorE
059c1e68 V _ZTVN3JSC18JSCallbackFunctionE
059c1f1c V _ZTSN3JSC18JSCallbackFunctionE
059c1f38 V _ZTIN3JSC18JSCallbackFunctionE
059c1f48 V _ZTVN3JSC16JSCallbackObjectINS_8JSObjectEEE
059c1ffc V _ZTIN3JSC16JSCallbackObjectINS_8JSObjectEEE
059c2008 V _ZTSN3JSC16JSCallbackObjectINS_8JSObjectEEE
059c2030 V _ZTVN3JSC14JSGlobalObject18JSGlobalObjectDataE
059c2040 V _ZTIN3JSC14JSGlobalObject18JSGlobalObjectDataE
059c2058 V _ZTSN3JSC14JSGlobalObject18JSGlobalObjectDataE
059c2084 V _ZTIN3JSC16JSVariableObject20JSVariableObjectDataE
059c208c V _ZTSN3JSC16JSVariableObject20JSVariableObjectDataE
059c20c0 V _ZTVN3JSC16JSCallbackObjectINS_14JSGlobalObjectEEE
059c218c V _ZTIN3JSC16JSCallbackObjectINS_14JSGlobalObjectEEE
059c2198 V _ZTSN3JSC16JSCallbackObjectINS_14JSGlobalObjectEEE
059c2378 V _ZTVN3JSC12JSGlobalData10ClientDataE
059c2388 V _ZTIN3JSC12JSGlobalData10ClientDataE
059c2390 V _ZTSN3JSC12JSGlobalData10ClientDataE
059c23b8 V _ZTVN3JSC14JSGlobalObjectE
059c2484 V _ZTSN3JSC14JSGlobalObjectE
059c249c V _ZTIN3JSC14JSGlobalObjectE
059c24a8 V _ZTVN3JSC19JSStaticScopeObjectE
059c2564 V _ZTSN3JSC19JSStaticScopeObjectE
059c2580 V _ZTIN3JSC19JSStaticScopeObjectE
059c2590 V _ZTVN3JSC16JSVariableObjectE
059c2648 V _ZTSN3JSC16JSVariableObjectE
059c2664 V _ZTIN3JSC16JSVariableObjectE
059c2670 V _ZTVN3JSC12JSActivationE
059c2728 V _ZTSN3JSC12JSActivationE
059c2740 V _ZTIN3JSC12JSActivationE
059c2750 V _ZTVN3JSC13JSNotAnObjectE
059c2804 V _ZTSN3JSC13JSNotAnObjectE
059c281c V _ZTIN3JSC13JSNotAnObjectE
059c2828 V _ZTVN3JSC22JSNotAnObjectErrorStubE
059c28dc V _ZTIN3JSC22JSNotAnObjectErrorStubE
059c28e8 V _ZTSN3JSC22JSNotAnObjectErrorStubE
059c2908 V _ZTVN3JSC25InterruptedExecutionErrorE
059c29bc V _ZTIN3JSC25InterruptedExecutionErrorE
059c29c8 V _ZTSN3JSC25InterruptedExecutionErrorE
059c29f0 V _ZTVN3JSC22JSPropertyNameIteratorE
059c2a64 V _ZTSN3JSC22JSPropertyNameIteratorE
059c2a84 V _ZTIN3JSC22JSPropertyNameIteratorE
059c2a90 V _ZTVN3JSC9ArgumentsE
059c2b48 V _ZTSN3JSC9ArgumentsE
059c2b5c V _ZTIN3JSC9ArgumentsE
059c2b68 V _ZTVN3JSC16ArrayConstructorE
059c2c1c V _ZTSN3JSC16ArrayConstructorE
059c2c38 V _ZTIN3JSC16ArrayConstructorE
059c2c48 V _ZTVN3JSC14ArrayPrototypeE
059c2cfc V _ZTSN3JSC14ArrayPrototypeE
059c2d14 V _ZTIN3JSC14ArrayPrototypeE
059c2d20 V _ZTVN3JSC18BooleanConstructorE
059c2dd4 V _ZTSN3JSC18BooleanConstructorE
059c2df0 V _ZTIN3JSC18BooleanConstructorE
059c2e00 V _ZTVN3JSC13BooleanObjectE
059c2eb4 V _ZTIN3JSC13BooleanObjectE
059c2ec0 V _ZTSN3JSC13BooleanObjectE
059c2ed8 V _ZTVN3JSC16BooleanPrototypeE
059c2f8c V _ZTIN3JSC16BooleanPrototypeE
059c2f98 V _ZTSN3JSC16BooleanPrototypeE
059c2fb4 V _ZZN3JSC4Heap12heapAllocateILNS_8HeapTypeE1EEEPvjE12maxNumBlocks
059c2fb8 V _ZZN3JSC4Heap12heapAllocateILNS_8HeapTypeE0EEEPvjE12maxNumBlocks
059c2fc0 V _ZTVN3JSC15DateConstructorE
059c3074 V _ZTSN3JSC15DateConstructorE
059c308c V _ZTIN3JSC15DateConstructorE
059c3098 V _ZTVN3JSC12DateInstanceE
059c314c V _ZTSN3JSC12DateInstanceE
059c3164 V _ZTIN3JSC12DateInstanceE
059c3170 V _ZTVN3JSC13DatePrototypeE
059c3224 V _ZTSN3JSC13DatePrototypeE
059c323c V _ZTIN3JSC13DatePrototypeE
059c3248 V _ZTVN3JSC8DebuggerE
059c3278 V _ZTSN3JSC8DebuggerE
059c3288 V _ZTIN3JSC8DebuggerE
059c3290 V _ZTVN3JSC16ErrorConstructorE
059c3344 V _ZTSN3JSC16ErrorConstructorE
059c3360 V _ZTIN3JSC16ErrorConstructorE
059c3370 V _ZTVN3JSC13ErrorInstanceE
059c3424 V _ZTIN3JSC13ErrorInstanceE
059c3430 V _ZTSN3JSC13ErrorInstanceE
059c3448 V _ZTVN3JSC14ErrorPrototypeE
059c34fc V _ZTIN3JSC14ErrorPrototypeE
059c3508 V _ZTSN3JSC14ErrorPrototypeE
059c3520 V _ZTVN3JSC19FunctionConstructorE
059c35d4 V _ZTSN3JSC19FunctionConstructorE
059c35f0 V _ZTIN3JSC19FunctionConstructorE
059c3600 V _ZTVN3JSC17FunctionPrototypeE
059c36b4 V _ZTSN3JSC17FunctionPrototypeE
059c36d0 V _ZTIN3JSC17FunctionPrototypeE
059c36e0 V _ZTVN3JSC12GetterSetterE
059c3754 V _ZTSN3JSC12GetterSetterE
059c376c V _ZTIN3JSC12GetterSetterE
059c3778 V _ZTVN3JSC18GlobalEvalFunctionE
059c382c V _ZTSN3JSC18GlobalEvalFunctionE
059c3848 V _ZTIN3JSC18GlobalEvalFunctionE
059c3858 V _ZTVN3JSC16InternalFunctionE
059c390c V _ZTSN3JSC16InternalFunctionE
059c3928 V _ZTIN3JSC16InternalFunctionE
059c3938 V _ZTVN3JSC7JSArrayE
059c39ec V _ZTSN3JSC7JSArrayE
059c39fc V _ZTIN3JSC7JSArrayE
059c3a08 V _ZTVN3JSC11JSByteArrayE
059c3abc V _ZTSN3JSC11JSByteArrayE
059c3ad0 V _ZTIN3JSC11JSByteArrayE
059c3ae0 V _ZTVN3JSC10JSFunctionE
059c3b94 V _ZTSN3JSC10JSFunctionE
059c3ba8 V _ZTIN3JSC10JSFunctionE
059c3bb8 V _ZTVN3JSC12JSNumberCellE
059c3c2c V _ZTSN3JSC12JSNumberCellE
059c3c44 V _ZTIN3JSC12JSNumberCellE
059c3c50 V _ZTVN3JSC8JSObjectE
059c3d04 V _ZTSN3JSC8JSObjectE
059c3d14 V _ZTIN3JSC8JSObjectE
059c3d20 V _ZTVN3JSC8JSStringE
059c3d94 V _ZTSN3JSC8JSStringE
059c3da4 V _ZTIN3JSC8JSStringE
059c3db0 V _ZTVN3JSC15JSWrapperObjectE
059c3e64 V _ZTSN3JSC15JSWrapperObjectE
059c3e7c V _ZTIN3JSC15JSWrapperObjectE
059c3e88 V _ZTVN3JSC10MathObjectE
059c3f3c V _ZTSN3JSC10MathObjectE
059c3f50 V _ZTIN3JSC10MathObjectE
059c3f60 V _ZTVN3JSC22NativeErrorConstructorE
059c4014 V _ZTSN3JSC22NativeErrorConstructorE
059c4034 V _ZTIN3JSC22NativeErrorConstructorE
059c4040 V _ZTVN3JSC20NativeErrorPrototypeE
059c40f4 V _ZTIN3JSC20NativeErrorPrototypeE
059c4100 V _ZTSN3JSC20NativeErrorPrototypeE
059c4120 V _ZTVN3JSC12FuncExprNodeE
059c4160 V _ZTVN3JSC12FuncDeclNodeE
059c4190 V _ZTVN3JSC16FunctionBodyNodeE
059c41c0 V _ZTVN3JSC8EvalNodeE
059c41f0 V _ZTVN3JSC11ProgramNodeE
059c4220 V _ZTVN3JSC9ScopeNodeE
059c4250 V _ZTVN3JSC13ParameterNodeE
059c4268 V _ZTVN3JSC7TryNodeE
059c4298 V _ZTVN3JSC9ThrowNodeE
059c42c8 V _ZTVN3JSC9LabelNodeE
059c42f8 V _ZTVN3JSC10SwitchNodeE
059c4328 V _ZTVN3JSC13CaseBlockNodeE
059c4340 V _ZTVN3JSC14ClauseListNodeE
059c4358 V _ZTVN3JSC14CaseClauseNodeE
059c4370 V _ZTVN3JSC8WithNodeE
059c43a0 V _ZTVN3JSC10ReturnNodeE
059c43d0 V _ZTVN3JSC9BreakNodeE
059c4400 V _ZTVN3JSC12ContinueNodeE
059c4430 V _ZTVN3JSC9ForInNodeE
059c4460 V _ZTVN3JSC7ForNodeE
059c4490 V _ZTVN3JSC9WhileNodeE
059c44c0 V _ZTVN3JSC11DoWhileNodeE
059c44f0 V _ZTVN3JSC10IfElseNodeE
059c4520 V _ZTVN3JSC6IfNodeE
059c4550 V _ZTVN3JSC16VarStatementNodeE
059c4580 V _ZTVN3JSC17ExprStatementNodeE
059c45b0 V _ZTVN3JSC21DebuggerStatementNodeE
059c45e0 V _ZTVN3JSC18EmptyStatementNodeE
059c4610 V _ZTVN3JSC9BlockNodeE
059c4640 V _ZTVN3JSC18ConstStatementNodeE
059c4670 V _ZTVN3JSC13ConstDeclNodeE
059c46b8 V _ZTVN3JSC9CommaNodeE
059c46f8 V _ZTVN3JSC21ReadModifyBracketNodeE
059c4738 V _ZTVN3JSC17AssignBracketNodeE
059c4778 V _ZTVN3JSC15AssignErrorNodeE
059c47b8 V _ZTVN3JSC17ReadModifyDotNodeE
059c47f8 V _ZTVN3JSC13AssignDotNodeE
059c4838 V _ZTVN3JSC17AssignResolveNodeE
059c4878 V _ZTVN3JSC21ReadModifyResolveNodeE
059c48b8 V _ZTVN3JSC15ConditionalNodeE
059c48f8 V _ZTVN3JSC13LogicalOpNodeE
059c4938 V _ZTVN3JSC14InstanceOfNodeE
059c4980 V _ZTVN3JSC21ThrowableBinaryOpNodeE
059c49c8 V _ZTVN3JSC19ReverseBinaryOpNodeE
059c4a10 V _ZTVN3JSC15StrictEqualNodeE
059c4a58 V _ZTVN3JSC9EqualNodeE
059c4aa0 V _ZTVN3JSC12BinaryOpNodeE
059c4ae8 V _ZTVN3JSC11UnaryOpNodeE
059c4b30 V _ZTVN3JSC15PrefixErrorNodeE
059c4b70 V _ZTVN3JSC13PrefixDotNodeE
059c4bb0 V _ZTVN3JSC17PrefixBracketNodeE
059c4bf0 V _ZTVN3JSC17PrefixResolveNodeE
059c4c30 V _ZTVN3JSC15TypeOfValueNodeE
059c4c70 V _ZTVN3JSC17TypeOfResolveNodeE
059c4cb0 V _ZTVN3JSC8VoidNodeE
059c4cf0 V _ZTVN3JSC15DeleteValueNodeE
059c4d30 V _ZTVN3JSC13DeleteDotNodeE
059c4d70 V _ZTVN3JSC17DeleteBracketNodeE
059c4db0 V _ZTVN3JSC17DeleteResolveNodeE
059c4df0 V _ZTVN3JSC16PostfixErrorNodeE
059c4e30 V _ZTVN3JSC14PostfixDotNodeE
059c4e70 V _ZTVN3JSC18PostfixBracketNodeE
059c4eb0 V _ZTVN3JSC18PostfixResolveNodeE
059c4ef0 V _ZTVN3JSC19FunctionCallDotNodeE
059c4f30 V _ZTVN3JSC23FunctionCallBracketNodeE
059c4f70 V _ZTVN3JSC23FunctionCallResolveNodeE
059c4fb0 V _ZTVN3JSC21FunctionCallValueNodeE
059c4ff0 V _ZTVN3JSC20EvalFunctionCallNodeE
059c5030 V _ZTVN3JSC11NewExprNodeE
059c5070 V _ZTVN3JSC13ArgumentsNodeE
059c5088 V _ZTVN3JSC16ArgumentListNodeE
059c50a0 V _ZTVN3JSC15DotAccessorNodeE
059c50e0 V _ZTVN3JSC19BracketAccessorNodeE
059c5120 V _ZTVN3JSC16PropertyListNodeE
059c5138 V _ZTVN3JSC17ObjectLiteralNodeE
059c5178 V _ZTVN3JSC12PropertyNodeE
059c5190 V _ZTVN3JSC9ArrayNodeE
059c51d0 V _ZTVN3JSC11ElementNodeE
059c51e8 V _ZTVN3JSC11ResolveNodeE
059c5228 V _ZTVN3JSC8ThisNodeE
059c5268 V _ZTVN3JSC10RegExpNodeE
059c52a8 V _ZTVN3JSC10StringNodeE
059c52e8 V _ZTVN3JSC10NumberNodeE
059c5328 V _ZTVN3JSC11BooleanNodeE
059c5368 V _ZTVN3JSC8NullNodeE
059c53a8 V _ZTVN3JSC16ParserRefCountedE
059c53bc V _ZTSN3JSC10SwitchNodeE
059c53d0 V _ZTIN3JSC10SwitchNodeE
059c53dc V _ZTSN3JSC13CaseBlockNodeE
059c53f4 V _ZTIN3JSC13CaseBlockNodeE
059c5400 V _ZTSN3JSC14ClauseListNodeE
059c5418 V _ZTIN3JSC14ClauseListNodeE
059c5424 V _ZTSN3JSC14CaseClauseNodeE
059c543c V _ZTIN3JSC14CaseClauseNodeE
059c5448 V _ZTSN3JSC12FuncDeclNodeE
059c5460 V _ZTIN3JSC12FuncDeclNodeE
059c546c V _ZTSN3JSC12FuncExprNodeE
059c5484 V _ZTIN3JSC12FuncExprNodeE
059c5490 V _ZTSN3JSC16FunctionBodyNodeE
059c54ac V _ZTIN3JSC16FunctionBodyNodeE
059c54b8 V _ZTSN3JSC8EvalNodeE
059c54c8 V _ZTIN3JSC8EvalNodeE
059c54d4 V _ZTSN3JSC11ProgramNodeE
059c54e8 V _ZTIN3JSC11ProgramNodeE
059c54f4 V _ZTSN3JSC9ScopeNodeE
059c5508 V _ZTIN3JSC9ScopeNodeE
059c5514 V _ZTSN3JSC13ParameterNodeE
059c552c V _ZTIN3JSC13ParameterNodeE
059c5538 V _ZTSN3JSC7TryNodeE
059c5548 V _ZTIN3JSC7TryNodeE
059c5554 V _ZTSN3JSC9ThrowNodeE
059c5568 V _ZTIN3JSC9ThrowNodeE
059c5588 V _ZTSN3JSC9LabelNodeE
059c559c V _ZTIN3JSC9LabelNodeE
059c55bc V _ZTSN3JSC8WithNodeE
059c55cc V _ZTIN3JSC8WithNodeE
059c55d8 V _ZTSN3JSC10ReturnNodeE
059c55ec V _ZTIN3JSC10ReturnNodeE
059c560c V _ZTSN3JSC9BreakNodeE
059c5620 V _ZTIN3JSC9BreakNodeE
059c5640 V _ZTSN3JSC12ContinueNodeE
059c5658 V _ZTIN3JSC12ContinueNodeE
059c5678 V _ZTSN3JSC9ForInNodeE
059c568c V _ZTIN3JSC9ForInNodeE
059c56ac V _ZTSN3JSC7ForNodeE
059c56bc V _ZTIN3JSC7ForNodeE
059c56c8 V _ZTSN3JSC9WhileNodeE
059c56dc V _ZTIN3JSC9WhileNodeE
059c56e8 V _ZTSN3JSC11DoWhileNodeE
059c56fc V _ZTIN3JSC11DoWhileNodeE
059c5708 V _ZTSN3JSC10IfElseNodeE
059c571c V _ZTIN3JSC10IfElseNodeE
059c5728 V _ZTSN3JSC6IfNodeE
059c5738 V _ZTIN3JSC6IfNodeE
059c5744 V _ZTSN3JSC16VarStatementNodeE
059c5760 V _ZTIN3JSC16VarStatementNodeE
059c576c V _ZTSN3JSC17ExprStatementNodeE
059c5788 V _ZTIN3JSC17ExprStatementNodeE
059c5794 V _ZTSN3JSC21DebuggerStatementNodeE
059c57b4 V _ZTIN3JSC21DebuggerStatementNodeE
059c57c0 V _ZTSN3JSC18EmptyStatementNodeE
059c57dc V _ZTIN3JSC18EmptyStatementNodeE
059c57e8 V _ZTSN3JSC9BlockNodeE
059c57fc V _ZTIN3JSC9BlockNodeE
059c5808 V _ZTSN3JSC18ConstStatementNodeE
059c5824 V _ZTIN3JSC18ConstStatementNodeE
059c5830 V _ZTSN3JSC13ConstDeclNodeE
059c5848 V _ZTIN3JSC13ConstDeclNodeE
059c5854 V _ZTSN3JSC9CommaNodeE
059c5868 V _ZTIN3JSC9CommaNodeE
059c5874 V _ZTSN3JSC15AssignErrorNodeE
059c588c V _ZTIN3JSC15AssignErrorNodeE
059c58ac V _ZTSN3JSC17ReadModifyDotNodeE
059c58c8 V _ZTIN3JSC17ReadModifyDotNodeE
059c58e8 V _ZTSN3JSC13AssignDotNodeE
059c5900 V _ZTIN3JSC13AssignDotNodeE
059c5920 V _ZTSN3JSC17AssignBracketNodeE
059c593c V _ZTIN3JSC17AssignBracketNodeE
059c595c V _ZTSN3JSC21ReadModifyBracketNodeE
059c597c V _ZTIN3JSC21ReadModifyBracketNodeE
059c599c V _ZTSN3JSC17AssignResolveNodeE
059c59b8 V _ZTIN3JSC17AssignResolveNodeE
059c59d8 V _ZTSN3JSC21ReadModifyResolveNodeE
059c59f8 V _ZTIN3JSC21ReadModifyResolveNodeE
059c5a18 V _ZTSN3JSC15ConditionalNodeE
059c5a30 V _ZTIN3JSC15ConditionalNodeE
059c5a3c V _ZTSN3JSC13LogicalOpNodeE
059c5a54 V _ZTIN3JSC13LogicalOpNodeE
059c5a60 V _ZTSN3JSC15StrictEqualNodeE
059c5a78 V _ZTIN3JSC15StrictEqualNodeE
059c5a84 V _ZTSN3JSC9EqualNodeE
059c5a98 V _ZTIN3JSC9EqualNodeE
059c5aa4 V _ZTSN3JSC14InstanceOfNodeE
059c5abc V _ZTIN3JSC14InstanceOfNodeE
059c5ac8 V _ZTSN3JSC21ThrowableBinaryOpNodeE
059c5ae8 V _ZTIN3JSC21ThrowableBinaryOpNodeE
059c5b08 V _ZTSN3JSC19ReverseBinaryOpNodeE
059c5b24 V _ZTIN3JSC19ReverseBinaryOpNodeE
059c5b30 V _ZTSN3JSC12BinaryOpNodeE
059c5b48 V _ZTIN3JSC12BinaryOpNodeE
059c5b54 V _ZTSN3JSC11UnaryOpNodeE
059c5b68 V _ZTIN3JSC11UnaryOpNodeE
059c5b74 V _ZTSN3JSC15PrefixErrorNodeE
059c5b8c V _ZTIN3JSC15PrefixErrorNodeE
059c5bac V _ZTSN3JSC13PrefixDotNodeE
059c5bc4 V _ZTIN3JSC13PrefixDotNodeE
059c5be4 V _ZTSN3JSC17PrefixBracketNodeE
059c5c00 V _ZTIN3JSC17PrefixBracketNodeE
059c5c20 V _ZTSN3JSC17PrefixResolveNodeE
059c5c3c V _ZTIN3JSC17PrefixResolveNodeE
059c5c48 V _ZTSN3JSC15TypeOfValueNodeE
059c5c60 V _ZTIN3JSC15TypeOfValueNodeE
059c5c6c V _ZTSN3JSC17TypeOfResolveNodeE
059c5c88 V _ZTIN3JSC17TypeOfResolveNodeE
059c5c94 V _ZTSN3JSC8VoidNodeE
059c5ca4 V _ZTIN3JSC8VoidNodeE
059c5cb0 V _ZTSN3JSC15DeleteValueNodeE
059c5cc8 V _ZTIN3JSC15DeleteValueNodeE
059c5cd4 V _ZTSN3JSC13DeleteDotNodeE
059c5cec V _ZTIN3JSC13DeleteDotNodeE
059c5d0c V _ZTSN3JSC17DeleteBracketNodeE
059c5d28 V _ZTIN3JSC17DeleteBracketNodeE
059c5d48 V _ZTSN3JSC17DeleteResolveNodeE
059c5d64 V _ZTIN3JSC17DeleteResolveNodeE
059c5d84 V _ZTSN3JSC16PostfixErrorNodeE
059c5da0 V _ZTIN3JSC16PostfixErrorNodeE
059c5dc0 V _ZTSN3JSC14PostfixDotNodeE
059c5dd8 V _ZTIN3JSC14PostfixDotNodeE
059c5df8 V _ZTSN3JSC18PostfixBracketNodeE
059c5e14 V _ZTIN3JSC18PostfixBracketNodeE
059c5e34 V _ZTSN3JSC18PostfixResolveNodeE
059c5e50 V _ZTIN3JSC18PostfixResolveNodeE
059c5e5c V _ZTSN3JSC19FunctionCallDotNodeE
059c5e78 V _ZTIN3JSC19FunctionCallDotNodeE
059c5e98 V _ZTSN3JSC23FunctionCallBracketNodeE
059c5eb8 V _ZTIN3JSC23FunctionCallBracketNodeE
059c5ed8 V _ZTSN3JSC23FunctionCallResolveNodeE
059c5ef8 V _ZTIN3JSC23FunctionCallResolveNodeE
059c5f18 V _ZTSN3JSC21FunctionCallValueNodeE
059c5f38 V _ZTIN3JSC21FunctionCallValueNodeE
059c5f58 V _ZTSN3JSC20EvalFunctionCallNodeE
059c5f78 V _ZTIN3JSC20EvalFunctionCallNodeE
059c5f98 V _ZTSN3JSC11NewExprNodeE
059c5fac V _ZTIN3JSC11NewExprNodeE
059c5fcc V _ZTSN3JSC13ArgumentsNodeE
059c5fe4 V _ZTIN3JSC13ArgumentsNodeE
059c5ff0 V _ZTSN3JSC16ArgumentListNodeE
059c600c V _ZTIN3JSC16ArgumentListNodeE
059c6018 V _ZTSN3JSC15DotAccessorNodeE
059c6030 V _ZTIN3JSC15DotAccessorNodeE
059c6050 V _ZTSN3JSC19BracketAccessorNodeE
059c606c V _ZTIN3JSC19BracketAccessorNodeE
059c608c V _ZTSN3JSC17ObjectLiteralNodeE
059c60a8 V _ZTIN3JSC17ObjectLiteralNodeE
059c60b4 V _ZTSN3JSC16PropertyListNodeE
059c60d0 V _ZTIN3JSC16PropertyListNodeE
059c60dc V _ZTSN3JSC12PropertyNodeE
059c60f4 V _ZTIN3JSC12PropertyNodeE
059c6100 V _ZTSN3JSC9ArrayNodeE
059c6114 V _ZTIN3JSC9ArrayNodeE
059c6120 V _ZTSN3JSC11ElementNodeE
059c6134 V _ZTIN3JSC11ElementNodeE
059c6140 V _ZTSN3JSC11ResolveNodeE
059c6154 V _ZTIN3JSC11ResolveNodeE
059c6160 V _ZTSN3JSC8ThisNodeE
059c6170 V _ZTIN3JSC8ThisNodeE
059c617c V _ZTSN3JSC10RegExpNodeE
059c6190 V _ZTIN3JSC10RegExpNodeE
059c61b0 V _ZTSN3JSC10StringNodeE
059c61c4 V _ZTIN3JSC10StringNodeE
059c61d0 V _ZTSN3JSC10NumberNodeE
059c61e4 V _ZTIN3JSC10NumberNodeE
059c61f0 V _ZTSN3JSC11BooleanNodeE
059c6204 V _ZTIN3JSC11BooleanNodeE
059c6210 V _ZTSN3JSC8NullNodeE
059c6220 V _ZTIN3JSC8NullNodeE
059c622c V _ZTSN3JSC16ParserRefCountedE
059c6248 V _ZTIN3JSC16ParserRefCountedE
059c6260 V _ZTIN3JSC13StatementNodeE
059c626c V _ZTIN3JSC14ExpressionNodeE
059c6278 V _ZTIN3JSC23ThrowableExpressionDataE
059c6280 V _ZTIN3JSC26ThrowableSubExpressionDataE
059c628c V _ZTIN3JSC34ThrowablePrefixedSubExpressionDataE
059c6298 V _ZTIN3JSC18PrePostResolveNodeE
059c62b8 V _ZTIN3JSC4NodeE
059c62c4 V _ZTSN3JSC13StatementNodeE
059c62dc V _ZTSN3JSC14ExpressionNodeE
059c62f4 V _ZTSN3JSC23ThrowableExpressionDataE
059c6314 V _ZTSN3JSC26ThrowableSubExpressionDataE
059c6338 V _ZTSN3JSC34ThrowablePrefixedSubExpressionDataE
059c6364 V _ZTSN3JSC18PrePostResolveNodeE
059c6380 V _ZTSN3JSC4NodeE
059c6390 V _ZTVN3JSC14ExpressionNodeE
059c63d0 V _ZTVN3JSC4NodeE
059c63e8 V _ZTVN3JSC18PrePostResolveNodeE
059c6428 V _ZTVN3JSC13StatementNodeE
059c6458 V _ZTVN3JSC17NumberConstructorE
059c650c V _ZTSN3JSC17NumberConstructorE
059c6528 V _ZTIN3JSC17NumberConstructorE
059c6538 V _ZTVN3JSC12NumberObjectE
059c65ec V _ZTSN3JSC12NumberObjectE
059c6604 V _ZTIN3JSC12NumberObjectE
059c6610 V _ZTVN3JSC15NumberPrototypeE
059c66c4 V _ZTIN3JSC15NumberPrototypeE
059c66d0 V _ZTSN3JSC15NumberPrototypeE
059c66e8 V _ZTVN3JSC17ObjectConstructorE
059c679c V _ZTSN3JSC17ObjectConstructorE
059c67b8 V _ZTIN3JSC17ObjectConstructorE
059c67c8 V _ZTVN3JSC15ObjectPrototypeE
059c687c V _ZTIN3JSC15ObjectPrototypeE
059c6888 V _ZTSN3JSC15ObjectPrototypeE
059c68a0 V _ZTVN3JSC17PrototypeFunctionE
059c6954 V _ZTSN3JSC17PrototypeFunctionE
059c6970 V _ZTIN3JSC17PrototypeFunctionE
059c6980 V _ZTVN3JSC17RegExpConstructorE
059c6a38 V _ZTVN3JSC18RegExpMatchesArrayE
059c6aec V _ZTSN3JSC18RegExpMatchesArrayE
059c6b08 V _ZTIN3JSC18RegExpMatchesArrayE
059c6b14 V _ZTSN3JSC17RegExpConstructorE
059c6b30 V _ZTIN3JSC17RegExpConstructorE
059c6b40 V _ZTVN3JSC12RegExpObjectE
059c6bf4 V _ZTSN3JSC12RegExpObjectE
059c6c0c V _ZTIN3JSC12RegExpObjectE
059c6c18 V _ZTVN3JSC15RegExpPrototypeE
059c6ccc V _ZTIN3JSC15RegExpPrototypeE
059c6cd8 V _ZTSN3JSC15RegExpPrototypeE
059c6cf0 V _ZTVN3JSC17StringConstructorE
059c6da4 V _ZTSN3JSC17StringConstructorE
059c6dc0 V _ZTIN3JSC17StringConstructorE
059c6dd0 V _ZTVN3JSC12StringObjectE
059c6e84 V _ZTSN3JSC12StringObjectE
059c6e9c V _ZTIN3JSC12StringObjectE
059c6ea8 V _ZTVN3JSC15StringPrototypeE
059c6f5c V _ZTSN3JSC15StringPrototypeE
059c6f74 V _ZTIN3JSC15StringPrototypeE
059c6f80 V _ZTVN3JSC12HeavyProfileE
059c6f98 V _ZTIN3JSC12HeavyProfileE
059c6fa4 V _ZTSN3JSC12HeavyProfileE
059c6fc0 V _ZTVN3JSC7ProfileE
059c6fd8 V _ZTSN3JSC7ProfileE
059c6fe8 V _ZTIN3JSC7ProfileE
059c7000 V _ZTIN3WTF10RefCountedIN3JSC7ProfileEEE
059c700c V _ZTSN3WTF10RefCountedIN3JSC7ProfileEEE
059c7030 V _ZTVN3JSC11TreeProfileE
059c7048 V _ZTSN3JSC11TreeProfileE
059c705c V _ZTIN3JSC11TreeProfileE
059c7068 V _ZTVN3WTF13ThreadPrivateE
059c70a4 V _ZTSN3WTF13ThreadPrivateE
059c70bc V _ZTIN3WTF13ThreadPrivateE
059c70c8 V _ZTVN3WTF17MainThreadInvokerE
059c7100 V _ZTSN3WTF17MainThreadInvokerE
059c711c V _ZTIN3WTF17MainThreadInvokerE
059c7128 V _ZTVN3JSC13UnaryPlusNodeE
059c716c V _ZTIN3JSC13UnaryPlusNodeE
059c7178 V _ZTSN3JSC13UnaryPlusNodeE
059c7190 V _ZTVN3JSC10NegateNodeE
059c71d4 V _ZTIN3JSC10NegateNodeE
059c71e0 V _ZTSN3JSC10NegateNodeE
059c71f8 V _ZTVN3JSC14BitwiseNotNodeE
059c723c V _ZTIN3JSC14BitwiseNotNodeE
059c7248 V _ZTSN3JSC14BitwiseNotNodeE
059c7260 V _ZTVN3JSC14LogicalNotNodeE
059c72a4 V _ZTIN3JSC14LogicalNotNodeE
059c72b0 V _ZTSN3JSC14LogicalNotNodeE
059c72c8 V _ZTVN3JSC8MultNodeE
059c730c V _ZTIN3JSC8MultNodeE
059c7318 V _ZTSN3JSC8MultNodeE
059c7328 V _ZTVN3JSC7DivNodeE
059c736c V _ZTIN3JSC7DivNodeE
059c7378 V _ZTSN3JSC7DivNodeE
059c7388 V _ZTVN3JSC7ModNodeE
059c73cc V _ZTIN3JSC7ModNodeE
059c73d8 V _ZTSN3JSC7ModNodeE
059c73e8 V _ZTVN3JSC7AddNodeE
059c742c V _ZTIN3JSC7AddNodeE
059c7438 V _ZTSN3JSC7AddNodeE
059c7448 V _ZTVN3JSC7SubNodeE
059c748c V _ZTIN3JSC7SubNodeE
059c7498 V _ZTSN3JSC7SubNodeE
059c74a8 V _ZTVN3JSC13LeftShiftNodeE
059c74ec V _ZTIN3JSC13LeftShiftNodeE
059c74f8 V _ZTSN3JSC13LeftShiftNodeE
059c7510 V _ZTVN3JSC14RightShiftNodeE
059c7554 V _ZTIN3JSC14RightShiftNodeE
059c7560 V _ZTSN3JSC14RightShiftNodeE
059c7578 V _ZTVN3JSC22UnsignedRightShiftNodeE
059c75bc V _ZTIN3JSC22UnsignedRightShiftNodeE
059c75c8 V _ZTSN3JSC22UnsignedRightShiftNodeE
059c75e8 V _ZTVN3JSC8LessNodeE
059c762c V _ZTIN3JSC8LessNodeE
059c7638 V _ZTSN3JSC8LessNodeE
059c7648 V _ZTVN3JSC11GreaterNodeE
059c768c V _ZTIN3JSC11GreaterNodeE
059c7698 V _ZTSN3JSC11GreaterNodeE
059c76b0 V _ZTVN3JSC10LessEqNodeE
059c76f4 V _ZTIN3JSC10LessEqNodeE
059c7700 V _ZTSN3JSC10LessEqNodeE
059c7718 V _ZTVN3JSC13GreaterEqNodeE
059c775c V _ZTIN3JSC13GreaterEqNodeE
059c7768 V _ZTSN3JSC13GreaterEqNodeE
059c7780 V _ZTVN3JSC6InNodeE
059c77c4 V _ZTIN3JSC6InNodeE
059c77d0 V _ZTSN3JSC6InNodeE
059c77e0 V _ZTVN3JSC12NotEqualNodeE
059c7824 V _ZTIN3JSC12NotEqualNodeE
059c7830 V _ZTSN3JSC12NotEqualNodeE
059c7848 V _ZTVN3JSC18NotStrictEqualNodeE
059c788c V _ZTIN3JSC18NotStrictEqualNodeE
059c7898 V _ZTSN3JSC18NotStrictEqualNodeE
059c78b8 V _ZTVN3JSC10BitAndNodeE
059c78fc V _ZTIN3JSC10BitAndNodeE
059c7908 V _ZTSN3JSC10BitAndNodeE
059c7920 V _ZTVN3JSC10BitXOrNodeE
059c7964 V _ZTIN3JSC10BitXOrNodeE
059c7970 V _ZTSN3JSC10BitXOrNodeE
059c7988 V _ZTVN3JSC9BitOrNodeE
059c79cc V _ZTIN3JSC9BitOrNodeE
059c79d8 V _ZTSN3JSC9BitOrNodeE
059c79f0 V _ZTVN3JSC16VarDeclCommaNodeE
059c7a30 V _ZTIN3JSC16VarDeclCommaNodeE
059c7a3c V _ZTSN3JSC16VarDeclCommaNodeE
059c7a58 V _ZTVN3JSC20ParserRefCountedDataIN3WTF6VectorISt4pairINS_10IdentifierEjELj0EEEEE
059c7a6c V _ZTIN3JSC20ParserRefCountedDataIN3WTF6VectorISt4pairINS_10IdentifierEjELj0EEEEE
059c7a78 V _ZTSN3JSC20ParserRefCountedDataIN3WTF6VectorISt4pairINS_10IdentifierEjELj0EEEEE
059c7ac8 V _ZTVN3JSC20ParserRefCountedDataIN3WTF6VectorINS1_6RefPtrINS_12FuncDeclNodeEEELj0EEEEE
059c7adc V _ZTIN3JSC20ParserRefCountedDataIN3WTF6VectorINS1_6RefPtrINS_12FuncDeclNodeEEELj0EEEEE
059c7ae8 V _ZTSN3JSC20ParserRefCountedDataIN3WTF6VectorINS1_6RefPtrINS_12FuncDeclNodeEEELj0EEEEE
059c7b40 V _ZTVN3JSC14SourceElementsE
059c7b54 V _ZTIN3JSC14SourceElementsE
059c7b60 V _ZTSN3JSC14SourceElementsE
059c7d28 V _ZTVN3JSC38StringObjectThatMasqueradesAsUndefinedE
059c7ddc V _ZTIN3JSC38StringObjectThatMasqueradesAsUndefinedE
059c7de8 V _ZTSN3JSC38StringObjectThatMasqueradesAsUndefinedE
059c9260 V _ZTVN3JSC12RuntimeArrayE
059c9314 V _ZTSN3JSC12RuntimeArrayE
059c932c V _ZTIN3JSC12RuntimeArrayE
059c9338 V _ZTVN3JSC8Bindings8InstanceE
059c9390 V _ZTVN3JSC8Bindings5ArrayE
059c93ac V _ZTSN3JSC8Bindings5ArrayE
059c93c4 V _ZTIN3JSC8Bindings5ArrayE
059c93dc V _ZTSN3JSC8Bindings8InstanceE
059c93f8 V _ZTIN3JSC8Bindings8InstanceE
059c9410 V _ZTIN3WTF10RefCountedIN3JSC8Bindings8InstanceEEE
059c941c V _ZTSN3WTF10RefCountedIN3JSC8Bindings8InstanceEEE
059c9450 V _ZTVN3JSC13RuntimeMethodE
059c9504 V _ZTSN3JSC13RuntimeMethodE
059c951c V _ZTIN3JSC13RuntimeMethodE
059c9528 V _ZTVN3JSC16RuntimeObjectImpE
059c95e0 V _ZTSN3JSC16RuntimeObjectImpE
059c95fc V _ZTIN3JSC16RuntimeObjectImpE
059ca518 V _ZZ9findValuePKcjE6lookup
059cce78 V _ZZ9findValuePKcjE14wordlist_value
059cdf10 V _ZZ8findPropPKcjE6lookup
059cece4 V _ZZ8findPropPKcjE13wordlist_prop
059d71cc V _ZZ16findDoctypeEntryPKcjE8wordlist
059e679c V _ZZ9findColorPKcjE6lookup
059e6fdc V _ZZ9findColorPKcjE8wordlist
059f5468 V _ZTVN3JSC8Bindings7QtClassE
059f5488 V _ZTSN3JSC8Bindings7QtClassE
059f54a0 V _ZTIN3JSC8Bindings7QtClassE
059f54ac V _ZTIN3JSC8Bindings5ClassE
059f54c4 V _ZTSN3JSC8Bindings5ClassE
059f54e0 V _ZTVN3JSC8Bindings5FieldE
059f54fc V _ZTIN3JSC8Bindings5FieldE
059f5504 V _ZTSN3JSC8Bindings5FieldE
059f5520 V _ZTVN3JSC8Bindings5ClassE
059f5540 V _ZTVN3JSC8Bindings7QtFieldE
059f5560 V _ZTVN3JSC8Bindings10QtInstanceE
059f55c0 V _ZTVN3JSC8Bindings18QtRuntimeObjectImpE
059f5678 V _ZTSN3JSC8Bindings18QtRuntimeObjectImpE
059f569c V _ZTIN3JSC8Bindings18QtRuntimeObjectImpE
059f56a8 V _ZTSN3JSC8Bindings7QtFieldE
059f56c0 V _ZTIN3JSC8Bindings7QtFieldE
059f56cc V _ZTSN3JSC8Bindings10QtInstanceE
059f56e8 V _ZTIN3JSC8Bindings10QtInstanceE
059f56f8 V _ZTVN3JSC8Bindings18QtConnectionObjectE
059f5730 V _ZTVN3JSC8Bindings25QtRuntimeConnectionMethodE
059f57e8 V _ZTVN3JSC8Bindings19QtRuntimeMetaMethodE
059f58a0 V _ZTVN3JSC8Bindings29QtRuntimeConnectionMethodDataE
059f58b0 V _ZTVN3JSC8Bindings23QtRuntimeMetaMethodDataE
059f58c0 V _ZTVN3JSC8Bindings19QtRuntimeMethodDataE
059f58d0 V _ZTVN3JSC8Bindings15QtRuntimeMethodE
059f5984 V _ZTSN3JSC8Bindings18QtConnectionObjectE
059f59a8 V _ZTIN3JSC8Bindings18QtConnectionObjectE
059f59b4 V _ZTSN3JSC8Bindings25QtRuntimeConnectionMethodE
059f59e0 V _ZTIN3JSC8Bindings25QtRuntimeConnectionMethodE
059f59ec V _ZTSN3JSC8Bindings19QtRuntimeMetaMethodE
059f5a14 V _ZTIN3JSC8Bindings19QtRuntimeMetaMethodE
059f5a20 V _ZTSN3JSC8Bindings15QtRuntimeMethodE
059f5a44 V _ZTIN3JSC8Bindings15QtRuntimeMethodE
059f5a50 V _ZTSN3JSC8Bindings29QtRuntimeConnectionMethodDataE
059f5a80 V _ZTIN3JSC8Bindings29QtRuntimeConnectionMethodDataE
059f5a8c V _ZTSN3JSC8Bindings23QtRuntimeMetaMethodDataE
059f5ab8 V _ZTIN3JSC8Bindings23QtRuntimeMetaMethodDataE
059f5ac4 V _ZTSN3JSC8Bindings19QtRuntimeMethodDataE
059f5aec V _ZTIN3JSC8Bindings19QtRuntimeMethodDataE
059f5af8 V _ZTVN3JSC8Bindings7QtArrayI8QVariantEE
059f5b14 V _ZTIN3JSC8Bindings7QtArrayI8QVariantEE
059f5b20 V _ZTSN3JSC8Bindings7QtArrayI8QVariantEE
059f5b48 V _ZTVN3JSC8Bindings7QtArrayI7QStringEE
059f5b64 V _ZTIN3JSC8Bindings7QtArrayI7QStringEE
059f5b70 V _ZTSN3JSC8Bindings7QtArrayI7QStringEE
059f5b98 V _ZTVN3JSC8Bindings7QtArrayIP7QObjectEE
059f5bb4 V _ZTIN3JSC8Bindings7QtArrayIP7QObjectEE
059f5bc0 V _ZTSN3JSC8Bindings7QtArrayIP7QObjectEE
059f5be8 V _ZTVN3JSC8Bindings7QtArrayIiEE
059f5c04 V _ZTIN3JSC8Bindings7QtArrayIiEE
059f5c10 V _ZTSN3JSC8Bindings7QtArrayIiEE
059f6e50 V _ZTV8QWebPage
059f6eb8 V _ZTS8QWebPage
059f6ec4 V _ZTI8QWebPage
05a50bc0 V _ZTV17QWebPluginFactory
05a50c0c V _ZTS17QWebPluginFactory
05a50c20 V _ZTI17QWebPluginFactory
05a50c30 V _ZTV9QWebFrame
05a50c68 V _ZTS9QWebFrame
05a50c74 V _ZTI9QWebFrame
05a50c80 V _ZTV8QWebView
05a50d80 V _ZTS8QWebView
05a50d8c V _ZTI8QWebView
05a50d98 V _ZTV20QWebHistoryInterface
05a50dd8 V _ZTS20QWebHistoryInterface
05a50df0 V _ZTI20QWebHistoryInterface
05a50dfc D ___wrs_rtp_tls_data_start
05a50dfc D __wrs_rtp_tls_data_start
05a87e08 D _ZN3JSC10arrayTableE
05a87e14 D _ZN3JSC9dateTableE
05a87e20 D _ZN3JSC33expressionBeginOffsetPropertyNameE
05a87e24 D _ZN3JSC33expressionCaretOffsetPropertyNameE
05a87e28 D _ZN3JSC31expressionEndOffsetPropertyNameE
05a87e2c D _ZN3JSC9mainTableE
05a87e38 D _ZN3JSC9mathTableE
05a87e44 D _ZN3JSC11numberTableE
05a87e50 D _ZN3JSC22regExpConstructorTableE
05a87e5c D _ZN3JSC11regExpTableE
05a87e68 D _ZN3JSC11stringTableE
05a87e74 D _ZN3JSC7UString3Rep4nullE
05a87ea4 D _ZN3JSC7UString3Rep5emptyE
05a8c190 D manual_post_ctors
05a8c33c D manual_post_dtors
05a8c3e0 B ___wrs_rtp_tls_vars_start
05a8c3e0 B __wrs_rtp_tls_vars_start
05a8c790 B _ZN8Executor13C_BCM_Browser11m_pInstanceE
05a8c838 B _ZN8Executor18C_BCM_Connectivity11m_pInstanceE
05a8c878 B _ZN18C_HMI_INT_APP_BASE10m_instanceE
05a8c87c B _ZN21C_HMI_INT_DisplayData12m_p_instanceE
05a8c880 B _ZN12C_HMI_INT_F118m_p_class_instanceE
05a8c888 B HMI_INT_Browser
05a8c88c B _ZN15C_HMI_INT_POPUP18m_p_class_instanceE
05a8c8a8 V _ZGVZN18INET_ADDON_logging3Log9getHandleEvE8l_handle
05a8c8b0 V _ZZN18INET_ADDON_logging3Log9getHandleEvE8l_handle
05a8c900 B _ZN3JSC3NaNE
05a8c908 B _ZN3JSC3InfE
05a8c928 B _ZN3JSC8Profiler16s_sharedProfilerE
05a8c92c B _ZN3JSC8Profiler32s_sharedEnabledProfilerReferenceE
05a8de74 B _ZN3JSC8Bindings25QtRuntimeConnectionMethod11connectionsE
05a8e398 B _ZN15QWebPagePrivate6drtRunE
05a8f120 B qCleanupResources_WebKit__dest_instance__
05a8f1dc V _ZZN11QMetaTypeIdI5QListIP7QObjectEE14qt_metatype_idEvE11metatype_id
05a8f1e0 V _ZZN11QMetaTypeIdI5QListIiEE14qt_metatype_idEvE11metatype_id
05a8f1e4 V _ZZN11QMetaTypeIdI8QVariantE14qt_metatype_idEvE11metatype_id
