_Z18InitializeMetaPostv 0x04c00000
_GLOBAL__D__Z16InitializePkgWWWv 0x04c001b4
_GLOBAL__I__Z16InitializePkgWWWv 0x04c001ec
_Z16InitializePkgWWWv 0x04c00224
_ZN20C_BCM_BROWSER_SERVER20DBUS_ReadFaviconPathERSs 0x04c00338
_ZN20C_BCM_BROWSER_SERVER17DBUS_ReadUniverseERl 0x04c00390
_ZN20C_BCM_BROWSER_SERVER25DBUS_DoPostInitializationEv 0x04c003e8
_ZN20C_BCM_BROWSER_SERVER28DBUS_GetLastOpenedPageStatusERbRSs 0x04c00430
_ZN20C_BCM_BROWSER_SERVER28DBUS_SetLastOpenedPageStatusERKbRKSs 0x04c00498
_ZN20C_BCM_BROWSER_SERVER23DBUS_SetHistorySortTypeERKl 0x04c00500
_ZN20C_BCM_BROWSER_SERVER25DBUS_SetBookmarksSortTypeERKl 0x04c00558
_ZN20C_BCM_BROWSER_SERVER27DBUS_RestoreFactorySettingsEv 0x04c005b0
_ZN20C_BCM_BROWSER_SERVER19DBUS_ReadMapVersionERSs 0x04c005f8
_ZN20C_BCM_BROWSER_SERVER19DBUS_ReadSupplierIdERSs 0x04c00650
_ZN20C_BCM_BROWSER_SERVER24DBUS_ReadHardwareReleaseERSs 0x04c006a8
_ZN20C_BCM_BROWSER_SERVER24DBUS_ReadSoftwareReleaseERSs 0x04c00700
_ZN20C_BCM_BROWSER_SERVER18DBUS_ReadOffsetUTCERm 0x04c00758
_ZN20C_BCM_BROWSER_SERVER13DBUS_ReadTimeERmS0_Rb 0x04c007b0
_ZN20C_BCM_BROWSER_SERVER17DBUS_ReadTripDataERKmRmRbS2_S3_S2_S3_ 0x04c00828
_ZN20C_BCM_BROWSER_SERVER21DBUS_ReadInstTripDataERmRbS0_S1_ 0x04c008e0
_ZN20C_BCM_BROWSER_SERVER18DBUS_ReadInstSpeedERm 0x04c00968
_ZN20C_BCM_BROWSER_SERVER14DBUS_ReadUnitsERlS0_S0_S0_Rb 0x04c009c0
_ZN20C_BCM_BROWSER_SERVER17DBUS_ReadFuelTypeERl 0x04c00a58
_ZN20C_BCM_BROWSER_SERVER24DBUS_ReadNextWaypointETAERmS0_ 0x04c00ab0
_ZN20C_BCM_BROWSER_SERVER23DBUS_ReadDestinationETAERmS0_ 0x04c00b18
_ZN20C_BCM_BROWSER_SERVER21DBUS_ReadNextWaypointERdS0_S0_RSsS1_S1_ 0x04c00b80
_ZN20C_BCM_BROWSER_SERVER20DBUS_ReadDestinationERdS0_S0_RSsS1_S1_ 0x04c00c28
_ZN20C_BCM_BROWSER_SERVER23DBUS_ReadCurrentCountryERSs 0x04c00cd0
_ZN20C_BCM_BROWSER_SERVER20DBUS_ReadCurrentCityERSs 0x04c00d28
_ZN20C_BCM_BROWSER_SERVER22DBUS_ReadCurrentStreetERSs 0x04c00d80
_ZN20C_BCM_BROWSER_SERVER27DBUS_ReadCurrentCoordinatesERdS0_S0_Rm 0x04c00dd8
_ZN20C_BCM_BROWSER_SERVER28DBUS_GetInternetAvailabilityERbS0_ 0x04c00e60
_ZN20C_BCM_BROWSER_SERVER24DBUS_SaveLastVisitedPageERKb 0x04c00ec8
_ZN20C_BCM_BROWSER_SERVER18DBUS_SaveUserAgentERKSs 0x04c00f20
_ZN20C_BCM_BROWSER_SERVER24DBUS_SavePopupAcceptanceERKb 0x04c00f78
_ZN20C_BCM_BROWSER_SERVER26DBUS_SaveCookiesAcceptanceERKb 0x04c00fd0
_ZN20C_BCM_BROWSER_SERVER18DBUS_DeleteCookiesEv 0x04c01028
_ZN20C_BCM_BROWSER_SERVER15DBUS_SaveCookieERKSsS1_RKbS3_S1_S1_S1_ 0x04c01070
_ZN20C_BCM_BROWSER_SERVER30DBUS_DeleteAllUsernamePasswordEv 0x04c01128
_ZN20C_BCM_BROWSER_SERVER27DBUS_DeleteUsernamePasswordERKm 0x04c01170
_ZN20C_BCM_BROWSER_SERVER25DBUS_SaveUsernamePasswordERKSsS1_S1_RKl 0x04c011c8
_ZN20C_BCM_BROWSER_SERVER26DBUS_DeleteAllVisitedSitesEv 0x04c01250
_ZN20C_BCM_BROWSER_SERVER22DBUS_DeleteVisitedSiteERKm 0x04c01298
_ZN20C_BCM_BROWSER_SERVER20DBUS_SaveVisitedSiteERKSsS1_S1_ 0x04c012f0
_ZN20C_BCM_BROWSER_SERVER23DBUS_DeleteAllBookmarksEv 0x04c01368
_ZN20C_BCM_BROWSER_SERVER19DBUS_DeleteBookmarkERKm 0x04c013b0
_ZN20C_BCM_BROWSER_SERVER19DBUS_UpdateBookmarkERKmRKSsS3_ 0x04c01408
_ZN20C_BCM_BROWSER_SERVER17DBUS_SaveBookmarkERKSsS1_S1_ 0x04c01480
_ZN20C_BCM_BROWSER_SERVER25DBUS_SavePortalConfiguredERKb 0x04c014f8
_ZN20C_BCM_BROWSER_SERVER17DBUS_SaveHomePageERKSs 0x04c01550
_ZN20C_BCM_BROWSER_SERVER17DBUS_GetPortalURLEv 0x04c015a8
_ZN20C_BCM_BROWSER_SERVER16DBUS_GetHomePageEv 0x04c015f0
_ZN20C_BCM_BROWSER_SERVER21DBUS_ReadDrivingStateERb 0x04c01638
_ZN20C_BCM_BROWSER_SERVER17DBUS_ReadProxyURLERSs 0x04c01690
_ZN20C_BCM_BROWSER_SERVER16DBUS_ResetPortalEv 0x04c016e8
_ZN20C_BCM_BROWSER_SERVER12DBUS_ReadVINERSs 0x04c01730
_ZN20C_BCM_BROWSER_SERVER18DBUS_ReadReInitURLERSs 0x04c01788
_ZN20C_BCM_BROWSER_SERVER16DBUS_SaveSmegKeyERKSs 0x04c017e0
_ZN20C_BCM_BROWSER_SERVERD1Ev 0x04c01838
_ZN20C_BCM_BROWSER_SERVERC1EPKcS1_ 0x04c018dc
_ZN20C_BCM_BROWSER_SERVERC2EPKcS1_ 0x04c01988
_ZN20C_BCM_BROWSER_SERVERD2Ev 0x04c01a34
_ZN20C_BCM_BROWSER_SERVERD0Ev 0x04c01ad8
_ZN16BRO_Configurator22C_BCM_BRO_ConfiguratorC2Ev 0x04c01b90
_ZN16BRO_Configurator22C_BCM_BRO_Configurator7DestroyEv 0x04c01ba8
_ZN16BRO_Configurator22C_BCM_BRO_Configurator12ExecuteQueryER13CMMSQLRequest 0x04c01bfc
_ZN16BRO_Configurator22C_BCM_BRO_ConfiguratorD2Ev 0x04c01c40
_ZN16BRO_Configurator22C_BCM_BRO_Configurator19SaveBrowserDatabaseEv 0x04c01c50
_GLOBAL__I__ZN16BRO_Configurator22C_BCM_BRO_ConfiguratorC2Ev 0x04c01dbc
_ZN16BRO_Configurator22C_BCM_BRO_ConfiguratorC1Ev 0x04c01df4
_ZN16BRO_Configurator22C_BCM_BRO_ConfiguratorD0Ev 0x04c01e0c
_ZN16BRO_Configurator22C_BCM_BRO_ConfiguratorD1Ev 0x04c01e44
_ZN16BRO_Configurator22C_BCM_BRO_Configurator8PopErrorEv 0x04c01e54
_ZN16BRO_Configurator22C_BCM_BRO_Configurator9SaveErrorERKN10BRO_Common18C_BCM_ErrorHandlerEb 0x04c01f94
_ZN16BRO_Configurator22C_BCM_BRO_Configurator11RemoveErrorEi 0x04c02204
_ZN16BRO_Configurator22C_BCM_BRO_Configurator11EmptyErrorsEv 0x04c0238c
_ZN16BRO_Configurator22C_BCM_BRO_Configurator20GetWelcomePageFromUPERSs 0x04c024cc
_ZN16BRO_Configurator22C_BCM_BRO_Configurator12EmptyCookiesEv 0x04c026f0
_ZN16BRO_Configurator22C_BCM_BRO_Configurator22RemoveUsernamePasswordEi 0x04c02830
_ZN16BRO_Configurator22C_BCM_BRO_Configurator22EmptyUsernamePasswordsEv 0x04c029b8
_ZN16BRO_Configurator22C_BCM_BRO_Configurator13DBMaintenanceEv 0x04c02af8
_ZN16BRO_Configurator22C_BCM_BRO_Configurator4InitEv 0x04c02c38
_ZN16BRO_Configurator22C_BCM_BRO_Configurator20SaveUsernamePasswordERKSsS2_S2_N4DBus16E_DBUS_AUTH_TYPEE 0x04c02d84
_ZN16BRO_Configurator22C_BCM_BRO_Configurator18SetHistorySortTypeEi 0x04c03da8
_ZN16BRO_Configurator22C_BCM_BRO_Configurator20SetBookmarksSortTypeEi 0x04c03f60
_ZN16BRO_Configurator22C_BCM_BRO_Configurator19SetPortalConfiguredEb 0x04c04118
_ZN16BRO_Configurator22C_BCM_BRO_Configurator22SetSaveLastVisitedPageEb 0x04c042d0
_ZN16BRO_Configurator22C_BCM_BRO_Configurator13SaveUserAgentERKSs 0x04c04488
_ZN16BRO_Configurator22C_BCM_BRO_Configurator14UpdateBookmarkEiRKSsS2_ 0x04c04648
_ZN16BRO_Configurator22C_BCM_BRO_Configurator16SetPopupAcceptedEb 0x04c048b4
_ZN16BRO_Configurator22C_BCM_BRO_Configurator18SetCookiesAcceptedEb 0x04c04a74
_ZN16BRO_Configurator22C_BCM_BRO_Configurator12SetOffsetUTCEi 0x04c04c34
_ZN16BRO_Configurator22C_BCM_BRO_Configurator11SetHomePageERKSs 0x04c04df4
_ZN16BRO_Configurator22C_BCM_BRO_Configurator10SetSMEGKeyERKSs 0x04c04fb4
_ZN16BRO_Configurator22C_BCM_BRO_Configurator11AddBookmarkERKSsS2_S2_ 0x04c0516c
_ZN16BRO_Configurator22C_BCM_BRO_Configurator19GetPortalConfiguredERb 0x04c05bf4
_ZN16BRO_Configurator22C_BCM_BRO_Configurator22RemoveFaviconBookmarksERKSs 0x04c05e2c
_ZN16BRO_Configurator22C_BCM_BRO_Configurator17RemoveVisitedSiteEi 0x04c0622c
_ZN16BRO_Configurator22C_BCM_BRO_Configurator23DeleteOldestVisitedSiteEv 0x04c06714
_ZN16BRO_Configurator22C_BCM_BRO_Configurator14AddVisitedSiteERKSsS2_S2_ 0x04c06994
_ZN16BRO_Configurator22C_BCM_BRO_Configurator17EmptyVisitedSitesEv 0x04c07130
_ZN16BRO_Configurator22C_BCM_BRO_Configurator10GetSMEGKeyERSs 0x04c077e8
_ZN16BRO_Configurator22C_BCM_BRO_Configurator16GetPopupAcceptedERb 0x04c07a20
_ZN16BRO_Configurator22C_BCM_BRO_Configurator18GetCookiesAcceptedERb 0x04c07c90
_ZN16BRO_Configurator22C_BCM_BRO_Configurator12GetOffsetUTCERi 0x04c07ed0
_ZN16BRO_Configurator22C_BCM_BRO_Configurator11GetHomePageERSs 0x04c08128
_ZN16BRO_Configurator22C_BCM_BRO_Configurator10SaveCookieERKSsmbbS2_S2_S2_ 0x04c08364
_ZN16BRO_Configurator22C_BCM_BRO_Configurator20RemoveFaviconHistoryERKSs 0x04c0898c
_ZN16BRO_Configurator22C_BCM_BRO_Configurator21DeleteBookmarkFaviconEi 0x04c08d8c
_ZN16BRO_Configurator22C_BCM_BRO_Configurator14RemoveBookmarkEi 0x04c09164
_ZN16BRO_Configurator22C_BCM_BRO_Configurator14EmptyBookmarksEv 0x04c09308
_ZN16BRO_Configurator22C_BCM_BRO_Configurator22RestoreFactorySettingsEv 0x04c099c0
_ZN4DBus21C_BCM_BRO_DBusClients7DestroyEv 0x04c09ef4
_ZNK4DBus21C_BCM_BRO_DBusClients16ReadDrivingStateERb 0x04c09fd4
_ZNK4DBus21C_BCM_BRO_DBusClients13ReadOffsetUTCERi 0x04c09fe4
_ZN4DBus21C_BCM_BRO_DBusClients12GetOffsetUTCEv 0x04c09ff4
_ZN4DBus21C_BCM_BRO_DBusClients13GetMapVersionEv 0x04c09ffc
_ZNK4DBus21C_BCM_BRO_DBusClients22ReadCurrentCoordinatesERdS1_S1_Rm 0x04c0a004
_ZN4DBus21C_BCM_BRO_DBusClients21GetCurrentCoordinatesEv 0x04c0a00c
_ZNK4DBus21C_BCM_BRO_DBusClients17ReadCurrentStreetERSs 0x04c0a014
_ZN4DBus21C_BCM_BRO_DBusClients16GetCurrentStreetEv 0x04c0a01c
_ZNK4DBus21C_BCM_BRO_DBusClients15ReadCurrentCityERSs 0x04c0a024
_ZN4DBus21C_BCM_BRO_DBusClients14GetCurrentCityEv 0x04c0a02c
_ZNK4DBus21C_BCM_BRO_DBusClients18ReadCurrentCountryERSs 0x04c0a034
_ZN4DBus21C_BCM_BRO_DBusClients17GetCurrentCountryEv 0x04c0a03c
_ZNK4DBus21C_BCM_BRO_DBusClients15ReadDestinationERdS1_S1_RSsS2_S2_ 0x04c0a044
_ZN4DBus21C_BCM_BRO_DBusClients14GetDestinationEv 0x04c0a04c
_ZNK4DBus21C_BCM_BRO_DBusClients16ReadNextWaypointERdS1_S1_RSsS2_S2_ 0x04c0a054
_ZN4DBus21C_BCM_BRO_DBusClients15GetNextWaypointEv 0x04c0a05c
_ZNK4DBus21C_BCM_BRO_DBusClients18ReadDestinationETAERiS1_ 0x04c0a064
_ZN4DBus21C_BCM_BRO_DBusClients17GetDestinationETAEv 0x04c0a06c
_ZNK4DBus21C_BCM_BRO_DBusClients19ReadNextWaypointETAERiS1_ 0x04c0a074
_ZN4DBus21C_BCM_BRO_DBusClients18GetNextWaypointETAEv 0x04c0a07c
_ZN4DBus21C_BCM_BRO_DBusClients14getGPSRoadCodeERNS_6StructIhhhttNS_7InvalidES2_S2_S2_S2_EERl 0x04c0a084
_ZN4DBus21C_BCM_BRO_DBusClients14AddressDetailsEllRSsS1_S1_ 0x04c0a08c
_ZN4DBus21C_BCM_BRO_DBusClients14CheckUTCOffsetEv 0x04c0a094
_ZNK4DBus21C_BCM_BRO_DBusClients19GetInstSpeedChangedEv 0x04c0a09c
_ZNK4DBus21C_BCM_BRO_DBusClients22GetInstTripDataChangedEv 0x04c0a0a4
_ZNK4DBus21C_BCM_BRO_DBusClients19GetTrip1DataChangedEv 0x04c0a0ac
_ZNK4DBus21C_BCM_BRO_DBusClients19GetTrip2DataChangedEv 0x04c0a0b4
_ZN4DBus21C_BCM_BRO_DBusClients12SetOffsetUTCEi 0x04c0a0bc
_ZNK4DBus21C_BCM_BRO_DBusClients12ReadUniverseERi 0x04c0a14c
_ZNK4DBus21C_BCM_BRO_DBusClients8ReadTimeERiRbS1_S2_ 0x04c0a1e0
_ZNK4DBus21C_BCM_BRO_DBusClients12ReadTripDataEiRiRbS1_S2_S1_S2_ 0x04c0a2b0
_ZNK4DBus21C_BCM_BRO_DBusClients16ReadInstTripDataERiRbS1_S2_ 0x04c0a440
_ZNK4DBus21C_BCM_BRO_DBusClients13ReadInstSpeedERi 0x04c0a510
_ZNK4DBus21C_BCM_BRO_DBusClients9ReadUnitsERNS_17E_DBUS_UNITS_FUELERNS_21E_DBUS_UNITS_DISTANCEERNS_18E_DBUS_UNITS_SPEEDERNS_24E_DBUS_UNITS_CONSUMPTIONERb 0x04c0a5a4
_ZNK4DBus21C_BCM_BRO_DBusClients14ReadEnergyTypeERNS_22E_DBUS_UNITS_FUEL_TYPEE 0x04c0a688
_ZN4DBus21C_BCM_BRO_DBusClients8GetUnitsEv 0x04c0a71c
_ZN4DBus21C_BCM_BRO_DBusClients15GetInstTripDataEv 0x04c0a94c
_ZN4DBus21C_BCM_BRO_DBusClients14CheckInstSpeedEv 0x04c0ab00
_ZN4DBus21C_BCM_BRO_DBusClients12GetInstSpeedEv 0x04c0ad54
_ZNK4DBus21C_BCM_BRO_DBusClients17DeletePortalCacheEv 0x04c0ad80
_ZN4DBus21C_BCM_BRO_DBusClients7GetTimeEv 0x04c0adc0
_ZNK4DBus21C_BCM_BRO_DBusClients16IsRamSizeLimitedEv 0x04c0af98
_ZNK4DBus21C_BCM_BRO_DBusClients14IsDUNAvailableEv 0x04c0afcc
_ZNK4DBus21C_BCM_BRO_DBusClients13IsBTAvailableEv 0x04c0b000
_ZNK4DBus21C_BCM_BRO_DBusClients23IsInternetFlagAvailableEv 0x04c0b034
_ZN4DBus21C_BCM_BRO_DBusClients4InitEv 0x04c0b068
_GLOBAL__I__ZN4DBus21C_BCM_BRO_DBusClientsC2Ev 0x04c0b320
_ZN4DBus21C_BCM_BRO_DBusClients17CheckInstTripDataEv 0x04c0b358
_ZN4DBus21C_BCM_BRO_DBusClientsD1Ev 0x04c0b580
_ZN4DBus21C_BCM_BRO_DBusClientsD2Ev 0x04c0b6ac
_ZN4DBus21C_BCM_BRO_DBusClientsD0Ev 0x04c0b7d8
_ZNK4DBus21C_BCM_BRO_DBusClients14ReadMapVersionERSs 0x04c0b918
_ZN4DBus21C_BCM_BRO_DBusClients13CheckTripDataEv 0x04c0bab8
_ZN4DBus21C_BCM_BRO_DBusClients11GetTripDataEv 0x04c0bf00
_ZNK4DBus21C_BCM_BRO_DBusClients15ReadFaviconPathERSs 0x04c0c230
_ZN4DBus21C_BCM_BRO_DBusClients14ReadSupplierIdERSs 0x04c0c2dc
_ZNK4DBus21C_BCM_BRO_DBusClients12ReadURLProxyERSs 0x04c0c388
_ZNK4DBus21C_BCM_BRO_DBusClients16ReadPSAPortalUrlERSs 0x04c0c434
_ZNK4DBus21C_BCM_BRO_DBusClients7ReadVINERSs 0x04c0c4e0
_ZNK4DBus21C_BCM_BRO_DBusClients13ReadReinitUrlERSs 0x04c0c58c
_ZN4DBus21C_BCM_BRO_DBusClients19ReadSoftwareReleaseERSs 0x04c0c638
_ZNK4DBus21C_BCM_BRO_DBusClients19ReadHardwareReleaseERSs 0x04c0c6e4
_ZN4DBus21C_BCM_BRO_DBusClients12GetReinitUrlEv 0x04c0c790
_ZN4DBus21C_BCM_BRO_DBusClients13GetSupplierIdEv 0x04c0c91c
_ZN4DBus21C_BCM_BRO_DBusClients14GetFaviconPathEv 0x04c0d37c
_ZN4DBus21C_BCM_BRO_DBusClients11GetUniverseEv 0x04c0d604
_ZN4DBus21C_BCM_BRO_DBusClients18GetSoftwareReleaseEv 0x04c0d808
_ZN4DBus21C_BCM_BRO_DBusClients13HandleMessageERKN10BRO_Common17C_BCM_BRO_MessageE 0x04c0d91c
_ZN4DBus21C_BCM_BRO_DBusClients13GetEnergyTypeEv 0x04c0e490
_ZNK4DBus21C_BCM_BRO_DBusClients19ReadPSAPortalActiveERb 0x04c0e708
_ZNK4DBus21C_BCM_BRO_DBusClients13ReadWebActiveERb 0x04c0e8a4
_ZN4DBus21C_BCM_BRO_DBusClients20GetSpeedInternetLockEv 0x04c0ea40
_ZN4DBus21C_BCM_BRO_DBusClients11GetURLProxyEv 0x04c0ec44
_ZN4DBus21C_BCM_BRO_DBusClients6GetVINEv 0x04c0eeb4
_ZNK4DBus21C_BCM_BRO_DBusClients18ReadURLWelcomePageERSs 0x04c0fc30
_ZN4DBus21C_BCM_BRO_DBusClients17GetURLWelcomePageEv 0x04c0ff48
_ZN4DBus21C_BCM_BRO_DBusClientsC1Ev 0x04c101b8
_ZN4DBus21C_BCM_BRO_DBusClientsC2Ev 0x04c1039c
_ZN4DBus21C_BCM_BRO_DBusClients15GetPSAPortalUrlEv 0x04c10574
_ZN4DBus21C_BCM_BRO_DBusClients18GetHardwareReleaseEv 0x04c107e4
_ZN4DBus21C_BCM_BRO_DBusClients10TestJSDataEb 0x04c112a4
_ZN4DBus21C_BCM_BRO_DBusWrapperC1Ev 0x04c11424
_ZN4DBus21C_BCM_BRO_DBusWrapper7DestroyEv 0x04c1143c
_ZN4DBus21C_BCM_BRO_DBusWrapperD2Ev 0x04c11490
_ZN4DBus21C_BCM_BRO_DBusWrapper20DBUS_ReadFaviconPathERSs 0x04c114a0
_ZN4DBus21C_BCM_BRO_DBusWrapper17DBUS_ReadUniverseERi 0x04c114ec
_ZN4DBus21C_BCM_BRO_DBusWrapper25DBUS_DoPostInitializationEv 0x04c11538
_ZN4DBus21C_BCM_BRO_DBusWrapper28DBUS_GetLastOpenedPageStatusERbRSs 0x04c11574
_ZN4DBus21C_BCM_BRO_DBusWrapper19DBUS_ReadMapVersionERSs 0x04c115f0
_ZN4DBus21C_BCM_BRO_DBusWrapper19DBUS_ReadSupplierIdERSs 0x04c1163c
_ZN4DBus21C_BCM_BRO_DBusWrapper24DBUS_ReadHardwareReleaseERSs 0x04c11688
_ZN4DBus21C_BCM_BRO_DBusWrapper24DBUS_ReadSoftwareReleaseERSs 0x04c116d4
_ZN4DBus21C_BCM_BRO_DBusWrapper18DBUS_ReadOffsetUTCERi 0x04c11720
_ZN4DBus21C_BCM_BRO_DBusWrapper13DBUS_ReadTimeERiS1_Rb 0x04c1176c
_ZN4DBus21C_BCM_BRO_DBusWrapper17DBUS_ReadTripDataEiRiRbS1_S2_S1_S2_ 0x04c117d8
_ZN4DBus21C_BCM_BRO_DBusWrapper21DBUS_ReadInstTripDataERiRbS1_S2_ 0x04c11884
_ZN4DBus21C_BCM_BRO_DBusWrapper18DBUS_ReadInstSpeedERi 0x04c11900
_ZN4DBus21C_BCM_BRO_DBusWrapper14DBUS_ReadUnitsERNS_17E_DBUS_UNITS_FUELERNS_21E_DBUS_UNITS_DISTANCEERNS_18E_DBUS_UNITS_SPEEDERNS_24E_DBUS_UNITS_CONSUMPTIONERb 0x04c1194c
_ZN4DBus21C_BCM_BRO_DBusWrapper17DBUS_ReadFuelTypeERNS_22E_DBUS_UNITS_FUEL_TYPEE 0x04c119d8
_ZN4DBus21C_BCM_BRO_DBusWrapper24DBUS_ReadNextWaypointETAERiS1_ 0x04c11a24
_ZN4DBus21C_BCM_BRO_DBusWrapper23DBUS_ReadDestinationETAERiS1_ 0x04c11a80
_ZN4DBus21C_BCM_BRO_DBusWrapper21DBUS_ReadNextWaypointERdS1_S1_RSsS2_S2_ 0x04c11adc
_ZN4DBus21C_BCM_BRO_DBusWrapper20DBUS_ReadDestinationERdS1_S1_RSsS2_S2_ 0x04c11b78
_ZN4DBus21C_BCM_BRO_DBusWrapper23DBUS_ReadCurrentCountryERSs 0x04c11c14
_ZN4DBus21C_BCM_BRO_DBusWrapper20DBUS_ReadCurrentCityERSs 0x04c11c60
_ZN4DBus21C_BCM_BRO_DBusWrapper22DBUS_ReadCurrentStreetERSs 0x04c11cac
_ZN4DBus21C_BCM_BRO_DBusWrapper27DBUS_ReadCurrentCoordinatesERdS1_S1_Rm 0x04c11cf8
_ZN4DBus21C_BCM_BRO_DBusWrapper28DBUS_GetInternetAvailabilityERbS1_ 0x04c11d74
_ZN4DBus21C_BCM_BRO_DBusWrapper18DBUS_DeleteCookiesEv 0x04c11dd0
_ZN4DBus21C_BCM_BRO_DBusWrapper30DBUS_DeleteAllUsernamePasswordEv 0x04c11e38
_ZN4DBus21C_BCM_BRO_DBusWrapper26DBUS_DeleteAllVisitedSitesEv 0x04c11ea0
_ZN4DBus21C_BCM_BRO_DBusWrapper23DBUS_DeleteAllBookmarksEv 0x04c11f08
_ZN4DBus21C_BCM_BRO_DBusWrapper16DBUS_GetHomePageEv 0x04c11f70
_ZN4DBus21C_BCM_BRO_DBusWrapper16DBUS_ResetPortalEv 0x04c11fd8
_ZN4DBus21C_BCM_BRO_DBusWrapper17DBUS_GetPortalURLEv 0x04c12040
_ZN4DBus21C_BCM_BRO_DBusWrapper21DBUS_ReadDrivingStateERb 0x04c120a8
_ZN4DBus21C_BCM_BRO_DBusWrapper17DBUS_ReadProxyURLERSs 0x04c120f4
_ZN4DBus21C_BCM_BRO_DBusWrapper12DBUS_ReadVINERSs 0x04c12140
_ZN4DBus21C_BCM_BRO_DBusWrapper18DBUS_ReadReInitURLERSs 0x04c1218c
_ZN4DBus21C_BCM_BRO_DBusWrapper4InitEv 0x04c121d8
_ZN4DBus21C_BCM_BRO_DBusWrapper11sendMessageEN10BRO_Common14E_MESSAGE_TYPEERKNS1_13ContentValuesE 0x04c122a4
_GLOBAL__I__ZN4DBus21C_BCM_BRO_DBusWrapper11sendMessageEN10BRO_Common14E_MESSAGE_TYPEERKNS1_13ContentValuesE 0x04c123a8
_ZN4DBus21C_BCM_BRO_DBusWrapperC2Ev 0x04c123e0
_ZN4DBus21C_BCM_BRO_DBusWrapperD0Ev 0x04c123f8
_ZN4DBus21C_BCM_BRO_DBusWrapperD1Ev 0x04c12430
_ZN4DBus21C_BCM_BRO_DBusWrapper27DBUS_RestoreFactorySettingsEv 0x04c12440
_ZN4DBus21C_BCM_BRO_DBusWrapper33DBUSSignal_NextWaypointETAChangedEii 0x04c124a8
_ZN4DBus21C_BCM_BRO_DBusWrapper23DBUS_SetHistorySortTypeENS_16E_DBUS_SORT_TYPEE 0x04c12628
_ZN4DBus21C_BCM_BRO_DBusWrapper25DBUS_SetBookmarksSortTypeENS_16E_DBUS_SORT_TYPEE 0x04c126fc
_ZN4DBus21C_BCM_BRO_DBusWrapper24DBUS_SaveLastVisitedPageEb 0x04c127d0
_ZN4DBus21C_BCM_BRO_DBusWrapper18DBUS_SaveUserAgentERKSs 0x04c128a4
_ZN4DBus21C_BCM_BRO_DBusWrapper24DBUS_SavePopupAcceptanceEb 0x04c12978
_ZN4DBus21C_BCM_BRO_DBusWrapper26DBUS_SaveCookiesAcceptanceEb 0x04c12a4c
_ZN4DBus21C_BCM_BRO_DBusWrapper15DBUS_SaveCookieERKSsS2_bbS2_S2_S2_ 0x04c12b20
_ZN4DBus21C_BCM_BRO_DBusWrapper27DBUS_DeleteUsernamePasswordEi 0x04c12e20
_ZN4DBus21C_BCM_BRO_DBusWrapper25DBUS_SaveUsernamePasswordERKSsS2_S2_NS_16E_DBUS_AUTH_TYPEE 0x04c12ef4
_ZN4DBus21C_BCM_BRO_DBusWrapper22DBUS_DeleteVisitedSiteEi 0x04c130e4
_ZN4DBus21C_BCM_BRO_DBusWrapper20DBUS_SaveVisitedSiteERKSsS2_S2_ 0x04c131b8
_ZN4DBus21C_BCM_BRO_DBusWrapper19DBUS_DeleteBookmarkEi 0x04c1334c
_ZN4DBus21C_BCM_BRO_DBusWrapper19DBUS_UpdateBookmarkEiRKSsS2_ 0x04c13420
_ZN4DBus21C_BCM_BRO_DBusWrapper17DBUS_SaveBookmarkERKSsS2_S2_ 0x04c135b4
_ZN4DBus21C_BCM_BRO_DBusWrapper25DBUS_SavePortalConfiguredEb 0x04c13748
_ZN4DBus21C_BCM_BRO_DBusWrapper17DBUS_SaveHomePageERKSs 0x04c13808
_ZN4DBus21C_BCM_BRO_DBusWrapper16DBUS_SaveSmegKeyERKSs 0x04c138c8
_ZN4DBus21C_BCM_BRO_DBusWrapper30DBUSSignal_DrivingStateChangedEb 0x04c13988
_ZN4DBus21C_BCM_BRO_DBusWrapper29DBUSSignal_ResetPortalSuccessEv 0x04c13b00
_ZN4DBus21C_BCM_BRO_DBusWrapper37DBUSSignal_PostInitializationCompleteEv 0x04c13c70
_ZN4DBus21C_BCM_BRO_DBusWrapper22DBUSSignal_SaveSuccessENS_19E_DBUS_OPERATION_IDE 0x04c13de0
_ZN4DBus21C_BCM_BRO_DBusWrapper22DBUSSignal_TimeChangedEiib 0x04c13f58
_ZN4DBus21C_BCM_BRO_DBusWrapper24DBUSSignal_UpdateSuccessENS_19E_DBUS_OPERATION_IDE 0x04c140e0
_ZN4DBus21C_BCM_BRO_DBusWrapper23DBUSSignal_UnitsChangedENS_17E_DBUS_UNITS_FUELENS_21E_DBUS_UNITS_DISTANCEENS_18E_DBUS_UNITS_SPEEDENS_24E_DBUS_UNITS_CONSUMPTIONEb 0x04c14258
_ZN4DBus21C_BCM_BRO_DBusWrapper24DBUSSignal_DeleteSuccessENS_19E_DBUS_OPERATION_IDE 0x04c143f0
_ZN4DBus21C_BCM_BRO_DBusWrapper27DBUSSignal_InstSpeedChangedEi 0x04c14568
_ZN4DBus21C_BCM_BRO_DBusWrapper27DBUSSignal_OffsetUTCChangedEi 0x04c146e0
_ZN4DBus21C_BCM_BRO_DBusWrapper26DBUSSignal_TripDataChangedEiibibib 0x04c14858
_ZN4DBus21C_BCM_BRO_DBusWrapper23DBUSSignal_GetPortalURLERKSs 0x04c14a00
_ZN4DBus21C_BCM_BRO_DBusWrapper30DBUSSignal_InstTripDataChangedEibib 0x04c14b84
_ZN4DBus21C_BCM_BRO_DBusWrapper36DBUSSignal_CurrentCoordinatesChangedEdddm 0x04c14d14
_ZN4DBus21C_BCM_BRO_DBusWrapper32DBUSSignal_DestinationETAChangedEii 0x04c14ea4
_ZN4DBus21C_BCM_BRO_DBusWrapper29DBUSSignal_DestinationChangedEdddRKSsS2_S2_ 0x04c15024
_ZN4DBus21C_BCM_BRO_DBusWrapper31DBUSSignal_CurrentStreetChangedERKSs 0x04c151e8
_ZN4DBus21C_BCM_BRO_DBusWrapper30DBUSSignal_NextWaypointChangedEdddRKSsS2_S2_ 0x04c1536c
_ZN4DBus21C_BCM_BRO_DBusWrapper32DBUSSignal_CurrentCountryChangedERKSs 0x04c15530
_ZN4DBus21C_BCM_BRO_DBusWrapper27DBUSSignal_GetHomePageReadyERKSs 0x04c156b4
_ZN4DBus21C_BCM_BRO_DBusWrapper32CDDSignal_NewStatusCodeAvailableEbRKSs 0x04c15838
_ZN4DBus21C_BCM_BRO_DBusWrapper28DBUS_SetLastOpenedPageStatusEbRKSs 0x04c165ac
_ZN4DBus21C_BCM_BRO_DBusWrapper29DBUSSignal_CurrentCityChangedERKSs 0x04c16650
_ZN7Manager17C_BCM_BRO_Manager21EnqueueErrorProtectedERKN10BRO_Common18C_BCM_ErrorHandlerE 0x04c167d4
_ZN7Manager17C_BCM_BRO_Manager25GetLastPageLoadSuccessfulERb 0x04c167dc
_ZN7Manager17C_BCM_BRO_Manager25SetLastPageLoadSuccessfulEb 0x04c167e8
_ZNK7Manager17C_BCM_BRO_Manager16IsRamSizeLimitedEv 0x04c167f0
_ZN7Manager17C_BCM_BRO_Manager23DBUS_DeleteAllBookmarksEv 0x04c16820
_ZN7Manager17C_BCM_BRO_Manager26DBUS_DeleteAllVisitedSitesEv 0x04c16850
_ZN7Manager17C_BCM_BRO_Manager28DBUS_GetInternetAvailabilityERbS1_ 0x04c16880
_ZN7Manager17C_BCM_BRO_Manager27DBUS_RestoreFactorySettingsEv 0x04c168b0
_ZN7Manager17C_BCM_BRO_Manager28DBUS_GetLastOpenedPageStatusERbRSs 0x04c168e0
_ZNK7Manager17C_BCM_BRO_Manager12ReadTripDataEiRiRbS1_S2_S1_S2_ 0x04c16910
_ZN7Manager17C_BCM_BRO_Manager21ManageTripDataChangedEi 0x04c16944
_ZNK7Manager17C_BCM_BRO_Manager16ReadInstTripDataERiRbS1_S2_ 0x04c169f4
_ZN7Manager17C_BCM_BRO_Manager25ManageInstTripDataChangedEv 0x04c16a28
_ZNK7Manager17C_BCM_BRO_Manager16ReadDrivingStateERb 0x04c16ab0
_ZNK7Manager17C_BCM_BRO_Manager13ReadInstSpeedERi 0x04c16ae4
_ZN7Manager17C_BCM_BRO_Manager22ManageInstSpeedChangedEv 0x04c16b18
_ZN7Manager17C_BCM_BRO_Manager15ReadFaviconPathERSs 0x04c16be0
_ZN7Manager17C_BCM_BRO_Manager12ReadUniverseERi 0x04c16c14
_ZN7Manager17C_BCM_BRO_Manager14ReadSupplierIdERSs 0x04c16c48
_ZN7Manager17C_BCM_BRO_Manager19ReadSoftwareReleaseERSs 0x04c16c7c
_ZN7Manager17C_BCM_BRO_Manager19ReadHardwareReleaseERSs 0x04c16cb0
_ZN7Manager17C_BCM_BRO_Manager20DoPostInitializationEv 0x04c16ce4
_ZNK7Manager17C_BCM_BRO_Manager9ReadUnitsERN4DBus17E_DBUS_UNITS_FUELERNS1_21E_DBUS_UNITS_DISTANCEERNS1_18E_DBUS_UNITS_SPEEDERNS1_24E_DBUS_UNITS_CONSUMPTIONERb 0x04c16de0
_ZNK7Manager17C_BCM_BRO_Manager8ReadTimeERiS1_Rb 0x04c16e14
_ZNK7Manager17C_BCM_BRO_Manager17ReadCurrentStreetERSs 0x04c16e84
_ZNK7Manager17C_BCM_BRO_Manager15ReadDestinationERdS1_S1_RSsS2_S2_ 0x04c16eb8
_ZNK7Manager17C_BCM_BRO_Manager16ReadNextWaypointERdS1_S1_RSsS2_S2_ 0x04c16eec
_ZNK7Manager17C_BCM_BRO_Manager15ReadCurrentCityERSs 0x04c16f20
_ZNK7Manager17C_BCM_BRO_Manager18ReadCurrentCountryERSs 0x04c16f54
_ZNK7Manager17C_BCM_BRO_Manager18ReadDestinationETAERiS1_ 0x04c16f88
_ZNK7Manager17C_BCM_BRO_Manager19ReadNextWaypointETAERiS1_ 0x04c16fbc
_ZNK7Manager17C_BCM_BRO_Manager22ReadCurrentCoordinatesERdS1_S1_Rm 0x04c16ff0
_ZNK7Manager17C_BCM_BRO_Manager13ReadOffsetUTCERi 0x04c17024
_ZNK7Manager17C_BCM_BRO_Manager14ReadMapVersionERSs 0x04c17058
_ZNK7Manager17C_BCM_BRO_Manager12ReadFuelTypeERN4DBus22E_DBUS_UNITS_FUEL_TYPEE 0x04c1708c
_ZNK7Manager17C_BCM_BRO_Manager23GetInternetAvailabilityERbS1_ 0x04c170c0
_ZNK7Manager17C_BCM_BRO_Manager12ReadProxyURLERSs 0x04c171f4
_ZNK7Manager17C_BCM_BRO_Manager7ReadVINERSs 0x04c17228
_ZNK7Manager17C_BCM_BRO_Manager13ReadReinitUrlERSs 0x04c1725c
_ZN7Manager17C_BCM_BRO_Manager7DestroyEv 0x04c17290
_ZN7Manager17C_BCM_BRO_Manager14DequeueMessageEv 0x04c172f8
_ZN7Manager17C_BCM_BRO_Manager21GetLastPageStatusCodeERSs 0x04c173a0
_ZN7Manager17C_BCM_BRO_ManagerD2Ev 0x04c173e0
_ZN7Manager17C_BCM_BRO_Manager4InitEv 0x04c17650
_ZN7Manager17C_BCM_BRO_Manager21SetLastPageStatusCodeERKSs 0x04c17b08
_ZN7Manager17C_BCM_BRO_ManagerD0Ev 0x04c17d2c
_ZN7Manager17C_BCM_BRO_ManagerC1Ev 0x04c1802c
_ZN7Manager17C_BCM_BRO_Manager9getHandleEv 0x04c182f8
_ZN7Manager17C_BCM_BRO_ManagerC2Ev 0x04c18390
_ZN7Manager17C_BCM_BRO_Manager14EnqueueMessageERKN10BRO_Common17C_BCM_BRO_MessageE 0x04c1865c
_ZN7Manager17C_BCM_BRO_Manager13HandleMessageERKN10BRO_Common17C_BCM_BRO_MessageE 0x04c18690
_ZN7Manager17C_BCM_BRO_Manager10HandleTickEv 0x04c1a4c0
_ZN7Manager17C_BCM_BRO_ManagerD1Ev 0x04c1b4d0
_ZNK10BRO_Common17C_BCM_BRO_Message14GetMessageTypeEv 0x04c1b7f8
_ZNK10BRO_Common17C_BCM_BRO_Message3getERKSsRd 0x04c1b800
_ZNK10BRO_Common17C_BCM_BRO_Message3getERKSsRm 0x04c1b830
_ZNK10BRO_Common17C_BCM_BRO_Message3getERKSsRSs 0x04c1b860
_ZNK10BRO_Common17C_BCM_BRO_Message3getERKSsRb 0x04c1b890
_ZNK10BRO_Common17C_BCM_BRO_Message3getERKSsRi 0x04c1b8c0
_ZN10BRO_Common17C_BCM_BRO_MessageC1Ev 0x04c1b8f0
_ZN10BRO_Common17C_BCM_BRO_MessageC2Ev 0x04c1b928
_ZN10BRO_Common17C_BCM_BRO_MessageC1ENS_14E_MESSAGE_TYPEE 0x04c1b960
_ZN10BRO_Common17C_BCM_BRO_MessageC2ENS_14E_MESSAGE_TYPEE 0x04c1b994
_ZN10BRO_Common17C_BCM_BRO_MessageD1Ev 0x04c1b9c8
_ZN10BRO_Common17C_BCM_BRO_MessageD2Ev 0x04c1bb9c
_ZN10BRO_Common17C_BCM_BRO_MessageC1ENS_14E_MESSAGE_TYPEERKNS_13ContentValuesE 0x04c1bde8
_ZN10BRO_Common17C_BCM_BRO_MessageC2ENS_14E_MESSAGE_TYPEERKNS_13ContentValuesE 0x04c1be20
_ZNK10BRO_Common17C_BCM_BRO_Message8toStringEv 0x04c1be58
_ZN8Executor19C_BCM_BRO_Messenger11SendMessageERKN10BRO_Common17C_BCM_BRO_MessageE 0x04c1cea8
_ZN8Executor19C_BCM_BRO_Messenger11SendMessageERN10BRO_Common14E_MESSAGE_TYPEE 0x04c1cfdc
_ZN8Executor13C_BCM_Browser6UnlockEv 0x04c1d054
_ZN8Executor13C_BCM_Browser4LockEv 0x04c1d084
_ZN8Executor13C_BCM_Browser11DeleteTimerERP7C_Timer 0x04c1d0b4
_ZN8Executor13C_BCM_Browser9StopTimerEP7C_Timer 0x04c1d120
_ZN8Executor13C_BCM_Browser13StartTimerSecEP7C_Timeri 0x04c1d194
_ZN8Executor13C_BCM_Browser12startPollingEv 0x04c1d1e0
_ZN8Executor13C_BCM_Browser11CreateTimerERP7C_TimerPFizE 0x04c1d26c
_ZN8Executor13C_BCM_Browser20CheckInternetFoldersEv 0x04c1d37c
_ZN8Executor13C_BCM_Browser12deleteCachesEv 0x04c1d4d4
_ZN8Executor13C_BCM_Browser27EmitSignalHttpCodeAvailableEv 0x04c1d508
_ZN8Executor13C_BCM_Browser18DeleteAllBookmarksEv 0x04c1d538
_ZN8Executor13C_BCM_Browser21DeleteAllVisitedSitesEv 0x04c1d578
_ZN8Executor13C_BCM_Browser23GetInternetAvailabilityERbS1_ 0x04c1d5b8
_ZN8Executor13C_BCM_Browser22RestoreFactorySettingsEv 0x04c1d618
_ZN8Executor13C_BCM_Browser26restoreFactorySettingCbackEv 0x04c1d658
_ZN8Executor13C_BCM_Browser23GetLastOpenedPageStatusERbRSs 0x04c1d694
_ZN8Executor13C_BCM_Browser17SendActiveMessageENS_25t_bcm_browser_msg_privateE 0x04c1d6f4
_ZN8Executor13C_BCM_Browser25GenerateSlowSignalPollingEPS0_ 0x04c1d784
_ZN8Executor13C_BCM_Browser25GenerateFastSignalPollingEPS0_ 0x04c1d7bc
_ZN8Executor13C_BCM_Browser8SendTickEv 0x04c1d7f4
_ZN8Executor13C_BCM_Browser13HandleMessageEttsPci 0x04c1d880
_ZN8Executor13C_BCM_Browser12RemoveEventsEv 0x04c1d9dc
_ZN8Executor13C_BCM_Browser14RegisterEventsEv 0x04c1da14
_ZN8Executor13C_BCM_Browser3EndEi 0x04c1da54
_ZN8Executor13C_BCM_Browser4InitEv 0x04c1db70
_ZN8Executor13C_BCM_Browser7StartUpEv 0x04c1dca0
_ZN8Executor13C_BCM_BrowserD2Ev 0x04c1dd3c
_ZN8Executor13C_BCM_BrowserC1Ev 0x04c1ddec
_ZN8Executor13C_BCM_Browser8InstanceEv 0x04c1deac
_ZN8Executor13C_BCM_BrowserC2Ev 0x04c1df7c
_ZN8Executor13C_BCM_BrowserD1Ev 0x04c1e03c
_ZN8Executor13C_BCM_BrowserD0Ev 0x04c1e0ec
_ZN8Executor13C_BCM_Browser17GetFlashCachePathEv 0x04c1e1b4
_ZN19C_BCM_DC_BRW_CLIENTC2EPKcS1_ 0x04c1e874
_ZN19C_BCM_DC_BRW_CLIENTD1Ev 0x04c1e928
_ZN19C_BCM_DC_BRW_CLIENTC1EPKcS1_ 0x04c1e9d0
_ZN19C_BCM_DC_BRW_CLIENTD2Ev 0x04c1ea84
_ZN19C_BCM_DC_BRW_CLIENTD0Ev 0x04c1eb2c
_ZN19C_BCM_DC_BRW_CLIENT17date_time_changedERKN4DBus6StructIhhthtbNS0_7InvalidES2_S2_S2_EERKNS1_IhhbhbblbS2_S2_EERKl 0x04c1ebe8
_ZN22C_BCM_Drive_BRW_CLIENTC2EPKcS1_ 0x04c1feec
_ZN22C_BCM_Drive_BRW_CLIENTD1Ev 0x04c1ffa0
_ZN22C_BCM_Drive_BRW_CLIENTC1EPKcS1_ 0x04c20048
_ZN22C_BCM_Drive_BRW_CLIENTD2Ev 0x04c200fc
_ZN22C_BCM_Drive_BRW_CLIENTD0Ev 0x04c201a4
_ZN22C_BCM_Drive_BRW_CLIENT18SystemUnitsChangedERKN4DBus6StructIllllNS0_7InvalidES2_S2_S2_S2_S2_EERKb 0x04c20260
_ZNK10BRO_Common18C_BCM_ErrorHandler14GetErrorHeaderEv 0x04c21568
_ZNK10BRO_Common18C_BCM_ErrorHandler12GetErrorDateEv 0x04c21570
_ZN10BRO_Common18C_BCM_ErrorHandlerD1Ev 0x04c21578
_ZNK10BRO_Common18C_BCM_ErrorHandler19GetErrorDescriptionEv 0x04c215fc
_ZN10BRO_Common18C_BCM_ErrorHandlerD2Ev 0x04c2184c
_ZN10BRO_Common18C_BCM_ErrorHandlerC2ENS_8E_STATUSE 0x04c218d0
_ZN10BRO_Common18C_BCM_ErrorHandlerC1ENS_8E_STATUSE 0x04c219c0
_ZN21C_BCM_NAVI_BRW_CLIENTC2EPKcS1_ 0x04c21ab0
_ZN21C_BCM_NAVI_BRW_CLIENTC1EPKcS1_ 0x04c21c7c
_ZN21C_BCM_NAVI_BRW_CLIENTD1Ev 0x04c21e48
_ZN21C_BCM_NAVI_BRW_CLIENTD2Ev 0x04c22064
_ZN21C_BCM_NAVI_BRW_CLIENTD0Ev 0x04c22280
_ZN21C_BCM_NAVI_BRW_CLIENT10gps_signalERKlS1_ 0x04c224b0
_ZN21C_BCM_NAVI_BRW_CLIENT9ri_signalERKl 0x04c22b7c
_ZN21C_BCM_NAVI_BRW_CLIENT9rg_signalERKl 0x04c23280
_ZN19C_BCM_NA_BRW_CLIENTD2Ev 0x04c23920
_ZN19C_BCM_NA_BRW_CLIENTC1EPKcS1_ 0x04c23964
_ZN19C_BCM_NA_BRW_CLIENTC2EPKcS1_ 0x04c239c0
_ZN19C_BCM_NA_BRW_CLIENTD0Ev 0x04c23a1c
_ZN19C_BCM_NA_BRW_CLIENTD1Ev 0x04c23a80
_ZN19C_BCM_NA_BRW_CLIENT16InstSpeedChangedERKtRKb 0x04c23ac4
_ZN20C_BCM_NVI_BRW_CLIENTC2EPKcS1_ 0x04c241d8
_ZN20C_BCM_NVI_BRW_CLIENTC1EPKcS1_ 0x04c2423c
_ZN20C_BCM_NVI_BRW_CLIENTD2Ev 0x04c242a0
_ZN20C_BCM_NVI_BRW_CLIENTD0Ev 0x04c242f0
_ZN20C_BCM_NVI_BRW_CLIENTD1Ev 0x04c24360
_ZN20C_BCM_NVI_BRW_CLIENT28InstantaneousTripDataChangedERKN4DBus6StructItbmbmbmbNS0_7InvalidES2_EE 0x04c243b0
_ZN20C_BCM_NVI_BRW_CLIENT15TripDataChangedERKlRKN4DBus6StructItbtbmbtbNS2_7InvalidES4_EE 0x04c247d0
_ZN19C_BCM_UP_BRW_CLIENTD1Ev 0x04c24fd0
_ZN19C_BCM_UP_BRW_CLIENTC1EPKcS1_ 0x04c25014
_ZN19C_BCM_UP_BRW_CLIENTC2EPKcS1_ 0x04c25070
_ZN19C_BCM_UP_BRW_CLIENTD2Ev 0x04c250cc
_ZN19C_BCM_UP_BRW_CLIENTD0Ev 0x04c25110
_ZN16BRO_Configurator13SelectRequest15setOrderingTypeENS0_15E_ORDERING_TYPEE 0x04c25174
_ZN16BRO_Configurator13SelectRequest8setLimitEi 0x04c2517c
_ZN16BRO_Configurator13SelectRequest9setOffsetEi 0x04c25184
_ZNK10BRO_Common13ContentValues4sizeEv 0x04c2518c
_ZNK10BRO_Common13ContentValues5emptyEv 0x04c251bc
_GLOBAL__D__ZN16BRO_Configurator14GenericRequestC2Ev 0x04c252fc
_GLOBAL__I__ZN16BRO_Configurator14GenericRequestC2Ev 0x04c25334
_ZN10BRO_Common13ContentValues5clearEv 0x04c2536c
_ZN16BRO_Configurator14GenericRequestD0Ev 0x04c25414
_ZN16BRO_Configurator14GenericRequestD1Ev 0x04c25498
_ZN16BRO_Configurator14GenericRequestD2Ev 0x04c25508
_ZN16BRO_Configurator13DeleteRequest4InitERKSsS2_ 0x04c25578
_ZN10BRO_Common13ContentValues12stringToDateERKSs 0x04c25878
_ZN16BRO_Configurator13SelectRequest18addOrderingElementERKSs 0x04c25d28
_ZNK10BRO_Common13ContentValues3getERKSsRm 0x04c25df8
_ZNK10BRO_Common13ContentValues3getERKSsRb 0x04c26040
_ZNK10BRO_Common13ContentValues3getEiRd 0x04c262d8
_ZNK10BRO_Common13ContentValues3getEiRi 0x04c264dc
_ZNK10BRO_Common13ContentValues6typeAtEi 0x04c2670c
_ZNK10BRO_Common13ContentValues3getERKSsRSs 0x04c26780
_ZNK10BRO_Common13ContentValues6getKeyEi 0x04c269f8
_ZN16BRO_Configurator13UpdateRequest4InitERKSsS2_ 0x04c26abc
_ZN16BRO_Configurator13InsertRequest4InitERKSs 0x04c26ed8
_ZN10BRO_Common13ContentValues12dateToStringEm 0x04c272d4
_ZNK16BRO_Configurator14GenericRequest8toStringEv 0x04c27384
_ZNK16BRO_Configurator14GenericRequest7getTypeEP12sqlite3_stmti 0x04c273e4
_ZNK10BRO_Common13ContentValues3getEiRSs 0x04c27968
_ZNK10BRO_Common13ContentValues3getERKSsRi 0x04c27b9c
_ZN10BRO_Common13ContentValues3setERKSsb 0x04c27ddc
_ZN10BRO_Common13ContentValues3setERKSsi 0x04c28088
_ZN10BRO_Common13ContentValues3addERKSs 0x04c282c4
_ZN10BRO_Common13ContentValues3addERKSsS2_ 0x04c28384
_ZN10BRO_Common13ContentValues3addERKSsPKc 0x04c2850c
_ZN10BRO_Common13ContentValues3addERKSsi 0x04c2859c
_ZN10BRO_Common13ContentValues3setERKSsd 0x04c286e0
_ZNK10BRO_Common13ContentValues3getERKSsRd 0x04c28930
_ZN10BRO_Common13ContentValues3addERKSsm 0x04c28b84
_ZN10BRO_Common13ContentValuesC2ERKSsPKc 0x04c28cd8
_ZN10BRO_Common13ContentValues3addERKSsd 0x04c28dc8
_ZN10BRO_Common13ContentValues3setERKSsm 0x04c28f1c
_ZNK10BRO_Common13ContentValues3getEiRm 0x04c2916c
_ZNK10BRO_Common13ContentValues3getEiRb 0x04c29370
_ZNK10BRO_Common13ContentValues13valueToStringEi 0x04c29580
_ZN16BRO_Configurator14GenericRequest10bindValuesEP12sqlite3_stmtRKN10BRO_Common13ContentValuesE 0x04c2a20c
_ZN16BRO_Configurator13SelectRequest13HandleBindingEP12sqlite3_stmt 0x04c2a5a8
_ZN16BRO_Configurator13DeleteRequest13HandleBindingEP12sqlite3_stmt 0x04c2a624
_ZN16BRO_Configurator13UpdateRequest13HandleBindingEP12sqlite3_stmt 0x04c2a6a0
_ZN16BRO_Configurator13InsertRequest13HandleBindingEP12sqlite3_stmt 0x04c2a730
_ZN10BRO_Common13ContentValues3setERKSsS2_ 0x04c2a764
_ZN10BRO_Common13ContentValuesC1ERKSsi 0x04c2a9b4
_ZN10BRO_Common13ContentValuesC2Ev 0x04c2aa8c
_ZN10BRO_Common13ContentValuesC2ERKSsm 0x04c2ab18
_ZN10BRO_Common13ContentValuesC2ERKSsS2_ 0x04c2ac00
_ZN10BRO_Common13ContentValuesC1ERKSsPKc 0x04c2ace0
_ZN10BRO_Common13ContentValuesC1ERKSsd 0x04c2adc0
_ZN10BRO_Common13ContentValuesC2ERKSsd 0x04c2ae90
_ZN10BRO_Common13ContentValuesC2ERKSsi 0x04c2af70
_ZN10BRO_Common13ContentValuesC1ERKSsm 0x04c2b050
_ZN10BRO_Common13ContentValuesC1ERKSsS2_ 0x04c2b130
_ZN10BRO_Common13ContentValuesC1Ev 0x04c2b210
_ZN16BRO_Configurator14GenericRequestC1Ev 0x04c2b2b4
_ZN16BRO_Configurator14GenericRequestC2Ev 0x04c2b328
_ZN16BRO_Configurator13SelectRequestC1ERKSsS2_RSt6vectorIN10BRO_Common13ContentValuesESaIS5_EES2_RKS5_ 0x04c2b39c
_ZN16BRO_Configurator13SelectRequestC2ERKSsS2_RSt6vectorIN10BRO_Common13ContentValuesESaIS5_EES2_RKS5_ 0x04c2b4e0
_ZN16BRO_Configurator13SelectRequestC1ERKSsRKSt6vectorISsSaISsEERS3_IN10BRO_Common13ContentValuesESaIS9_EES2_RKS9_ 0x04c2b624
_ZN16BRO_Configurator13SelectRequestC2ERKSsRKSt6vectorISsSaISsEERS3_IN10BRO_Common13ContentValuesESaIS9_EES2_RKS9_ 0x04c2b7bc
_ZN16BRO_Configurator13DeleteRequestC1ERKSsS2_RKN10BRO_Common13ContentValuesE 0x04c2ba24
_ZN16BRO_Configurator13DeleteRequestC2ERKSsS2_RKN10BRO_Common13ContentValuesE 0x04c2bac0
_ZN16BRO_Configurator13UpdateRequestC1ERKSsRKN10BRO_Common13ContentValuesES2_S6_ 0x04c2bb5c
_ZN16BRO_Configurator13UpdateRequestC2ERKSsRKN10BRO_Common13ContentValuesES2_S6_ 0x04c2bc1c
_ZN16BRO_Configurator13InsertRequestC1ERKSsRKN10BRO_Common13ContentValuesE 0x04c2bcdc
_ZN16BRO_Configurator13InsertRequestC2ERKSsRKN10BRO_Common13ContentValuesE 0x04c2bd68
_ZN16BRO_Configurator13SelectRequest4InitEv 0x04c2bdf4
_ZNK10BRO_Common13ContentValues8toStringEv 0x04c2c854
_ZN10BRO_Common13ContentValues3addERKSsb 0x04c2cd30
_ZN10BRO_Common13ContentValuesC1ERKSsb 0x04c2d2fc
_ZN10BRO_Common13ContentValuesC2ERKSsb 0x04c2d3dc
_ZN16BRO_Configurator13SelectRequest14HandleResponseEP12sqlite3_stmt 0x04c2d4c4
_ZN8Executor21C_BCM_CON_Cheat_CodesC2Ev 0x04c2d8c0
_ZN8Executor21C_BCM_CON_Cheat_CodesC1Ev 0x04c2d8d0
_ZN8Executor21C_BCM_CON_Cheat_Codes10CustomPingEPc 0x04c2d8e0
_ZN8Executor21C_BCM_CON_Cheat_Codes16NetinfoCheatCodeER9CMMString 0x04c2d938
_ZN8Executor21C_BCM_CON_Cheat_Codes13PingCheatCodeERKSsiR9CMMString 0x04c2db04
_ZN8Executor21C_BCM_CON_Cheat_CodesD0Ev 0x04c2dd44
_ZN8Executor21C_BCM_CON_Cheat_CodesD1Ev 0x04c2dd7c
_ZN8Executor21C_BCM_CON_Cheat_CodesD2Ev 0x04c2dd8c
_GLOBAL__I__ZN8Executor21C_BCM_CON_Cheat_CodesC2Ev 0x04c2de34
_ZN12Configurator22C_BCM_CON_ConfiguratorC2Ev 0x04c2de6c
_ZN12Configurator22C_BCM_CON_Configurator7DestroyEv 0x04c2de84
_ZN12Configurator22C_BCM_CON_Configurator13HandleMessageERKN6Common17C_BCM_CON_MessageE 0x04c2ded8
_ZN12Configurator22C_BCM_CON_ConfiguratorD2Ev 0x04c2dee0
_ZN12Configurator22C_BCM_CON_Configurator24SaveConnectivityDatabaseEv 0x04c2def0
_ZN12Configurator22C_BCM_CON_Configurator4InitEv 0x04c2dfc4
_GLOBAL__I__ZN12Configurator22C_BCM_CON_ConfiguratorC2Ev 0x04c2e16c
_ZN12Configurator22C_BCM_CON_ConfiguratorC1Ev 0x04c2e1a4
_ZN12Configurator22C_BCM_CON_ConfiguratorD0Ev 0x04c2e1bc
_ZN12Configurator22C_BCM_CON_ConfiguratorD1Ev 0x04c2e1f4
_ZN12Configurator22C_BCM_CON_Configurator8sWifiNetC2Ev 0x04c2e204
_ZNK12Configurator22C_BCM_CON_Configurator8sWifiNet8toStringEv 0x04c2e270
_ZN12Configurator22C_BCM_CON_Configurator8sWifiNetC1Ev 0x04c2f33c
_ZN12Configurator22C_BCM_CON_Configurator17clearWifiNetworksEv 0x04c2f3a8
_ZN12Configurator22C_BCM_CON_Configurator14addWifiNetworkERKNS0_8sWifiNetE 0x04c2f4e4
_ZN12Configurator22C_BCM_CON_Configurator10setProfileERKN6Common9Profile_tE 0x04c2f6d0
_ZN12Configurator22C_BCM_CON_Configurator17setRoamingAllowedEN6Common13E_DEVICE_TYPEEb 0x04c30364
_ZN12Configurator22C_BCM_CON_Configurator17setDevicePriorityERA5_KN6Common13E_DEVICE_TYPEE 0x04c30560
_ZN12Configurator22C_BCM_CON_Configurator17updatePinAttemptsERKSsi 0x04c30984
_ZN12Configurator22C_BCM_CON_Configurator15removeStoredPinERKSs 0x04c30b80
_ZN12Configurator22C_BCM_CON_Configurator18setDeviceUsabilityEN6Common13E_DEVICE_TYPEEb 0x04c30d0c
_ZN12Configurator22C_BCM_CON_Configurator15getWifiNetworksERSt6vectorINS0_8sWifiNetESaIS2_EE 0x04c30f08
_ZNK12Configurator22C_BCM_CON_Configurator17getDevicePriorityERA5_N6Common13E_DEVICE_TYPEE 0x04c314e8
_ZNK12Configurator22C_BCM_CON_Configurator14getPinAttemptsERKSsRi 0x04c318b0
_ZNK12Configurator22C_BCM_CON_Configurator19getWifiNetworkPowerERKSsRi 0x04c31b9c
_ZNK12Configurator22C_BCM_CON_Configurator10getProfileERN6Common9Profile_tE 0x04c31e44
_ZNK12Configurator22C_BCM_CON_Configurator17getRoamingAllowedEN6Common13E_DEVICE_TYPEERb 0x04c33a0c
_ZN12Configurator22C_BCM_CON_Configurator17updatePukAttemptsERKSsb 0x04c33cb4
_ZN12Configurator22C_BCM_CON_Configurator17updatePinAttemptsERKSsb 0x04c341d0
_ZNK12Configurator22C_BCM_CON_Configurator12getStoredPinERKSsRSs 0x04c3470c
_ZN12Configurator22C_BCM_CON_Configurator12setStoredPinERKSsS2_ 0x04c34a24
_ZNK12Configurator22C_BCM_CON_Configurator18getDeviceUsabilityEN6Common13E_DEVICE_TYPEERb 0x04c34e80
_ZN12Configurator22C_BCM_CON_Configurator25setConnectionDataTransferEii 0x04c3516c
_ZN12Configurator22C_BCM_CON_Configurator25getConnectionDataTransferERiS1_ 0x04c35400
_ZN12Configurator22C_BCM_CON_Configurator11EmptyErrorsEv 0x04c3588c
_ZN12Configurator22C_BCM_CON_Configurator22restoreFactorySettingsEv 0x04c35a3c
_ZNK12Configurator22C_BCM_CON_Configurator14getPukAttemptsERKSsRi 0x04c372c4
_ZNK9Connector19C_BCM_CON_Connector19Get3GConnectionTypeERN6Common14E_3G_CONN_TYPEE 0x04c37660
_ZNK9Connector19C_BCM_CON_Connector16Get3GNetworkNameERSs 0x04c37668
_ZN9Connector19C_BCM_CON_Connector6SetPINERKSs 0x04c37670
_ZN9Connector19C_BCM_CON_Connector11Get3GStatusERN6Common18E_3G_DEVICE_STATUSE 0x04c37678
_ZN9Connector19C_BCM_CON_Connector6SetPUKERKSs 0x04c37680
_ZNK9Connector19C_BCM_CON_Connector8GetStateEv 0x04c37688
_ZN9Connector19C_BCM_CON_Connector14UpdateWiFiListERSt4listIN12Configurator22C_BCM_CON_Configurator8sWifiNetESaIS4_EE 0x04c37690
_ZNK9Connector19C_BCM_CON_Connector17GetWifiMACAddressERSs 0x04c37698
_ZN9Connector19C_BCM_CON_Connector14Create3gDeviceEv 0x04c376a0
_ZN9Connector19C_BCM_CON_Connector16CreateWiFiDeviceEv 0x04c376a8
_ZNK9Connector19C_BCM_CON_Connector26GetConnectedDeviceInstanceEPPNS_23C_BCM_CON_GenericDriverE 0x04c376b0
_ZNK9Connector19C_BCM_CON_Connector18FindAttachedDeviceEN6Common13E_DEVICE_TYPEEPPNS_23C_BCM_CON_GenericDriverE 0x04c376cc
_ZNK9Connector19C_BCM_CON_Connector16GetSignalQualityEN6Common13E_DEVICE_TYPEERi 0x04c3779c
_ZNK9Connector19C_BCM_CON_Connector13GetStatisticsERNS_12statistics_sE 0x04c377f8
_ZNK9Connector19C_BCM_CON_Connector18GetConnectedDeviceERN6Common13E_DEVICE_TYPEE 0x04c378c4
_ZN9Connector19C_BCM_CON_Connector17SetRoamingAllowedEb 0x04c3792c
_ZNK9Connector19C_BCM_CON_Connector10Get3GSimIdERSs 0x04c37938
_ZN9Connector12statistics_sC2Emmmmm 0x04c37940
_ZN9Connector12statistics_sC1Emmmmm 0x04c37958
_ZNK9Connector19C_BCM_CON_Connector16IsDeviceAttachedEN6Common13E_DEVICE_TYPEE 0x04c37970
_ZN9Connector19C_BCM_CON_Connector15DoDestroyDeviceEN6Common13E_DEVICE_TYPEE 0x04c37a18
_ZN9Connector19C_BCM_CON_Connector24ResetInterfaceStatisticsEv 0x04c37b44
_ZN9Connector19C_BCM_CON_Connector13SuspendPMSKeyEv 0x04c37c64
_ZN9Connector19C_BCM_CON_Connector23DUNDestroyPPPConnectionEv 0x04c37cc8
_ZN9Connector19C_BCM_CON_Connector12updatePPPDNSEv 0x04c37d20
_ZN9Connector19C_BCM_CON_Connector13initializePPPEv 0x04c37e2c
_ZN9Connector19C_BCM_CON_Connector8closePANEv 0x04c37fec
_ZN9Connector19C_BCM_CON_Connector7DestroyEv 0x04c3805c
_ZN9Connector19C_BCM_CON_Connector13initializePANEv 0x04c380ac
_ZN9Connector19C_BCM_CON_Connector9EnablePMSEb 0x04c3813c
_ZN9Connector19C_BCM_CON_Connector4InitEv 0x04c38224
_GLOBAL__I__ZN9Connector19C_BCM_CON_ConnectorC2Ev 0x04c38314
_ZN9Connector19C_BCM_CON_ConnectorC1Ev 0x04c3834c
_ZN9Connector19C_BCM_CON_ConnectorC2Ev 0x04c383d8
_ZN9Connector19C_BCM_CON_ConnectorD0Ev 0x04c38464
_ZN9Connector19C_BCM_CON_ConnectorD2Ev 0x04c38540
_ZN9Connector19C_BCM_CON_ConnectorD1Ev 0x04c38610
_ZN9Connector19C_BCM_CON_Connector14CreateBTDeviceEv 0x04c386e0
_ZN9Connector19C_BCM_CON_Connector19CreateUSB_CDCDeviceEv 0x04c3891c
_ZN9Connector19C_BCM_CON_Connector14DoCreateDeviceEN6Common13E_DEVICE_TYPEE 0x04c38bcc
_ZN9Connector19C_BCM_CON_Connector17CreateBTPANDeviceEv 0x04c38c80
_ZN9Connector19C_BCM_CON_Connector11ChangeStateENS_17E_CONNECTOR_STATEE 0x04c39cdc
_ZN9Connector19C_BCM_CON_Connector18DoConnectionFailedEv 0x04c3a1cc
_ZN9Connector19C_BCM_CON_Connector12DoDisconnectEv 0x04c3a1fc
_ZN9Connector19C_BCM_CON_Connector10DisconnectEv 0x04c3a274
_ZN9Connector19C_BCM_CON_Connector16WaitToDisconnectEv 0x04c3a2a0
_ZN9Connector19C_BCM_CON_Connector13WaitToConnectERKN6Common9Profile_tE 0x04c3a2d4
_ZN9Connector19C_BCM_CON_Connector9DoConnectERKN6Common9Profile_tE 0x04c3a308
_ZN9Connector19C_BCM_CON_Connector14DoDisconnectedEv 0x04c3a3ac
_ZN9Connector19C_BCM_CON_Connector7ConnectERN6Common9Profile_tE 0x04c3a438
_ZN9Connector19C_BCM_CON_Connector11DoReconnectERN6Common9Profile_tE 0x04c3a5a0
_ZN9Connector19C_BCM_CON_Connector23DoConnectionEstablishedEPNS_23C_BCM_CON_GenericDriverE 0x04c3a62c
_ZNK9Connector12statistics_s8toStringEv 0x04c3a73c
_ZN9Connector19C_BCM_CON_Connector13HandleMessageERKN6Common17C_BCM_CON_MessageE 0x04c3acbc
_ZN7Manager21C_BCM_CON_DbusHandler11HandleErrorEN6Common8E_STATUSE 0x04c3bf6c
_ZN7Manager21C_BCM_CON_DbusHandler22DBUS_GetWifiMACAddressERSs 0x04c3bfe0
_ZN7Manager21C_BCM_CON_DbusHandler21DBUS_IsDeviceAttachedENS_18E_DBUS_DEVICE_TYPEERb 0x04c3c054
_ZN7Manager21C_BCM_CON_DbusHandlerD0Ev 0x04c3c0b0
_ZN7Manager21C_BCM_CON_DbusHandlerD1Ev 0x04c3c108
_ZN7Manager21C_BCM_CON_DbusHandlerD2Ev 0x04c3c140
_ZN7Manager21C_BCM_CON_DbusHandlerC1Ev 0x04c3c178
_ZN7Manager21C_BCM_CON_DbusHandlerC2Ev 0x04c3c1bc
_ZN7Manager21C_BCM_CON_DbusHandler23DBUS_GetConnectionStateERNS_23E_DBUS_CONNECTION_STATEE 0x04c3c200
_ZN7Manager21C_BCM_CON_DbusHandler27DBUS_GetWifiConnectionStateERNS_23E_DBUS_CONNECTION_STATEE 0x04c3c284
_ZN7Manager21C_BCM_CON_DbusHandler26DBUS_GetDunConnectionStateERNS_23E_DBUS_CONNECTION_STATEE 0x04c3c320
_ZN7Manager21C_BCM_CON_DbusHandler33DBUS_GetModem3GKeyConnectionStateERNS_23E_DBUS_CONNECTION_STATEE 0x04c3c3bc
_GLOBAL__I__ZN7Manager21C_BCM_CON_DbusHandlerC2Ev 0x04c3c4f0
_ZN7Manager21C_BCM_CON_DbusHandler28DBUS_RenotifyDevicesAttachedEv 0x04c3c528
_ZN7Manager21C_BCM_CON_DbusHandler27DBUS_RestoreFactorySettingsEv 0x04c3c5a0
_ZN7Manager21C_BCM_CON_DbusHandler32DBUS_SetModem3GKeyRoamingAllowedEb 0x04c3c618
_ZN7Manager21C_BCM_CON_DbusHandler29DBUS_GetModem3GKeyNetworkNameEv 0x04c3c704
_ZN7Manager21C_BCM_CON_DbusHandler32DBUS_GetModem3GKeyConnectionTypeEv 0x04c3c77c
_ZN7Manager21C_BCM_CON_DbusHandler23DBUS_GetDevicesPriorityEv 0x04c3c7f4
_ZN7Manager21C_BCM_CON_DbusHandler21DBUS_GetSignalQualityEv 0x04c3c86c
_ZN7Manager21C_BCM_CON_DbusHandler27DBUS_UpdateWifiNetworksListEv 0x04c3c8e4
_ZN7Manager21C_BCM_CON_DbusHandler30DBUS_ResetConnectionStatisticsEv 0x04c3c95c
_ZN7Manager21C_BCM_CON_DbusHandler22DBUS_StopCounterSignalEv 0x04c3c9d4
_ZN7Manager21C_BCM_CON_DbusHandler29DBUS_EnableInternetConnectionEb 0x04c3ca4c
_ZN7Manager21C_BCM_CON_DbusHandler14DBUS_EnablePMSERKb 0x04c3cb38
_ZN7Manager21C_BCM_CON_DbusHandler22DBUS_SetDevicePriorityERKlS2_S2_ 0x04c3cc08
_ZN7Manager21C_BCM_CON_DbusHandler23DBUS_SetDeviceUsabilityERKlRKb 0x04c3cd98
_ZN7Manager21C_BCM_CON_DbusHandler17DBUS_PingInternetERKSsih 0x04c3cecc
_ZN7Manager21C_BCM_CON_DbusHandler14DBUS_EnableDunEbi 0x04c3d05c
_ZN7Manager21C_BCM_CON_DbusHandler21DBUS_EnableModem3GKeyEbi 0x04c3d140
_ZN7Manager21C_BCM_CON_DbusHandler22DBUS_SaveModem3GKeyPinERKSs 0x04c3d224
_ZN7Manager21C_BCM_CON_DbusHandler21DBUS_SetModem3GKeyPukERKSs 0x04c3d2f4
_ZN7Manager21C_BCM_CON_DbusHandler21DBUS_SetModem3GKeyPinERKSsb 0x04c3d3c4
_ZN7Manager21C_BCM_CON_DbusHandler23DBUS_StartCounterSignalEi 0x04c3d4a8
_ZN7Manager21C_BCM_CON_DbusHandler18DBUS_SetDUNProfileERKSsS2_S2_RKbS2_S2_ 0x04c3d578
_ZN7Manager21C_BCM_CON_DbusHandler20DBUS_Set3GKeyProfileERKSsS2_S2_S2_RKbS2_S2_S4_S4_S4_S2_b 0x04c3d80c
_ZN7Manager21C_BCM_CON_DbusHandler19DBUS_SetWifiProfileERKSsRKlS4_S2_RKbS2_S2_S2_S6_S2_S2_S6_ 0x04c3dc44
_ZN7Manager21C_BCM_CON_DbusHandler25DBUS_EnableWifiConnectionERKSsS2_ 0x04c3e074
_ZN7Manager21C_BCM_CON_DbusHandler23DBUS_Enable3GConnectionERKSs 0x04c3e1a8
_ZN7Manager21C_BCM_CON_DbusHandler22DBUSSignal_SaveSuccessERKl 0x04c3e278
_ZN7Manager21C_BCM_CON_DbusHandler24DBUSSignal_3GNetworkNameERKSs 0x04c3e420
_ZN7Manager21C_BCM_CON_DbusHandler29DBUSSignal_Set3GKeyPukSuccessERKbRKm 0x04c3e5c8
_ZN7Manager21C_BCM_CON_DbusHandler31DBUSSignal_BCMConnectivityErrorEi 0x04c3e784
_ZN7Manager21C_BCM_CON_DbusHandler32DBUSSignal_ConnectionStateChangeENS_18E_DBUS_DEVICE_TYPEENS_23E_DBUS_CONNECTION_STATEE 0x04c3e924
_ZN7Manager21C_BCM_CON_DbusHandler29DBUSSignal_Set3GKeyPinSuccessERKbRKm 0x04c3ead0
_ZN7Manager21C_BCM_CON_DbusHandler24DBUSSignal_SignalQualityERKl 0x04c3ec8c
_ZN7Manager21C_BCM_CON_DbusHandler33DBUSSignal_Modem3GKeyPINRequestedEv 0x04c3ee34
_ZN7Manager21C_BCM_CON_DbusHandler33DBUSSignal_Modem3GKeyPUKRequestedEv 0x04c3efc8
_ZN7Manager21C_BCM_CON_DbusHandler25DBUSSignal_DeviceAttachedENS_18E_DBUS_DEVICE_TYPEEb 0x04c3f15c
_ZN7Manager21C_BCM_CON_DbusHandler28DBUSSignal_NetworkStatisticsEiii 0x04c3f304
_ZN7Manager21C_BCM_CON_DbusHandler27DBUSSignal_3GConnectionTypeERKl 0x04c3f4c8
_ZN7Manager21C_BCM_CON_DbusHandler26DBUSSignal_DevicesPriorityERKlS2_S2_ 0x04c3f670
_ZN7Manager21C_BCM_CON_DbusHandler21DBUSSignal_PingResultERKbRKm 0x04c3f840
_ZN28C_BCM_CON_DbusHandler_CLIENTD1Ev 0x04c3f9fc
_ZN28C_BCM_CON_DbusHandler_CLIENTC1EPKcS1_ 0x04c3fa40
_ZN28C_BCM_CON_DbusHandler_CLIENTC2EPKcS1_ 0x04c3fa9c
_ZN28C_BCM_CON_DbusHandler_CLIENTD2Ev 0x04c3faf8
_ZN28C_BCM_CON_DbusHandler_CLIENTD0Ev 0x04c3fb3c
_ZN28C_BCM_CON_DbusHandler_SERVER30DBUS_ResetConnectionStatisticsEv 0x04c3fba0
_ZN28C_BCM_CON_DbusHandler_SERVER18DBUS_SetDUNProfileERKSsS1_S1_RKbS1_S1_ 0x04c3fbf0
_ZN28C_BCM_CON_DbusHandler_SERVER14DBUS_EnablePMSERKb 0x04c3fca0
_ZN28C_BCM_CON_DbusHandler_SERVER28DBUS_RenotifyDevicesAttachedEv 0x04c3fd00
_ZN28C_BCM_CON_DbusHandler_SERVER27DBUS_RestoreFactorySettingsEv 0x04c3fd50
_ZN28C_BCM_CON_DbusHandler_SERVER22DBUS_GetWifiMACAddressERSs 0x04c3fda0
_ZN28C_BCM_CON_DbusHandler_SERVER23DBUS_SetDevicesPriorityERKlS1_S1_ 0x04c3fe00
_ZN28C_BCM_CON_DbusHandler_SERVER23DBUS_SetDeviceUsabilityERKlRKb 0x04c3fe80
_ZN28C_BCM_CON_DbusHandler_SERVER17DBUS_PingInternetERKSsRKm 0x04c3fef0
_ZN28C_BCM_CON_DbusHandler_SERVER14DBUS_EnableDunERKbRKm 0x04c3ff64
_ZN28C_BCM_CON_DbusHandler_SERVER26DBUS_GetDunConnectionStateERl 0x04c3ffd4
_ZN28C_BCM_CON_DbusHandler_SERVER21DBUS_EnableModem3GKeyERKbRKm 0x04c40034
_ZN28C_BCM_CON_DbusHandler_SERVER33DBUS_GetModem3GKeyConnectionStateERl 0x04c400a4
_ZN28C_BCM_CON_DbusHandler_SERVER32DBUS_SetModem3GKeyRoamingAllowedERKb 0x04c40104
_ZN28C_BCM_CON_DbusHandler_SERVER29DBUS_GetModem3GKeyNetworkNameEv 0x04c40164
_ZN28C_BCM_CON_DbusHandler_SERVER32DBUS_GetModem3GKeyConnectionTypeEv 0x04c401b4
_ZN28C_BCM_CON_DbusHandler_SERVER23DBUS_GetDevicesPriorityEv 0x04c40204
_ZN28C_BCM_CON_DbusHandler_SERVER21DBUS_GetSignalQualityEv 0x04c40254
_ZN28C_BCM_CON_DbusHandler_SERVER22DBUS_SaveModem3GKeyPinERKSs 0x04c402a4
_ZN28C_BCM_CON_DbusHandler_SERVER21DBUS_SetModem3GKeyPukERKSs 0x04c40304
_ZN28C_BCM_CON_DbusHandler_SERVER21DBUS_SetModem3GKeyPinERKSsRKb 0x04c40364
_ZN28C_BCM_CON_DbusHandler_SERVER27DBUS_GetWifiConnectionStateERl 0x04c403d4
_ZN28C_BCM_CON_DbusHandler_SERVER27DBUS_UpdateWifiNetworksListEv 0x04c40434
_ZN28C_BCM_CON_DbusHandler_SERVER22DBUS_StopCounterSignalEv 0x04c40484
_ZN28C_BCM_CON_DbusHandler_SERVER23DBUS_StartCounterSignalERKm 0x04c404d4
_ZN28C_BCM_CON_DbusHandler_SERVER21DBUS_IsDeviceAttachedERKlRb 0x04c40534
_ZN28C_BCM_CON_DbusHandler_SERVER23DBUS_GetConnectionStateERl 0x04c405a4
_ZN28C_BCM_CON_DbusHandler_SERVER20DBUS_Set3GKeyProfileERKSsS1_S1_S1_RKbS1_S1_S3_S3_S3_S1_S3_ 0x04c40604
_ZN28C_BCM_CON_DbusHandler_SERVER19DBUS_SetWifiProfileERKSsRKlS3_S1_RKbS1_S1_S1_S5_S1_S1_S5_ 0x04c406f0
_ZN28C_BCM_CON_DbusHandler_SERVER25DBUS_EnableWifiConnectionERKSsS1_ 0x04c407d8
_ZN28C_BCM_CON_DbusHandler_SERVER23DBUS_Enable3GConnectionERKSs 0x04c40848
_ZN28C_BCM_CON_DbusHandler_SERVER29DBUS_EnableInternetConnectionERKb 0x04c408a8
_ZN28C_BCM_CON_DbusHandler_SERVERD1Ev 0x04c40908
_ZN28C_BCM_CON_DbusHandler_SERVERC2EPKcS1_ 0x04c409ac
_GLOBAL__I__ZN28C_BCM_CON_DbusHandler_SERVERC2EPKcS1_ 0x04c40af0
_ZN28C_BCM_CON_DbusHandler_SERVERC1EPKcS1_ 0x04c40b28
_ZN28C_BCM_CON_DbusHandler_SERVERD2Ev 0x04c40bd4
_ZN28C_BCM_CON_DbusHandler_SERVERD0Ev 0x04c40c78
_ZN9Connector25C_BCM_CON_DriverWrapperBT4InitEv 0x04c40d30
_ZNK9Connector25C_BCM_CON_DriverWrapperBT15D_GetDeviceTypeEv 0x04c40d34
_ZNK9Connector25C_BCM_CON_DriverWrapperBT20getInterfaceCountersERNS_12statistics_sE 0x04c40d3c
_ZNK9Connector25C_BCM_CON_DriverWrapperBT15D_GetStatisticsERNS_12statistics_sE 0x04c40ee0
_ZN9Connector25C_BCM_CON_DriverWrapperBT18doManageOnlineDataEv 0x04c40f18
_ZN9Connector25C_BCM_CON_DriverWrapperBTD0Ev 0x04c40f70
_ZN9Connector25C_BCM_CON_DriverWrapperBTD1Ev 0x04c40fc8
_ZN9Connector25C_BCM_CON_DriverWrapperBTD2Ev 0x04c41000
_ZN9Connector25C_BCM_CON_DriverWrapperBTC1Ev 0x04c41038
_ZN9Connector25C_BCM_CON_DriverWrapperBTC2Ev 0x04c41084
_GLOBAL__I__ZN9Connector25C_BCM_CON_DriverWrapperBTC2Ev 0x04c41168
_ZNK9Connector25C_BCM_CON_DriverWrapperBT13setProfilePPPERKN6Common9Profile_tE 0x04c411a0
_ZN9Connector25C_BCM_CON_DriverWrapperBT9enablePPPERKN6Common9Profile_tE 0x04c4149c
_ZN9Connector25C_BCM_CON_DriverWrapperBT9D_ConnectERKN6Common9Profile_tE 0x04c414f4
_ZN9Connector25C_BCM_CON_DriverWrapperBT11sendMessageEN6Common14E_MESSAGE_TYPEERKNS1_13ContentValuesE 0x04c4152c
_ZN9Connector25C_BCM_CON_DriverWrapperBT23doDUNClosePPPConnectionEv 0x04c426f4
_ZN9Connector25C_BCM_CON_DriverWrapperBT3EndEv 0x04c42984
_ZN9Connector25C_BCM_CON_DriverWrapperBT12D_DisconnectEv 0x04c42a10
_ZN9Connector29C_BCM_CON_DriverWrapperBT_PAN4InitEv 0x04c42a48
_ZNK9Connector29C_BCM_CON_DriverWrapperBT_PAN15D_GetDeviceTypeEv 0x04c42a4c
_ZN9Connector29C_BCM_CON_DriverWrapperBT_PAN3EndEv 0x04c42a54
_ZNK9Connector29C_BCM_CON_DriverWrapperBT_PAN15D_GetStatisticsERNS_12statistics_sE 0x04c42a58
_ZN9Connector29C_BCM_CON_DriverWrapperBT_PAN12D_DisconnectEv 0x04c42bfc
_ZN9Connector29C_BCM_CON_DriverWrapperBT_PAN9D_ConnectERKN6Common9Profile_tE 0x04c42cd8
_ZN9Connector29C_BCM_CON_DriverWrapperBT_PAND0Ev 0x04c42d70
_ZN9Connector29C_BCM_CON_DriverWrapperBT_PAND1Ev 0x04c42dc8
_ZN9Connector29C_BCM_CON_DriverWrapperBT_PAND2Ev 0x04c42e00
_ZN9Connector29C_BCM_CON_DriverWrapperBT_PANC1Ev 0x04c42e38
_ZN9Connector29C_BCM_CON_DriverWrapperBT_PANC2Ev 0x04c42e7c
_GLOBAL__I__ZN9Connector29C_BCM_CON_DriverWrapperBT_PANC2Ev 0x04c42f58
_ZN9Connector29C_BCM_CON_DriverWrapperBT_PAN11sendMessageEN6Common14E_MESSAGE_TYPEERKNS1_13ContentValuesE 0x04c42f90
_ZN9Connector30C_BCM_CON_DriverWrapperUSB_CDC3EndEv 0x04c44158
_ZNK9Connector30C_BCM_CON_DriverWrapperUSB_CDC15D_GetStatisticsERNS_12statistics_sE 0x04c4415c
_ZNK9Connector30C_BCM_CON_DriverWrapperUSB_CDC15D_GetDeviceTypeEv 0x04c4417c
_ZNK9Connector30C_BCM_CON_DriverWrapperUSB_CDC18D_GetSignalQualityERi 0x04c44184
_ZNK9Connector30C_BCM_CON_DriverWrapperUSB_CDC16D_GetNetworkNameERSs 0x04c4418c
_ZN9Connector30C_BCM_CON_DriverWrapperUSB_CDC20D_SendSuspendMessageEv 0x04c44194
_ZN9Connector30C_BCM_CON_DriverWrapperUSB_CDC12D_DisconnectEv 0x04c441c0
_ZN9Connector30C_BCM_CON_DriverWrapperUSB_CDC9D_ConnectERKN6Common9Profile_tE 0x04c441f8
_ZN9Connector30C_BCM_CON_DriverWrapperUSB_CDCD0Ev 0x04c44230
_ZN9Connector30C_BCM_CON_DriverWrapperUSB_CDCD1Ev 0x04c44288
_ZN9Connector30C_BCM_CON_DriverWrapperUSB_CDCD2Ev 0x04c442c0
_ZN9Connector30C_BCM_CON_DriverWrapperUSB_CDCC1Ev 0x04c442f8
_ZN9Connector30C_BCM_CON_DriverWrapperUSB_CDCC2Ev 0x04c4433c
_GLOBAL__I__ZN9Connector30C_BCM_CON_DriverWrapperUSB_CDCC2Ev 0x04c44418
_ZN9Connector30C_BCM_CON_DriverWrapperUSB_CDC11sendMessageEN6Common14E_MESSAGE_TYPEERKNS1_13ContentValuesE 0x04c44450
_ZNK6Common22C_BCM_CON_ErrorHandler14GetErrorHeaderEv 0x04c45618
_ZNK6Common22C_BCM_CON_ErrorHandler12GetErrorDateEv 0x04c45620
_GLOBAL__I__ZN6Common22C_BCM_CON_ErrorHandlerC2ENS_8E_STATUSE 0x04c456c0
_ZN6Common22C_BCM_CON_ErrorHandlerD2Ev 0x04c456f8
_ZN6Common22C_BCM_CON_ErrorHandlerD1Ev 0x04c4577c
_ZNK6Common22C_BCM_CON_ErrorHandler19GetErrorDescriptionEv 0x04c45800
_ZNK6Common22C_BCM_CON_ErrorHandler8toStringEv 0x04c45a50
_ZN6Common22C_BCM_CON_ErrorHandlerC1ENS_8E_STATUSE 0x04c46634
_ZN6Common22C_BCM_CON_ErrorHandlerC2ENS_8E_STATUSE 0x04c4668c
_ZN9Connector23C_BCM_CON_GenericDriver9D_ConnectERKN6Common9Profile_tE 0x04c466e4
_ZN9Connector23C_BCM_CON_GenericDriver12D_DisconnectEv 0x04c466ec
_ZNK9Connector23C_BCM_CON_GenericDriver15D_GetStatisticsERNS_12statistics_sE 0x04c466f4
_ZNK9Connector23C_BCM_CON_GenericDriver15D_GetDeviceTypeEv 0x04c46714
_ZNK9Connector23C_BCM_CON_GenericDriver18D_GetSignalQualityERi 0x04c4671c
_ZNK9Connector23C_BCM_CON_GenericDriver16D_GetNetworkNameERSs 0x04c4672c
_ZN9Connector23C_BCM_CON_GenericDriver3EndEv 0x04c46734
_ZN9Connector23C_BCM_CON_GenericDriverD0Ev 0x04c46738
_ZN9Connector23C_BCM_CON_GenericDriverD1Ev 0x04c46790
_ZN9Connector23C_BCM_CON_GenericDriverD2Ev 0x04c467c8
_ZN9Connector23C_BCM_CON_GenericDriverC1Ev 0x04c46800
_ZN9Connector23C_BCM_CON_GenericDriverC2Ev 0x04c46844
_GLOBAL__I__ZN9Connector23C_BCM_CON_GenericDriverC2Ev 0x04c46920
_ZN7Manager17C_BCM_CON_Manager16UpdateStatisticsEii 0x04c46958
_ZN7Manager17C_BCM_CON_Manager14GetDbusHandlerEv 0x04c4696c
_ZN7Manager17C_BCM_CON_Manager21EnqueueErrorProtectedERKN6Common22C_BCM_CON_ErrorHandlerE 0x04c46974
_ZN7Manager17C_BCM_CON_Manager19StopConnectionTimerEv 0x04c46978
_ZNK7Manager17C_BCM_CON_Manager18GetConnectionStateERN6Common18E_CONNECTION_STATEE 0x04c46a30
_ZNK7Manager17C_BCM_CON_Manager16IsDeviceAttachedEN6Common13E_DEVICE_TYPEE 0x04c46afc
_ZN7Manager17C_BCM_CON_Manager29ManageStatisticsNewConnectionEv 0x04c46b2c
_ZN7Manager17C_BCM_CON_Manager18SpyEnqueueDUNEventERKSs 0x04c46bac
_ZN7Manager17C_BCM_CON_Manager7DestroyEv 0x04c46bf0
_ZN7Manager17C_BCM_CON_Manager21SpySetInitReturnValueERKSs 0x04c46cfc
_ZN7Manager17C_BCM_CON_Manager18SpyEnqueuePANEventERKSs 0x04c46d40
_ZN7Manager17C_BCM_CON_Manager13SuspendPMSKeyEv 0x04c46d84
_ZN7Manager17C_BCM_CON_Manager14DequeueMessageEv 0x04c46db4
_ZN7Manager17C_BCM_CON_Manager12EnqueueErrorERKN6Common22C_BCM_CON_ErrorHandlerE 0x04c46e5c
_ZN7Manager17C_BCM_CON_Manager20SendStatisticsSignalEv 0x04c46ebc
_ZNK7Manager17C_BCM_CON_Manager26IsModem3GKeyRoamingAllowedERb 0x04c46f10
_ZN7Manager17C_BCM_CON_Manager9EnablePMSEb 0x04c46f48
_ZN7Manager17C_BCM_CON_Manager23RenotifyDevicesAttachedEv 0x04c46f78
_ZN7Manager17C_BCM_CON_Manager22RestoreFactorySettingsEv 0x04c46fc0
_ZNK7Manager17C_BCM_CON_Manager24GetDeviceConnectionStateEN6Common13E_DEVICE_TYPEERNS1_18E_CONNECTION_STATEE 0x04c47088
_ZNK7Manager17C_BCM_CON_Manager21GetDunConnectionStateERN6Common18E_CONNECTION_STATEE 0x04c47120
_ZNK7Manager17C_BCM_CON_Manager28GetModem3GKeyConnectionStateERN6Common18E_CONNECTION_STATEE 0x04c47154
_ZNK7Manager17C_BCM_CON_Manager22GetWifiConnectionStateERN6Common18E_CONNECTION_STATEE 0x04c47188
_ZN7Manager17C_BCM_CON_Manager27SetModem3GKeyRoamingAllowedEb 0x04c471bc
_ZNK7Manager17C_BCM_CON_Manager27GetModem3GKeyConnectionTypeEv 0x04c4723c
_ZN7Manager17C_BCM_CON_Manager17SetDevicePriorityERA5_N6Common13E_DEVICE_TYPEE 0x04c4730c
_ZN7Manager17C_BCM_CON_Manager18SetDeviceUsabilityEN6Common13E_DEVICE_TYPEEb 0x04c47384
_ZNK7Manager17C_BCM_CON_Manager14IsDeviceUsableEN6Common13E_DEVICE_TYPEERb 0x04c473fc
_ZNK7Manager17C_BCM_CON_Manager17GetDevicePriorityERA5_N6Common13E_DEVICE_TYPEE 0x04c4742c
_ZNK7Manager17C_BCM_CON_Manager18getPreferredDeviceERN6Common13E_DEVICE_TYPEE 0x04c4745c
_ZNK7Manager17C_BCM_CON_Manager16GetSignalQualityEv 0x04c475c0
_ZN7Manager17C_BCM_CON_Manager12Set3GProfileERKN6Common14Usb3gProfile_tE 0x04c47678
_ZN7Manager17C_BCM_CON_Manager14SetWifiProfileERKN6Common13WifiProfile_tE 0x04c476f0
_ZN7Manager17C_BCM_CON_Manager17GetWifiMACAddressERSs 0x04c47764
_GLOBAL__I__ZN7Manager17C_BCM_CON_ManagerC2Ev 0x04c4782c
_ZNK7Manager17C_BCM_CON_Manager24GetModem3GKeyNetworkNameEv 0x04c47864
_ZN7Manager17C_BCM_CON_Manager17SaveModem3GKeyPinERKSs 0x04c47948
_ZN7Manager17C_BCM_CON_Manager16SetModem3GKeyPukERKSs 0x04c47a88
_ZN7Manager17C_BCM_CON_ManagerD1Ev 0x04c47c70
_ZN7Manager17C_BCM_CON_ManagerD2Ev 0x04c47e5c
_ZN7Manager17C_BCM_CON_ManagerD0Ev 0x04c48014
_ZN7Manager17C_BCM_CON_Manager4InitEv 0x04c481d8
_ZN7Manager17C_BCM_CON_Manager12PingInternetERKSsih 0x04c484c4
_ZN7Manager17C_BCM_CON_Manager13SetDUNProfileERKN6Common12DunProfile_tE 0x04c49400
_ZN7Manager17C_BCM_CON_Manager22UpdateWifiNetworksListEv 0x04c49824
_ZN7Manager17C_BCM_CON_Manager16SetModem3GKeyPinERKSsb 0x04c49ad0
_ZN7Manager17C_BCM_CON_ManagerC2Ev 0x04c49da8
_ZN7Manager17C_BCM_CON_Manager14EnqueueMessageERKN6Common17C_BCM_CON_MessageE 0x04c4a238
_ZN7Manager17C_BCM_CON_Manager10HandleTickEv 0x04c4a26c
_ZN7Manager17C_BCM_CON_Manager7ConnectEN6Common13E_DEVICE_TYPEERKNS1_13ContentValuesE 0x04c4b2c0
_ZN7Manager17C_BCM_CON_Manager12EnableDeviceEbN6Common13E_DEVICE_TYPEE 0x04c4bfa0
_ZN7Manager17C_BCM_CON_Manager20EnableWifiConnectionERKSsS2_ 0x04c4c288
_ZN7Manager17C_BCM_CON_Manager18Enable3GConnectionERKSs 0x04c4c5f0
_ZN7Manager17C_BCM_CON_Manager24EnableInternetConnectionEb 0x04c4c904
_ZN7Manager17C_BCM_CON_ManagerC1Ev 0x04c4cc00
_ZN7Manager17C_BCM_CON_Manager9getHandleEv 0x04c4d084
_ZN7Manager17C_BCM_CON_Manager23GetConnectionStatisticsEv 0x04c4d11c
_ZN7Manager17C_BCM_CON_Manager13HandleMessageERKN6Common17C_BCM_CON_MessageE 0x04c4d228
_ZNK6Common17C_BCM_CON_Message14GetMessageTypeEv 0x04c4fca4
_ZNK6Common17C_BCM_CON_Message3getERKSsRd 0x04c4fcac
_ZNK6Common17C_BCM_CON_Message3getERKSsRm 0x04c4fce4
_ZNK6Common17C_BCM_CON_Message3getERKSsRb 0x04c4fd18
_ZNK6Common17C_BCM_CON_Message3getERKSsRi 0x04c4fd4c
_ZN6Common17C_BCM_CON_MessageC1ENS_14E_MESSAGE_TYPEE 0x04c4fd80
_ZN6Common17C_BCM_CON_MessageC2ENS_14E_MESSAGE_TYPEE 0x04c4fdb4
_ZN6Common17C_BCM_CON_MessageC1Ev 0x04c4fde8
_ZN6Common17C_BCM_CON_MessageC2Ev 0x04c4fe20
_GLOBAL__I__ZN6Common17C_BCM_CON_MessageC2Ev 0x04c4fef0
_ZN6Common17C_BCM_CON_MessageD1Ev 0x04c4ff28
_ZN6Common17C_BCM_CON_MessageC1ENS_14E_MESSAGE_TYPEERKNS_13ContentValuesE 0x04c500fc
_ZN6Common17C_BCM_CON_MessageC2ENS_14E_MESSAGE_TYPEERKNS_13ContentValuesE 0x04c50134
_ZNK6Common17C_BCM_CON_Message8toStringEv 0x04c5016c
_ZN6Common17C_BCM_CON_MessageD2Ev 0x04c51098
_ZNK6Common17C_BCM_CON_Message3getERKSsRSs 0x04c512e4
_ZN8Executor19C_BCM_CON_Messenger11SendMessageERKN6Common17C_BCM_CON_MessageE 0x04c5135c
_ZN8Executor19C_BCM_CON_Messenger11SendMessageERN6Common14E_MESSAGE_TYPEE 0x04c51474
_GLOBAL__I__ZN8Executor19C_BCM_CON_Messenger11SendMessageERN6Common14E_MESSAGE_TYPEE 0x04c51584
_ZN6Common9Profile_tC2ENS_13E_DEVICE_TYPEE 0x04c515bc
_ZN6Common9Profile_tC1ENS_13E_DEVICE_TYPEE 0x04c515e0
_ZNK6Common9Profile_t13GetDeviceTypeEv 0x04c51604
_ZN6Common15UsbCDCProfile_tC2Ev 0x04c5160c
_ZN6Common15UsbCDCProfile_tC1Ev 0x04c51654
_ZN6Common15UsbCDCProfile_tC2EPKS0_ 0x04c5169c
_ZN6Common15UsbCDCProfile_tC1EPKS0_ 0x04c516e4
_ZN6Common12PANProfile_tC2Ev 0x04c5172c
_ZN6Common12PANProfile_tC1Ev 0x04c51774
_ZN6Common12PANProfile_tC2EPKS0_ 0x04c517bc
_ZN6Common12PANProfile_tC1EPKS0_ 0x04c51804
_ZN6Common9Profile_tD0Ev 0x04c5184c
_ZN6Common9Profile_tD1Ev 0x04c51884
_ZN6Common9Profile_tD2Ev 0x04c51894
_ZN6Common12PANProfile_tD0Ev 0x04c518a4
_ZN6Common12PANProfile_tD1Ev 0x04c518fc
_ZN6Common12PANProfile_tD2Ev 0x04c51934
_ZN6Common15UsbCDCProfile_tD0Ev 0x04c5196c
_ZN6Common15UsbCDCProfile_tD1Ev 0x04c519c4
_ZN6Common15UsbCDCProfile_tD2Ev 0x04c519fc
_ZN6Common12PANProfile_t4copyEv 0x04c51a34
_ZN6Common15UsbCDCProfile_t4copyEv 0x04c51a94
_GLOBAL__I__ZN6Common9Profile_tD2Ev 0x04c51b8c
_ZN6Common12DunProfile_tD0Ev 0x04c51bc4
_ZN6Common13WifiProfile_tD0Ev 0x04c51c94
_ZN6Common14Usb3gProfile_tD1Ev 0x04c51d8c
_ZN6Common12DunProfile_tD1Ev 0x04c51e70
_ZN6Common13WifiProfile_tD1Ev 0x04c51f2c
_ZN6Common14Usb3gProfile_tD0Ev 0x04c52010
_ZN6Common13WifiProfile_tD2Ev 0x04c52108
_ZN6Common12DunProfile_tD2Ev 0x04c521ec
_ZN6Common14Usb3gProfile_tD2Ev 0x04c522a8
_ZN6Common13WifiProfile_tC1EPKS0_ 0x04c5238c
_ZN6Common13WifiProfile_t4copyEv 0x04c52488
_ZN6Common13WifiProfile_tC2EPKS0_ 0x04c524e8
_ZN6Common13WifiProfile_tC2ERKSsS2_ 0x04c525e4
_ZN6Common12DunProfile_tC1EPKS0_ 0x04c52708
_ZN6Common12DunProfile_t4copyEv 0x04c527c4
_ZN6Common12DunProfile_tC2EPKS0_ 0x04c52824
_ZN6Common12DunProfile_tC1ERKSsS2_S2_bS2_S2_ 0x04c528e0
_ZN6Common12DunProfile_tC2ERKSsS2_S2_bS2_S2_ 0x04c529d4
_ZN6Common14Usb3gProfile_tC1EPKS0_ 0x04c52ac8
_ZN6Common14Usb3gProfile_t4copyEv 0x04c52bc4
_ZN6Common14Usb3gProfile_tC2EPKS0_ 0x04c52c24
_ZN6Common14Usb3gProfile_tC1ERKSsS2_S2_S2_ 0x04c52d20
_ZN6Common14Usb3gProfile_tC2ERKSsS2_S2_S2_ 0x04c52e44
_ZNK6Common12DunProfile_t8toStringEv 0x04c52f68
_ZNK6Common14Usb3gProfile_t8toStringEv 0x04c535a8
_ZN6Common13WifiProfile_tC1ERKSsS2_ 0x04c53ba0
_ZNK6Common12PANProfile_t8toStringEv 0x04c53cb4
_ZNK6Common15UsbCDCProfile_t8toStringEv 0x04c53e48
_ZNK6Common13WifiProfile_t8toStringEv 0x04c53fdc
_ZN7Manager24C_BCM_CON_SpyDataHandler5CloseEv 0x04c5519c
_GLOBAL__I__ZN7Manager24C_BCM_CON_SpyDataHandlerC2Ev 0x04c552a8
_ZN7Manager24C_BCM_CON_SpyDataHandler10bt_event_sC1Ev 0x04c552e0
_ZN7Manager24C_BCM_CON_SpyDataHandlerC2Ev 0x04c55320
_ZN7Manager24C_BCM_CON_SpyDataHandlerC1Ev 0x04c55414
_ZN7Manager24C_BCM_CON_SpyDataHandlerD1Ev 0x04c55508
_ZN7Manager24C_BCM_CON_SpyDataHandlerD2Ev 0x04c55884
_ZN7Manager24C_BCM_CON_SpyDataHandler13SetProfileDUNERKN6Common12DunProfile_tE 0x04c55c00
_ZN7Manager24C_BCM_CON_SpyDataHandler22SetConnectedDeviceTypeEN6Common13E_DEVICE_TYPEE 0x04c55cd0
_ZN7Manager24C_BCM_CON_SpyDataHandler12SetConnectedEb 0x04c55dac
_ZN7Manager24C_BCM_CON_SpyDataHandler4InitEv 0x04c55e50
_ZN7Manager24C_BCM_CON_SpyDataHandler22GetConnectedDeviceTypeEv 0x04c55f50
_ZN7Manager24C_BCM_CON_SpyDataHandler12GetConnectedEv 0x04c55f90
_ZN7Manager24C_BCM_CON_SpyDataHandler18SetInitReturnValueERKSs 0x04c55fcc
_ZN7Manager24C_BCM_CON_SpyDataHandler12GetPANEventsEv 0x04c560bc
_ZN7Manager24C_BCM_CON_SpyDataHandler10bt_event_sC2Ev 0x04c56a28
_ZN7Manager24C_BCM_CON_SpyDataHandler13GetProfileDUNEv 0x04c56a48
_ZN7Manager24C_BCM_CON_SpyDataHandler15EnqueuePANEventERKSs 0x04c56bb8
_ZN7Manager24C_BCM_CON_SpyDataHandler15EnqueueDunEventERKSs 0x04c56d38
_ZN7Manager24C_BCM_CON_SpyDataHandler12EnqueueErrorEN6Common13E_DEVICE_TYPEERKSs 0x04c56eb8
_ZN7Manager24C_BCM_CON_SpyDataHandler12GetDUNEventsEv 0x04c5806c
_ZN7Manager24C_BCM_CON_SpyDataHandler15CreateSpyStringEv 0x04c58b18
_ZN7Manager24C_BCM_CON_SpyDataHandler8WriteSpyEv 0x04c59e50
_ZN7Manager24C_BCM_CON_SpyDataHandler14SpySignalCbackEi 0x04c59ff8
_ZN7Manager24C_BCM_CON_SpyDataHandler18GetInitReturnValueEv 0x04c5a02c
_ZN8Executor25C_BCM_CON_SystemInterfaceC2Ev 0x04c5a110
_ZN8Executor25C_BCM_CON_SystemInterfaceC1Ev 0x04c5a114
_ZN8Executor25C_BCM_CON_SystemInterfaceD2Ev 0x04c5a118
_ZN8Executor25C_BCM_CON_SystemInterfaceD1Ev 0x04c5a11c
_ZN8Executor25C_BCM_CON_SystemInterface27ActivateEvt3gDeviceAttachedEb 0x04c5a120
_ZN8Executor25C_BCM_CON_SystemInterface29ActivateEvtWifiDeviceAttachedEb 0x04c5a128
_ZN8Executor25C_BCM_CON_SystemInterface37SendActiveMessageUsbDataServicesCBackEiPcPv 0x04c5a130
_ZN8Executor25C_BCM_CON_SystemInterface17SendActiveMessageEi 0x04c5a184
_ZN8Executor25C_BCM_CON_SystemInterface29EvtUSB_CDCDeviceDetachedCbackEiPcPv 0x04c5a1dc
_ZN8Executor25C_BCM_CON_SystemInterface29EvtUSB_CDCDeviceAttachedCbackEiPcPv 0x04c5a20c
_ZN8Executor25C_BCM_CON_SystemInterface26EvtWifiDeviceAttachedCbackEiPcPv 0x04c5a23c
_ZN8Executor25C_BCM_CON_SystemInterface24Evt3gDeviceAttachedCbackEiPcPv 0x04c5a26c
_ZN8Executor25C_BCM_CON_SystemInterface17ActivatePANEventsEb 0x04c5a29c
_ZN8Executor25C_BCM_CON_SystemInterface32ActivateEvtUSB_CDCDeviceDetachedEb 0x04c5a460
_ZN8Executor25C_BCM_CON_SystemInterface32ActivateEvtUSB_CDCDeviceAttachedEb 0x04c5a4e8
_ZN8Executor25C_BCM_CON_SystemInterface17ActivateDUNEventsEb 0x04c5a56c
_ZN8Executor25C_BCM_CON_SystemInterface14checkPANStatusEv 0x04c5a720
_ZN8Executor25C_BCM_CON_SystemInterface24checkDUNConnectableStateEv 0x04c5a804
_ZN8Executor25C_BCM_CON_SystemInterface23RenotifyDevicesAttachedEv 0x04c5a8d0
_GLOBAL__I__ZN8Executor25C_BCM_CON_SystemInterfaceC2Ev 0x04c5a9c8
_ZN8Executor18C_BCM_Connectivity13GetDbusServerEv 0x04c5aa00
_ZN8Executor18C_BCM_Connectivity14GetPingResultsERbRt 0x04c5aa08
_ZN8Executor18C_BCM_Connectivity11DeleteTimerERP7C_Timer 0x04c5aa24
_ZN8Executor18C_BCM_Connectivity9StopTimerEP7C_Timer 0x04c5aa90
_ZN8Executor18C_BCM_Connectivity26StopConnectionTimeoutTimerEv 0x04c5ab00
_ZN8Executor18C_BCM_Connectivity17StopCounterSignalEv 0x04c5ab78
_ZN8Executor18C_BCM_Connectivity13StartTimerSecEP7C_Timeri 0x04c5abf0
_ZN8Executor18C_BCM_Connectivity27StartConnectionTimeoutTimerEiN6Common13E_DEVICE_TYPEE 0x04c5ac3c
_ZN8Executor18C_BCM_Connectivity18StartCounterSignalEi 0x04c5acc8
_ZN8Executor18C_BCM_Connectivity11CreateTimerERP7C_TimerPFizE 0x04c5ad54
_ZN8Executor18C_BCM_Connectivity16netinfoCheatCodeER9CMMString 0x04c5ae4c
_ZN8Executor18C_BCM_Connectivity13pingCheatCodeERKSsiR9CMMString 0x04c5ae80
_ZN8Executor18C_BCM_Connectivity26restoreFactorySettingCbackEv 0x04c5aeb4
_ZN8Executor18C_BCM_Connectivity22RestoreFactorySettingsEv 0x04c5af00
_ZN8Executor18C_BCM_Connectivity10onOffCbackEv 0x04c5af50
_ZN8Executor18C_BCM_Connectivity12PingInternetERKSsi 0x04c5afcc
_ZN8Executor18C_BCM_Connectivity20EmitSignalPingResultEbth 0x04c5b040
_ZN8Executor18C_BCM_Connectivity17SendActiveMessageENS_30t_bcm_connectivity_msg_privateE 0x04c5b0cc
_ZN8Executor18C_BCM_Connectivity25connectionTimeoutCallbackEPS0_ 0x04c5b15c
_ZN8Executor18C_BCM_Connectivity21counterSignalCallbackEPS0_ 0x04c5b194
_ZN8Executor18C_BCM_Connectivity8SendTickEv 0x04c5b1cc
_ZN8Executor18C_BCM_Connectivity23RenotifyDevicesAttachedEv 0x04c5b258
_ZN8Executor18C_BCM_Connectivity25UnSubscribeByConnectivityEv 0x04c5b338
_ZN8Executor18C_BCM_Connectivity23SubscribeByConnectivityEv 0x04c5b474
_ZN8Executor18C_BCM_Connectivity6UnlockEv 0x04c5b638
_ZN8Executor18C_BCM_Connectivity4LockEv 0x04c5b668
_ZN8Executor18C_BCM_Connectivity3EndEi 0x04c5b698
_ZN8Executor18C_BCM_Connectivity7StartUpEv 0x04c5b7cc
_ZN8Executor18C_BCM_ConnectivityD0Ev 0x04c5b8b0
_ZN8Executor18C_BCM_ConnectivityD1Ev 0x04c5b948
_ZN8Executor18C_BCM_ConnectivityD2Ev 0x04c5b9cc
_ZN8Executor18C_BCM_ConnectivityC1Ev 0x04c5ba50
_ZN8Executor18C_BCM_Connectivity8InstanceEv 0x04c5bb34
_ZN8Executor18C_BCM_Connectivity19ModuleStatusChangedEt15MODULE_STATUS_t 0x04c5bc04
_ZN8Executor18C_BCM_ConnectivityC2Ev 0x04c5bc6c
_GLOBAL__I__ZN8Executor18C_BCM_Connectivity11m_pInstanceE 0x04c5bde8
_ZN8Executor18C_BCM_Connectivity13HandleMessageEttsPci 0x04c5be20
_ZN8Executor18C_BCM_Connectivity12pingReqCbackEv 0x04c5c568
_ZN8Executor18C_BCM_Connectivity4InitEv 0x04c5c680
_ZN6Common12C_BCM_SenderC2Ev 0x04c5c8dc
_ZN6Common12C_BCM_SenderC1Ev 0x04c5c8ec
_ZN6Common12C_BCM_Sender11sendMessageENS_14E_MESSAGE_TYPEERKNS_13ContentValuesE 0x04c5c8fc
_ZN6Common12C_BCM_SenderD0Ev 0x04c5c970
_ZN6Common12C_BCM_SenderD1Ev 0x04c5c9a8
_ZN6Common12C_BCM_SenderD2Ev 0x04c5c9b8
_GLOBAL__I__ZN6Common12C_BCM_SenderC2Ev 0x04c5ca60
_ZN12Configurator13SelectRequest15setOrderingTypeENS0_15E_ORDERING_TYPEE 0x04c5ca98
_ZN12Configurator13SelectRequest8setLimitEi 0x04c5caa0
_ZN12Configurator13SelectRequest9setOffsetEi 0x04c5caa8
_ZNK6Common13ContentValues4sizeEv 0x04c5cab0
_ZNK6Common13ContentValues5emptyEv 0x04c5cae0
_GLOBAL__D__ZN12Configurator14GenericRequestC2Ev 0x04c5cc20
_GLOBAL__I__ZN12Configurator14GenericRequestC2Ev 0x04c5cc58
_ZN6Common13ContentValues5clearEv 0x04c5cc90
_ZN12Configurator14GenericRequestD0Ev 0x04c5cd38
_ZN12Configurator14GenericRequestD1Ev 0x04c5cdbc
_ZN12Configurator14GenericRequestD2Ev 0x04c5ce2c
_ZN6Common13ContentValues12stringToDateERKSs 0x04c5ce9c
_ZN12Configurator13SelectRequest18addOrderingElementERKSs 0x04c5d40c
_ZNK6Common13ContentValues3getERKSsRdd 0x04c5d4dc
_ZNK6Common13ContentValues3getERKSsRmm 0x04c5d734
_ZNK6Common13ContentValues3getERKSsRbb 0x04c5d980
_ZNK6Common13ContentValues3getEiRii 0x04c5dc10
_ZNK6Common13ContentValues6typeAtEi 0x04c5de44
_ZNK6Common13ContentValues3getERKSsRSsS2_ 0x04c5deb8
_ZNK6Common13ContentValues6getKeyEi 0x04c5e158
_ZN12Configurator13UpdateRequest4InitERKSsS2_ 0x04c5e21c
_ZN12Configurator13InsertRequest4InitERKSs 0x04c5e638
_ZN6Common13ContentValues12dateToStringEm 0x04c5ea34
_ZNK12Configurator14GenericRequest8toStringEv 0x04c5eae4
_ZNK12Configurator14GenericRequest7getTypeEP12sqlite3_stmti 0x04c5eb44
_ZN6Common13ContentValues3setERKSsd 0x04c5f0c8
_ZNK6Common13ContentValues3getEiRdd 0x04c5f318
_ZN6Common13ContentValues3setERKSsm 0x04c5f520
_ZNK6Common13ContentValues3getEiRmm 0x04c5f764
_ZNK6Common13ContentValues3getEiRSsRKSs 0x04c5f96c
_ZN6Common13ContentValues3setERKSsi 0x04c5fbc4
_ZN6Common13ContentValues3addERKSsm 0x04c5fe00
_ZN6Common13ContentValues3addERKSsS2_ 0x04c5ff54
_ZN6Common13ContentValues3addERKSsPKc 0x04c600dc
_ZN6Common13ContentValues3addERKSsi 0x04c6016c
_ZNK6Common13ContentValues3getEiRbb 0x04c602b0
_ZNK6Common13ContentValues13valueToStringEi 0x04c604fc
_ZNK6Common13ContentValues8toStringEv 0x04c61130
_ZN12Configurator14GenericRequest10bindValuesEP12sqlite3_stmtRKN6Common13ContentValuesE 0x04c614b8
_ZN12Configurator13SelectRequest13HandleBindingEP12sqlite3_stmt 0x04c61884
_ZN12Configurator13DeleteRequest13HandleBindingEP12sqlite3_stmt 0x04c61900
_ZN12Configurator13UpdateRequest13HandleBindingEP12sqlite3_stmt 0x04c6197c
_ZN12Configurator13InsertRequest13HandleBindingEP12sqlite3_stmt 0x04c61a0c
_ZNK6Common13ContentValues3getERKSsRii 0x04c61a40
_ZN6Common13ContentValues3setERKSsb 0x04c61c90
_ZN6Common13ContentValues3addERKSsd 0x04c61f08
_ZN6Common13ContentValues3setERKSsS2_ 0x04c6205c
_ZN6Common13ContentValuesC2Ev 0x04c622a0
_ZN6Common13ContentValuesC2ERKSsm 0x04c62344
_ZN6Common13ContentValuesC2ERKSsi 0x04c6242c
_ZN6Common13ContentValuesC2ERKSsS2_ 0x04c6250c
_ZN6Common13ContentValuesC1ERKSsd 0x04c625ec
_ZN6Common13ContentValuesC1ERKSsS2_ 0x04c626cc
_ZN6Common13ContentValuesC2ERKSsPKc 0x04c627ac
_ZN6Common13ContentValuesC1ERKSsPKc 0x04c6288c
_ZN6Common13ContentValuesC2ERKSsd 0x04c6296c
_ZN6Common13ContentValuesC1ERKSsi 0x04c62a4c
_ZN6Common13ContentValuesC1Ev 0x04c62b24
_ZN12Configurator14GenericRequestC1Ev 0x04c62bc0
_ZN12Configurator14GenericRequestC2Ev 0x04c62c34
_ZN12Configurator13SelectRequestC1ERKSsS2_RSt6vectorIN6Common13ContentValuesESaIS5_EES2_RKS5_ 0x04c62ca8
_ZN12Configurator13SelectRequestC2ERKSsS2_RSt6vectorIN6Common13ContentValuesESaIS5_EES2_RKS5_ 0x04c62df4
_ZN12Configurator13SelectRequestC1ERKSsRKSt6vectorISsSaISsEERS3_IN6Common13ContentValuesESaIS9_EES2_RKS9_ 0x04c62f40
_ZN12Configurator13SelectRequestC2ERKSsRKSt6vectorISsSaISsEERS3_IN6Common13ContentValuesESaIS9_EES2_RKS9_ 0x04c630e4
_ZN12Configurator13UpdateRequestC1ERKSsRKN6Common13ContentValuesES2_S6_ 0x04c63354
_ZN12Configurator13UpdateRequestC2ERKSsRKN6Common13ContentValuesES2_S6_ 0x04c63414
_ZN12Configurator13InsertRequestC1ERKSsRKN6Common13ContentValuesE 0x04c634d4
_ZN12Configurator13InsertRequestC2ERKSsRKN6Common13ContentValuesE 0x04c63560
_ZN6Common13ContentValuesC1ERKSsm 0x04c635ec
_ZN12Configurator13SelectRequest4InitEv 0x04c636c4
_ZN12Configurator13DeleteRequest4InitERKSsS2_ 0x04c64124
_ZN12Configurator13DeleteRequestC1ERKSsS2_RKN6Common13ContentValuesE 0x04c64594
_ZN12Configurator13DeleteRequestC2ERKSsS2_RKN6Common13ContentValuesE 0x04c64630
_ZN6Common13ContentValues3addERKSsb 0x04c646cc
_ZN6Common13ContentValuesC1ERKSsb 0x04c64c98
_ZN6Common13ContentValuesC2ERKSsb 0x04c64d68
_ZN6Common13ContentValues3addERKSs 0x04c64e48
_ZN12Configurator13SelectRequest14HandleResponseEP12sqlite3_stmt 0x04c64fcc
_ZThn68_N20C_BCM_BROWSER_SERVER20DBUS_ReadFaviconPathERSs 0x04c653dc
_ZThn68_N20C_BCM_BROWSER_SERVER17DBUS_ReadUniverseERl 0x04c653e4
_ZThn68_N20C_BCM_BROWSER_SERVER25DBUS_DoPostInitializationEv 0x04c653ec
_ZThn68_N20C_BCM_BROWSER_SERVER28DBUS_GetLastOpenedPageStatusERbRSs 0x04c653f4
_ZThn68_N20C_BCM_BROWSER_SERVER28DBUS_SetLastOpenedPageStatusERKbRKSs 0x04c653fc
_ZThn68_N20C_BCM_BROWSER_SERVER23DBUS_SetHistorySortTypeERKl 0x04c65404
_ZThn68_N20C_BCM_BROWSER_SERVER25DBUS_SetBookmarksSortTypeERKl 0x04c6540c
_ZThn68_N20C_BCM_BROWSER_SERVER27DBUS_RestoreFactorySettingsEv 0x04c65414
_ZThn68_N20C_BCM_BROWSER_SERVER19DBUS_ReadMapVersionERSs 0x04c6541c
_ZThn68_N20C_BCM_BROWSER_SERVER19DBUS_ReadSupplierIdERSs 0x04c65424
_ZThn68_N20C_BCM_BROWSER_SERVER24DBUS_ReadHardwareReleaseERSs 0x04c6542c
_ZThn68_N20C_BCM_BROWSER_SERVER24DBUS_ReadSoftwareReleaseERSs 0x04c65434
_ZThn68_N20C_BCM_BROWSER_SERVER18DBUS_ReadOffsetUTCERm 0x04c6543c
_ZThn68_N20C_BCM_BROWSER_SERVER13DBUS_ReadTimeERmS0_Rb 0x04c65444
_ZThn68_N20C_BCM_BROWSER_SERVER17DBUS_ReadTripDataERKmRmRbS2_S3_S2_S3_ 0x04c6544c
_ZThn68_N20C_BCM_BROWSER_SERVER21DBUS_ReadInstTripDataERmRbS0_S1_ 0x04c65454
_ZThn68_N20C_BCM_BROWSER_SERVER18DBUS_ReadInstSpeedERm 0x04c6545c
_ZThn68_N20C_BCM_BROWSER_SERVER14DBUS_ReadUnitsERlS0_S0_S0_Rb 0x04c65464
_ZThn68_N20C_BCM_BROWSER_SERVER17DBUS_ReadFuelTypeERl 0x04c6546c
_ZThn68_N20C_BCM_BROWSER_SERVER24DBUS_ReadNextWaypointETAERmS0_ 0x04c65474
_ZThn68_N20C_BCM_BROWSER_SERVER23DBUS_ReadDestinationETAERmS0_ 0x04c6547c
_ZThn68_N20C_BCM_BROWSER_SERVER21DBUS_ReadNextWaypointERdS0_S0_RSsS1_S1_ 0x04c65484
_ZThn68_N20C_BCM_BROWSER_SERVER20DBUS_ReadDestinationERdS0_S0_RSsS1_S1_ 0x04c6548c
_ZThn68_N20C_BCM_BROWSER_SERVER23DBUS_ReadCurrentCountryERSs 0x04c65494
_ZThn68_N20C_BCM_BROWSER_SERVER20DBUS_ReadCurrentCityERSs 0x04c6549c
_ZThn68_N20C_BCM_BROWSER_SERVER22DBUS_ReadCurrentStreetERSs 0x04c654a4
_ZThn68_N20C_BCM_BROWSER_SERVER27DBUS_ReadCurrentCoordinatesERdS0_S0_Rm 0x04c654ac
_ZThn68_N20C_BCM_BROWSER_SERVER28DBUS_GetInternetAvailabilityERbS0_ 0x04c654b4
_ZThn68_N20C_BCM_BROWSER_SERVER24DBUS_SaveLastVisitedPageERKb 0x04c654bc
_ZThn68_N20C_BCM_BROWSER_SERVER18DBUS_SaveUserAgentERKSs 0x04c654c4
_ZThn68_N20C_BCM_BROWSER_SERVER24DBUS_SavePopupAcceptanceERKb 0x04c654cc
_ZThn68_N20C_BCM_BROWSER_SERVER26DBUS_SaveCookiesAcceptanceERKb 0x04c654d4
_ZThn68_N20C_BCM_BROWSER_SERVER18DBUS_DeleteCookiesEv 0x04c654dc
_ZThn68_N20C_BCM_BROWSER_SERVER15DBUS_SaveCookieERKSsS1_RKbS3_S1_S1_S1_ 0x04c654e4
_ZThn68_N20C_BCM_BROWSER_SERVER30DBUS_DeleteAllUsernamePasswordEv 0x04c654ec
_ZThn68_N20C_BCM_BROWSER_SERVER27DBUS_DeleteUsernamePasswordERKm 0x04c654f4
_ZThn68_N20C_BCM_BROWSER_SERVER25DBUS_SaveUsernamePasswordERKSsS1_S1_RKl 0x04c654fc
_ZThn68_N20C_BCM_BROWSER_SERVER26DBUS_DeleteAllVisitedSitesEv 0x04c65504
_ZThn68_N20C_BCM_BROWSER_SERVER22DBUS_DeleteVisitedSiteERKm 0x04c6550c
_ZThn68_N20C_BCM_BROWSER_SERVER20DBUS_SaveVisitedSiteERKSsS1_S1_ 0x04c65514
_ZThn68_N20C_BCM_BROWSER_SERVER23DBUS_DeleteAllBookmarksEv 0x04c6551c
_ZThn68_N20C_BCM_BROWSER_SERVER19DBUS_DeleteBookmarkERKm 0x04c65524
_ZThn68_N20C_BCM_BROWSER_SERVER19DBUS_UpdateBookmarkERKmRKSsS3_ 0x04c6552c
_ZThn68_N20C_BCM_BROWSER_SERVER17DBUS_SaveBookmarkERKSsS1_S1_ 0x04c65534
_ZThn68_N20C_BCM_BROWSER_SERVER25DBUS_SavePortalConfiguredERKb 0x04c6553c
_ZThn68_N20C_BCM_BROWSER_SERVER17DBUS_SaveHomePageERKSs 0x04c65544
_ZThn68_N20C_BCM_BROWSER_SERVER17DBUS_GetPortalURLEv 0x04c6554c
_ZThn68_N20C_BCM_BROWSER_SERVER16DBUS_GetHomePageEv 0x04c65554
_ZThn68_N20C_BCM_BROWSER_SERVER21DBUS_ReadDrivingStateERb 0x04c6555c
_ZThn68_N20C_BCM_BROWSER_SERVER17DBUS_ReadProxyURLERSs 0x04c65564
_ZThn68_N20C_BCM_BROWSER_SERVER16DBUS_ResetPortalEv 0x04c6556c
_ZThn68_N20C_BCM_BROWSER_SERVER12DBUS_ReadVINERSs 0x04c65574
_ZThn68_N20C_BCM_BROWSER_SERVER18DBUS_ReadReInitURLERSs 0x04c6557c
_ZThn68_N20C_BCM_BROWSER_SERVER16DBUS_SaveSmegKeyERKSs 0x04c65584
_ZN22com_MM_Browser_adaptorD0Ev 0x04c6558c
_ZN22com_MM_Browser_adaptorD1Ev 0x04c65618
_ZThn68_N20C_BCM_BROWSER_SERVERD1Ev 0x04c65690
_ZThn68_N20C_BCM_BROWSER_SERVERD0Ev 0x04c65698
_ZN10BRO_Common19C_BCM_BRO_BaseClassD0Ev 0x04c6578c
_ZN10BRO_Common19C_BCM_BRO_BaseClassD1Ev 0x04c657c4
_ZN16BRO_Configurator13InsertRequestD1Ev 0x04c65948
_ZN16BRO_Configurator13UpdateRequestD1Ev 0x04c65980
_ZN10BRO_Common13ContentValuesD1Ev 0x04c67848
_ZNSt6vectorIN10BRO_Common13ContentValuesESaIS1_EE5_TidyEv 0x04c67a08
_ZN16BRO_Configurator13SelectRequestD1Ev 0x04c67aa8
_ZNSt6vectorIN10BRO_Common13ContentValuesESaIS1_EE2atEj 0x04c6a7f0
_ZNSolsEi 0x04c6d4ec
_ZNSt5_TreeISt12_Tset_traitsIiSt4lessIiESaIiELb0EEE6_EraseEPNSt9_Tree_nodIS4_E5_NodeE 0x04c742a0
_ZNSt5_TreeISt12_Tset_traitsIiSt4lessIiESaIiELb0EEE5_TidyEv 0x04c74608
_ZNSt6vectorIN10BRO_Common13ContentValues8S_VALUESESaIS2_EE4_BuyEj 0x04c74a2c
_ZNSt5_TreeISt12_Tset_traitsIiSt4lessIiESaIiELb0EEE6insertERKi 0x04c750c4
_ZNSt5dequeIN10BRO_Common17C_BCM_BRO_MessageESaIS1_EE9push_backERKS1_ 0x04c75f04
_ZN10BRO_Common13ContentValuesC1ERKS0_ 0x04c77350
_ZN10BRO_Common20eMessageTypeToStringENS_14E_MESSAGE_TYPEE 0x04c784e0
_ZThn68_N19C_BCM_DC_BRW_CLIENTD1Ev 0x04c78834
_ZThn68_N19C_BCM_DC_BRW_CLIENTD0Ev 0x04c7883c
_ZThn68_N19C_BCM_DC_BRW_CLIENT17date_time_changedERKN4DBus6StructIhhthtbNS0_7InvalidES2_S2_S2_EERKNS1_IhhbhbblbS2_S2_EERKl 0x04c78844
_ZThn68_N22C_BCM_Drive_BRW_CLIENTD1Ev 0x04c788e8
_ZThn68_N22C_BCM_Drive_BRW_CLIENTD0Ev 0x04c788f0
_ZThn68_N22C_BCM_Drive_BRW_CLIENT18SystemUnitsChangedERKN4DBus6StructIllllNS0_7InvalidES2_S2_S2_S2_S2_EERKb 0x04c788f8
_ZThn112_N21C_BCM_NAVI_BRW_CLIENTD1Ev 0x04c79050
_ZThn108_N21C_BCM_NAVI_BRW_CLIENTD1Ev 0x04c79058
_ZThn104_N21C_BCM_NAVI_BRW_CLIENTD1Ev 0x04c79060
_ZThn100_N21C_BCM_NAVI_BRW_CLIENTD1Ev 0x04c79068
_ZThn96_N21C_BCM_NAVI_BRW_CLIENTD1Ev 0x04c79070
_ZThn92_N21C_BCM_NAVI_BRW_CLIENTD1Ev 0x04c79078
_ZThn88_N21C_BCM_NAVI_BRW_CLIENTD1Ev 0x04c79080
_ZThn84_N21C_BCM_NAVI_BRW_CLIENTD1Ev 0x04c79088
_ZThn80_N21C_BCM_NAVI_BRW_CLIENTD1Ev 0x04c79090
_ZThn76_N21C_BCM_NAVI_BRW_CLIENTD1Ev 0x04c79098
_ZThn72_N21C_BCM_NAVI_BRW_CLIENTD1Ev 0x04c790a0
_ZThn68_N21C_BCM_NAVI_BRW_CLIENTD1Ev 0x04c790a8
_ZThn112_N21C_BCM_NAVI_BRW_CLIENTD0Ev 0x04c790b0
_ZThn108_N21C_BCM_NAVI_BRW_CLIENTD0Ev 0x04c790b8
_ZThn104_N21C_BCM_NAVI_BRW_CLIENTD0Ev 0x04c790c0
_ZThn100_N21C_BCM_NAVI_BRW_CLIENTD0Ev 0x04c790c8
_ZThn96_N21C_BCM_NAVI_BRW_CLIENTD0Ev 0x04c790d0
_ZThn92_N21C_BCM_NAVI_BRW_CLIENTD0Ev 0x04c790d8
_ZThn88_N21C_BCM_NAVI_BRW_CLIENTD0Ev 0x04c790e0
_ZThn84_N21C_BCM_NAVI_BRW_CLIENTD0Ev 0x04c790e8
_ZThn80_N21C_BCM_NAVI_BRW_CLIENTD0Ev 0x04c790f0
_ZThn76_N21C_BCM_NAVI_BRW_CLIENTD0Ev 0x04c790f8
_ZThn72_N21C_BCM_NAVI_BRW_CLIENTD0Ev 0x04c79100
_ZThn68_N21C_BCM_NAVI_BRW_CLIENTD0Ev 0x04c79108
_ZThn80_N21C_BCM_NAVI_BRW_CLIENT10gps_signalERKlS1_ 0x04c79110
_ZThn112_N21C_BCM_NAVI_BRW_CLIENT9ri_signalERKl 0x04c79118
_ZThn92_N21C_BCM_NAVI_BRW_CLIENT9rg_signalERKl 0x04c79120
_ZThn68_N19C_BCM_NA_BRW_CLIENTD0Ev 0x04c79218
_ZThn68_N19C_BCM_NA_BRW_CLIENTD1Ev 0x04c79220
_ZThn68_N19C_BCM_NA_BRW_CLIENT16InstSpeedChangedERKtRKb 0x04c79228
_ZThn72_N20C_BCM_NVI_BRW_CLIENTD0Ev 0x04c795b4
_ZThn68_N20C_BCM_NVI_BRW_CLIENTD0Ev 0x04c795bc
_ZThn72_N20C_BCM_NVI_BRW_CLIENTD1Ev 0x04c795c4
_ZThn68_N20C_BCM_NVI_BRW_CLIENTD1Ev 0x04c795cc
_ZThn68_N20C_BCM_NVI_BRW_CLIENT28InstantaneousTripDataChangedERKN4DBus6StructItbmbmbmbNS0_7InvalidES2_EE 0x04c795d4
_ZThn68_N20C_BCM_NVI_BRW_CLIENT15TripDataChangedERKlRKN4DBus6StructItbtbmbtbNS2_7InvalidES4_EE 0x04c795dc
_ZThn68_N19C_BCM_UP_BRW_CLIENTD1Ev 0x04c7962c
_ZThn68_N19C_BCM_UP_BRW_CLIENTD0Ev 0x04c79634
_ZSt5fixedRSt8ios_base 0x04c7963c
_ZN16BRO_Configurator13InsertRequestD0Ev 0x04c79650
_ZN16BRO_Configurator13UpdateRequestD0Ev 0x04c796a8
_ZN16BRO_Configurator13DeleteRequestD0Ev 0x04c79700
_ZN16BRO_Configurator13DeleteRequestD1Ev 0x04c79758
_ZN16BRO_Configurator13SelectRequestD0Ev 0x04c79790
_ZNSt18basic_stringstreamIcSt11char_traitsIcESaIcEEC1ENSt5_IosbIiE9_OpenmodeE 0x04c79920
_ZNKSt6vectorIN10BRO_Common13ContentValues8S_VALUESESaIS2_EE5_XlenEv 0x04c79d88
_ZNKSt6vectorIN10BRO_Common13ContentValues8S_VALUESESaIS2_EE2atEj 0x04c7a260
_ZNSt6vectorIN10BRO_Common13ContentValues8S_VALUESESaIS2_EE9_Insert_nENS4_8iteratorEjRKS2_ 0x04c7a7ec
_ZNSt6vectorIN10BRO_Common13ContentValues8S_VALUESESaIS2_EE9push_backERKS2_ 0x04c7ae2c
_ZN10BRO_Common13ContentValuesaSERKS0_ 0x04c7bce8
_ZNSt6vectorIN10BRO_Common13ContentValuesESaIS1_EE9_Insert_nENS3_8iteratorEjRKS1_ 0x04c7cde4
_ZN6Common25C_BCM_CON_ObserverMessageD0Ev 0x04c7d360
_ZN6Common25C_BCM_CON_ObserverMessageD1Ev 0x04c7d398
_ZTv0_n12_NSt19basic_ostringstreamIcSt11char_traitsIcESaIcEED1Ev 0x04c7d3a8
_ZNSt19basic_ostringstreamIcSt11char_traitsIcESaIcEED1Ev 0x04c7d3b8
_ZN12Configurator13SelectRequestD1Ev 0x04c7d5a8
_ZTv0_n12_NSt19basic_ostringstreamIcSt11char_traitsIcESaIcEED0Ev 0x04c7d6f8
_ZNSt19basic_ostringstreamIcSt11char_traitsIcESaIcEED0Ev 0x04c7d708
_ZNSt6vectorIN12Configurator22C_BCM_CON_Configurator8sWifiNetESaIS2_EE9_Insert_nENS4_8iteratorEjRKS2_ 0x04c7d908
_ZN6Common13ContentValuesD1Ev 0x04c7e39c
_ZNSt6vectorIN6Common13ContentValuesESaIS1_EE5_TidyEv 0x04c7e5ac
_ZNSt6vectorIN6Common13ContentValuesESaIS1_EE2atEj 0x04c7e880
_ZSt3hexRSt8ios_base 0x04c7eb54
_ZNSo5flushEv 0x04c7eb68
_ZNSolsEm 0x04c7f158
_ZN6Common15eStatusToStringENS_8E_STATUSE 0x04c7f5ec
_ZNKSt15basic_stringbufIcSt11char_traitsIcESaIcEE3strEv 0x04c7f8e0
_ZThn68_N28C_BCM_CON_DbusHandler_CLIENTD1Ev 0x04c803fc
_ZThn68_N28C_BCM_CON_DbusHandler_CLIENTD0Ev 0x04c80404
_ZThn68_N28C_BCM_CON_DbusHandler_SERVER30DBUS_ResetConnectionStatisticsEv 0x04c8040c
_ZThn68_N28C_BCM_CON_DbusHandler_SERVER18DBUS_SetDUNProfileERKSsS1_S1_RKbS1_S1_ 0x04c80414
_ZThn68_N28C_BCM_CON_DbusHandler_SERVER14DBUS_EnablePMSERKb 0x04c8041c
_ZThn68_N28C_BCM_CON_DbusHandler_SERVER28DBUS_RenotifyDevicesAttachedEv 0x04c80424
_ZThn68_N28C_BCM_CON_DbusHandler_SERVER27DBUS_RestoreFactorySettingsEv 0x04c8042c
_ZThn68_N28C_BCM_CON_DbusHandler_SERVER22DBUS_GetWifiMACAddressERSs 0x04c80434
_ZThn68_N28C_BCM_CON_DbusHandler_SERVER23DBUS_SetDevicesPriorityERKlS1_S1_ 0x04c8043c
_ZThn68_N28C_BCM_CON_DbusHandler_SERVER23DBUS_SetDeviceUsabilityERKlRKb 0x04c80444
_ZThn68_N28C_BCM_CON_DbusHandler_SERVER17DBUS_PingInternetERKSsRKm 0x04c8044c
_ZThn68_N28C_BCM_CON_DbusHandler_SERVER14DBUS_EnableDunERKbRKm 0x04c80454
_ZThn68_N28C_BCM_CON_DbusHandler_SERVER26DBUS_GetDunConnectionStateERl 0x04c8045c
_ZThn68_N28C_BCM_CON_DbusHandler_SERVER21DBUS_EnableModem3GKeyERKbRKm 0x04c80464
_ZThn68_N28C_BCM_CON_DbusHandler_SERVER33DBUS_GetModem3GKeyConnectionStateERl 0x04c8046c
_ZThn68_N28C_BCM_CON_DbusHandler_SERVER32DBUS_SetModem3GKeyRoamingAllowedERKb 0x04c80474
_ZThn68_N28C_BCM_CON_DbusHandler_SERVER29DBUS_GetModem3GKeyNetworkNameEv 0x04c8047c
_ZThn68_N28C_BCM_CON_DbusHandler_SERVER32DBUS_GetModem3GKeyConnectionTypeEv 0x04c80484
_ZThn68_N28C_BCM_CON_DbusHandler_SERVER23DBUS_GetDevicesPriorityEv 0x04c8048c
_ZThn68_N28C_BCM_CON_DbusHandler_SERVER21DBUS_GetSignalQualityEv 0x04c80494
_ZThn68_N28C_BCM_CON_DbusHandler_SERVER22DBUS_SaveModem3GKeyPinERKSs 0x04c8049c
_ZThn68_N28C_BCM_CON_DbusHandler_SERVER21DBUS_SetModem3GKeyPukERKSs 0x04c804a4
_ZThn68_N28C_BCM_CON_DbusHandler_SERVER21DBUS_SetModem3GKeyPinERKSsRKb 0x04c804ac
_ZThn68_N28C_BCM_CON_DbusHandler_SERVER27DBUS_GetWifiConnectionStateERl 0x04c804b4
_ZThn68_N28C_BCM_CON_DbusHandler_SERVER27DBUS_UpdateWifiNetworksListEv 0x04c804bc
_ZThn68_N28C_BCM_CON_DbusHandler_SERVER22DBUS_StopCounterSignalEv 0x04c804c4
_ZThn68_N28C_BCM_CON_DbusHandler_SERVER23DBUS_StartCounterSignalERKm 0x04c804cc
_ZThn68_N28C_BCM_CON_DbusHandler_SERVER21DBUS_IsDeviceAttachedERKlRb 0x04c804d4
_ZThn68_N28C_BCM_CON_DbusHandler_SERVER23DBUS_GetConnectionStateERl 0x04c804dc
_ZThn68_N28C_BCM_CON_DbusHandler_SERVER20DBUS_Set3GKeyProfileERKSsS1_S1_S1_RKbS1_S1_S3_S3_S3_S1_S3_ 0x04c804e4
_ZThn68_N28C_BCM_CON_DbusHandler_SERVER19DBUS_SetWifiProfileERKSsRKlS3_S1_RKbS1_S1_S1_S5_S1_S1_S5_ 0x04c804ec
_ZThn68_N28C_BCM_CON_DbusHandler_SERVER25DBUS_EnableWifiConnectionERKSsS1_ 0x04c804f4
_ZThn68_N28C_BCM_CON_DbusHandler_SERVER23DBUS_Enable3GConnectionERKSs 0x04c804fc
_ZThn68_N28C_BCM_CON_DbusHandler_SERVER29DBUS_EnableInternetConnectionERKb 0x04c80504
_ZN27com_MM_Connectivity_adaptorD0Ev 0x04c8050c
_ZN27com_MM_Connectivity_adaptorD1Ev 0x04c80598
_ZThn68_N28C_BCM_CON_DbusHandler_SERVERD1Ev 0x04c80610
_ZThn68_N28C_BCM_CON_DbusHandler_SERVERD0Ev 0x04c80618
_ZNSt6vectorIN6Common13ContentValues8S_VALUESESaIS2_EE5_TidyEv 0x04c80620
_ZNSt6vectorIN6Common13ContentValues8S_VALUESESaIS2_EE4_BuyEj 0x04c80800
_ZNSt5dequeIN6Common17C_BCM_CON_MessageESaIS1_EE9push_backERKS1_ 0x04c80a4c
_ZN6Common13ContentValuesC1ERKS0_ 0x04c81960
_ZN6Common20eMessageTypeToStringENS_14E_MESSAGE_TYPEE 0x04c82af0
_ZNSt19basic_ostringstreamIcSt11char_traitsIcESaIcEEC1ENSt5_IosbIiE9_OpenmodeE 0x04c82da8
_ZNSolsEb 0x04c83228
_ZNSolsEj 0x04c836bc
_ZNSt5dequeIN7Manager24C_BCM_CON_SpyDataHandler10bt_event_sESaIS2_EE9push_backERKS2_ 0x04c83cc4
_ZN12Configurator13InsertRequestD0Ev 0x04c840a8
_ZN12Configurator13InsertRequestD1Ev 0x04c84100
_ZN12Configurator13UpdateRequestD0Ev 0x04c84138
_ZN12Configurator13UpdateRequestD1Ev 0x04c84190
_ZN12Configurator13DeleteRequestD0Ev 0x04c841c8
_ZN12Configurator13DeleteRequestD1Ev 0x04c84220
_ZN12Configurator13SelectRequestD0Ev 0x04c84258
_ZNKSt6vectorIN6Common13ContentValues8S_VALUESESaIS2_EE5_XlenEv 0x04c843e8
_ZNKSt6vectorIN6Common13ContentValues8S_VALUESESaIS2_EE2atEj 0x04c844e0
_ZNSt6vectorIN6Common13ContentValues8S_VALUESESaIS2_EE9_Insert_nENS4_8iteratorEjRKS2_ 0x04c84628
_ZNSt6vectorIN6Common13ContentValues8S_VALUESESaIS2_EE9push_backERKS2_ 0x04c84c44
_ZN6Common13ContentValuesaSERKS0_ 0x04c84d34
_ZNSt6vectorIN6Common13ContentValuesESaIS1_EE9_Insert_nENS3_8iteratorEjRKS1_ 0x04c85e30
_ZN18C_HMI_INT_APP_BASE23GetDesktopClientPointerEv 0x04c863ac
_ZN18C_HMI_INT_APP_BASE18GetUpClientPointerEv 0x04c863dc
_ZN18C_HMI_INT_APP_BASE19GetVieClientPointerEv 0x04c8640c
_ZN18C_HMI_INT_APP_BASE23GetBrowserClientPointerEv 0x04c8643c
_ZN18C_HMI_INT_APP_BASE28GetConnectivityClientPointerEv 0x04c8646c
_ZN18C_HMI_INT_APP_BASE19GetOOMClientPointerEv 0x04c8649c
_ZN18C_HMI_INT_APP_BASE21GetDriveClientPointerEv 0x04c864cc
_ZN18C_HMI_INT_APP_BASE16GetInternetPopUpEv 0x04c864fc
_ZN18C_HMI_INT_APP_BASE22GetInternetMenuManagerEv 0x04c86534
_ZNK18C_HMI_INT_APP_BASE23getCurrentApplicationIDEv 0x04c8656c
_ZNK18C_HMI_INT_APP_BASE24getWebBrowserButtonStateERb 0x04c8659c
_ZNK18C_HMI_INT_APP_BASE20isPsaPortalAvailableEv 0x04c86678
_ZN18C_HMI_INT_APP_BASE12setUrlLoadedEb 0x04c866ac
_ZNK18C_HMI_INT_APP_BASE22getLastPageLoadSuccessEv 0x04c866e4
_ZN18C_HMI_INT_APP_BASE19setFieldToBeFocusedEi 0x04c86718
_ZNK18C_HMI_INT_APP_BASE19getFieldToBeFocusedEv 0x04c8674c
_ZNK18C_HMI_INT_APP_BASE16getTextInputTypeERm 0x04c8677c
_ZN18C_HMI_INT_APP_BASE18GetDUNDataTransferERi 0x04c867b4
_ZN18C_HMI_INT_APP_BASE22GetDUNDurationTransferERi 0x04c867ec
_ZNK18C_HMI_INT_APP_BASE16isDeviceAttachedEv 0x04c86824
_ZNK18C_HMI_INT_APP_BASE7IsPopupEm 0x04c86858
_ZNK18C_HMI_INT_APP_BASE6IsMenuEm 0x04c86970
_ZNK18C_HMI_INT_APP_BASE11IsPermanentEm 0x04c86a34
_ZNK18C_HMI_INT_APP_BASE13getEmbedStateEv 0x04c86a8c
_ZNK18C_HMI_INT_APP_BASE17isFirstPageLoadedEv 0x04c86ac0
_ZN18C_HMI_INT_APP_BASE18setFirstPageLoadedEb 0x04c86af4
_ZN18C_HMI_INT_APP_BASE17setRestrictedModeEb 0x04c86b2c
_ZNK18C_HMI_INT_APP_BASE20isPSAPortalAvailableEv 0x04c86b64
_ZNK18C_HMI_INT_APP_BASE21GetBrowserMenuPointerEv 0x04c86b98
_ZN18C_HMI_INT_APP_BASE26ResetDunProfileSettingFlagEv 0x04c86bd0
_ZNK18C_HMI_INT_APP_BASE15GetPPPLinkStateER29t_connectivity_ppp_link_state 0x04c86c00
_ZNK18C_HMI_INT_APP_BASE22isInternetProfileReadyEv 0x04c86c38
_ZNK18C_HMI_INT_APP_BASE18isFullWebAvailableEv 0x04c86cec
_GLOBAL__I__ZN18C_HMI_INT_APP_BASE10m_instanceE 0x04c86e94
_ZN18C_HMI_INT_APP_BASE15WriteDynamicSpyER9CMMString 0x04c86edc
_ZN18C_HMI_INT_APP_BASE20clearPhoneCallNumberEv 0x04c87074
_ZN18C_HMI_INT_APP_BASE10clearVCardEv 0x04c870c4
_ZN18C_HMI_INT_APP_BASE12clearContactEv 0x04c87114
_ZNK18C_HMI_INT_APP_BASE29isAuthenticationWebPageNeededEv 0x04c87164
_ZN18C_HMI_INT_APP_BASE23clearAuthenticationDataEv 0x04c87298
_ZNK18C_HMI_INT_APP_BASE18getPhoneCallNumberERSs 0x04c87348
_ZNK18C_HMI_INT_APP_BASE19getUpdatedUserAgentERSs 0x04c873a0
_ZNK18C_HMI_INT_APP_BASE13GetDUNProfileER15t_dun_profile_t 0x04c873f8
_ZN18C_HMI_INT_APP_BASE13SetDUNProfileER15t_dun_profile_t 0x04c87464
_ZNK18C_HMI_INT_APP_BASE25getPortalNotificationDataER23t_portal_notification_t 0x04c874cc
_ZN18C_HMI_INT_APP_BASE18getCurrentPageInfoERSbIwSt11char_traitsIwESaIwEES4_S4_ 0x04c87524
_ZN18C_HMI_INT_APP_BASE16getPageLoadedUrlERSbIwSt11char_traitsIwESaIwEE 0x04c875cc
_ZN18C_HMI_INT_APP_BASE17getPageLoadedInfoERSbIwSt11char_traitsIwESaIwEES4_S4_ 0x04c87624
_ZNK18C_HMI_INT_APP_BASE17getTextInputValueERSbIwSt11char_traitsIwESaIwEE 0x04c876cc
_ZNK18C_HMI_INT_APP_BASE14getFaviconPathERSbIwSt11char_traitsIwESaIwEE 0x04c87724
_ZN18C_HMI_INT_APP_BASE10getRootUrlERKSbIwSt11char_traitsIwESaIwEERS3_ 0x04c8777c
_ZN18C_HMI_INT_APP_BASE25setAuthenticationPasswordERSbIwSt11char_traitsIwESaIwEE 0x04c87908
_ZN18C_HMI_INT_APP_BASE25setAuthenticationUserNameERSbIwSt11char_traitsIwESaIwEE 0x04c87a28
_ZNK18C_HMI_INT_APP_BASE26getUserGuidePageTobeLoadedERSbIwSt11char_traitsIwESaIwEE 0x04c87b48
_ZNK18C_HMI_INT_APP_BASE16getUrlToBeLoadedERSbIwSt11char_traitsIwESaIwEE 0x04c87bd8
_ZN18C_HMI_INT_APP_BASE16setUrlToBeLoadedERKSbIwSt11char_traitsIwESaIwEE 0x04c87c7c
_ZN18C_HMI_INT_APP_BASE21GetDynamicSpyDataInfoER9CMMString 0x04c87d1c
_ZN18C_HMI_INT_APP_BASE19UpdateStaticSpyDataER9CMMString 0x04c87fcc
_ZN18C_HMI_INT_APP_BASE26WriteStaticSpyEventHandlerEv 0x04c880a8
_ZN18C_HMI_INT_APP_BASE9DeleteSpyEv 0x04c88200
_ZN18C_HMI_INT_APP_BASE9CreateSpyEv 0x04c8826c
_ZN18C_HMI_INT_APP_BASE15launchPhoneCallEv 0x04c88320
_ZN18C_HMI_INT_APP_BASE9saveVCardEv 0x04c883fc
_ZN18C_HMI_INT_APP_BASE11saveContactEv 0x04c885e0
_ZN18C_HMI_INT_APP_BASE34getAuthenticationDataUpToDateStateERb 0x04c888c4
_ZN18C_HMI_INT_APP_BASE24isFavoriteAlreadyPresentERKSs 0x04c88cdc
_ZN18C_HMI_INT_APP_BASE23storeAuthenticationDataEv 0x04c88e0c
_ZN18C_HMI_INT_APP_BASE15UpdateUserAgentEv 0x04c88ff0
_ZN18C_HMI_INT_APP_BASE19GetActiveDeviceTypeEv 0x04c8972c
_ZN18C_HMI_INT_APP_BASE24changeSourceAudioToTunerEv 0x04c898b0
_ZN18C_HMI_INT_APP_BASE16StopPopupPMSBeepEv 0x04c899dc
_ZN18C_HMI_INT_APP_BASE17StartPopupPMSBeepEv 0x04c89a70
_ZN18C_HMI_INT_APP_BASE16closeBrowserMenuEv 0x04c89c6c
_ZN18C_HMI_INT_APP_BASE12storeCookiesEv 0x04c89d08
_ZN18C_HMI_INT_APP_BASE21embedUserGuideWebViewEb 0x04c8a0d0
_ZN18C_HMI_INT_APP_BASE12embedWebViewEbb 0x04c8a218
_ZN18C_HMI_INT_APP_BASE22destroyZ1BrowserWidgetEv 0x04c8a3cc
_ZN18C_HMI_INT_APP_BASE21createZ1BrowserWidgetEv 0x04c8a5f0
_ZN18C_HMI_INT_APP_BASE22destroyZ0BrowserWidgetEv 0x04c8a6fc
_ZN18C_HMI_INT_APP_BASE21createZ0BrowserWidgetEv 0x04c8a8b4
_ZN18C_HMI_INT_APP_BASE24loadUntrustedCertificateEv 0x04c8ab0c
_ZN18C_HMI_INT_APP_BASE21getHistoryForDropDownERSt6vectorISbIwSt11char_traitsIwESaIwEESaIS4_EE 0x04c8ac68
_ZN18C_HMI_INT_APP_BASE6SetCSSERSs 0x04c8aec0
_ZN18C_HMI_INT_APP_BASE32getCurrentHistoryFocusedItemInfoERSbIwSt11char_traitsIwESaIwEES4_S4_ 0x04c8b09c
_ZN18C_HMI_INT_APP_BASE26SetUserGuidePageTobeLoadedERSbIwSt11char_traitsIwESaIwEE 0x04c8b4a8
_ZN18C_HMI_INT_APP_BASE14ActivatePortalEb 0x04c8b67c
_ZN18C_HMI_INT_APP_BASE15SetVKBDLanguageEl 0x04c8b87c
_ZNK18C_HMI_INT_APP_BASE15GetVKBDLanguageERl 0x04c8b92c
_ZN18C_HMI_INT_APP_BASE13GetVKBStringsEv 0x04c8ba6c
_ZN18C_HMI_INT_APP_BASE20SetCookiesAcceptanceEv 0x04c8bb3c
_ZN18C_HMI_INT_APP_BASE18SetPopupAcceptanceEv 0x04c8bc38
_ZN18C_HMI_INT_APP_BASE8SetProxyEv 0x04c8bd34
_ZN18C_HMI_INT_APP_BASE10loadPortalEv 0x04c8c0f4
_ZN18C_HMI_INT_APP_BASE23InitJavascriptInterfaceEv 0x04c8c158
_ZN18C_HMI_INT_APP_BASE19reloadHistoryFromDBEv 0x04c8e708
_ZN18C_HMI_INT_APP_BASE30reloadFavoritesOrderTypeFromDBEv 0x04c8e768
_ZN18C_HMI_INT_APP_BASE21reloadFavoritesFromDBEv 0x04c8e7b8
_ZN18C_HMI_INT_APP_BASE14GetBrowserDataEv 0x04c8e818
_ZN18C_HMI_INT_APP_BASE24dumpConnectivitySettingsEv 0x04c8f3f0
_ZN18C_HMI_INT_APP_BASE26GetConnectivityScreensDataEv 0x04c8f910
_ZN18C_HMI_INT_APP_BASE10closePopupE14t_int_popup_id 0x04c8fbfc
_ZN18C_HMI_INT_APP_BASE9openPopupE14t_int_popup_id15t_int_popup_ctx 0x04c8fcc4
_ZN18C_HMI_INT_APP_BASE9openPanelEttl 0x04c8fd54
_ZNK18C_HMI_INT_APP_BASE21GetNetworkAudioClientEv 0x04c8fefc
_ZNK18C_HMI_INT_APP_BASE15IsModuleDisplayEv 0x04c8ff84
_ZNK18C_HMI_INT_APP_BASE18GetCurrentScreenIDEv 0x04c90020
_ZNK18C_HMI_INT_APP_BASE17IsZ1BrowserActiveEv 0x04c90140
_ZN18C_HMI_INT_APP_BASE14refreshHistoryEv 0x04c901c4
_ZN18C_HMI_INT_APP_BASE16refreshFavoritesEv 0x04c90268
_ZN18C_HMI_INT_APP_BASE15RefreshZ0ScreenEv 0x04c902e4
_ZN18C_HMI_INT_APP_BASE24RefreshCurrentMenuScreenEv 0x04c9037c
_ZN18C_HMI_INT_APP_BASE22forceInternetZ0DisplayEv 0x04c9042c
_ZN18C_HMI_INT_APP_BASE36LaunchGuidanceFromPortalNotificationEv 0x04c905f0
_ZN18C_HMI_INT_APP_BASE15popupPMSConsultEv 0x04c909d0
_ZN18C_HMI_INT_APP_BASE12RegisterMenuEv 0x04c90b10
_ZN18C_HMI_INT_APP_BASE15GetConfigOptionEPKcRb 0x04c9225c
_ZN18C_HMI_INT_APP_BASE20AskVideoNotificationEv 0x04c929d8
_ZN18C_HMI_INT_APP_BASE6BackupEv 0x04c92b94
_ZN18C_HMI_INT_APP_BASE4BodyEv 0x04c92e04
_ZN18C_HMI_INT_APP_BASE19module_registrationEv 0x04c9302c
_ZN18C_HMI_INT_APP_BASE8FinalizeEv 0x04c930b8
_ZN18C_HMI_INT_APP_BASE10InitializeEv 0x04c934a4
_ZN18C_HMI_INT_APP_BASE7InitAppEv 0x04c949b8
_ZN18C_HMI_INT_APP_BASED0Ev 0x04c96078
_ZN18C_HMI_INT_APP_BASED1Ev 0x04c975dc
_ZN18C_HMI_INT_APP_BASED2Ev 0x04c98b40
_ZN18C_HMI_INT_APP_BASEC1ERKSsm 0x04c9a0a4
_ZN18C_HMI_INT_APP_BASE8InstanceEv 0x04c9b564
_ZN18C_HMI_INT_APP_BASEC2ERKSsm 0x04c9b6c8
_GLOBAL__I__ZN20C_HMI_INT_Browser_DB17getSavedPasswordsERSt6vectorI10t_passwordSaIS1_EE 0x04c9ccfc
_ZN20C_HMI_INT_Browser_DB25getUsernamePasswordForUrlERKSsjRSsS2_ 0x04c9cd44
_ZN20C_HMI_INT_Browser_DB19getBookmarkPresenceERKSsRb 0x04c9d0f4
_ZN20C_HMI_INT_Browser_DB12getUserAgentERSs 0x04c9d440
_ZN20C_HMI_INT_Browser_DB18getPopupAcceptanceERb 0x04c9d78c
_ZN20C_HMI_INT_Browser_DB20getCookiesAcceptanceERb 0x04c9dadc
_ZN20C_HMI_INT_Browser_DB18getIdOldestHistoryERi 0x04c9de2c
_ZN20C_HMI_INT_Browser_DB19getIdOldestFavoriteERi 0x04c9e168
_ZN20C_HMI_INT_Browser_DB18getHistorySortTypeER12t_order_type 0x04c9e4a4
_ZN20C_HMI_INT_Browser_DB20getFavoritesSortTypeER12t_order_type 0x04c9e7e0
_ZN20C_HMI_INT_Browser_DB15getSavedCookiesERSt6vectorI15t_cookie_structSaIS1_EE 0x04c9eb1c
_ZN20C_HMI_INT_Browser_DB10getHistoryERSt6vectorI9t_historySaIS1_EE12t_order_type 0x04c9f120
_ZN20C_HMI_INT_Browser_DB12getFavoritesERSt6vectorI10t_favoriteSaIS1_EE12t_order_type 0x04c9f660
_ZN20C_HMI_INT_Browser_DB17getSavedPasswordsERSt6vectorI10t_passwordSaIS1_EE 0x04c9fb58
_GLOBAL__I__ZN25C_HMI_INT_Connectivity_DB18getPreferredDeviceERi 0x04ca01b0
_ZN25C_HMI_INT_Connectivity_DB13getDUNProfileER15t_dun_profile_t 0x04ca01f8
_ZN25C_HMI_INT_Connectivity_DB18getPreferredDeviceERi 0x04ca0714
_ZN21C_HMI_INT_DisplayData11RefreshDataEi 0x04ca0a50
_ZN21C_HMI_INT_DisplayData11GetTextDataEiRSbIwSt11char_traitsIwESaIwEE 0x04ca0a7c
_ZN21C_HMI_INT_DisplayData14GetNumaricDataEiRm 0x04ca0aac
_ZN21C_HMI_INT_DisplayData12GetRangeDataEiRmS0_S0_S0_ 0x04ca0adc
_GLOBAL__I__ZN21C_HMI_INT_DisplayData12m_p_instanceE 0x04ca0c8c
_ZN21C_HMI_INT_DisplayData14GetBooleanDataEiRb 0x04ca0cd4
_ZN21C_HMI_INT_DisplayDataD0Ev 0x04ca0d98
_ZN21C_HMI_INT_DisplayDataD1Ev 0x04ca0e14
_ZN21C_HMI_INT_DisplayDataD2Ev 0x04ca0e90
_ZN21C_HMI_INT_DisplayDataC1EP18C_HMI_ModuleThread 0x04ca0f0c
_ZN21C_HMI_INT_DisplayData8InstanceEP18C_HMI_ModuleThread 0x04ca0fc8
_ZN21C_HMI_INT_DisplayDataC2EP18C_HMI_ModuleThread 0x04ca10c0
_ZN12C_HMI_INT_F112SetZ2TimeoutEm 0x04ca117c
_GLOBAL__I__ZN12C_HMI_INT_F118m_p_class_instanceE 0x04ca1314
_ZN12C_HMI_INT_F115setPSAPortalUrlERSbIwSt11char_traitsIwESaIwEE 0x04ca135c
_ZN12C_HMI_INT_F113loadPortalUrlEv 0x04ca13b0
_ZN12C_HMI_INT_F113GetZ0ScreenIdERi 0x04ca14c8
_ZN12C_HMI_INT_F114UpdateZ0ScreenEv 0x04ca151c
_ZN12C_HMI_INT_F113SetZ0ScreenIdEi 0x04ca1720
_ZN12C_HMI_INT_F115GetZ0DispStatusERN18C_HMI_DispMgntBase15t_display_stateE 0x04ca1774
_ZN12C_HMI_INT_F1C1EP21C_HMI_INT_DisplayDataP18C_HMI_ModuleThreadP32C_BCM_HMI_DESKTOP_SERVICE_CLIENT 0x04ca17d8
_ZN12C_HMI_INT_F18InstanceEP21C_HMI_INT_DisplayDataP18C_HMI_ModuleThreadP32C_BCM_HMI_DESKTOP_SERVICE_CLIENT 0x04ca18f0
_ZN12C_HMI_INT_F1C2EP21C_HMI_INT_DisplayDataP18C_HMI_ModuleThreadP32C_BCM_HMI_DESKTOP_SERVICE_CLIENT 0x04ca19f8
_ZN12C_HMI_INT_F1D0Ev 0x04ca1b10
_ZN12C_HMI_INT_F1D1Ev 0x04ca1c10
_ZN12C_HMI_INT_F1D2Ev 0x04ca1d10
_ZN15C_HMI_INT_F1_Z013SetZ0ScreenIdEi 0x04ca1e10
_ZN15C_HMI_INT_F1_Z013GetZ0ScreenIdERi 0x04ca1e40
_ZN15C_HMI_INT_F1_Z018GetCurrentScreenIdERi 0x04ca1e94
_GLOBAL__I__ZN15C_HMI_INT_F1_Z0C2EP21C_HMI_INT_DisplayDataP18C_HMI_ModuleThread 0x04ca2044
_ZN15C_HMI_INT_F1_Z028HandleTouchEventOnNoPortalZ0ER18C_HMI_TouchMessage 0x04ca208c
_ZN15C_HMI_INT_F1_Z026HandleTouchEventOnPortalZ0ER18C_HMI_TouchMessage 0x04ca2318
_ZN15C_HMI_INT_F1_Z016HandleTouchEventER18C_HMI_TouchMessage 0x04ca2434
_ZN15C_HMI_INT_F1_Z0D0Ev 0x04ca24c4
_ZN15C_HMI_INT_F1_Z0D1Ev 0x04ca2540
_ZN15C_HMI_INT_F1_Z0D2Ev 0x04ca25bc
_ZN15C_HMI_INT_F1_Z0C1EP21C_HMI_INT_DisplayDataP18C_HMI_ModuleThread 0x04ca2638
_ZN15C_HMI_INT_F1_Z0C2EP21C_HMI_INT_DisplayDataP18C_HMI_ModuleThread 0x04ca26b8
_ZN18C_HMI_INT_APP_BASE27HandleInternetConfigMessageER17C_HMI_BaseMessage 0x04ca2738
_GLOBAL__I__ZN18C_HMI_INT_APP_BASE13HandleMessageER17C_HMI_BaseMessage 0x04ca28d0
_ZN18C_HMI_INT_APP_BASE22HandleFromVideoMessageER17C_HMI_BaseMessage 0x04ca2918
_ZN18C_HMI_INT_APP_BASE26HandleInternetEventMessageER17C_HMI_BaseMessage 0x04ca2f7c
_ZN18C_HMI_INT_APP_BASE18HandleTouchMessageER17C_HMI_BaseMessage 0x04ca6f04
_ZN18C_HMI_INT_APP_BASE19HandleSystemMessageER17C_HMI_BaseMessage 0x04ca7504
_ZN18C_HMI_INT_APP_BASE17HandleDBusMessageER17C_HMI_BaseMessage 0x04ca87ec
_ZN18C_HMI_INT_APP_BASE20HandleTimeOutMessageER17C_HMI_BaseMessage 0x04caf490
_ZN18C_HMI_INT_APP_BASE13HandleMessageER17C_HMI_BaseMessage 0x04cafaa4
_ZN15C_HMI_INT_Utils12stringToDateERSs 0x04cafbec
_ZN15C_HMI_INT_Utils14obscuredStringERKSs 0x04cb002c
_ZN15C_HMI_INT_Utils12dateToStringEm 0x04cb00ac
_ZN15C_HMI_INT_Utils13UniverseToCssEi 0x04cb01b4
_ZN15C_HMI_INT_Utils15WStringToStringERKSbIwSt11char_traitsIwESaIwEE 0x04cb0278
_ZN15C_HMI_INT_Utils15StringToWStringERKSsRKSbIwSt11char_traitsIwESaIwEE 0x04cb0328
_GLOBAL__I_HMI_INT_Browser 0x04cb05d4
_Z17shUpdateUserAgentPc 0x04cb061c
_Z9shLoadUrlPc 0x04cb074c
_Z17main_hmi_internetv 0x04cb09a0
_ZN29C_HMI_INET_BrowserMenu_BSC_Z111GetItemTypeEtR11t_item_type 0x04cb0b3c
_ZN29C_HMI_INET_BrowserMenu_BSC_Z115GetMenuItemDataEtRmS0_S0_b 0x04cb0be4
_ZN29C_HMI_INET_BrowserMenu_BSC_Z132GetNonStandardMenuItemFromWidgetERKtRt 0x04cb0c30
_GLOBAL__I__ZN29C_HMI_INET_BrowserMenu_BSC_Z1C2EmmP18C_HMI_INT_APP_BASEm 0x04cb0e80
_ZN29C_HMI_INET_BrowserMenu_BSC_Z124setForwardHistoryEnabledEb 0x04cb0ec8
_ZN29C_HMI_INET_BrowserMenu_BSC_Z121setBackHistoryEnabledEb 0x04cb0f6c
_ZN29C_HMI_INET_BrowserMenu_BSC_Z119EndScreenOperationsEv 0x04cb1010
_ZN29C_HMI_INET_BrowserMenu_BSC_Z121SetBrowserPreferencesEv 0x04cb1138
_ZN29C_HMI_INET_BrowserMenu_BSC_Z121updateRecentPagesListEv 0x04cb143c
_ZN29C_HMI_INET_BrowserMenu_BSC_Z119refreshReloadButtonEb 0x04cb14d8
_ZN29C_HMI_INET_BrowserMenu_BSC_Z111loadFaviconERSbIwSt11char_traitsIwESaIwEE 0x04cb157c
_ZN29C_HMI_INET_BrowserMenu_BSC_Z117updatePadlockIconEv 0x04cb17b8
_ZN29C_HMI_INET_BrowserMenu_BSC_Z117refreshAddressBarEv 0x04cb1870
_ZN29C_HMI_INET_BrowserMenu_BSC_Z18OnZoomInEv 0x04cb1988
_ZN29C_HMI_INET_BrowserMenu_BSC_Z19OnZoomOutEv 0x04cb1a7c
_ZN29C_HMI_INET_BrowserMenu_BSC_Z111GotoAddressERSbIwSt11char_traitsIwESaIwEE 0x04cb1b70
_ZN29C_HMI_INET_BrowserMenu_BSC_Z114OnGotoHomePageEv 0x04cb1cb0
_ZN29C_HMI_INET_BrowserMenu_BSC_Z112OnReloadPageEv 0x04cb1f60
_ZN29C_HMI_INET_BrowserMenu_BSC_Z114OnGotoNextPageEv 0x04cb22e8
_ZN29C_HMI_INET_BrowserMenu_BSC_Z118OnGotoPreviousPageEv 0x04cb23dc
_ZN29C_HMI_INET_BrowserMenu_BSC_Z117HandleScreenEventER18C_HMI_TouchMessage 0x04cb24d0
_ZN29C_HMI_INET_BrowserMenu_BSC_Z119SetScreenPropertiesEv 0x04cb2bd0
_ZN29C_HMI_INET_BrowserMenu_BSC_Z1D0Ev 0x04cb3828
_ZN29C_HMI_INET_BrowserMenu_BSC_Z1D1Ev 0x04cb38d0
_ZN29C_HMI_INET_BrowserMenu_BSC_Z1D2Ev 0x04cb3978
_ZN29C_HMI_INET_BrowserMenu_BSC_Z1C1EmmP18C_HMI_INT_APP_BASEm 0x04cb3a20
_ZN29C_HMI_INET_BrowserMenu_BSC_Z1C2EmmP18C_HMI_INT_APP_BASEm 0x04cb3ba4
_ZN33C_HMI_INET_DUNDatatransfer_BSC_Z119EndScreenOperationsEv 0x04cb3d28
_ZN33C_HMI_INET_DUNDatatransfer_BSC_Z111GetItemTypeEtR11t_item_type 0x04cb3d48
_ZN33C_HMI_INET_DUNDatatransfer_BSC_Z115GetMenuItemDataEtRmS0_S0_b 0x04cb3db8
_GLOBAL__I__ZN33C_HMI_INET_DUNDatatransfer_BSC_Z1C2EmmP18C_HMI_INT_APP_BASEm 0x04cb3f9c
_ZN33C_HMI_INET_DUNDatatransfer_BSC_Z113RefreshScreenEii 0x04cb3fe4
_ZN33C_HMI_INET_DUNDatatransfer_BSC_Z117HandleScreenEventER18C_HMI_TouchMessage 0x04cb440c
_ZN33C_HMI_INET_DUNDatatransfer_BSC_Z119SetScreenPropertiesEv 0x04cb4558
_ZN33C_HMI_INET_DUNDatatransfer_BSC_Z1D0Ev 0x04cb4614
_ZN33C_HMI_INET_DUNDatatransfer_BSC_Z1D1Ev 0x04cb46a0
_ZN33C_HMI_INET_DUNDatatransfer_BSC_Z1D2Ev 0x04cb472c
_ZN33C_HMI_INET_DUNDatatransfer_BSC_Z1C1EmmP18C_HMI_INT_APP_BASEm 0x04cb47b8
_ZN33C_HMI_INET_DUNDatatransfer_BSC_Z1C2EmmP18C_HMI_INT_APP_BASEm 0x04cb486c
_GLOBAL__I__ZN39C_HMI_INET_DUNIdentifierEntering_VKB_Z1C2EmmP18C_HMI_INT_APP_BASEm 0x04cb4a94
_ZN39C_HMI_INET_DUNIdentifierEntering_VKB_Z119EndScreenOperationsEv 0x04cb4adc
_ZN39C_HMI_INET_DUNIdentifierEntering_VKB_Z125onVirtualKeyboardValidateEv 0x04cb4b28
_ZN39C_HMI_INET_DUNIdentifierEntering_VKB_Z119SetScreenPropertiesEv 0x04cb4d8c
_ZN39C_HMI_INET_DUNIdentifierEntering_VKB_Z1D0Ev 0x04cb53c0
_ZN39C_HMI_INET_DUNIdentifierEntering_VKB_Z1D1Ev 0x04cb544c
_ZN39C_HMI_INET_DUNIdentifierEntering_VKB_Z1D2Ev 0x04cb54d8
_ZN39C_HMI_INET_DUNIdentifierEntering_VKB_Z1C1EmmP18C_HMI_INT_APP_BASEm 0x04cb5564
_ZN39C_HMI_INET_DUNIdentifierEntering_VKB_Z1C2EmmP18C_HMI_INT_APP_BASEm 0x04cb56ec
_GLOBAL__I__ZN46C_HMI_INET_DUNIdentifierModificationAPN_VKB_Z1C2EmmP18C_HMI_INT_APP_BASEm 0x04cb59e8
_ZN46C_HMI_INET_DUNIdentifierModificationAPN_VKB_Z119EndScreenOperationsEv 0x04cb5a30
_ZN46C_HMI_INET_DUNIdentifierModificationAPN_VKB_Z125onVirtualKeyboardValidateEv 0x04cb5a7c
_ZN46C_HMI_INET_DUNIdentifierModificationAPN_VKB_Z119SetScreenPropertiesEv 0x04cb5c54
_ZN46C_HMI_INET_DUNIdentifierModificationAPN_VKB_Z1D0Ev 0x04cb5fd8
_ZN46C_HMI_INET_DUNIdentifierModificationAPN_VKB_Z1D1Ev 0x04cb6064
_ZN46C_HMI_INET_DUNIdentifierModificationAPN_VKB_Z1D2Ev 0x04cb60f0
_ZN46C_HMI_INET_DUNIdentifierModificationAPN_VKB_Z1C1EmmP18C_HMI_INT_APP_BASEm 0x04cb617c
_ZN46C_HMI_INET_DUNIdentifierModificationAPN_VKB_Z1C2EmmP18C_HMI_INT_APP_BASEm 0x04cb6278
_ZN29C_HMI_INET_DUNSettings_CFM_Z111GetItemTypeEtR11t_item_type 0x04cb6374
_ZN29C_HMI_INET_DUNSettings_CFM_Z115GetMenuItemDataEtRmS0_S0_b 0x04cb641c
_ZN29C_HMI_INET_DUNSettings_CFM_Z132GetNonStandardMenuItemFromWidgetERKtRt 0x04cb648c
_GLOBAL__I__ZN29C_HMI_INET_DUNSettings_CFM_Z1C2EmmP18C_HMI_INT_APP_BASEm 0x04cb66dc
_ZN29C_HMI_INET_DUNSettings_CFM_Z122refreshDUNSettingsMenuER19t_hmi_inet_DUN_mode 0x04cb6724
_ZN29C_HMI_INET_DUNSettings_CFM_Z117HandleScreenEventER18C_HMI_TouchMessage 0x04cb6f7c
_ZN29C_HMI_INET_DUNSettings_CFM_Z119EndScreenOperationsEv 0x04cb74c0
_ZN29C_HMI_INET_DUNSettings_CFM_Z119SetScreenPropertiesEv 0x04cb7528
_ZN29C_HMI_INET_DUNSettings_CFM_Z1D0Ev 0x04cb76a0
_ZN29C_HMI_INET_DUNSettings_CFM_Z1D1Ev 0x04cb7748
_ZN29C_HMI_INET_DUNSettings_CFM_Z1D2Ev 0x04cb77f0
_ZN29C_HMI_INET_DUNSettings_CFM_Z1C1EmmP18C_HMI_INT_APP_BASEm 0x04cb7898
_ZN29C_HMI_INET_DUNSettings_CFM_Z1C2EmmP18C_HMI_INT_APP_BASEm 0x04cb79ec
_ZN34C_HMI_INET_FavoriteEntering_VKB_Z110openParentEv 0x04cb7b40
_GLOBAL__I__ZN34C_HMI_INET_FavoriteEntering_VKB_Z1C2EmmP18C_HMI_INT_APP_BASEm 0x04cb7d04
_ZN34C_HMI_INET_FavoriteEntering_VKB_Z119EndScreenOperationsEv 0x04cb7d4c
_ZN34C_HMI_INET_FavoriteEntering_VKB_Z133handleNonStandardOnEnterInstancesEm 0x04cb7d98
_ZN34C_HMI_INET_FavoriteEntering_VKB_Z129handleNonStandardVKBInstancesEmm 0x04cb7e94
_ZN34C_HMI_INET_FavoriteEntering_VKB_Z125onVirtualKeyboardValidateEv 0x04cb7ff0
_ZN34C_HMI_INET_FavoriteEntering_VKB_Z119SetScreenPropertiesEv 0x04cb8540
_ZN34C_HMI_INET_FavoriteEntering_VKB_Z1D0Ev 0x04cb8aec
_ZN34C_HMI_INET_FavoriteEntering_VKB_Z1D1Ev 0x04cb8b94
_ZN34C_HMI_INET_FavoriteEntering_VKB_Z1D2Ev 0x04cb8c3c
_ZN34C_HMI_INET_FavoriteEntering_VKB_Z1C1EmmP18C_HMI_INT_APP_BASEm 0x04cb8ce4
_ZN34C_HMI_INET_FavoriteEntering_VKB_Z1C2EmmP18C_HMI_INT_APP_BASEm 0x04cba9f0
_ZN31C_HMI_INET_FavoritesMenu_M3Z_Z411GetItemTypeEtR11t_item_type 0x04cbc6fc
_ZN31C_HMI_INET_FavoritesMenu_M3Z_Z415GetMenuItemDataEtRmS0_S0_b 0x04cbc77c
_ZN31C_HMI_INET_FavoritesMenu_M3Z_Z410openParentEv 0x04cbc7f8
_ZN31C_HMI_INET_FavoritesMenu_M3Z_Z419EndScreenOperationsEv 0x04cbc848
_GLOBAL__I__ZN31C_HMI_INET_FavoritesMenu_M3Z_Z4C2EmmP18C_HMI_INT_APP_BASEm 0x04cbca00
_ZN31C_HMI_INET_FavoritesMenu_M3Z_Z417updateOrderButtonEi 0x04cbca48
_ZN31C_HMI_INET_FavoritesMenu_M3Z_Z419updateFavoritesListEv 0x04cbcb48
_ZN31C_HMI_INET_FavoritesMenu_M3Z_Z426refreshFavoriteMenuButtonsEb 0x04cbd088
_ZN31C_HMI_INET_FavoritesMenu_M3Z_Z427refreshFavoritesMenu_M3Z_Z1Ev 0x04cbd120
_ZN31C_HMI_INET_FavoritesMenu_M3Z_Z419SetScreenPropertiesEv 0x04cbd7e0
_ZN31C_HMI_INET_FavoritesMenu_M3Z_Z421OnFavoritesSortByNameEv 0x04cbd8dc
_ZN31C_HMI_INET_FavoritesMenu_M3Z_Z421OnFavoritesSortByDateEv 0x04cbd974
_ZN31C_HMI_INET_FavoritesMenu_M3Z_Z417HandleScreenEventER18C_HMI_TouchMessage 0x04cbda0c
_ZN31C_HMI_INET_FavoritesMenu_M3Z_Z4D0Ev 0x04cbe4a8
_ZN31C_HMI_INET_FavoritesMenu_M3Z_Z4D1Ev 0x04cbe540
_ZN31C_HMI_INET_FavoritesMenu_M3Z_Z4D2Ev 0x04cbe5d8
_ZN31C_HMI_INET_FavoritesMenu_M3Z_Z4C1EmmP18C_HMI_INT_APP_BASEm 0x04cbe670
_ZN31C_HMI_INET_FavoritesMenu_M3Z_Z4C2EmmP18C_HMI_INT_APP_BASEm 0x04cbe74c
_ZN29C_HMI_INET_HistoryMenu_M3Z_Z411GetItemTypeEtR11t_item_type 0x04cbe828
_ZN29C_HMI_INET_HistoryMenu_M3Z_Z415GetMenuItemDataEtRmS0_S0_b 0x04cbe880
_ZN29C_HMI_INET_HistoryMenu_M3Z_Z410openParentEv 0x04cbe8cc
_ZN29C_HMI_INET_HistoryMenu_M3Z_Z419EndScreenOperationsEv 0x04cbe91c
_GLOBAL__I__ZN29C_HMI_INET_HistoryMenu_M3Z_Z4C2EmmP18C_HMI_INT_APP_BASEm 0x04cbeac4
_ZN29C_HMI_INET_HistoryMenu_M3Z_Z417updateOrderButtonEi 0x04cbeb0c
_ZN29C_HMI_INET_HistoryMenu_M3Z_Z417updateHistoryListEv 0x04cbec0c
_ZN29C_HMI_INET_HistoryMenu_M3Z_Z425refreshHistoryMenuButtonsEb 0x04cbf14c
_ZN29C_HMI_INET_HistoryMenu_M3Z_Z426refreshHistoricMenu_M3Z_Z1Ev 0x04cbf1e4
_ZN29C_HMI_INET_HistoryMenu_M3Z_Z419SetScreenPropertiesEv 0x04cbf8a4
_ZN29C_HMI_INET_HistoryMenu_M3Z_Z419OnHistorySortByNameEv 0x04cbf9a0
_ZN29C_HMI_INET_HistoryMenu_M3Z_Z419OnHistorySortByDateEv 0x04cbfa30
_ZN29C_HMI_INET_HistoryMenu_M3Z_Z417HandleScreenEventER18C_HMI_TouchMessage 0x04cbfac0
_ZN29C_HMI_INET_HistoryMenu_M3Z_Z4D0Ev 0x04cc05e4
_ZN29C_HMI_INET_HistoryMenu_M3Z_Z4D1Ev 0x04cc067c
_ZN29C_HMI_INET_HistoryMenu_M3Z_Z4D2Ev 0x04cc0714
_ZN29C_HMI_INET_HistoryMenu_M3Z_Z4C1EmmP18C_HMI_INT_APP_BASEm 0x04cc07ac
_ZN29C_HMI_INET_HistoryMenu_M3Z_Z4C2EmmP18C_HMI_INT_APP_BASEm 0x04cc086c
_ZN38C_HMI_INET_POPUP_AddToFavorites_QST_Z114InitScreenDataEv 0x04cc092c
_GLOBAL__I__ZN38C_HMI_INET_POPUP_AddToFavorites_QST_Z1C2EP18c_popup_req_structP32C_BCM_HMI_DESKTOP_SERVICE_CLIENTP18C_HMI_INT_APP_BASEm18t_popup_timer_typem 0x04cc0ac0
_ZN38C_HMI_INET_POPUP_AddToFavorites_QST_Z15CloseEv 0x04cc0b08
_ZN38C_HMI_INET_POPUP_AddToFavorites_QST_Z116OnAddToFavoritesEv 0x04cc0b64
_ZN38C_HMI_INET_POPUP_AddToFavorites_QST_Z17onClickEmm 0x04cc112c
_ZN38C_HMI_INET_POPUP_AddToFavorites_QST_Z1D0Ev 0x04cc11e4
_ZN38C_HMI_INET_POPUP_AddToFavorites_QST_Z1D1Ev 0x04cc1270
_ZN38C_HMI_INET_POPUP_AddToFavorites_QST_Z1D2Ev 0x04cc12fc
_ZN38C_HMI_INET_POPUP_AddToFavorites_QST_Z1C1EP18c_popup_req_structP32C_BCM_HMI_DESKTOP_SERVICE_CLIENTP18C_HMI_INT_APP_BASEm18t_popup_timer_typem 0x04cc1388
_ZN38C_HMI_INET_POPUP_AddToFavorites_QST_Z1C2EP18c_popup_req_structP32C_BCM_HMI_DESKTOP_SERVICE_CLIENTP18C_HMI_INT_APP_BASEm18t_popup_timer_typem 0x04cc1480
_ZN42C_HMI_INET_POPUP_BrowserOptionsMenu_CTX_Z414InitScreenDataEv 0x04cc1578
_GLOBAL__I__ZN42C_HMI_INET_POPUP_BrowserOptionsMenu_CTX_Z4C2EP18c_popup_req_structP32C_BCM_HMI_DESKTOP_SERVICE_CLIENTP18C_HMI_INT_APP_BASEm18t_popup_timer_typem 0x04cc1718
_ZN42C_HMI_INET_POPUP_BrowserOptionsMenu_CTX_Z45CloseEv 0x04cc1760
_ZN42C_HMI_INET_POPUP_BrowserOptionsMenu_CTX_Z413OnAddHomePageEv 0x04cc17dc
_ZN42C_HMI_INET_POPUP_BrowserOptionsMenu_CTX_Z47onClickEmm 0x04cc1990
_ZN42C_HMI_INET_POPUP_BrowserOptionsMenu_CTX_Z4D0Ev 0x04cc1afc
_ZN42C_HMI_INET_POPUP_BrowserOptionsMenu_CTX_Z4D1Ev 0x04cc1b88
_ZN42C_HMI_INET_POPUP_BrowserOptionsMenu_CTX_Z4D2Ev 0x04cc1c14
_ZN42C_HMI_INET_POPUP_BrowserOptionsMenu_CTX_Z4C1EP18c_popup_req_structP32C_BCM_HMI_DESKTOP_SERVICE_CLIENTP18C_HMI_INT_APP_BASEm18t_popup_timer_typem 0x04cc1ca0
_ZN42C_HMI_INET_POPUP_BrowserOptionsMenu_CTX_Z4C2EP18c_popup_req_structP32C_BCM_HMI_DESKTOP_SERVICE_CLIENTP18C_HMI_INT_APP_BASEm18t_popup_timer_typem 0x04cc1da4
_GLOBAL__I__ZN38C_HMI_INET_POPUP_DUNDNSEntering_VKB_Z1C2EP18c_popup_req_structP32C_BCM_HMI_DESKTOP_SERVICE_CLIENTP18C_HMI_INT_APP_BASEm18t_popup_timer_typem 0x04cc201c
_ZN38C_HMI_INET_POPUP_DUNDNSEntering_VKB_Z15CloseEv 0x04cc2064
_ZN38C_HMI_INET_POPUP_DUNDNSEntering_VKB_Z116HandleTouchEventER18C_HMI_TouchMessage 0x04cc20b0
_ZN38C_HMI_INET_POPUP_DUNDNSEntering_VKB_Z122ValidateDNSEnteringVKBEv 0x04cc2458
_ZN38C_HMI_INET_POPUP_DUNDNSEntering_VKB_Z118InitDNSEnteringVKBEv 0x04cc26e8
_ZN38C_HMI_INET_POPUP_DUNDNSEntering_VKB_Z124onVirtualKeyboardDiscardEv 0x04cc2b1c
_ZN38C_HMI_INET_POPUP_DUNDNSEntering_VKB_Z125onVirtualKeyboardValidateEv 0x04cc2b68
_ZN38C_HMI_INET_POPUP_DUNDNSEntering_VKB_Z114InitScreenDataEv 0x04cc2c68
_ZN38C_HMI_INET_POPUP_DUNDNSEntering_VKB_Z1D0Ev 0x04cc2db0
_ZN38C_HMI_INET_POPUP_DUNDNSEntering_VKB_Z1D1Ev 0x04cc2e3c
_ZN38C_HMI_INET_POPUP_DUNDNSEntering_VKB_Z1D2Ev 0x04cc2ec8
_ZN38C_HMI_INET_POPUP_DUNDNSEntering_VKB_Z1C1EP18c_popup_req_structP32C_BCM_HMI_DESKTOP_SERVICE_CLIENTP18C_HMI_INT_APP_BASEm18t_popup_timer_typem 0x04cc2f54
_ZN38C_HMI_INET_POPUP_DUNDNSEntering_VKB_Z1C2EP18c_popup_req_structP32C_BCM_HMI_DESKTOP_SERVICE_CLIENTP18C_HMI_INT_APP_BASEm18t_popup_timer_typem 0x04cc30b0
_ZN43C_HMI_INET_POPUP_FavoriteItemRemoval_QST_Z114InitScreenDataEv 0x04cc320c
_GLOBAL__I__ZN43C_HMI_INET_POPUP_FavoriteItemRemoval_QST_Z1C2EP18c_popup_req_structP32C_BCM_HMI_DESKTOP_SERVICE_CLIENTP18C_HMI_INT_APP_BASEm18t_popup_timer_typem 0x04cc33a0
_ZN43C_HMI_INET_POPUP_FavoriteItemRemoval_QST_Z17onClickEmm 0x04cc33e8
_ZN43C_HMI_INET_POPUP_FavoriteItemRemoval_QST_Z1D0Ev 0x04cc3580
_ZN43C_HMI_INET_POPUP_FavoriteItemRemoval_QST_Z1D1Ev 0x04cc360c
_ZN43C_HMI_INET_POPUP_FavoriteItemRemoval_QST_Z1D2Ev 0x04cc3698
_ZN43C_HMI_INET_POPUP_FavoriteItemRemoval_QST_Z1C1EP18c_popup_req_structP32C_BCM_HMI_DESKTOP_SERVICE_CLIENTP18C_HMI_INT_APP_BASEm18t_popup_timer_typem 0x04cc3724
_ZN43C_HMI_INET_POPUP_FavoriteItemRemoval_QST_Z1C2EP18c_popup_req_structP32C_BCM_HMI_DESKTOP_SERVICE_CLIENTP18C_HMI_INT_APP_BASEm18t_popup_timer_typem 0x04cc37bc
_GLOBAL__I__ZN40C_HMI_INET_POPUP_FreeTextEntering_VKB_Z1C2EP18c_popup_req_structP32C_BCM_HMI_DESKTOP_SERVICE_CLIENTP18C_HMI_INT_APP_BASEm18t_popup_timer_typem 0x04cc39c8
_ZN40C_HMI_INET_POPUP_FreeTextEntering_VKB_Z15CloseEv 0x04cc3a10
_ZN40C_HMI_INET_POPUP_FreeTextEntering_VKB_Z124onVirtualKeyboardDiscardEv 0x04cc3a5c
_ZN40C_HMI_INET_POPUP_FreeTextEntering_VKB_Z125onVirtualKeyboardValidateEv 0x04cc3aa8
_ZN40C_HMI_INET_POPUP_FreeTextEntering_VKB_Z114InitScreenDataEv 0x04cc3d90
_ZN40C_HMI_INET_POPUP_FreeTextEntering_VKB_Z1D0Ev 0x04cc45d8
_ZN40C_HMI_INET_POPUP_FreeTextEntering_VKB_Z1D1Ev 0x04cc4664
_ZN40C_HMI_INET_POPUP_FreeTextEntering_VKB_Z1D2Ev 0x04cc46f0
_ZN40C_HMI_INET_POPUP_FreeTextEntering_VKB_Z1C1EP18c_popup_req_structP32C_BCM_HMI_DESKTOP_SERVICE_CLIENTP18C_HMI_INT_APP_BASEm18t_popup_timer_typem 0x04cc477c
_ZN40C_HMI_INET_POPUP_FreeTextEntering_VKB_Z1C2EP18c_popup_req_structP32C_BCM_HMI_DESKTOP_SERVICE_CLIENTP18C_HMI_INT_APP_BASEm18t_popup_timer_typem 0x04cc483c
_ZN43C_HMI_INET_POPUP_HistoricItemRemoval_QST_Z114InitScreenDataEv 0x04cc48fc
_GLOBAL__I__ZN43C_HMI_INET_POPUP_HistoricItemRemoval_QST_Z1C2EP18c_popup_req_structP32C_BCM_HMI_DESKTOP_SERVICE_CLIENTP18C_HMI_INT_APP_BASEm18t_popup_timer_typem 0x04cc4a90
_ZN43C_HMI_INET_POPUP_HistoricItemRemoval_QST_Z17onClickEmm 0x04cc4ad8
_ZN43C_HMI_INET_POPUP_HistoricItemRemoval_QST_Z1D0Ev 0x04cc4c1c
_ZN43C_HMI_INET_POPUP_HistoricItemRemoval_QST_Z1D1Ev 0x04cc4ca8
_ZN43C_HMI_INET_POPUP_HistoricItemRemoval_QST_Z1D2Ev 0x04cc4d34
_ZN43C_HMI_INET_POPUP_HistoricItemRemoval_QST_Z1C1EP18c_popup_req_structP32C_BCM_HMI_DESKTOP_SERVICE_CLIENTP18C_HMI_INT_APP_BASEm18t_popup_timer_typem 0x04cc4dc0
_ZN43C_HMI_INET_POPUP_HistoricItemRemoval_QST_Z1C2EP18c_popup_req_structP32C_BCM_HMI_DESKTOP_SERVICE_CLIENTP18C_HMI_INT_APP_BASEm18t_popup_timer_typem 0x04cc4e58
_GLOBAL__I__ZN46C_HMI_INET_POPUP_InternetConnectionFail_INF_Z1C2EP18c_popup_req_structP32C_BCM_HMI_DESKTOP_SERVICE_CLIENTP18C_HMI_INT_APP_BASEm18t_popup_timer_typem 0x04cc5064
_ZN46C_HMI_INET_POPUP_InternetConnectionFail_INF_Z15CloseEv 0x04cc50ac
_ZN46C_HMI_INET_POPUP_InternetConnectionFail_INF_Z114InitScreenDataEv 0x04cc516c
_ZN46C_HMI_INET_POPUP_InternetConnectionFail_INF_Z17onClickEmm 0x04cc5544
_ZN46C_HMI_INET_POPUP_InternetConnectionFail_INF_Z1D0Ev 0x04cc587c
_ZN46C_HMI_INET_POPUP_InternetConnectionFail_INF_Z1D1Ev 0x04cc5908
_ZN46C_HMI_INET_POPUP_InternetConnectionFail_INF_Z1D2Ev 0x04cc5994
_ZN46C_HMI_INET_POPUP_InternetConnectionFail_INF_Z1C1EP18c_popup_req_structP32C_BCM_HMI_DESKTOP_SERVICE_CLIENTP18C_HMI_INT_APP_BASEm18t_popup_timer_typem 0x04cc5a20
_ZN46C_HMI_INET_POPUP_InternetConnectionFail_INF_Z1C2EP18c_popup_req_structP32C_BCM_HMI_DESKTOP_SERVICE_CLIENTP18C_HMI_INT_APP_BASEm18t_popup_timer_typem 0x04cc5ad0
_ZN46C_HMI_INET_POPUP_InternetConnectionLost_INF_Z114InitScreenDataEv 0x04cc5b80
_GLOBAL__I__ZN46C_HMI_INET_POPUP_InternetConnectionLost_INF_Z1C2EP18c_popup_req_structP32C_BCM_HMI_DESKTOP_SERVICE_CLIENTP18C_HMI_INT_APP_BASEm18t_popup_timer_typem 0x04cc5d20
_ZN46C_HMI_INET_POPUP_InternetConnectionLost_INF_Z15CloseEv 0x04cc5d68
_ZN46C_HMI_INET_POPUP_InternetConnectionLost_INF_Z17onClickEmm 0x04cc5e38
_ZN46C_HMI_INET_POPUP_InternetConnectionLost_INF_Z1D0Ev 0x04cc5eb4
_ZN46C_HMI_INET_POPUP_InternetConnectionLost_INF_Z1D1Ev 0x04cc5f40
_ZN46C_HMI_INET_POPUP_InternetConnectionLost_INF_Z1D2Ev 0x04cc5fcc
_ZN46C_HMI_INET_POPUP_InternetConnectionLost_INF_Z1C1EP18c_popup_req_structP32C_BCM_HMI_DESKTOP_SERVICE_CLIENTP18C_HMI_INT_APP_BASEm18t_popup_timer_typem 0x04cc6058
_ZN46C_HMI_INET_POPUP_InternetConnectionLost_INF_Z1C2EP18c_popup_req_structP32C_BCM_HMI_DESKTOP_SERVICE_CLIENTP18C_HMI_INT_APP_BASEm18t_popup_timer_typem 0x04cc60fc
_GLOBAL__I__ZN39C_HMI_INET_POPUP_LaunchPhoneCall_QST_Z1C2EP18c_popup_req_structP32C_BCM_HMI_DESKTOP_SERVICE_CLIENTP18C_HMI_INT_APP_BASEm18t_popup_timer_typem 0x04cc6314
_ZN39C_HMI_INET_POPUP_LaunchPhoneCall_QST_Z15CloseEv 0x04cc635c
_ZN39C_HMI_INET_POPUP_LaunchPhoneCall_QST_Z114InitScreenDataEv 0x04cc63b8
_ZN39C_HMI_INET_POPUP_LaunchPhoneCall_QST_Z17onClickEmm 0x04cc658c
_ZN39C_HMI_INET_POPUP_LaunchPhoneCall_QST_Z1D0Ev 0x04cc665c
_ZN39C_HMI_INET_POPUP_LaunchPhoneCall_QST_Z1D1Ev 0x04cc66e8
_ZN39C_HMI_INET_POPUP_LaunchPhoneCall_QST_Z1D2Ev 0x04cc6774
_ZN39C_HMI_INET_POPUP_LaunchPhoneCall_QST_Z1C1EP18c_popup_req_structP32C_BCM_HMI_DESKTOP_SERVICE_CLIENTP18C_HMI_INT_APP_BASEm18t_popup_timer_typem 0x04cc6800
_ZN39C_HMI_INET_POPUP_LaunchPhoneCall_QST_Z1C2EP18c_popup_req_structP32C_BCM_HMI_DESKTOP_SERVICE_CLIENTP18C_HMI_INT_APP_BASEm18t_popup_timer_typem 0x04cc6898
_ZN36C_HMI_INET_POPUP_PasswordSave_QST_Z114InitScreenDataEv 0x04cc6930
_GLOBAL__I__ZN36C_HMI_INET_POPUP_PasswordSave_QST_Z1C2EP18c_popup_req_structP32C_BCM_HMI_DESKTOP_SERVICE_CLIENTP18C_HMI_INT_APP_BASEm18t_popup_timer_typem 0x04cc6ac4
_ZN36C_HMI_INET_POPUP_PasswordSave_QST_Z15CloseEv 0x04cc6b0c
_ZN36C_HMI_INET_POPUP_PasswordSave_QST_Z17onClickEmm 0x04cc6b68
_ZN36C_HMI_INET_POPUP_PasswordSave_QST_Z1D0Ev 0x04cc6c38
_ZN36C_HMI_INET_POPUP_PasswordSave_QST_Z1D1Ev 0x04cc6cc4
_ZN36C_HMI_INET_POPUP_PasswordSave_QST_Z1D2Ev 0x04cc6d50
_ZN36C_HMI_INET_POPUP_PasswordSave_QST_Z1C1EP18c_popup_req_structP32C_BCM_HMI_DESKTOP_SERVICE_CLIENTP18C_HMI_INT_APP_BASEm18t_popup_timer_typem 0x04cc6ddc
_ZN36C_HMI_INET_POPUP_PasswordSave_QST_Z1C2EP18c_popup_req_structP32C_BCM_HMI_DESKTOP_SERVICE_CLIENTP18C_HMI_INT_APP_BASEm18t_popup_timer_typem 0x04cc6e74
_ZN39C_HMI_INET_POPUP_SavePhoneNumber_QST_Z114InitScreenDataEv 0x04cc6f0c
_GLOBAL__I__ZN39C_HMI_INET_POPUP_SavePhoneNumber_QST_Z1C2EP18c_popup_req_structP32C_BCM_HMI_DESKTOP_SERVICE_CLIENTP18C_HMI_INT_APP_BASEm18t_popup_timer_typem 0x04cc70a0
_ZN39C_HMI_INET_POPUP_SavePhoneNumber_QST_Z15CloseEv 0x04cc70e8
_ZN39C_HMI_INET_POPUP_SavePhoneNumber_QST_Z17onClickEmm 0x04cc7144
_ZN39C_HMI_INET_POPUP_SavePhoneNumber_QST_Z1D0Ev 0x04cc7214
_ZN39C_HMI_INET_POPUP_SavePhoneNumber_QST_Z1D1Ev 0x04cc72a0
_ZN39C_HMI_INET_POPUP_SavePhoneNumber_QST_Z1D2Ev 0x04cc732c
_ZN39C_HMI_INET_POPUP_SavePhoneNumber_QST_Z1C1EP18c_popup_req_structP32C_BCM_HMI_DESKTOP_SERVICE_CLIENTP18C_HMI_INT_APP_BASEm18t_popup_timer_typem 0x04cc73b8
_ZN39C_HMI_INET_POPUP_SavePhoneNumber_QST_Z1C2EP18c_popup_req_structP32C_BCM_HMI_DESKTOP_SERVICE_CLIENTP18C_HMI_INT_APP_BASEm18t_popup_timer_typem 0x04cc7450
_ZN33C_HMI_INET_POPUP_SaveVcard_QST_Z114InitScreenDataEv 0x04cc74e8
_GLOBAL__I__ZN33C_HMI_INET_POPUP_SaveVcard_QST_Z1C2EP18c_popup_req_structP32C_BCM_HMI_DESKTOP_SERVICE_CLIENTP18C_HMI_INT_APP_BASEm18t_popup_timer_typem 0x04cc767c
_ZN33C_HMI_INET_POPUP_SaveVcard_QST_Z15CloseEv 0x04cc76c4
_ZN33C_HMI_INET_POPUP_SaveVcard_QST_Z17onClickEmm 0x04cc7720
_ZN33C_HMI_INET_POPUP_SaveVcard_QST_Z1D0Ev 0x04cc77f0
_ZN33C_HMI_INET_POPUP_SaveVcard_QST_Z1D1Ev 0x04cc787c
_ZN33C_HMI_INET_POPUP_SaveVcard_QST_Z1D2Ev 0x04cc7908
_ZN33C_HMI_INET_POPUP_SaveVcard_QST_Z1C1EP18c_popup_req_structP32C_BCM_HMI_DESKTOP_SERVICE_CLIENTP18C_HMI_INT_APP_BASEm18t_popup_timer_typem 0x04cc7994
_ZN33C_HMI_INET_POPUP_SaveVcard_QST_Z1C2EP18c_popup_req_structP32C_BCM_HMI_DESKTOP_SERVICE_CLIENTP18C_HMI_INT_APP_BASEm18t_popup_timer_typem 0x04cc7a2c
_GLOBAL__I__ZN46C_HMI_INET_POPUP_StopInternetConnection_INF_Z2C2EP18c_popup_req_structP32C_BCM_HMI_DESKTOP_SERVICE_CLIENTP18C_HMI_INT_APP_BASEm18t_popup_timer_typem 0x04cc7c38
_ZN46C_HMI_INET_POPUP_StopInternetConnection_INF_Z214InitScreenDataEv 0x04cc7c80
_ZN46C_HMI_INET_POPUP_StopInternetConnection_INF_Z27onClickEmm 0x04cc7d30
_ZN46C_HMI_INET_POPUP_StopInternetConnection_INF_Z2D0Ev 0x04cc7d90
_ZN46C_HMI_INET_POPUP_StopInternetConnection_INF_Z2D1Ev 0x04cc7e1c
_ZN46C_HMI_INET_POPUP_StopInternetConnection_INF_Z2D2Ev 0x04cc7ea8
_ZN46C_HMI_INET_POPUP_StopInternetConnection_INF_Z2C1EP18c_popup_req_structP32C_BCM_HMI_DESKTOP_SERVICE_CLIENTP18C_HMI_INT_APP_BASEm18t_popup_timer_typem 0x04cc7f34
_ZN46C_HMI_INET_POPUP_StopInternetConnection_INF_Z2C2EP18c_popup_req_structP32C_BCM_HMI_DESKTOP_SERVICE_CLIENTP18C_HMI_INT_APP_BASEm18t_popup_timer_typem 0x04cc7fcc
_ZN39C_HMI_INET_POPUP_WebNotAvailable_INF_Z114InitScreenDataEv 0x04cc8064
_GLOBAL__I__ZN39C_HMI_INET_POPUP_WebNotAvailable_INF_Z1C2EP18c_popup_req_structP32C_BCM_HMI_DESKTOP_SERVICE_CLIENTP18C_HMI_INT_APP_BASEm18t_popup_timer_typem 0x04cc8204
_ZN39C_HMI_INET_POPUP_WebNotAvailable_INF_Z15CloseEv 0x04cc824c
_ZN39C_HMI_INET_POPUP_WebNotAvailable_INF_Z17onClickEmm 0x04cc831c
_ZN39C_HMI_INET_POPUP_WebNotAvailable_INF_Z1D0Ev 0x04cc8398
_ZN39C_HMI_INET_POPUP_WebNotAvailable_INF_Z1D1Ev 0x04cc8424
_ZN39C_HMI_INET_POPUP_WebNotAvailable_INF_Z1D2Ev 0x04cc84b0
_ZN39C_HMI_INET_POPUP_WebNotAvailable_INF_Z1C1EP18c_popup_req_structP32C_BCM_HMI_DESKTOP_SERVICE_CLIENTP18C_HMI_INT_APP_BASEm18t_popup_timer_typem 0x04cc853c
_ZN39C_HMI_INET_POPUP_WebNotAvailable_INF_Z1C2EP18c_popup_req_structP32C_BCM_HMI_DESKTOP_SERVICE_CLIENTP18C_HMI_INT_APP_BASEm18t_popup_timer_typem 0x04cc85e0
_ZN40C_HMI_INET_POPUP_WebStopPlayingBT_QST_Z314InitScreenDataEv 0x04cc8684
_GLOBAL__I__ZN40C_HMI_INET_POPUP_WebStopPlayingBT_QST_Z3C2EP18c_popup_req_structP32C_BCM_HMI_DESKTOP_SERVICE_CLIENTP18C_HMI_INT_APP_BASEm18t_popup_timer_typem 0x04cc8824
_ZN40C_HMI_INET_POPUP_WebStopPlayingBT_QST_Z35CloseEv 0x04cc886c
_ZN40C_HMI_INET_POPUP_WebStopPlayingBT_QST_Z37onClickEmm 0x04cc893c
_ZN40C_HMI_INET_POPUP_WebStopPlayingBT_QST_Z3D0Ev 0x04cc8b98
_ZN40C_HMI_INET_POPUP_WebStopPlayingBT_QST_Z3D1Ev 0x04cc8c24
_ZN40C_HMI_INET_POPUP_WebStopPlayingBT_QST_Z3D2Ev 0x04cc8cb0
_ZN40C_HMI_INET_POPUP_WebStopPlayingBT_QST_Z3C1EP18c_popup_req_structP32C_BCM_HMI_DESKTOP_SERVICE_CLIENTP18C_HMI_INT_APP_BASEm18t_popup_timer_typem 0x04cc8d3c
_ZN40C_HMI_INET_POPUP_WebStopPlayingBT_QST_Z3C2EP18c_popup_req_structP32C_BCM_HMI_DESKTOP_SERVICE_CLIENTP18C_HMI_INT_APP_BASEm18t_popup_timer_typem 0x04cc8de0
_ZN28C_HMI_INET_Secondary_Menu_Z111GetItemTypeEtR11t_item_type 0x04cc8e84
_ZN28C_HMI_INET_Secondary_Menu_Z115GetMenuItemDataEtRmS0_S0_b 0x04cc8f2c
_ZN28C_HMI_INET_Secondary_Menu_Z117HandleScreenEventER18C_HMI_TouchMessage 0x04cc8f70
_GLOBAL__I__ZN28C_HMI_INET_Secondary_Menu_Z1C2EmmP18C_HMI_INT_APP_BASEm 0x04cc9110
_ZN28C_HMI_INET_Secondary_Menu_Z132GetNonStandardMenuItemFromWidgetERKtRt 0x04cc9158
_ZN28C_HMI_INET_Secondary_Menu_Z119SetScreenPropertiesEv 0x04cc92b4
_ZN28C_HMI_INET_Secondary_Menu_Z1D0Ev 0x04cc93b0
_ZN28C_HMI_INET_Secondary_Menu_Z1D1Ev 0x04cc943c
_ZN28C_HMI_INET_Secondary_Menu_Z1D2Ev 0x04cc94c8
_ZN28C_HMI_INET_Secondary_Menu_Z1C1EmmP18C_HMI_INT_APP_BASEm 0x04cc9554
_ZN28C_HMI_INET_Secondary_Menu_Z1C2EmmP18C_HMI_INT_APP_BASEm 0x04cc9640
_ZN29C_HMI_INET_URLEntering_VKB_Z110openParentEv 0x04cc972c
_GLOBAL__I__ZN29C_HMI_INET_URLEntering_VKB_Z1C2EmmP18C_HMI_INT_APP_BASEm 0x04cc98f0
_ZN29C_HMI_INET_URLEntering_VKB_Z119EndScreenOperationsEv 0x04cc9938
_ZN29C_HMI_INET_URLEntering_VKB_Z133handleNonStandardOnEnterInstancesEm 0x04cc9984
_ZN29C_HMI_INET_URLEntering_VKB_Z125onVirtualKeyboardValidateEv 0x04cc9a80
_ZN29C_HMI_INET_URLEntering_VKB_Z129handleNonStandardVKBInstancesEmm 0x04cc9c14
_ZN29C_HMI_INET_URLEntering_VKB_Z119SetScreenPropertiesEv 0x04cc9de4
_ZN29C_HMI_INET_URLEntering_VKB_Z1D0Ev 0x04cca1a0
_ZN29C_HMI_INET_URLEntering_VKB_Z1D1Ev 0x04cca248
_ZN29C_HMI_INET_URLEntering_VKB_Z1D2Ev 0x04cca2f0
_ZN29C_HMI_INET_URLEntering_VKB_Z1C1EmmP18C_HMI_INT_APP_BASEm 0x04cca398
_ZN29C_HMI_INET_URLEntering_VKB_Z1C2EmmP18C_HMI_INT_APP_BASEm 0x04ccc0b4
_ZN27C_HMI_INET_UserGuide_BSC_Z111GetItemTypeEtR11t_item_type 0x04ccddd0
_ZN27C_HMI_INET_UserGuide_BSC_Z115GetMenuItemDataEtRmS0_S0_b 0x04ccde2c
_ZN27C_HMI_INET_UserGuide_BSC_Z117HandleScreenEventER18C_HMI_TouchMessage 0x04ccde9c
_ZN27C_HMI_INET_UserGuide_BSC_Z112ReloadPortalEb 0x04ccded0
_GLOBAL__I__ZN27C_HMI_INET_UserGuide_BSC_Z1C2EmmP18C_HMI_INT_APP_BASEm 0x04cce078
_ZN27C_HMI_INET_UserGuide_BSC_Z126UpdateLanguageforUserGuideER9CMMString 0x04cce0c0
_ZN27C_HMI_INET_UserGuide_BSC_Z119EndScreenOperationsEv 0x04cce38c
_ZN27C_HMI_INET_UserGuide_BSC_Z119SetScreenPropertiesEv 0x04cce588
_ZN27C_HMI_INET_UserGuide_BSC_Z1D0Ev 0x04ccec64
_ZN27C_HMI_INET_UserGuide_BSC_Z1D1Ev 0x04cced58
_ZN27C_HMI_INET_UserGuide_BSC_Z1D2Ev 0x04ccee4c
_ZN27C_HMI_INET_UserGuide_BSC_Z1C1EmmP18C_HMI_INT_APP_BASEm 0x04ccef40
_ZN27C_HMI_INET_UserGuide_BSC_Z1C2EmmP18C_HMI_INT_APP_BASEm 0x04ccf08c
_ZN20C_HMI_INT_MENU_STATE15openBrotherItemEt 0x04ccf1d8
_ZN20C_HMI_INT_MENU_STATE13openChildItemEt 0x04ccf238
_GLOBAL__I__ZN20C_HMI_INT_MENU_STATEC2EmmP18C_HMI_INT_APP_BASE18t_menu_screen_typeP17t_menu_widget_mapiS4_immb 0x04ccf40c
_ZN20C_HMI_INT_MENU_STATE13activatePopupE14t_int_popup_id15t_int_popup_ctx 0x04ccf454
_ZN20C_HMI_INT_MENU_STATED0Ev 0x04ccf4c0
_ZN20C_HMI_INT_MENU_STATED1Ev 0x04ccf5b8
_ZN20C_HMI_INT_MENU_STATED2Ev 0x04ccf6b0
_ZN20C_HMI_INT_MENU_STATEC1EmmP18C_HMI_INT_APP_BASE18t_menu_screen_typeP17t_menu_widget_mapiS4_immb 0x04ccf7a8
_ZN20C_HMI_INT_MENU_STATEC2EmmP18C_HMI_INT_APP_BASE18t_menu_screen_typeP17t_menu_widget_mapiS4_immb 0x04ccf944
_ZN24C_HMI_INT_MENU_STATE_VKB11GetItemTypeEtR11t_item_type 0x04ccfae0
_ZN24C_HMI_INT_MENU_STATE_VKB15GetMenuItemDataEtRmS0_S0_b 0x04ccfb44
_ZN24C_HMI_INT_MENU_STATE_VKB24onVirtualKeyboardDiscardEv 0x04ccfb88
_GLOBAL__I__ZN24C_HMI_INT_MENU_STATE_VKBC2EmmP18C_HMI_INT_APP_BASE18t_menu_screen_typeP17t_menu_widget_mapiS4_immb 0x04ccfd1c
_ZN24C_HMI_INT_MENU_STATE_VKB17HandleScreenEventER18C_HMI_TouchMessage 0x04ccfd64
_ZN24C_HMI_INT_MENU_STATE_VKB13activatePopupE14t_int_popup_id15t_int_popup_ctx 0x04ccffb0
_ZN24C_HMI_INT_MENU_STATE_VKBD0Ev 0x04cd001c
_ZN24C_HMI_INT_MENU_STATE_VKBD1Ev 0x04cd0114
_ZN24C_HMI_INT_MENU_STATE_VKBD2Ev 0x04cd020c
_ZN24C_HMI_INT_MENU_STATE_VKBC1EmmP18C_HMI_INT_APP_BASE18t_menu_screen_typeP17t_menu_widget_mapiS4_immb 0x04cd0304
_ZN24C_HMI_INT_MENU_STATE_VKBC2EmmP18C_HMI_INT_APP_BASE18t_menu_screen_typeP17t_menu_widget_mapiS4_immb 0x04cd0440
_ZN15C_HMI_INT_POPUP16HandleTouchEventER18C_HMI_TouchMessage 0x04cd057c
_GLOBAL__I__ZN15C_HMI_INT_POPUP18m_p_class_instanceE 0x04cd0714
_ZN15C_HMI_INT_POPUP9openPopupE14t_int_popup_id15t_int_popup_ctx 0x04cd075c
_ZN15C_HMI_INT_POPUP10InitializeEv 0x04cd08d0
_ZN15C_HMI_INT_POPUPD0Ev 0x04cd1f14
_ZN15C_HMI_INT_POPUPD1Ev 0x04cd25c4
_ZN15C_HMI_INT_POPUPD2Ev 0x04cd2c74
_ZN15C_HMI_INT_POPUPC1EP18C_HMI_INT_APP_BASE 0x04cd3324
_ZN15C_HMI_INT_POPUP8InstanceEP18C_HMI_INT_APP_BASE 0x04cd3498
_ZN15C_HMI_INT_POPUPC2EP18C_HMI_INT_APP_BASE 0x04cd3590
_ZN19C_HMI_INT_POPUP_INF14InitScreenDataEv 0x04cd3704
_GLOBAL__I__ZN19C_HMI_INT_POPUP_INFC2EP18c_popup_req_structP32C_BCM_HMI_DESKTOP_SERVICE_CLIENTP18C_HMI_INT_APP_BASEm18t_popup_timer_typem 0x04cd38a4
_ZN19C_HMI_INT_POPUP_INF5CloseEv 0x04cd38ec
_ZN19C_HMI_INT_POPUP_INF7onClickEmm 0x04cd3978
_ZN19C_HMI_INT_POPUP_INFD0Ev 0x04cd39f4
_ZN19C_HMI_INT_POPUP_INFD1Ev 0x04cd3a80
_ZN19C_HMI_INT_POPUP_INFD2Ev 0x04cd3b0c
_ZN19C_HMI_INT_POPUP_INFC1EP18c_popup_req_structP32C_BCM_HMI_DESKTOP_SERVICE_CLIENTP18C_HMI_INT_APP_BASEm18t_popup_timer_typem 0x04cd3b98
_ZN19C_HMI_INT_POPUP_INFC2EP18c_popup_req_structP32C_BCM_HMI_DESKTOP_SERVICE_CLIENTP18C_HMI_INT_APP_BASEm18t_popup_timer_typem 0x04cd3c3c
_GLOBAL__I__ZN19C_HMI_INT_POPUP_PMSC2EP18c_popup_req_structP32C_BCM_HMI_DESKTOP_SERVICE_CLIENTP18C_HMI_INT_APP_BASEm18t_popup_timer_typem 0x04cd3e54
_ZN19C_HMI_INT_POPUP_PMS14InitScreenDataEv 0x04cd3e9c
_ZN19C_HMI_INT_POPUP_PMS7onClickEmm 0x04cd4584
_ZN19C_HMI_INT_POPUP_PMSD0Ev 0x04cd4704
_ZN19C_HMI_INT_POPUP_PMSD1Ev 0x04cd4790
_ZN19C_HMI_INT_POPUP_PMSD2Ev 0x04cd481c
_ZN19C_HMI_INT_POPUP_PMSC1EP18c_popup_req_structP32C_BCM_HMI_DESKTOP_SERVICE_CLIENTP18C_HMI_INT_APP_BASEm18t_popup_timer_typem 0x04cd48a8
_ZN19C_HMI_INT_POPUP_PMSC2EP18c_popup_req_structP32C_BCM_HMI_DESKTOP_SERVICE_CLIENTP18C_HMI_INT_APP_BASEm18t_popup_timer_typem 0x04cd4940
_ZN21C_HMI_INT_POPUP_STATE10setContextE15t_int_popup_ctx 0x04cd49d8
_ZN21C_HMI_INT_POPUP_STATE4OpenEv 0x04cd4a08
_ZN21C_HMI_INT_POPUP_STATE5CloseEv 0x04cd4a28
_ZN21C_HMI_INT_POPUP_STATE14InitScreenDataEv 0x04cd4a48
_ZN21C_HMI_INT_POPUP_STATE19HandleKeyboardEventER21C_HMI_KeyboardMessage 0x04cd4a68
_ZN21C_HMI_INT_POPUP_STATE7onClickEmm 0x04cd4a8c
_ZN21C_HMI_INT_POPUP_STATE11onLongClickEmm 0x04cd4ab4
_ZN21C_HMI_INT_POPUP_STATE14onCheckChangedEmb 0x04cd4adc
_GLOBAL__I__ZN21C_HMI_INT_POPUP_STATEC2EP18c_popup_req_structP32C_BCM_HMI_DESKTOP_SERVICE_CLIENTP18C_HMI_INT_APP_BASEm18t_popup_timer_typem 0x04cd4c7c
_ZN21C_HMI_INT_POPUP_STATE16HandleTouchEventER18C_HMI_TouchMessage 0x04cd4cc4
_ZN21C_HMI_INT_POPUP_STATED0Ev 0x04cd4fcc
_ZN21C_HMI_INT_POPUP_STATED1Ev 0x04cd50c4
_ZN21C_HMI_INT_POPUP_STATED2Ev 0x04cd51bc
_ZN21C_HMI_INT_POPUP_STATEC1EP18c_popup_req_structP32C_BCM_HMI_DESKTOP_SERVICE_CLIENTP18C_HMI_INT_APP_BASEm18t_popup_timer_typem 0x04cd52b4
_ZN21C_HMI_INT_POPUP_STATEC2EP18c_popup_req_structP32C_BCM_HMI_DESKTOP_SERVICE_CLIENTP18C_HMI_INT_APP_BASEm18t_popup_timer_typem 0x04cd53c4
_ZN25C_HMI_INT_POPUP_STATE_VKB10setContextE15t_int_popup_ctx 0x04cd54d4
_ZN25C_HMI_INT_POPUP_STATE_VKB4OpenEv 0x04cd5504
_ZN25C_HMI_INT_POPUP_STATE_VKB5CloseEv 0x04cd5524
_GLOBAL__I__ZN25C_HMI_INT_POPUP_STATE_VKBC2EP18c_popup_req_structP32C_BCM_HMI_DESKTOP_SERVICE_CLIENTP18C_HMI_INT_APP_BASEm18t_popup_timer_typem 0x04cd56b8
_ZN25C_HMI_INT_POPUP_STATE_VKB16HandleTouchEventER18C_HMI_TouchMessage 0x04cd5700
_ZN25C_HMI_INT_POPUP_STATE_VKBD0Ev 0x04cd5944
_ZN25C_HMI_INT_POPUP_STATE_VKBD1Ev 0x04cd5a3c
_ZN25C_HMI_INT_POPUP_STATE_VKBD2Ev 0x04cd5b34
_ZN25C_HMI_INT_POPUP_STATE_VKBC1EP18c_popup_req_structP32C_BCM_HMI_DESKTOP_SERVICE_CLIENTP18C_HMI_INT_APP_BASEm18t_popup_timer_typem 0x04cd5c2c
_ZN25C_HMI_INT_POPUP_STATE_VKBC2EP18c_popup_req_structP32C_BCM_HMI_DESKTOP_SERVICE_CLIENTP18C_HMI_INT_APP_BASEm18t_popup_timer_typem 0x04cd5d50
_GLOBAL__I__ZN38C_HMI_INT_POPUP_VIE_INFO_EXPORT_STATUSC2EP18c_popup_req_structP32C_BCM_HMI_DESKTOP_SERVICE_CLIENTP18C_HMI_INT_APP_BASEm18t_popup_timer_typem 0x04cd5fe8
_ZN38C_HMI_INT_POPUP_VIE_INFO_EXPORT_STATUS14InitScreenDataEv 0x04cd6030
_ZN38C_HMI_INT_POPUP_VIE_INFO_EXPORT_STATUS7onClickEmm 0x04cd6118
_ZN38C_HMI_INT_POPUP_VIE_INFO_EXPORT_STATUSD0Ev 0x04cd6178
_ZN38C_HMI_INT_POPUP_VIE_INFO_EXPORT_STATUSD1Ev 0x04cd6204
_ZN38C_HMI_INT_POPUP_VIE_INFO_EXPORT_STATUSD2Ev 0x04cd6290
_ZN38C_HMI_INT_POPUP_VIE_INFO_EXPORT_STATUSC1EP18c_popup_req_structP32C_BCM_HMI_DESKTOP_SERVICE_CLIENTP18C_HMI_INT_APP_BASEm18t_popup_timer_typem 0x04cd631c
_ZN38C_HMI_INT_POPUP_VIE_INFO_EXPORT_STATUSC2EP18c_popup_req_structP32C_BCM_HMI_DESKTOP_SERVICE_CLIENTP18C_HMI_INT_APP_BASEm18t_popup_timer_typem 0x04cd63b4
_ZN16C_HMI_INT_ScreenC2EmP18C_HMI_INT_APP_BASE 0x04cd644c
_ZN16C_HMI_INT_ScreenC1EmP18C_HMI_INT_APP_BASE 0x04cd649c
_GLOBAL__I__ZN16C_HMI_INT_ScreenC2EmP18C_HMI_INT_APP_BASE 0x04cd6660
_ZN16C_HMI_INT_Screen19SetSelectedVKBFieldEmmb 0x04cd66a8
_ZN16C_HMI_INT_Screen21RequestVKBTranslationEm 0x04cd67f4
_ZN16C_HMI_INT_Screen10HideWidgetEmmb 0x04cd6924
_ZN16C_HMI_INT_Screen9ClearListEmm 0x04cd6a70
_ZN16C_HMI_INT_Screen21UpdateComplexListDataEmmmRSt6vectorIN20C_HMI_ToVideoMessage15c_composed_dataESaIS2_EE 0x04cd6ba8
_ZN16C_HMI_INT_ScreenD0Ev 0x04cd6d18
_ZN16C_HMI_INT_ScreenD1Ev 0x04cd6d7c
_ZN16C_HMI_INT_ScreenD2Ev 0x04cd6de0
_ZN16C_HMI_INT_Screen15UpdateComboListEmmRKSt6vectorISbIwSt11char_traitsIwESaIwEESaIS4_EEj 0x04cd6e44
_ZN16C_HMI_INT_Screen15UpdatePictoPathEmmRKSbIwSt11char_traitsIwESaIwEE 0x04cd71b0
_ZN16C_HMI_INT_Screen24UpdateFaviconProgressBarEmmRKSbIwSt11char_traitsIwESaIwEE 0x04cd72f4
_ZN16C_HMI_INT_Screen20UpdateBackgroundPathEmmRKSbIwSt11char_traitsIwESaIwEE 0x04cd7364
_ZN16C_HMI_INT_Screen13UpdateFaviconEmmRKSbIwSt11char_traitsIwESaIwEE 0x04cd74ac
_ZN16C_HMI_INT_Screen14UpdateBargraphEmmmmm 0x04cd751c
_ZN16C_HMI_INT_Screen17UpdateComplexListEmmmRSt6vectorIN20C_HMI_ToVideoMessage15c_composed_listESaIS2_EE 0x04cd770c
_ZN16C_HMI_INT_Screen17UpdateCheckButtonEmmb 0x04cd78f0
_ZN16C_HMI_INT_Screen12EnableWidgetEmmb 0x04cd7a3c
_ZN16C_HMI_INT_Screen18UpdateVKBTextFieldEmmRKSbIwSt11char_traitsIwESaIwEE 0x04cd7b88
_ZN16C_HMI_INT_Screen11UpdateLabelEmmRKSbIwSt11char_traitsIwESaIwEE 0x04cd7cc8
_ZN16C_HMI_INT_Screen17UpdateSetTextDataEmmm 0x04cd7e08
_ZN16C_HMI_INT_Screen11UpdateLabelEmmm 0x04cd7f48
_ZN16C_HMI_INT_Screen18UpdatePictoIndexedEmmm 0x04cd8088
_ZN16C_HMI_INT_Screen11UpdatePictoEmmm 0x04cd81cc
_ZN13C_HMI_INT_VKB8SetVKBIPEb 0x04cd8310
_ZN13C_HMI_INT_VKB24setUppercaseKeyboardTextEm 0x04cd8344
_ZN13C_HMI_INT_VKB24setLowercaseKeyboardTextEm 0x04cd8374
_GLOBAL__I__ZN13C_HMI_INT_VKBC2EmmP18C_HMI_INT_APP_BASE 0x04cd8518
_ZN13C_HMI_INT_VKB24CopyAddressFromComboListERSbIwSt11char_traitsIwESaIwEE 0x04cd8560
_ZN13C_HMI_INT_VKB22ChooseProperLangStringERSbIwSt11char_traitsIwESaIwEE 0x04cd85e8
_ZNK13C_HMI_INT_VKB7wfield4Ev 0x04cd8a60
_ZNK13C_HMI_INT_VKB7wfield3Ev 0x04cd8ac4
_ZNK13C_HMI_INT_VKB7wfield2Ev 0x04cd8b28
_ZNK13C_HMI_INT_VKB7wfield1Ev 0x04cd8b8c
_ZN13C_HMI_INT_VKB33handleNonStandardOnEnterInstancesEm 0x04cd8bf0
_ZN13C_HMI_INT_VKB29handleNonStandardVKBInstancesEmm 0x04cd8c64
_ZN13C_HMI_INT_VKB17InsertInitialTextEmmbRKSbIwSt11char_traitsIwESaIwEE 0x04cd8cdc
_ZN13C_HMI_INT_VKB26updateInputStringDisplayedEv 0x04cd8e10
_ZNK13C_HMI_INT_VKB14addDataToGroupEmRKSbIwSt11char_traitsIwESaIwEER20C_HMI_ToVideoMessageb 0x04cd8fd4
_ZN13C_HMI_INT_VKB27CreateLanguageChangeMessageEv 0x04cd9198
_ZN13C_HMI_INT_VKB19CreateSpeciaMessageEv 0x04cd95b4
_ZN13C_HMI_INT_VKB22CreateLowercaseMessageEv 0x04cd99ac
_ZN13C_HMI_INT_VKB22CreateUppercaseMessageEv 0x04cd9d1c
_ZN13C_HMI_INT_VKB26updateAlphanumericKeyboardEv 0x04cda08c
_ZN13C_HMI_INT_VKB26updateSpecialCharsKeyboardEv 0x04cda178
_ZNK13C_HMI_INT_VKB14splitIpAddressERKSbIwSt11char_traitsIwESaIwEE 0x04cda238
_ZNK13C_HMI_INT_VKB6field4Ev 0x04cda494
_ZNK13C_HMI_INT_VKB6field3Ev 0x04cda4f8
_ZNK13C_HMI_INT_VKB6field2Ev 0x04cda55c
_ZNK13C_HMI_INT_VKB6field1Ev 0x04cda5c0
_ZNK13C_HMI_INT_VKB9isValidIPEv 0x04cda624
_ZNK13C_HMI_INT_VKB9ipAddressEv 0x04cdac74
_ZNK13C_HMI_INT_VKB14obscuredStringERKSs 0x04cdaf98
_ZN13C_HMI_INT_VKB14setActualFieldERKm 0x04cdb01c
_ZN13C_HMI_INT_VKB18handleClickOnEnterERKm 0x04cdb4bc
_ZN13C_HMI_INT_VKB12addExtensionERKSbIwSt11char_traitsIwESaIwEEb 0x04cdb594
_ZN13C_HMI_INT_VKB11handleClickEmm 0x04cdb678
_ZN13C_HMI_INT_VKB15handleLongClickEmm 0x04cdbce8
_ZN13C_HMI_INT_VKB15handleClickCharEmm 0x04cdbf78
_ZN13C_HMI_INT_VKB22updateIpKeyboardFieldsEm 0x04cdc1b8
_ZN13C_HMI_INT_VKB22updateIpKeyboardFieldsEmRKSbIwSt11char_traitsIwESaIwEE 0x04cdc2f8
_ZN13C_HMI_INT_VKB28updateFavoriteKeyboardFieldsEmRKSbIwSt11char_traitsIwESaIwEES5_ 0x04cdc578
_ZN13C_HMI_INT_VKB34updateIdentificationKeyboardFieldsEmRKSbIwSt11char_traitsIwESaIwEES5_ 0x04cdc6d8
_ZN13C_HMI_INT_VKB32updateAlphanumericKeyboardFieldsEmRKSbIwSt11char_traitsIwESaIwEE 0x04cdc838
_ZN13C_HMI_INT_VKB27updateNumericKeyboardFieldsEmRKSbIwSt11char_traitsIwESaIwEE 0x04cdc950
_ZN13C_HMI_INT_VKB18initializeKeyboardEv 0x04cdca68
_ZN13C_HMI_INT_VKBD0Ev 0x04cdcb34
_ZN13C_HMI_INT_VKBD1Ev 0x04cdcf0c
_ZN13C_HMI_INT_VKBD2Ev 0x04cdd2e4
_ZN13C_HMI_INT_VKBC1EmmP18C_HMI_INT_APP_BASE 0x04cdd6bc
_ZN13C_HMI_INT_VKBC2EmmP18C_HMI_INT_APP_BASE 0x04cde3a8
_ZNSt11char_traitsIcE12to_char_typeERKi 0x04cdf174
_ZNSt11char_traitsIcE11to_int_typeERKc 0x04cdf1a4
_ZNSt11char_traitsIcE11eq_int_typeERKiS2_ 0x04cdf1d4
_ZNSt11char_traitsIcE3eofEv 0x04cdf218
_ZNSt11char_traitsIcE7not_eofERKi 0x04cdf23c
_ZNSt8bad_castC1Ev 0x04cdf2d4
_ZNKSt8_Locinfo7_GetcvtEv 0x04cdf358
_ZNKSt8_Locinfo9_GetlconvEv 0x04cdf388
_ZNKSt8_Locinfo9_GetfalseEv 0x04cdf3b4
_ZNKSt8_Locinfo8_GettrueEv 0x04cdf3e0
_ZNSt6locale2idC1Ej 0x04cdf40c
_ZNSt6locale5facetC2Ej 0x04cdf43c
_ZNSt8_LocbaseIiEC2Ev 0x04cdf47c
_ZNSt10ctype_baseC2Ej 0x04cdf49c
_ZNKSt5ctypeIcE5widenEc 0x04cdf4fc
_ZNKSt8ios_base7rdstateEv 0x04cdf564
_ZNKSt8ios_base4goodEv 0x04cdf590
_ZNKSt8ios_base4failEv 0x04cdf5e8
_ZNKSt8ios_base5flagsEv 0x04cdf64c
_ZNKSt8ios_base9precisionEv 0x04cdf678
_ZNKSt8ios_base5widthEv 0x04cdf6a4
_ZNSt8ios_base5widthEi 0x04cdf6d0
_ZNSt5_IosbIiEC2Ev 0x04cdf714
_ZNSt8ios_baseC2Ev 0x04cdf734
_ZStanNSt5_IosbIiE9_FmtflagsES1_ 0x04cdf78c
_ZStoRRNSt5_IosbIiE8_IostateES1_ 0x04cdf7c0
_ZStanNSt5_IosbIiE9_OpenmodeES1_ 0x04cdf808
_ZStorNSt5_IosbIiE9_OpenmodeES1_ 0x04cdf83c
_ZNKSt6vectorI9t_historySaIS0_EE4sizeEv 0x04cdf870
_ZNSt6vectorI9t_historySaIS0_EE8iteratorppEv 0x04cdf91c
_ZNKSt6vectorI10t_favoriteSaIS0_EE14const_iteratorltERKS3_ 0x04cdf958
_ZNSt6vectorI10t_favoriteSaIS0_EE8iteratorppEv 0x04cdf99c
_ZNSt9basic_iosIcSt11char_traitsIcEEC2Ev 0x04cdfd60
_ZNKSo6sentrycvbEv 0x04cdfdb8
_ZNKSt9basic_iosIcSt11char_traitsIcEE5rdbufEv 0x04cdfde8
_ZNKSt9basic_iosIcSt11char_traitsIcEE4fillEv 0x04cdfe14
_ZNSt15basic_streambufIcSt11char_traitsIcEE5sputnEPKci 0x04cdfe44
_ZNKSsixEj 0x04cdfed4
_ZNSt6_OutitC2Ev 0x04cdff2c
_ZNSt19ostreambuf_iteratorIcSt11char_traitsIcEEC1EPSt15basic_streambufIcS1_E 0x04cdff4c
_ZNKSt7num_putIcSt19ostreambuf_iteratorIcSt11char_traitsIcEEE3putES3_RSt8ios_basecb 0x04cdffb0
_ZNKSt19ostreambuf_iteratorIcSt11char_traitsIcEE6failedEv 0x04ce0080
_ZNKSt7num_putIcSt19ostreambuf_iteratorIcSt11char_traitsIcEEE3putES3_RSt8ios_basecl 0x04ce00b0
_ZNSt15_Allocator_baseI10t_favoriteEC2Ev 0x04ce0174
_ZNSaI10t_favoriteEC1Ev 0x04ce0194
_ZNSaI10t_favoriteEC1ERKS0_ 0x04ce01dc
_ZNSt11_Vector_valI10t_favoriteSaIS0_EEC2ES1_ 0x04ce0228
_ZNSt15_Allocator_baseI9t_historyEC2Ev 0x04ce0290
_ZNSaI9t_historyEC1Ev 0x04ce02b0
_ZNSaI9t_historyEC1ERKS0_ 0x04ce02f8
_ZNSt11_Vector_valI9t_historySaIS0_EEC2ES1_ 0x04ce0344
_ZNSt15_Allocator_baseI10t_passwordEC2Ev 0x04ce03ac
_ZNSaI10t_passwordEC1Ev 0x04ce03cc
_ZNSaI10t_passwordEC1ERKS0_ 0x04ce0414
_ZNSt11_Vector_valI10t_passwordSaIS0_EEC2ES1_ 0x04ce0460
_ZNSt15_Allocator_baseISt4pairIKSs15t_cookie_structEEC2Ev 0x04ce04c8
_ZNSaISt4pairIKSs15t_cookie_structEEC1Ev 0x04ce04e8
_ZNSaISt4pairIKSs15t_cookie_structEEC1ERKS3_ 0x04ce0530
_ZNKSt5_TreeISt12_Tmap_traitsISs15t_cookie_structSt4lessISsESaISt4pairIKSsS1_EELb0EEE14const_iterator7_MynodeEv 0x04ce07b4
_ZNKSt5_TreeISt12_Tmap_traitsISs15t_cookie_structSt4lessISsESaISt4pairIKSsS1_EELb0EEE14const_iteratoreqERKSA_ 0x04ce07e0
_ZNKSt5_TreeISt12_Tmap_traitsISs15t_cookie_structSt4lessISsESaISt4pairIKSsS1_EELb0EEE14const_iteratorneERKSA_ 0x04ce0824
_ZNKSt6vectorI9t_historySaIS0_EE14const_iteratoreqERKS3_ 0x04ce0880
_ZNKSt6vectorI9t_historySaIS0_EE14const_iteratorneERKS3_ 0x04ce08c4
_ZNKSt6vectorI9t_historySaIS0_EE14const_iteratordeEv 0x04ce0920
_ZNKSt6vectorI9t_historySaIS0_EE8iteratordeEv 0x04ce094c
_ZNSt6_BiditISt4pairIKSs15t_cookie_structEiPKS3_RS4_EC2Ev 0x04ce0a7c
_ZNSt5_TreeISt12_Tmap_traitsISs15t_cookie_structSt4lessISsESaISt4pairIKSsS1_EELb0EEE14const_iteratorC2Ev 0x04ce0a9c
_ZNSt5_TreeISt12_Tmap_traitsISs15t_cookie_structSt4lessISsESaISt4pairIKSsS1_EELb0EEE8iteratorC1Ev 0x04ce0af0
_ZNKSt6vectorI10t_favoriteSaIS0_EE14const_iteratordeEv 0x04ce0b38
_ZNKSt6vectorI10t_favoriteSaIS0_EE8iteratordeEv 0x04ce0b64
_ZNSt15basic_stringbufIcSt11char_traitsIcESaIcEE9_GetstateENSt5_IosbIiE9_OpenmodeE 0x04ce0e8c
_ZNSo12_Sentry_baseC2ERSo 0x04ce0f8c
_ZNSo12_Sentry_baseD2Ev 0x04ce1084
_ZNKSt9basic_iosIcSt11char_traitsIcEE3tieEv 0x04ce116c
_ZNSt15basic_streambufIcSt11char_traitsIcEE6_PnincEv 0x04ce1198
_ZNKSt15basic_streambufIcSt11char_traitsIcEE5epptrEv 0x04ce11ec
_ZNKSt15basic_streambufIcSt11char_traitsIcEE4pptrEv 0x04ce122c
_ZNSt15basic_streambufIcSt11char_traitsIcEE5sputcEc 0x04ce125c
_ZNKSt15basic_streambufIcSt11char_traitsIcEE5pbaseEv 0x04ce1388
_ZNKSt15basic_streambufIcSt11char_traitsIcEE4gptrEv 0x04ce13b8
_ZNKSt15basic_streambufIcSt11char_traitsIcEE5ebackEv 0x04ce13e8
_ZNKSt15basic_streambufIcSt11char_traitsIcEE5egptrEv 0x04ce1418
_ZNSt5_TreeISt12_Tmap_traitsISs15t_cookie_structSt4lessISsESaISt4pairIKSsS1_EELb0EEE5_LeftEPNSt9_Tree_nodIS8_E5_NodeE 0x04ce1458
_ZNSt5_TreeISt12_Tmap_traitsISs15t_cookie_structSt4lessISsESaISt4pairIKSsS1_EELb0EEE6_LmostEv 0x04ce1480
_ZNSt5_TreeISt12_Tmap_traitsISs15t_cookie_structSt4lessISsESaISt4pairIKSsS1_EELb0EEE7_ParentEPNSt9_Tree_nodIS8_E5_NodeE 0x04ce14d4
_ZNSt5_TreeISt12_Tmap_traitsISs15t_cookie_structSt4lessISsESaISt4pairIKSsS1_EELb0EEE5_RootEv 0x04ce1500
_ZNSt5_TreeISt12_Tmap_traitsISs15t_cookie_structSt4lessISsESaISt4pairIKSsS1_EELb0EEE6_RightEPNSt9_Tree_nodIS8_E5_NodeE 0x04ce1554
_ZNSt5_TreeISt12_Tmap_traitsISs15t_cookie_structSt4lessISsESaISt4pairIKSsS1_EELb0EEE6_RmostEv 0x04ce1580
_ZNSt6vectorI9t_historySaIS0_EE8iteratorpLEi 0x04ce16a8
_ZNKSt6vectorI9t_historySaIS0_EE8iteratorplEi 0x04ce16f0
_ZNSt12_Tmap_traitsISs15t_cookie_structSt4lessISsESaISt4pairIKSsS0_EELb0EE4_KfnERKS5_ 0x04ce18d8
_ZNSt5_TreeISt12_Tmap_traitsISs15t_cookie_structSt4lessISsESaISt4pairIKSsS1_EELb0EEE6_MyvalEPNSt9_Tree_nodIS8_E5_NodeE 0x04ce1900
_ZNSt5_TreeISt12_Tmap_traitsISs15t_cookie_structSt4lessISsESaISt4pairIKSsS1_EELb0EEE4_KeyEPNSt9_Tree_nodIS8_E5_NodeE 0x04ce192c
_ZNKSt5_TreeISt12_Tmap_traitsISs15t_cookie_structSt4lessISsESaISt4pairIKSsS1_EELb0EEE4sizeEv 0x04ce1990
_ZNSt5_TreeISt12_Tmap_traitsISs15t_cookie_structSt4lessISsESaISt4pairIKSsS1_EELb0EEE6_IsnilEPNSt9_Tree_nodIS8_E5_NodeE 0x04ce19bc
_ZNKSt5_TreeISt12_Tmap_traitsISs15t_cookie_structSt4lessISsESaISt4pairIKSsS1_EELb0EEE14const_iteratordeEv 0x04ce19e8
_ZNKSt5_TreeISt12_Tmap_traitsISs15t_cookie_structSt4lessISsESaISt4pairIKSsS1_EELb0EEE8iteratordeEv 0x04ce1a3c
_ZNKSt5_TreeISt12_Tmap_traitsISs15t_cookie_structSt4lessISsESaISt4pairIKSsS1_EELb0EEE8iteratorptEv 0x04ce1a8c
_ZNSt6_RanitI9t_historyiPKS0_RS1_EC2Ev 0x04ce1ad8
_ZNSt6vectorI9t_historySaIS0_EE14const_iteratorC2EPS0_ 0x04ce1af8
_ZNSt6vectorI9t_historySaIS0_EE8iteratorC1EPS0_ 0x04ce1b50
_ZNSt6vectorI9t_historySaIS0_EE5beginEv 0x04ce1ba0
_ZNSt6vectorI9t_historySaIS0_EE3endEv 0x04ce1bfc
_ZNSt5_TreeISt12_Tmap_traitsISs15t_cookie_structSt4lessISsESaISt4pairIKSsS1_EELb0EEE14const_iteratorC2EPNSt9_Tree_nodIS8_E5_NodeE 0x04ce1c58
_ZNSt5_TreeISt12_Tmap_traitsISs15t_cookie_structSt4lessISsESaISt4pairIKSsS1_EELb0EEE8iteratorC1EPNSt9_Tree_nodIS8_E5_NodeE 0x04ce1cb0
_ZNSt5_TreeISt12_Tmap_traitsISs15t_cookie_structSt4lessISsESaISt4pairIKSsS1_EELb0EEE5beginEv 0x04ce1d00
_ZNSt5_TreeISt12_Tmap_traitsISs15t_cookie_structSt4lessISsESaISt4pairIKSsS1_EELb0EEE3endEv 0x04ce1d70
_ZNSt6_RanitI10t_favoriteiPKS0_RS1_EC2Ev 0x04ce1dcc
_ZNSt6vectorI10t_favoriteSaIS0_EE14const_iteratorC2EPS0_ 0x04ce1dec
_ZNSt6vectorI10t_favoriteSaIS0_EE8iteratorC1EPS0_ 0x04ce1e44
_ZNSt6vectorI10t_favoriteSaIS0_EE5beginEv 0x04ce1e94
_ZNSt6vectorI10t_favoriteSaIS0_EE3endEv 0x04ce1ef0
_ZNSt11char_traitsIwE4findEPKwjRS1_ 0x04ce202c
_ZNSt15basic_streambufIcSt11char_traitsIcEE4setgEPcS3_S3_ 0x04ce2454
_ZNSt15basic_streambufIcSt11char_traitsIcEE4setpEPcS3_ 0x04ce24b8
_ZNSt15basic_streambufIcSt11char_traitsIcEE5_InitEv 0x04ce2518
_ZNSt15basic_streambufIcSt11char_traitsIcEE7pubsyncEv 0x04ce25e4
_ZNSt15basic_streambufIcSt11char_traitsIcEE5pbumpEi 0x04ce2638
_ZNKSt8numpunctIcE8truenameEv 0x04ce269c
_ZNKSt8numpunctIcE9falsenameEv 0x04ce2700
_ZNKSt7num_putIcSt19ostreambuf_iteratorIcSt11char_traitsIcEEE5_IfmtEPcPKcNSt5_IosbIiE9_FmtflagsE 0x04ce2764
_ZNKSaI10t_favoriteE8max_sizeEv 0x04ce2bfc
_ZNKSt6vectorI10t_favoriteSaIS0_EE8max_sizeEv 0x04ce2c50
_ZNKSaI9t_historyE8max_sizeEv 0x04ce2ca0
_ZNKSt6vectorI9t_historySaIS0_EE8max_sizeEv 0x04ce2cf4
_ZNKSaI10t_passwordE8max_sizeEv 0x04ce2d44
_ZNKSt6vectorI10t_passwordSaIS0_EE8max_sizeEv 0x04ce2d98
_ZSt8_DestroyIPNSt9_Tree_nodISt12_Tmap_traitsISs15t_cookie_structSt4lessISsESaISt4pairIKSsS2_EELb0EEE5_NodeEEvPT_ 0x04ce2de8
_ZNSaIPNSt9_Tree_nodISt12_Tmap_traitsISs15t_cookie_structSt4lessISsESaISt4pairIKSsS1_EELb0EEE5_NodeEE7destroyEPSB_ 0x04ce2e08
_ZNKSt5_TreeISt12_Tmap_traitsISs15t_cookie_structSt4lessISsESaISt4pairIKSsS1_EELb0EEE5_RootEv 0x04ce3034
_ZNSt5_TreeISt12_Tmap_traitsISs15t_cookie_structSt4lessISsESaISt4pairIKSsS1_EELb0EEE6_ColorEPNSt9_Tree_nodIS8_E5_NodeE 0x04ce3088
_ZNSt5_TreeISt12_Tmap_traitsISs15t_cookie_structSt4lessISsESaISt4pairIKSsS1_EELb0EEE8_LrotateEPNSt9_Tree_nodIS8_E5_NodeE 0x04ce30b4
_ZNSt5_TreeISt12_Tmap_traitsISs15t_cookie_structSt4lessISsESaISt4pairIKSsS1_EELb0EEE8_RrotateEPNSt9_Tree_nodIS8_E5_NodeE 0x04ce3370
_ZNSt4pairINSt5_TreeISt12_Tmap_traitsISs15t_cookie_structSt4lessISsESaIS_IKSsS2_EELb0EEE8iteratorEbEC1ERKSA_RKb 0x04ce362c
_ZNSt5_TreeISt12_Tmap_traitsISs15t_cookie_structSt4lessISsESaISt4pairIKSsS1_EELb0EEE4_MinEPNSt9_Tree_nodIS8_E5_NodeE 0x04ce3988
_ZNSt5_TreeISt12_Tmap_traitsISs15t_cookie_structSt4lessISsESaISt4pairIKSsS1_EELb0EEE14const_iterator4_IncEv 0x04ce3a34
_ZNSt5_TreeISt12_Tmap_traitsISs15t_cookie_structSt4lessISsESaISt4pairIKSsS1_EELb0EEE14const_iteratorppEv 0x04ce3c00
_ZNSt5_TreeISt12_Tmap_traitsISs15t_cookie_structSt4lessISsESaISt4pairIKSsS1_EELb0EEE8iteratorppEv 0x04ce3c4c
_ZNSt5_TreeISt12_Tmap_traitsISs15t_cookie_structSt4lessISsESaISt4pairIKSsS1_EELb0EEE8iteratorppEi 0x04ce3c9c
_ZNKSbIwSt11char_traitsIwESaIwEE4findEPKwjj 0x04ce41e4
_ZNKSbIwSt11char_traitsIwESaIwEE4findEPKwj 0x04ce43d0
_ZNSt7num_putIcSt19ostreambuf_iteratorIcSt11char_traitsIcEEE5_InitERKSt8_Locinfo 0x04ce4780
_ZNSt19ostreambuf_iteratorIcSt11char_traitsIcEEppEv 0x04ce47d4
_ZNSt19ostreambuf_iteratorIcSt11char_traitsIcEEdeEv 0x04ce47fc
_ZNSt19ostreambuf_iteratorIcSt11char_traitsIcEEaSEc 0x04ce4824
_ZNKSt7num_putIcSt19ostreambuf_iteratorIcSt11char_traitsIcEEE4_RepES3_cj 0x04ce4914
_ZNKSt7num_putIcSt19ostreambuf_iteratorIcSt11char_traitsIcEEE4_PutES3_PKcj 0x04ce49f4
_ZNKSt8numpunctIcE8groupingEv 0x04ce4ae0
_ZNKSt8numpunctIcE13thousands_sepEv 0x04ce4b44
_ZSt8_Ptr_catIP10t_favoriteS1_ESt27_Nonscalar_ptr_iterator_tagRT_RT0_ 0x04ce4b98
_ZSt8_Ptr_catIP9t_historyS1_ESt27_Nonscalar_ptr_iterator_tagRT_RT0_ 0x04ce4bc4
_ZSt8_Ptr_catIP10t_passwordS1_ESt27_Nonscalar_ptr_iterator_tagRT_RT0_ 0x04ce4bf0
_ZNSt15_Allocator_baseIPNSt9_Tree_nodISt12_Tmap_traitsISs15t_cookie_structSt4lessISsESaISt4pairIKSsS2_EELb0EEE5_NodeEEC2Ev 0x04ce4c1c
_ZNSaIPNSt9_Tree_nodISt12_Tmap_traitsISs15t_cookie_structSt4lessISsESaISt4pairIKSsS1_EELb0EEE5_NodeEEC1IS6_EERKSaIT_E 0x04ce4c3c
_ZNSt5_TreeISt12_Tmap_traitsISs15t_cookie_structSt4lessISsESaISt4pairIKSsS1_EELb0EEE4_MaxEPNSt9_Tree_nodIS8_E5_NodeE 0x04ce4c88
_ZNKSaISt4pairIKSs15t_cookie_structEE8max_sizeEv 0x04ce4e80
_ZNKSt5_TreeISt12_Tmap_traitsISs15t_cookie_structSt4lessISsESaISt4pairIKSsS1_EELb0EEE8max_sizeEv 0x04ce4ed4
_ZNSt5_TreeISt12_Tmap_traitsISs15t_cookie_structSt4lessISsESaISt4pairIKSsS1_EELb0EEE14const_iterator4_DecEv 0x04ce4f28
_ZNSt5_TreeISt12_Tmap_traitsISs15t_cookie_structSt4lessISsESaISt4pairIKSsS1_EELb0EEE14const_iteratormmEv 0x04ce5150
_ZNSt5_TreeISt12_Tmap_traitsISs15t_cookie_structSt4lessISsESaISt4pairIKSsS1_EELb0EEE8iteratormmEv 0x04ce519c
_ZSt10_MaklocchrIcET_cPS0_RKSt7_Cvtvec 0x04ce51ec
_ZNKSt7num_putIcSt19ostreambuf_iteratorIcSt11char_traitsIcEEE5_PutcES3_PKcj 0x04ce5224
_ZNSt12_Tmap_traitsISs15t_cookie_structSt4lessISsESaISt4pairIKSsS0_EELb0EEC2ES2_ 0x04ce5340
_ZNSt15_Allocator_baseINSt9_Tree_nodISt12_Tmap_traitsISs15t_cookie_structSt4lessISsESaISt4pairIKSsS2_EELb0EEE5_NodeEEC2Ev 0x04ce5388
_ZNSaINSt9_Tree_nodISt12_Tmap_traitsISs15t_cookie_structSt4lessISsESaISt4pairIKSsS1_EELb0EEE5_NodeEEC1IS6_EERKSaIT_E 0x04ce53a8
_ZNSt9_Tree_nodISt12_Tmap_traitsISs15t_cookie_structSt4lessISsESaISt4pairIKSsS1_EELb0EEEC2ERKS3_S7_ 0x04ce53f4
_ZNSt9_Tree_ptrISt12_Tmap_traitsISs15t_cookie_structSt4lessISsESaISt4pairIKSsS1_EELb0EEEC2ERKS3_S7_ 0x04ce546c
_ZNSt9_Tree_valISt12_Tmap_traitsISs15t_cookie_structSt4lessISsESaISt4pairIKSsS1_EELb0EEEC2ERKS3_S7_ 0x04ce550c
_ZSt10_ConstructIPNSt9_Tree_nodISt12_Tmap_traitsISs15t_cookie_structSt4lessISsESaISt4pairIKSsS2_EELb0EEE5_NodeESC_EvPT_RKT0_ 0x04ce55ac
_ZNSaIPNSt9_Tree_nodISt12_Tmap_traitsISs15t_cookie_structSt4lessISsESaISt4pairIKSsS1_EELb0EEE5_NodeEE9constructEPSB_RKSB_ 0x04ce5624
_ZNKSt7num_putIcSt19ostreambuf_iteratorIcSt11char_traitsIcEEE5_FfmtEPccNSt5_IosbIiE9_FmtflagsE 0x04ce5674
_ZNSt15basic_streambufIcSt11char_traitsIcEE4setpEPcS3_S3_ 0x04ce5858
_ZNSt15basic_streambufIcSt11char_traitsIcEE5gbumpEi 0x04ce58bc
_ZNSt15basic_streambufIcSt11char_traitsIcEE6_GnincEv 0x04ce5920
_ZNSt4fposIiEC1El 0x04ce5974
_ZNKSt4fposIiEcvlEv 0x04ce59c4
_ZNKSt8numpunctIcE13decimal_pointEv 0x04ce5a54
_ZNSt15basic_stringbufIcSt11char_traitsIcESaIcEE5_TidyEv 0x04ce5af4
_ZNSt10ctype_baseD2Ev 0x04ce5cdc
_ZN23t_portal_notification_tD1Ev 0x04ce6158
_ZN18C_HMI_INT_APP_BASE18t_authentication_tD1Ev 0x04ce61dc
_ZN18C_HMI_INT_APP_BASE18t_authentication_tC1Ev 0x04ce627c
_ZN23t_portal_notification_tC1Ev 0x04ce6328
_ZNSaINSt9_Tree_nodISt12_Tmap_traitsISs15t_cookie_structSt4lessISsESaISt4pairIKSsS1_EELb0EEE5_NodeEE10deallocateEPSA_j 0x04ce6428
_ZNSaI10t_favoriteE10deallocateEPS_j 0x04ce65e4
_ZNSaI9t_historyE10deallocateEPS_j 0x04ce6630
_ZNSaI10t_passwordE10deallocateEPS_j 0x04ce667c
_ZNSt4pairIKSs15t_cookie_structED1Ev 0x04ce6cf0
_ZNSt9_Tree_nodISt12_Tmap_traitsISs15t_cookie_structSt4lessISsESaISt4pairIKSsS1_EELb0EEE5_NodeD1Ev 0x04ce6d54
_ZSt8_DestroyINSt9_Tree_nodISt12_Tmap_traitsISs15t_cookie_structSt4lessISsESaISt4pairIKSsS2_EELb0EEE5_NodeEEvPT_ 0x04ce6da0
_ZNSaINSt9_Tree_nodISt12_Tmap_traitsISs15t_cookie_structSt4lessISsESaISt4pairIKSsS1_EELb0EEE5_NodeEE7destroyEPSA_ 0x04ce6de4
_ZNSt5_TreeISt12_Tmap_traitsISs15t_cookie_structSt4lessISsESaISt4pairIKSsS1_EELb0EEE6_EraseEPNSt9_Tree_nodIS8_E5_NodeE 0x04ce6e2c
_ZNSt5_TreeISt12_Tmap_traitsISs15t_cookie_structSt4lessISsESaISt4pairIKSsS1_EELb0EEE5clearEv 0x04ce6f40
_ZN10t_favoriteD1Ev 0x04ce733c
_ZSt8_DestroyI10t_favoriteEvPT_ 0x04ce73c0
_ZNSaI10t_favoriteE7destroyEPS_ 0x04ce7404
_ZSt14_Destroy_rangeI10t_favoriteSaIS0_EEvPT_S3_RT0_St27_Nonscalar_ptr_iterator_tag 0x04ce744c
_ZSt14_Destroy_rangeI10t_favoriteSaIS0_EEvPT_S3_RT0_ 0x04ce74bc
_ZNSt6vectorI10t_favoriteSaIS0_EE8_DestroyEPS0_S3_ 0x04ce7550
_ZNSt6vectorI10t_favoriteSaIS0_EE5_TidyEv 0x04ce75a8
_ZNSt6vectorI10t_favoriteSaIS0_EE5clearEv 0x04ce7688
_ZNSt6vectorI10t_favoriteSaIS0_EED1Ev 0x04ce76cc
_ZN9t_historyD1Ev 0x04ce7710
_ZSt8_DestroyI9t_historyEvPT_ 0x04ce7794
_ZNSaI9t_historyE7destroyEPS_ 0x04ce77d8
_ZSt14_Destroy_rangeI9t_historySaIS0_EEvPT_S3_RT0_St27_Nonscalar_ptr_iterator_tag 0x04ce7820
_ZSt14_Destroy_rangeI9t_historySaIS0_EEvPT_S3_RT0_ 0x04ce7890
_ZNSt6vectorI9t_historySaIS0_EE8_DestroyEPS0_S3_ 0x04ce7924
_ZNSt6vectorI9t_historySaIS0_EE5_TidyEv 0x04ce797c
_ZNSt6vectorI9t_historySaIS0_EE5clearEv 0x04ce7a5c
_ZNSt6vectorI9t_historySaIS0_EED1Ev 0x04ce7aa0
_ZN10t_passwordD1Ev 0x04ce7ae4
_ZSt8_DestroyI10t_passwordEvPT_ 0x04ce7b68
_ZNSaI10t_passwordE7destroyEPS_ 0x04ce7bac
_ZSt14_Destroy_rangeI10t_passwordSaIS0_EEvPT_S3_RT0_St27_Nonscalar_ptr_iterator_tag 0x04ce7bf4
_ZSt14_Destroy_rangeI10t_passwordSaIS0_EEvPT_S3_RT0_ 0x04ce7c64
_ZNSt6vectorI10t_passwordSaIS0_EE8_DestroyEPS0_S3_ 0x04ce7cf8
_ZNSt6vectorI10t_passwordSaIS0_EE5_TidyEv 0x04ce7d50
_ZNSt6vectorI10t_passwordSaIS0_EE5clearEv 0x04ce7e30
_ZNSt6vectorI10t_passwordSaIS0_EED1Ev 0x04ce7e74
_ZN15t_dun_profile_tD1Ev 0x04ce7eb8
_ZN18C_HMI_INT_APP_BASE18t_agenda_contact_tD1Ev 0x04ce7f74
_ZN18C_HMI_INT_APP_BASE18t_agenda_contact_tC1Ev 0x04ce7fd8
_ZNSt15basic_stringbufIcSt11char_traitsIcESaIcEE5_InitEPKcji 0x04ce80e0
_ZSt9_AllocateINSt9_Tree_nodISt12_Tmap_traitsISs15t_cookie_structSt4lessISsESaISt4pairIKSsS2_EELb0EEE5_NodeEEPT_jSD_ 0x04ce83f0
_ZNSaINSt9_Tree_nodISt12_Tmap_traitsISs15t_cookie_structSt4lessISsESaISt4pairIKSsS1_EELb0EEE5_NodeEE8allocateEj 0x04ce8448
_ZSt9_AllocateI10t_favoriteEPT_jS2_ 0x04ce8548
_ZNSaI10t_favoriteE8allocateEj 0x04ce85a0
_ZSt9_AllocateI9t_historyEPT_jS2_ 0x04ce85f4
_ZNSaI9t_historyE8allocateEj 0x04ce864c
_ZSt9_AllocateI10t_passwordEPT_jS2_ 0x04ce86a0
_ZNSaI10t_passwordE8allocateEj 0x04ce86f8
_ZNSt7_LockitC1Ei 0x04ce87f8
_ZNSt7_LockitD1Ev 0x04ce8854
_ZNSt6locale5facet7_DecrefEv 0x04ce88a0
_ZNSt15basic_streambufIcSt11char_traitsIcEED2Ev 0x04ce8974
_ZNSt6localeC1ERKS_ 0x04ce8a34
_ZNKSt8ios_base6getlocEv 0x04ce8aec
_ZNSoD2Ev 0x04ce8c04
_ZNSiD2Ev 0x04ce8cc4
_ZNSdD2Ev 0x04ce8d84
_ZNSt7num_putIcSt19ostreambuf_iteratorIcSt11char_traitsIcEEEC1Ej 0x04ce8f9c
_ZNSt7num_putIcSt19ostreambuf_iteratorIcSt11char_traitsIcEEE7_GetcatEPPKNSt6locale5facetE 0x04ce9094
_ZSt9use_facetISt7num_putIcSt19ostreambuf_iteratorIcSt11char_traitsIcEEEERKT_RKSt6locale 0x04ce9168
_ZSt8_ToupperiPKSt9_Ctypevec 0x04ce935c
_ZSt8_ToloweriPKSt9_Ctypevec 0x04ce93b4
_ZNKSt8_Locinfo9_GetctypeEv 0x04ce940c
_ZNSt5ctypeIcE5_InitERKSt8_Locinfo 0x04ce949c
_ZNSt5ctypeIcE5_TidyEv 0x04ce94f8
_ZNSt5ctypeIcEC1EPKsbj 0x04ce9594
_ZNKSt9basic_iosIcSt11char_traitsIcEE5widenEc 0x04ce97fc
_ZNSt8numpunctIcE5_TidyEv 0x04ce98fc
_ZNSt9basic_iosIcSt11char_traitsIcEE5clearENSt5_IosbIiE8_IostateEb 0x04ce9b40
_ZNSt9basic_iosIcSt11char_traitsIcEE8setstateENSt5_IosbIiE8_IostateEb 0x04ce9bd0
_ZNSoC2EPSt15basic_streambufIcSt11char_traitsIcEEb 0x04ce9c68
_ZNSiC2EPSt15basic_streambufIcSt11char_traitsIcEEbb 0x04ce9d24
_ZNSdC2EPSt15basic_streambufIcSt11char_traitsIcEE 0x04ce9e08
_ZNSo6sentryC1ERSo 0x04ce9f40
_ZNSo5_OsfxEv 0x04cea0f8
_ZNSt15basic_streambufIcSt11char_traitsIcEEC2Ev 0x04cea1a8
_ZNSt15basic_stringbufIcSt11char_traitsIcESaIcEEC1ENSt5_IosbIiE9_OpenmodeE 0x04cea298
_ZN18C_HMI_INT_APP_BASE18t_agenda_contact_t5clearEv 0x04cea768
_ZNKSbIwSt11char_traitsIwESaIwEE7compareEjjRKS2_jj 0x04ceada4
_ZNKSbIwSt11char_traitsIwESaIwEE7compareEjjRKS2_ 0x04ceaeb0
_ZN15t_dun_profile_tC1Ev 0x04ceb258
_ZN15t_dun_profile_taSERKS_ 0x04ceb7f4
_ZNKSt19basic_ostringstreamIcSt11char_traitsIcESaIcEE3strEv 0x04ceba48
_ZNKSt18basic_stringstreamIcSt11char_traitsIcESaIcEE3strEv 0x04cebaac
_ZNSt4pairIKSs15t_cookie_structEC1ERS0_RKS1_ 0x04cebeac
_ZNSt4pairIKSs15t_cookie_structEC1ERKS2_ 0x04cebf64
_ZNSt9_Tree_nodISt12_Tmap_traitsISs15t_cookie_structSt4lessISsESaISt4pairIKSsS1_EELb0EEE5_NodeC1EPSA_SB_SB_RKS6_c 0x04cec024
_ZNSs7replaceEjjRKSs 0x04cecad4
_ZN23t_portal_notification_taSERKS_ 0x04ced1e8
_ZNSt5_TreeISt12_Tmap_traitsISs15t_cookie_structSt4lessISsESaISt4pairIKSsS1_EELb0EEE8_BuynodeEv 0x04ced8f0
_ZNSt5_TreeISt12_Tmap_traitsISs15t_cookie_structSt4lessISsESaISt4pairIKSsS1_EELb0EEE5_InitEv 0x04ceda90
_ZNSt5_TreeISt12_Tmap_traitsISs15t_cookie_structSt4lessISsESaISt4pairIKSsS1_EELb0EEEC2ERKS3_RKS7_ 0x04cedb80
_ZNSt3mapISs15t_cookie_structSt4lessISsESaISt4pairIKSsS0_EEEC1Ev 0x04cedc14
_ZSt10_MaklocstrIcEPT_PKcS1_RKSt7_Cvtvec 0x04cedc8c
_ZNSt8numpunctIcEC1Ej 0x04cee008
_ZNSt8numpunctIcE7_GetcatEPPKNSt6locale5facetE 0x04cee128
_ZNKSt7num_putIcSt19ostreambuf_iteratorIcSt11char_traitsIcEEE11_PutgroupedES3_PKcjc 0x04cee1fc
_ZNSo6sentryD1Ev 0x04cee5f8
_ZN15t_dun_profile_t8toStringEv 0x04cee6cc
_ZStneIcSt11char_traitsIcESaIcEEbRKSbIT_T0_T1_ES8_ 0x04ceecf4
_ZN15t_dun_profile_tneERKS_ 0x04ceed50
_ZStltIcSt11char_traitsIcESaIcEEbRKSbIT_T0_T1_ES8_ 0x04ceef28
_ZNKSt4lessISsEclERKSsS2_ 0x04ceef80
_ZNKSt5_TreeISt12_Tmap_traitsISs15t_cookie_structSt4lessISsESaISt4pairIKSsS1_EELb0EEE7_LboundERS5_ 0x04ceefd8
_ZNSt5_TreeISt12_Tmap_traitsISs15t_cookie_structSt4lessISsESaISt4pairIKSsS1_EELb0EEE11lower_boundERS5_ 0x04cef110
_ZNKSt6vectorI9t_historySaIS0_EE5_XranEv 0x04cef790
_ZNSt6vectorI9t_historySaIS0_EE2atEj 0x04cef898
_ZNSt5_TreeISt12_Tmap_traitsISs15t_cookie_structSt4lessISsESaISt4pairIKSsS1_EELb0EEE5eraseENS9_8iteratorE 0x04cef978
_ZNSt5_TreeISt12_Tmap_traitsISs15t_cookie_structSt4lessISsESaISt4pairIKSsS1_EELb0EEE5eraseENS9_8iteratorESA_ 0x04cf0abc
_ZNSt5_TreeISt12_Tmap_traitsISs15t_cookie_structSt4lessISsESaISt4pairIKSsS1_EELb0EEE5_TidyEv 0x04cf0c54
_ZNSt5_TreeISt12_Tmap_traitsISs15t_cookie_structSt4lessISsESaISt4pairIKSsS1_EELb0EEED2Ev 0x04cf0df0
_ZNSt3mapISs15t_cookie_structSt4lessISsESaISt4pairIKSsS0_EEED1Ev 0x04cf0e34
_ZNKSt6vectorI10t_favoriteSaIS0_EE5_XlenEv 0x04cf0e7c
_ZNSt6vectorI10t_favoriteSaIS0_EE4_BuyEj 0x04cf0f84
_ZNSt6vectorI10t_favoriteSaIS0_EEC1Ev 0x04cf10a0
_ZNKSt6vectorI9t_historySaIS0_EE5_XlenEv 0x04cf1128
_ZNSt6vectorI9t_historySaIS0_EE4_BuyEj 0x04cf1230
_ZNSt6vectorI9t_historySaIS0_EEC1Ev 0x04cf134c
_ZNKSt6vectorI10t_passwordSaIS0_EE5_XlenEv 0x04cf13d4
_ZNSt6vectorI10t_passwordSaIS0_EE4_BuyEj 0x04cf14dc
_ZNSt6vectorI10t_passwordSaIS0_EEC1Ev 0x04cf15f8
_ZNSt5_TreeISt12_Tmap_traitsISs15t_cookie_structSt4lessISsESaISt4pairIKSsS1_EELb0EEE8_BuynodeEPNSt9_Tree_nodIS8_E5_NodeESD_SD_RKS6_c 0x04cf27b8
_ZNSt5_TreeISt12_Tmap_traitsISs15t_cookie_structSt4lessISsESaISt4pairIKSsS1_EELb0EEE7_InsertEbPNSt9_Tree_nodIS8_E5_NodeERKS6_ 0x04cf2940
_ZNSt5_TreeISt12_Tmap_traitsISs15t_cookie_structSt4lessISsESaISt4pairIKSsS1_EELb0EEE6insertERKS6_ 0x04cf3394
_ZNSt5_TreeISt12_Tmap_traitsISs15t_cookie_structSt4lessISsESaISt4pairIKSsS1_EELb0EEE6insertENS9_8iteratorERKS6_ 0x04cf3750
_ZNSt3mapISs15t_cookie_structSt4lessISsESaISt4pairIKSsS0_EEEixERS4_ 0x04cf3ef8
_ZNKSt6vectorI10t_passwordSaIS0_EE8capacityEv 0x04cf4fe0
_ZNKSt6vectorI10t_passwordSaIS0_EE4sizeEv 0x04cf5050
_ZNKSt6vectorI10t_favoriteSaIS0_EE8capacityEv 0x04cf50c0
_ZNKSt6vectorI10t_favoriteSaIS0_EE4sizeEv 0x04cf5130
_ZNKSt6vectorI9t_historySaIS0_EE8capacityEv 0x04cf51a0
_ZNSt6_RanitI10t_passwordiPKS0_RS1_EC2Ev 0x04cf5318
_ZNSt6vectorI10t_passwordSaIS0_EE14const_iteratorC2EPS0_ 0x04cf5338
_ZNSt6vectorI10t_passwordSaIS0_EE8iteratorC1EPS0_ 0x04cf5390
_ZNSt6vectorI10t_passwordSaIS0_EE3endEv 0x04cf53e0
_ZNSt6vectorI10t_passwordSaIS0_EE5beginEv 0x04cf543c
_ZNKSt6vectorI10t_passwordSaIS0_EE14const_iteratormiERKS3_ 0x04cf5498
_ZNKSt6vectorI10t_passwordSaIS0_EE8iteratormiERKNS2_14const_iteratorE 0x04cf54e8
_ZNSt6vectorI10t_passwordSaIS0_EE8iteratorpLEi 0x04cf554c
_ZNKSt6vectorI10t_passwordSaIS0_EE8iteratorplEi 0x04cf5594
_ZNKSt6vectorI10t_favoriteSaIS0_EE14const_iteratormiERKS3_ 0x04cf55fc
_ZNKSt6vectorI10t_favoriteSaIS0_EE8iteratormiERKNS2_14const_iteratorE 0x04cf564c
_ZNSt6vectorI10t_favoriteSaIS0_EE8iteratorpLEi 0x04cf56b0
_ZNKSt6vectorI10t_favoriteSaIS0_EE8iteratorplEi 0x04cf56f8
_ZNKSt6vectorI9t_historySaIS0_EE14const_iteratormiERKS3_ 0x04cf5760
_ZNKSt6vectorI9t_historySaIS0_EE8iteratormiERKNS2_14const_iteratorE 0x04cf57b0
_ZN9t_historyC1Ev 0x04cf598c
_ZN10t_favoriteC1Ev 0x04cf5a10
_ZN10t_passwordC1Ev 0x04cf5a94
_ZNSt6vectorI15t_cookie_structSaIS0_EE5clearEv 0x04cf5b18
_ZN9t_historyC1ERKS_ 0x04cf5b5c
_ZN10t_favoriteC1ERKS_ 0x04cf5cac
_ZN10t_passwordC1ERKS_ 0x04cf5ddc
_ZN9t_historyaSERKS_ 0x04cf60ac
_ZSt18_Copy_backward_optIP9t_historyS1_ET0_T_S3_S2_St27_Nonscalar_ptr_iterator_tag 0x04cf6190
_ZSt13copy_backwardIP9t_historyS1_ET0_T_S3_S2_ 0x04cf6214
_ZSt4fillIP9t_historyS0_EvT_S2_RKT0_ 0x04cf62b0
_ZN10t_favoriteaSERKS_ 0x04cf6320
_ZSt18_Copy_backward_optIP10t_favoriteS1_ET0_T_S3_S2_St27_Nonscalar_ptr_iterator_tag 0x04cf63e4
_ZSt13copy_backwardIP10t_favoriteS1_ET0_T_S3_S2_ 0x04cf6468
_ZSt4fillIP10t_favoriteS0_EvT_S2_RKT0_ 0x04cf6504
_ZN10t_passwordaSERKS_ 0x04cf6574
_ZSt18_Copy_backward_optIP10t_passwordS1_ET0_T_S3_S2_St27_Nonscalar_ptr_iterator_tag 0x04cf6648
_ZSt13copy_backwardIP10t_passwordS1_ET0_T_S3_S2_ 0x04cf66cc
_ZSt4fillIP10t_passwordS0_EvT_S2_RKT0_ 0x04cf6768
_ZSt10_ConstructI9t_historyS0_EvPT_RKT0_ 0x04cf6d58
_ZNSaI9t_historyE9constructEPS_RKS_ 0x04cf6e1c
_ZSt14_Uninit_fill_nIP9t_historyjS0_SaIS0_EEvT_T0_RKT1_RT2_St27_Nonscalar_ptr_iterator_tag 0x04cf6e6c
_ZSt21_Uninitialized_fill_nIP9t_historyjS0_SaIS0_EEvT_T0_RKT1_RT2_ 0x04cf6f90
_ZNSt6vectorI9t_historySaIS0_EE6_UfillEPS0_jRKS0_ 0x04cf7020
_ZSt12_Uninit_copyIP9t_historyS1_SaIS0_EET0_T_S4_S3_RT1_St27_Nonscalar_ptr_iterator_tag 0x04cf7098
_ZSt19_Uninitialized_copyIP9t_historyS1_SaIS0_EET0_T_S4_S3_RT1_ 0x04cf71cc
_ZNSt6vectorI9t_historySaIS0_EE6_UcopyIPS0_EES4_T_S5_S4_ 0x04cf7270
_ZSt10_ConstructI10t_favoriteS0_EvPT_RKT0_ 0x04cf72d8
_ZNSaI10t_favoriteE9constructEPS_RKS_ 0x04cf739c
_ZSt14_Uninit_fill_nIP10t_favoritejS0_SaIS0_EEvT_T0_RKT1_RT2_St27_Nonscalar_ptr_iterator_tag 0x04cf73ec
_ZSt21_Uninitialized_fill_nIP10t_favoritejS0_SaIS0_EEvT_T0_RKT1_RT2_ 0x04cf7510
_ZNSt6vectorI10t_favoriteSaIS0_EE6_UfillEPS0_jRKS0_ 0x04cf75a0
_ZSt12_Uninit_copyIP10t_favoriteS1_SaIS0_EET0_T_S4_S3_RT1_St27_Nonscalar_ptr_iterator_tag 0x04cf7618
_ZSt19_Uninitialized_copyIP10t_favoriteS1_SaIS0_EET0_T_S4_S3_RT1_ 0x04cf774c
_ZNSt6vectorI10t_favoriteSaIS0_EE6_UcopyIPS0_EES4_T_S5_S4_ 0x04cf77f0
_ZSt10_ConstructI10t_passwordS0_EvPT_RKT0_ 0x04cf7858
_ZNSaI10t_passwordE9constructEPS_RKS_ 0x04cf791c
_ZSt14_Uninit_fill_nIP10t_passwordjS0_SaIS0_EEvT_T0_RKT1_RT2_St27_Nonscalar_ptr_iterator_tag 0x04cf796c
_ZSt21_Uninitialized_fill_nIP10t_passwordjS0_SaIS0_EEvT_T0_RKT1_RT2_ 0x04cf7a90
_ZNSt6vectorI10t_passwordSaIS0_EE6_UfillEPS0_jRKS0_ 0x04cf7b20
_ZSt12_Uninit_copyIP10t_passwordS1_SaIS0_EET0_T_S4_S3_RT1_St27_Nonscalar_ptr_iterator_tag 0x04cf7b98
_ZSt19_Uninitialized_copyIP10t_passwordS1_SaIS0_EET0_T_S4_S3_RT1_ 0x04cf7ccc
_ZNSt6vectorI10t_passwordSaIS0_EE6_UcopyIPS0_EES4_T_S5_S4_ 0x04cf7d70
_ZNSt6vectorI9t_historySaIS0_EE9_Insert_nENS2_8iteratorEjRKS0_ 0x04cf8720
_ZNSt6vectorI9t_historySaIS0_EE6insertENS2_8iteratorERKS0_ 0x04cf8e18
_ZNSt6vectorI9t_historySaIS0_EE9push_backERKS0_ 0x04cf8f38
_ZNSt6vectorI10t_favoriteSaIS0_EE9_Insert_nENS2_8iteratorEjRKS0_ 0x04cf902c
_ZNSt6vectorI10t_favoriteSaIS0_EE6insertENS2_8iteratorERKS0_ 0x04cf9724
_ZNSt6vectorI10t_favoriteSaIS0_EE9push_backERKS0_ 0x04cf9844
_ZNSt6vectorI10t_passwordSaIS0_EE9_Insert_nENS2_8iteratorEjRKS0_ 0x04cf9938
_ZNSt6vectorI10t_passwordSaIS0_EE6insertENS2_8iteratorERKS0_ 0x04cfa030
_ZNSt6vectorI10t_passwordSaIS0_EE9push_backERKS0_ 0x04cfa150
_ZN17ConnectionState_sC1Ev 0x04cfa448
_ZNKSt6vectorI9t_historySaIS0_EE5emptyEv 0x04cfa480
_ZNKSt6vectorI10t_favoriteSaIS0_EE5emptyEv 0x04cfa4d8
_ZThn200_N29C_HMI_INET_BrowserMenu_BSC_Z1D0Ev 0x04cfbeb4
_ZThn200_N29C_HMI_INET_BrowserMenu_BSC_Z1D1Ev 0x04cfbebc
_ZThn200_N33C_HMI_INET_DUNDatatransfer_BSC_Z1D0Ev 0x04cfbec4
_ZThn200_N33C_HMI_INET_DUNDatatransfer_BSC_Z1D1Ev 0x04cfbecc
_ZThn200_N39C_HMI_INET_DUNIdentifierEntering_VKB_Z125onVirtualKeyboardValidateEv 0x04cfbed4
_ZThn200_N39C_HMI_INET_DUNIdentifierEntering_VKB_Z1D0Ev 0x04cfbedc
_ZThn200_N39C_HMI_INET_DUNIdentifierEntering_VKB_Z1D1Ev 0x04cfbee4
_ZThn200_N46C_HMI_INET_DUNIdentifierModificationAPN_VKB_Z125onVirtualKeyboardValidateEv 0x04cfbeec
_ZThn200_N46C_HMI_INET_DUNIdentifierModificationAPN_VKB_Z1D0Ev 0x04cfbef4
_ZThn200_N46C_HMI_INET_DUNIdentifierModificationAPN_VKB_Z1D1Ev 0x04cfbefc
_ZThn200_N29C_HMI_INET_DUNSettings_CFM_Z1D0Ev 0x04cfbf04
_ZThn200_N29C_HMI_INET_DUNSettings_CFM_Z1D1Ev 0x04cfbf0c
_ZThn200_N34C_HMI_INET_FavoriteEntering_VKB_Z133handleNonStandardOnEnterInstancesEm 0x04cfbf14
_ZThn200_N34C_HMI_INET_FavoriteEntering_VKB_Z129handleNonStandardVKBInstancesEmm 0x04cfbf1c
_ZNKSt6vectorI10t_favoriteSaIS0_EE5_XranEv 0x04cfbf24
_ZNSt6vectorI10t_favoriteSaIS0_EE2atEj 0x04cfc02c
_ZThn200_N34C_HMI_INET_FavoriteEntering_VKB_Z125onVirtualKeyboardValidateEv 0x04cfc10c
_ZThn200_N34C_HMI_INET_FavoriteEntering_VKB_Z1D0Ev 0x04cfc114
_ZThn200_N34C_HMI_INET_FavoriteEntering_VKB_Z1D1Ev 0x04cfc11c
_ZNSt6vectorI10t_favoriteSaIS0_EE14const_iteratorC2Ev 0x04cfc4a4
_ZNSt6vectorI10t_favoriteSaIS0_EE8iteratorC1Ev 0x04cfc4f8
_ZNKSt6vectorI10t_favoriteSaIS0_EE14const_iteratoreqERKS3_ 0x04cfc540
_ZNKSt6vectorI10t_favoriteSaIS0_EE14const_iteratorneERKS3_ 0x04cfc584
_ZThn200_N31C_HMI_INET_FavoritesMenu_M3Z_Z4D0Ev 0x04d02af8
_ZThn200_N31C_HMI_INET_FavoritesMenu_M3Z_Z4D1Ev 0x04d02b00
_ZNSt6vectorI9t_historySaIS0_EE14const_iteratorC2Ev 0x04d02b08
_ZNSt6vectorI9t_historySaIS0_EE8iteratorC1Ev 0x04d02b5c
_ZThn200_N29C_HMI_INET_HistoryMenu_M3Z_Z4D0Ev 0x04d02ba4
_ZThn200_N29C_HMI_INET_HistoryMenu_M3Z_Z4D1Ev 0x04d02bac
_ZN21C_HMI_INT_POPUP_STATE17onCheckChangeListEmmb 0x04d02bb4
_ZThn64_N38C_HMI_INET_POPUP_AddToFavorites_QST_Z1D0Ev 0x04d02be4
_ZThn64_N38C_HMI_INET_POPUP_AddToFavorites_QST_Z1D1Ev 0x04d02bec
_ZThn64_N42C_HMI_INET_POPUP_BrowserOptionsMenu_CTX_Z4D0Ev 0x04d02bf4
_ZThn64_N42C_HMI_INET_POPUP_BrowserOptionsMenu_CTX_Z4D1Ev 0x04d02bfc
_ZThn64_N38C_HMI_INET_POPUP_DUNDNSEntering_VKB_Z124onVirtualKeyboardDiscardEv 0x04d02c04
_ZThn64_N38C_HMI_INET_POPUP_DUNDNSEntering_VKB_Z125onVirtualKeyboardValidateEv 0x04d02c0c
_ZThn64_N38C_HMI_INET_POPUP_DUNDNSEntering_VKB_Z1D0Ev 0x04d02c74
_ZThn64_N38C_HMI_INET_POPUP_DUNDNSEntering_VKB_Z1D1Ev 0x04d02c7c
_ZThn64_N43C_HMI_INET_POPUP_FavoriteItemRemoval_QST_Z1D0Ev 0x04d02c84
_ZThn64_N43C_HMI_INET_POPUP_FavoriteItemRemoval_QST_Z1D1Ev 0x04d02c8c
_ZThn64_N40C_HMI_INET_POPUP_FreeTextEntering_VKB_Z124onVirtualKeyboardDiscardEv 0x04d02c94
_ZThn64_N40C_HMI_INET_POPUP_FreeTextEntering_VKB_Z125onVirtualKeyboardValidateEv 0x04d02c9c
_ZThn64_N40C_HMI_INET_POPUP_FreeTextEntering_VKB_Z1D0Ev 0x04d02ca4
_ZThn64_N40C_HMI_INET_POPUP_FreeTextEntering_VKB_Z1D1Ev 0x04d02cac
_ZThn64_N43C_HMI_INET_POPUP_HistoricItemRemoval_QST_Z1D0Ev 0x04d02cb4
_ZThn64_N43C_HMI_INET_POPUP_HistoricItemRemoval_QST_Z1D1Ev 0x04d02cbc
_ZThn64_N46C_HMI_INET_POPUP_InternetConnectionFail_INF_Z1D0Ev 0x04d02cc4
_ZThn64_N46C_HMI_INET_POPUP_InternetConnectionFail_INF_Z1D1Ev 0x04d02ccc
_ZThn64_N46C_HMI_INET_POPUP_InternetConnectionLost_INF_Z1D0Ev 0x04d02cd4
_ZThn64_N46C_HMI_INET_POPUP_InternetConnectionLost_INF_Z1D1Ev 0x04d02cdc
_ZThn64_N39C_HMI_INET_POPUP_LaunchPhoneCall_QST_Z1D0Ev 0x04d02ce4
_ZThn64_N39C_HMI_INET_POPUP_LaunchPhoneCall_QST_Z1D1Ev 0x04d02cec
_ZThn64_N36C_HMI_INET_POPUP_PasswordSave_QST_Z1D0Ev 0x04d02cf4
_ZThn64_N36C_HMI_INET_POPUP_PasswordSave_QST_Z1D1Ev 0x04d02cfc
_ZThn64_N39C_HMI_INET_POPUP_SavePhoneNumber_QST_Z1D0Ev 0x04d02d04
_ZThn64_N39C_HMI_INET_POPUP_SavePhoneNumber_QST_Z1D1Ev 0x04d02d0c
_ZThn64_N33C_HMI_INET_POPUP_SaveVcard_QST_Z1D0Ev 0x04d02d14
_ZThn64_N33C_HMI_INET_POPUP_SaveVcard_QST_Z1D1Ev 0x04d02d1c
_ZThn64_N46C_HMI_INET_POPUP_StopInternetConnection_INF_Z2D0Ev 0x04d02d24
_ZThn64_N46C_HMI_INET_POPUP_StopInternetConnection_INF_Z2D1Ev 0x04d02d2c
_ZThn64_N39C_HMI_INET_POPUP_WebNotAvailable_INF_Z1D0Ev 0x04d02d34
_ZThn64_N39C_HMI_INET_POPUP_WebNotAvailable_INF_Z1D1Ev 0x04d02d3c
_ZThn64_N40C_HMI_INET_POPUP_WebStopPlayingBT_QST_Z3D0Ev 0x04d02d44
_ZThn64_N40C_HMI_INET_POPUP_WebStopPlayingBT_QST_Z3D1Ev 0x04d02d4c
_ZThn200_N28C_HMI_INET_Secondary_Menu_Z1D0Ev 0x04d02d54
_ZThn200_N28C_HMI_INET_Secondary_Menu_Z1D1Ev 0x04d02d5c
_ZThn200_N29C_HMI_INET_URLEntering_VKB_Z133handleNonStandardOnEnterInstancesEm 0x04d02e28
_ZThn200_N29C_HMI_INET_URLEntering_VKB_Z125onVirtualKeyboardValidateEv 0x04d02e30
_ZThn200_N29C_HMI_INET_URLEntering_VKB_Z129handleNonStandardVKBInstancesEmm 0x04d02e38
_ZThn200_N29C_HMI_INET_URLEntering_VKB_Z1D0Ev 0x04d02e40
_ZThn200_N29C_HMI_INET_URLEntering_VKB_Z1D1Ev 0x04d02e48
_ZThn200_N27C_HMI_INET_UserGuide_BSC_Z1D0Ev 0x04d02e50
_ZThn200_N27C_HMI_INET_UserGuide_BSC_Z1D1Ev 0x04d02e58
_ZThn200_N20C_HMI_INT_MENU_STATED0Ev 0x04d02e60
_ZThn200_N20C_HMI_INT_MENU_STATED1Ev 0x04d02e68
_ZThn200_N24C_HMI_INT_MENU_STATE_VKB24onVirtualKeyboardDiscardEv 0x04d02e70
_ZThn200_N24C_HMI_INT_MENU_STATE_VKBD0Ev 0x04d02e78
_ZThn200_N24C_HMI_INT_MENU_STATE_VKBD1Ev 0x04d02e80
_ZThn64_N19C_HMI_INT_POPUP_INFD0Ev 0x04d02efc
_ZThn64_N19C_HMI_INT_POPUP_INFD1Ev 0x04d02f04
_ZNKSt7num_putIcSt19ostreambuf_iteratorIcSt11char_traitsIcEEE3putES3_RSt8ios_basecm 0x04d02f0c
_ZThn64_N19C_HMI_INT_POPUP_PMSD0Ev 0x04d02fd0
_ZThn64_N19C_HMI_INT_POPUP_PMSD1Ev 0x04d02fd8
_ZThn64_N21C_HMI_INT_POPUP_STATED0Ev 0x04d02fe0
_ZThn64_N21C_HMI_INT_POPUP_STATED1Ev 0x04d02fe8
_ZThn64_N25C_HMI_INT_POPUP_STATE_VKBD0Ev 0x04d02ff0
_ZThn64_N25C_HMI_INT_POPUP_STATE_VKBD1Ev 0x04d02ff8
_ZThn64_N38C_HMI_INT_POPUP_VIE_INFO_EXPORT_STATUSD0Ev 0x04d03000
_ZThn64_N38C_HMI_INT_POPUP_VIE_INFO_EXPORT_STATUSD1Ev 0x04d03008
_ZNKSt6vectorISbIwSt11char_traitsIwESaIwEESaIS3_EE2atEj 0x04d04048
_ZNSbIwSt11char_traitsIwESaIwEE8iteratorpLEi 0x04d05048
_ZNSbIwSt11char_traitsIwESaIwEE8iteratormIEi 0x04d05090
_ZNKSbIwSt11char_traitsIwESaIwEE8iteratormiEi 0x04d050ec
_ZNKSbIwSt11char_traitsIwESaIwEE8iteratorplEi 0x04d05154
_ZNKSbIwSt11char_traitsIwESaIwEE4findEwj 0x04d0551c
_ZNSbIwSt11char_traitsIwESaIwEE5eraseENS2_8iteratorE 0x04d05730
_ZNSbIwSt11char_traitsIwESaIwEE6insertEjjw 0x04d05ac8
_ZNSbIwSt11char_traitsIwESaIwEE6insertENS2_8iteratorEw 0x04d05cc0
_ZNSbIwSt11char_traitsIwESaIwEE9push_backEw 0x04d05dc8
_ZNSs6assignEjc 0x04d06784
_ZNSsC1Ejc 0x04d0686c
_ZNK22C_Addon_BrowserWrapper10metaObjectEv 0x04d06928
_ZN22C_Addon_BrowserWrapper29signalRequestRadioValueUpdateEi 0x04d06954
_ZN22C_Addon_BrowserWrapper29signalRequestMediaValueUpdateEi 0x04d069cc
_ZN22C_Addon_BrowserWrapper16signalClickToNavEjjjjjjRK5QListI8QVariantE 0x04d06a44
_ZN22C_Addon_BrowserWrapper15signalPortalZarEb 0x04d06b34
_ZN22C_Addon_BrowserWrapper24signalPortalNotificationEjRK7QStringffbS2_S2_ 0x04d06bb0
_ZN22C_Addon_BrowserWrapper17signalSaveContactERK7QStringS2_ 0x04d06ca4
_ZN22C_Addon_BrowserWrapper15signalSaveVCardEiRK7QString 0x04d06d30
_ZN22C_Addon_BrowserWrapper20signalStartPhoneCallERK7QString 0x04d06dbc
_ZN22C_Addon_BrowserWrapper30signalStartGuidanceCoordinatesEff 0x04d06e34
_ZN22C_Addon_BrowserWrapper17signalAddBookmarkERK7QStringS2_S2_ 0x04d06ec0
_ZN22C_Addon_BrowserWrapper18signalPopupBlockedERK7QString 0x04d06f60
_ZN22C_Addon_BrowserWrapper18signalHttpsStartedEv 0x04d06fd8
_ZN22C_Addon_BrowserWrapper16signalSaveCookieERK13cookie_struct 0x04d07030
_ZN22C_Addon_BrowserWrapper20signalRequestCookiesEv 0x04d070a8
_ZN22C_Addon_BrowserWrapper22signalRequestPortalUrlEv 0x04d07100
_ZN22C_Addon_BrowserWrapper17signalSaveFaviconERK7QString 0x04d07158
_ZN22C_Addon_BrowserWrapper18signalPageProgressEi 0x04d071d0
_ZN22C_Addon_BrowserWrapper16signalUrlChangedERK7QString 0x04d07248
_ZN22C_Addon_BrowserWrapper18signalTitleChangedERK7QString 0x04d072c0
_ZN22C_Addon_BrowserWrapper16signalPageLoadedERK7QStringRb 0x04d07338
_ZN22C_Addon_BrowserWrapper22signalRequestTextInputEiRK7QString 0x04d073c4
_ZN22C_Addon_BrowserWrapper11qt_metacallEN11QMetaObject4CallEiPPv 0x04d07450
_ZN22C_Addon_BrowserWrapper11qt_metacastEPKc 0x04d087d0
_ZNK17C_Addon_CookieJar10metaObjectEv 0x04d08888
_ZN17C_Addon_CookieJar10saveCookieERK13cookie_struct 0x04d088b4
_ZN17C_Addon_CookieJar14requestCookiesEv 0x04d0892c
_ZN17C_Addon_CookieJar11qt_metacallEN11QMetaObject4CallEiPPv 0x04d08984
_ZN17C_Addon_CookieJar11qt_metacastEPKc 0x04d08b14
_ZNK7Binding10metaObjectEv 0x04d08bcc
_ZNK6Device10metaObjectEv 0x04d08bf8
_ZNK7CarTime10metaObjectEv 0x04d08c24
_ZNK5Units10metaObjectEv 0x04d08c50
_ZNK4Trip10metaObjectEv 0x04d08c7c
_ZNK3Car10metaObjectEv 0x04d08ca8
_ZNK11SourceMedia10metaObjectEv 0x04d08cd4
_ZNK11SourceRadio10metaObjectEv 0x04d08d00
_ZNK15CurrentPosition10metaObjectEv 0x04d08d2c
_ZNK11Destination10metaObjectEv 0x04d08d58
_ZNK8Waypoint10metaObjectEv 0x04d08d84
_ZNK27C_Addon_JavascriptInterface10metaObjectEv 0x04d08db0
_ZN27C_Addon_JavascriptInterface11qt_metacallEN11QMetaObject4CallEiPPv 0x04d08ddc
_ZN27C_Addon_JavascriptInterface11qt_metacastEPKc 0x04d09244
_ZN15CurrentPosition11qt_metacastEPKc 0x04d092fc
_ZN11Destination11qt_metacastEPKc 0x04d093b4
_ZN8Waypoint11qt_metacastEPKc 0x04d0946c
_ZN11SourceRadio11qt_metacastEPKc 0x04d09524
_ZN11SourceMedia11qt_metacastEPKc 0x04d095dc
_ZN3Car11qt_metacastEPKc 0x04d09694
_ZN4Trip11qt_metacastEPKc 0x04d0974c
_ZN5Units11qt_metacastEPKc 0x04d09804
_ZN7CarTime11qt_metacastEPKc 0x04d098bc
_ZN6Device11qt_metacastEPKc 0x04d09974
_ZN7Binding11qt_metacastEPKc 0x04d09a2c
_ZN15CurrentPosition11qt_metacallEN11QMetaObject4CallEiPPv 0x04d09ae4
_ZN11Destination11qt_metacallEN11QMetaObject4CallEiPPv 0x04d09ec8
_ZN8Waypoint11qt_metacallEN11QMetaObject4CallEiPPv 0x04d0a018
_ZN11SourceRadio29signalRequestRadioValueUpdateEi 0x04d0a0a8
_ZN11SourceMedia29signalRequestMediaValueUpdateEi 0x04d0a120
_ZN7Binding16signalClickToNavEjjjjjjRK5QListI8QVariantE 0x04d0a198
_ZN7Binding15signalPortalZarEb 0x04d0a288
_ZN7Binding24signalPortalNotificationEjRK7QStringffbS2_S2_ 0x04d0a304
_ZN7Binding30signalStartGuidanceCoordinatesEff 0x04d0a3f8
_ZN7Binding29signalStoreContact2AdressBookERK7QStringS2_ 0x04d0a484
_ZN7Binding21signalLaunchPhoneCallERK7QString 0x04d0a510
_ZN7Binding16signalStoreVcardEiRK7QString 0x04d0a588
_ZN7Binding22signalAddURL2BookmarksERK7QStringS2_S2_ 0x04d0a614
_ZN11SourceRadio11qt_metacallEN11QMetaObject4CallEiPPv 0x04d0a6b4
_ZN11SourceMedia11qt_metacallEN11QMetaObject4CallEiPPv 0x04d0ab08
_ZN3Car11qt_metacallEN11QMetaObject4CallEiPPv 0x04d0b044
_ZN4Trip11qt_metacallEN11QMetaObject4CallEiPPv 0x04d0b368
_ZN5Units11qt_metacallEN11QMetaObject4CallEiPPv 0x04d0b508
_ZN7CarTime11qt_metacallEN11QMetaObject4CallEiPPv 0x04d0b894
_ZN6Device11qt_metacallEN11QMetaObject4CallEiPPv 0x04d0b9e4
_ZN7Binding11qt_metacallEN11QMetaObject4CallEiPPv 0x04d0bd70
_ZNK22C_Addon_NetworkManager10metaObjectEv 0x04d0c548
_ZN22C_Addon_NetworkManager20untrustedCertificateEi 0x04d0c574
_ZN22C_Addon_NetworkManager8httpCodeEiRK7QString 0x04d0c5ec
_ZN22C_Addon_NetworkManager12httpsStartedEv 0x04d0c678
_ZN22C_Addon_NetworkManager11qt_metacallEN11QMetaObject4CallEiPPv 0x04d0c6d0
_ZN22C_Addon_NetworkManager11qt_metacastEPKc 0x04d0c8a4
_ZNK15C_Addon_WebPage10metaObjectEv 0x04d0c95c
_ZN15C_Addon_WebPage15javascriptErrorERK7QString 0x04d0c988
_ZN15C_Addon_WebPage16requestUserAgentEv 0x04d0ca00
_ZN15C_Addon_WebPage11qt_metacallEN11QMetaObject4CallEiPPv 0x04d0ca58
_ZN15C_Addon_WebPage11qt_metacastEPKc 0x04d0cbe0
_ZNK15C_Addon_WebView10metaObjectEv 0x04d0cc98
_ZN15C_Addon_WebView16inputFormFocusedERK7QStringS2_ 0x04d0ccc4
_ZN15C_Addon_WebView12popupBlockedERK7QString 0x04d0cd50
_ZN15C_Addon_WebView11qt_metacallEN11QMetaObject4CallEiPPv 0x04d0cdc8
_ZN15C_Addon_WebView11qt_metacastEPKc 0x04d0cf34
_ZNK22C_Addon_BrowserWrapper10getWebViewEv 0x04d0cfec
_ZN22C_Addon_BrowserWrapper16requestUserAgentEv 0x04d0d018
_GLOBAL__D__ZN22C_Addon_BrowserWrapperC2Ev 0x04d0d28c
_GLOBAL__I__ZN22C_Addon_BrowserWrapperC2Ev 0x04d0d2d4
_ZN22C_Addon_BrowserWrapper18UpdateBodyworkTypeEv 0x04d0d360
_ZN22C_Addon_BrowserWrapper18UpdateVehiculeTypeEv 0x04d0d638
_ZN22C_Addon_BrowserWrapper15GetConfigOptionEPKcRb 0x04d0d910
_ZN22C_Addon_BrowserWrapper20getUserGuideFileNameER7QString 0x04d0dcf8
_ZN22C_Addon_BrowserWrapper23requestRadioValueUpdateEi 0x04d0deb4
_ZN22C_Addon_BrowserWrapper23requestMediaValueUpdateEi 0x04d0e0bc
_ZN22C_Addon_BrowserWrapper10clickToNavEjjjjjjRK5QListI8QVariantE 0x04d0e2c4
_ZN22C_Addon_BrowserWrapper9portalZarEb 0x04d0e510
_ZN22C_Addon_BrowserWrapper18portalNotificationEjRK7QStringffbS2_S2_ 0x04d0e738
_ZN22C_Addon_BrowserWrapper11saveContactERK7QStringS2_ 0x04d0e97c
_ZN22C_Addon_BrowserWrapper9saveVCardEiRK7QString 0x04d0eb8c
_ZN22C_Addon_BrowserWrapper14startPhoneCallERK7QString 0x04d0ed9c
_ZN22C_Addon_BrowserWrapper24startGuidanceCoordinatesEff 0x04d0efa4
_ZN22C_Addon_BrowserWrapper11addBookmarkERK7QStringS2_S2_ 0x04d0f1c8
_ZN22C_Addon_BrowserWrapper30loadTextInCurrentFocusedWidgetERK7QString 0x04d0f3e0
_ZN22C_Addon_BrowserWrapper30checkHistoryBackForwardButtonsEv 0x04d0f9ec
_ZN22C_Addon_BrowserWrapper18getFilenameFromURLERK7QStringS2_RS0_ 0x04d0fda8
_ZN22C_Addon_BrowserWrapper8setCacheERK7QStringi 0x04d10240
_ZN22C_Addon_BrowserWrapper20untrustedCertificateEi 0x04d10510
_ZN22C_Addon_BrowserWrapper15stopLoadingPageEv 0x04d10868
_ZN22C_Addon_BrowserWrapper6setCSSERK7QString 0x04d10b28
_ZN22C_Addon_BrowserWrapper16httpCodeCallbackERKiRK7QString 0x04d10e6c
_ZN22C_Addon_BrowserWrapper17httpErrorCallbackERK7QString 0x04d11218
_ZN22C_Addon_BrowserWrapper11refreshPageEv 0x04d115f4
_ZN22C_Addon_BrowserWrapper16pageProgressSLOTEi 0x04d118d0
_ZN22C_Addon_BrowserWrapper19pageLoadStartedSLOTEv 0x04d11b88
_ZN22C_Addon_BrowserWrapper12popupBlockedERK7QString 0x04d11f64
_ZN22C_Addon_BrowserWrapper16inputFormFocusedERK7QStringS2_ 0x04d1216c
_ZN22C_Addon_BrowserWrapper14pageLoadedSLOTEb 0x04d127cc
_ZN22C_Addon_BrowserWrapper18setPortalDisplayedERK7QString 0x04d13464
_ZN22C_Addon_BrowserWrapper12acceptPopupsEb 0x04d1376c
_ZN22C_Addon_BrowserWrapper7loadVinERK7QString 0x04d139fc
_ZN22C_Addon_BrowserWrapper20loadSetCardgetPortalERK7QStringff 0x04d13d90
_ZN22C_Addon_BrowserWrapper14loadSystemDataERK7QStringS2_S2_S2_ 0x04d141cc
_ZN22C_Addon_BrowserWrapper13loadOffsetUtcEi 0x04d1482c
_ZN22C_Addon_BrowserWrapper15loadCurrentTimeEiib 0x04d14b44
_ZN22C_Addon_BrowserWrapper27loadInternetConnectionStateEb 0x04d14ef0
_ZN22C_Addon_BrowserWrapper12loadTripDataEfbfbfbi 0x04d15214
_ZN22C_Addon_BrowserWrapper16loadInstTripDataEfbfb 0x04d156f8
_ZN22C_Addon_BrowserWrapper12loadCarSpeedEf 0x04d15afc
_ZN22C_Addon_BrowserWrapper20loadMeasurementUnitsEiiiib 0x04d15e0c
_ZN22C_Addon_BrowserWrapper12loadFuelTypeEi 0x04d16240
_ZN22C_Addon_BrowserWrapper16loadDrivingStateEb 0x04d16550
_ZN22C_Addon_BrowserWrapper14loadFolderDataERK7QStringi 0x04d16874
_ZN22C_Addon_BrowserWrapper12loadMetadataERK7QStringS2_S2_ 0x04d16c4c
_ZN22C_Addon_BrowserWrapper13loadTrackDataEiii 0x04d17148
_ZN22C_Addon_BrowserWrapper14loadDeviceInfoEii 0x04d17500
_ZN22C_Addon_BrowserWrapper13loadRadioDataERK7QStringfiiS2_iii 0x04d177fc
_ZN22C_Addon_BrowserWrapper15loadWaypointEtaEii 0x04d17dcc
_ZN22C_Addon_BrowserWrapper18loadDestinationEtaEii 0x04d1811c
_ZN22C_Addon_BrowserWrapper23loadWaypointCoordinatesEfffRK7QStringS2_S2_ 0x04d1846c
_ZN22C_Addon_BrowserWrapper26loadDestinationCoordinatesEfffRK7QStringS2_S2_ 0x04d18a10
_ZN22C_Addon_BrowserWrapper19loadPositionCountryERK7QString 0x04d18fb4
_ZN22C_Addon_BrowserWrapper16loadPositionTownERK7QString 0x04d19364
_ZN22C_Addon_BrowserWrapper18loadPositionStreetERK7QString 0x04d19714
_ZN22C_Addon_BrowserWrapper23loadPositionCoordinatesEfffj 0x04d19ac4
_ZN22C_Addon_BrowserWrapper13loadUserAgentERK7QString 0x04d19e9c
_ZN22C_Addon_BrowserWrapper13deleteCookiesEv 0x04d1a224
_ZN22C_Addon_BrowserWrapper13enableCookiesEb 0x04d1a4e4
_ZN22C_Addon_BrowserWrapper11loadCookiesERKSt6vectorI13cookie_structSaIS1_EE 0x04d1a7dc
_ZN22C_Addon_BrowserWrapper8setProxyERK7QString 0x04d1aaa4
_ZN22C_Addon_BrowserWrapper13loadTextInputERK7QStringi 0x04d1b598
_ZN22C_Addon_BrowserWrapper10saveCookieERK13cookie_struct 0x04d1c8bc
_ZN22C_Addon_BrowserWrapper14requestCookiesEv 0x04d1c908
_ZN22C_Addon_BrowserWrapper11iconChangedEv 0x04d1c94c
_ZN22C_Addon_BrowserWrapper12httpsStartedEv 0x04d1d574
_ZN22C_Addon_BrowserWrapper10urlChangedERK4QUrl 0x04d1d774
_ZN22C_Addon_BrowserWrapper12titleChangedERK7QString 0x04d1dd7c
_ZN22C_Addon_BrowserWrapper8pageZoomEb 0x04d1e044
_ZN22C_Addon_BrowserWrapper12clearHistoryEv 0x04d1e3c8
_ZN22C_Addon_BrowserWrapper15gotoHistoryPageEb 0x04d1e61c
_ZN22C_Addon_BrowserWrapper7loadUrlERK7QString 0x04d1e938
_ZN22C_Addon_BrowserWrapper13loadPortalUrlERK7QString 0x04d1f204
_ZN22C_Addon_BrowserWrapper13deleteWebPageEv 0x04d1f4ec
_ZN22C_Addon_BrowserWrapper13createWebPageEm 0x04d1f880
_ZN22C_Addon_BrowserWrapper4initEv 0x04d20668
_ZN22C_Addon_BrowserWrapper13disconnectAllEv 0x04d221d4
_ZN22C_Addon_BrowserWrapperD0Ev 0x04d226e4
_ZN22C_Addon_BrowserWrapperD1Ev 0x04d22ecc
_ZN22C_Addon_BrowserWrapperD2Ev 0x04d236b4
_ZN22C_Addon_BrowserWrapperC1Ev 0x04d23e9c
_ZN22C_Addon_BrowserWrapperC2Ev 0x04d2456c
_GLOBAL__D__ZN17C_Addon_CookieJarC2EP7QObject 0x04d24e00
_GLOBAL__I__ZN17C_Addon_CookieJarC2EP7QObject 0x04d24e48
_ZN17C_Addon_CookieJar13enableCookiesEb 0x04d24ed4
_ZN17C_Addon_CookieJar13deleteCookiesEv 0x04d250f8
_ZN17C_Addon_CookieJar11loadCookiesERKSt6vectorI13cookie_structSaIS1_EE 0x04d25370
_ZN17C_Addon_CookieJar17setCookiesFromUrlERK5QListI14QNetworkCookieERK4QUrl 0x04d25fdc
_ZNK17C_Addon_CookieJar13cookiesForUrlERK4QUrl 0x04d26f00
_ZN17C_Addon_CookieJar4initEv 0x04d272b8
_ZN17C_Addon_CookieJarD0Ev 0x04d274b8
_ZN17C_Addon_CookieJarD1Ev 0x04d27724
_ZN17C_Addon_CookieJarD2Ev 0x04d27990
_ZN17C_Addon_CookieJarC1EP7QObject 0x04d27bfc
_ZN17C_Addon_CookieJarC2EP7QObject 0x04d27e50
_GLOBAL__D__ZN27C_Addon_JavascriptInterfaceC2EP22C_Addon_BrowserWrapperR22C_Addon_SpyDataHandlerP9QWebFrame 0x04d28268
_GLOBAL__I__ZN27C_Addon_JavascriptInterfaceC2EP22C_Addon_BrowserWrapperR22C_Addon_SpyDataHandlerP9QWebFrame 0x04d282b0
_ZN15CurrentPosition12QualityIndexEv 0x04d2833c
_ZN15CurrentPosition8AltitudeEv 0x04d2860c
_ZN15CurrentPosition8LatitudeEv 0x04d288e4
_ZN15CurrentPosition9LongitudeEv 0x04d28bbc
_ZN3Car9OffsetUTCEv 0x04d28e94
_ZN3Car8AutonomyEv 0x04d29164
_ZN3Car7MileageEv 0x04d29454
_ZN3Car5SpeedEv 0x04d29744
_ZN3Car12DrivingStateEv 0x04d29a1c
_ZN3Car8FuelTypeEv 0x04d29d1c
_ZN11SourceRadio14DisableRequestE21t_update_source_radio 0x04d29fec
_ZN11SourceRadio15IsDataRequestedE21t_update_source_radio 0x04d2a200
_ZN11SourceMedia14DisableRequestE21t_update_source_media 0x04d2a40c
_ZN11SourceMedia15IsDataRequestedE21t_update_source_media 0x04d2a620
_ZNK7Binding17GetPortalOnScreenEv 0x04d2a82c
_ZNK7Binding17GetInternetStatusEv 0x04d2ab74
_ZN11Destination10ETAMinutesEv 0x04d2aebc
_ZN11Destination8ETAHoursEv 0x04d2b18c
_ZN4Trip12AverageSpeedEv 0x04d2b45c
_ZN4Trip11ConsumptionEv 0x04d2b734
_ZN4Trip7MileageEv 0x04d2ba24
_ZN7CarTime7MinutesEv 0x04d2bd14
_ZN7CarTime5HoursEv 0x04d2bfe4
_ZN27C_Addon_JavascriptInterface18setPortalDisplayedEb 0x04d2c2b4
_ZN27C_Addon_JavascriptInterface13loadOffsetUtcEi 0x04d2c4d0
_ZN27C_Addon_JavascriptInterface15loadCurrentTimeEiib 0x04d2c6fc
_ZN27C_Addon_JavascriptInterface27loadInternetConnectionStateEb 0x04d2c9e4
_ZN27C_Addon_JavascriptInterface12loadTripDataEfbfbfbi 0x04d2cc24
_ZN27C_Addon_JavascriptInterface16loadInstTripDataEfbfb 0x04d2d134
_ZN27C_Addon_JavascriptInterface12loadCarSpeedEf 0x04d2d480
_ZN27C_Addon_JavascriptInterface20loadMeasurementUnitsEiiiib 0x04d2d6b0
_ZN27C_Addon_JavascriptInterface12loadFuelTypeEi 0x04d2da58
_ZN27C_Addon_JavascriptInterface16loadDrivingStateEb 0x04d2dc84
_ZN27C_Addon_JavascriptInterface15loadWaypointEtaEii 0x04d2dec4
_ZN27C_Addon_JavascriptInterface18loadDestinationEtaEii 0x04d2e150
_ZN27C_Addon_JavascriptInterface23loadPositionCoordinatesEfffj 0x04d2e3dc
_ZN15CurrentPosition7CountryEv 0x04d2e6f8
_ZN15CurrentPosition4TownEv 0x04d2ea60
_ZN15CurrentPosition6StreetEv 0x04d2edc8
_ZN3Car3VINEv 0x04d2f130
_ZN5UnitsD0Ev 0x04d2f498
_ZN5UnitsD1Ev 0x04d2f704
_ZN5UnitsD2Ev 0x04d2f970
_ZN4TripD0Ev 0x04d2fbdc
_ZN4TripD1Ev 0x04d2fe48
_ZN4TripD2Ev 0x04d300b4
_ZN7CarTimeD0Ev 0x04d30320
_ZN7CarTimeD1Ev 0x04d3058c
_ZN7CarTimeD2Ev 0x04d307f8
_ZN15CurrentPositionD0Ev 0x04d30a64
_ZN15CurrentPositionD1Ev 0x04d30dcc
_ZN15CurrentPositionD2Ev 0x04d31134
_ZN11DestinationD0Ev 0x04d3149c
_ZN11DestinationD1Ev 0x04d31708
_ZN11DestinationD2Ev 0x04d31974
_ZN8WaypointD0Ev 0x04d31be0
_ZN8WaypointD1Ev 0x04d31e4c
_ZN8WaypointD2Ev 0x04d320b8
_ZN3CarD0Ev 0x04d32324
_ZN3CarD1Ev 0x04d325e4
_ZN3CarD2Ev 0x04d328a4
_ZN11SourceRadioD0Ev 0x04d32b64
_ZN11SourceRadioD1Ev 0x04d32e78
_ZN11SourceRadioD2Ev 0x04d3318c
_ZN11SourceMediaD0Ev 0x04d334a0
_ZN11SourceMediaD1Ev 0x04d3385c
_ZN11SourceMediaD2Ev 0x04d33c18
_ZN7BindingD0Ev 0x04d33fd4
_ZN7BindingD1Ev 0x04d34294
_ZN7BindingD2Ev 0x04d34554
_ZN6DeviceD0Ev 0x04d34814
_ZN6DeviceD1Ev 0x04d34bd0
_ZN6DeviceD2Ev 0x04d34f8c
_ZN5UnitsC1ER22C_Addon_SpyDataHandler 0x04d35348
_ZN5UnitsC2ER22C_Addon_SpyDataHandler 0x04d355cc
_ZN7BindingC1ER22C_Addon_SpyDataHandler 0x04d35850
_ZN7BindingC2ER22C_Addon_SpyDataHandler 0x04d35b20
_ZN4TripC1ER22C_Addon_SpyDataHandler 0x04d35df0
_ZN4TripC2ER22C_Addon_SpyDataHandler 0x04d36074
_ZN7CarTimeC1ER22C_Addon_SpyDataHandler 0x04d362f8
_ZN7CarTimeC2ER22C_Addon_SpyDataHandler 0x04d36564
_ZN27C_Addon_JavascriptInterface20loadSetCardgetPortalERK7QStringff 0x04d367d0
_ZN27C_Addon_JavascriptInterface14loadSystemDataERK7QStringS2_S2_S2_ 0x04d369f0
_ZN27C_Addon_JavascriptInterface7loadVINERK7QString 0x04d36f00
_ZN27C_Addon_JavascriptInterface18loadPositionStreetERK7QString 0x04d37190
_ZN27C_Addon_JavascriptInterface16loadPositionTownERK7QString 0x04d37460
_ZN27C_Addon_JavascriptInterface23loadWaypointCoordinatesEfffRK7QStringS2_S2_ 0x04d37730
_ZN27C_Addon_JavascriptInterface26loadDestinationCoordinatesEfffRK7QStringS2_S2_ 0x04d37c8c
_ZN27C_Addon_JavascriptInterface19loadPositionCountryERK7QString 0x04d381e8
_ZN15CurrentPositionC1ER22C_Addon_SpyDataHandler 0x04d384b8
_ZN15CurrentPositionC2ER22C_Addon_SpyDataHandler 0x04d389a8
_ZN11DestinationC1ER22C_Addon_SpyDataHandler 0x04d38e98
_ZN11DestinationC2ER22C_Addon_SpyDataHandler 0x04d39104
_ZN8WaypointC1ER22C_Addon_SpyDataHandler 0x04d39370
_ZN8WaypointC2ER22C_Addon_SpyDataHandler 0x04d395b4
_ZN5Units11ConsumptionEv 0x04d397f8
_ZN5Units5SpeedEv 0x04d39dcc
_ZN5Units8DistanceEv 0x04d3a30c
_ZN5Units4FuelEv 0x04d3a84c
_ZN3CarC1ER22C_Addon_SpyDataHandler 0x04d3ad8c
_ZN3CarC2ER22C_Addon_SpyDataHandler 0x04d3b0fc
_ZN11SourceRadioC1ER22C_Addon_SpyDataHandler 0x04d3b46c
_ZN11SourceRadioC2ER22C_Addon_SpyDataHandler 0x04d3b8b0
_ZN11SourceMediaC1ER22C_Addon_SpyDataHandler 0x04d3bcf4
_ZN11SourceMediaC2ER22C_Addon_SpyDataHandler 0x04d3c2cc
_ZN6DeviceC1ER22C_Addon_SpyDataHandler 0x04d3c8a4
_ZN27C_Addon_JavascriptInterfaceC1EP22C_Addon_BrowserWrapperR22C_Addon_SpyDataHandlerP9QWebFrame 0x04d3ce24
_ZN27C_Addon_JavascriptInterfaceC2EP22C_Addon_BrowserWrapperR22C_Addon_SpyDataHandlerP9QWebFrame 0x04d3d434
_ZN6DeviceC2ER22C_Addon_SpyDataHandler 0x04d3da44
_ZN11SourceRadio3PTYEv 0x04d3dfc4
_ZN11SourceRadio2TAEv 0x04d3e2c0
_ZN11SourceRadio3RDSEv 0x04d3e5cc
_ZN11SourceRadio4TextEv 0x04d3e8d8
_ZN11SourceRadio6PresetEv 0x04d3ec6c
_ZN11SourceRadio9FrequencyEv 0x04d3ef68
_ZN11SourceRadio6PSNameEv 0x04d3f2a8
_ZN11SourceRadio4BandEv 0x04d3f63c
_ZN11SourceMedia10MediaStateEv 0x04d3fc3c
_ZN11SourceMedia8TypeNameEv 0x04d3ff38
_ZN11SourceMedia9AlbumNameEv 0x04d40234
_ZN11SourceMedia10ArtistNameEv 0x04d405c8
_ZN11SourceMedia10FolderNameEv 0x04d4095c
_ZN11SourceMedia11TotalFolderEv 0x04d40cf0
_ZN11SourceMedia12FolderNumberEv 0x04d40fec
_ZN11SourceMedia9TrackNameEv 0x04d412e8
_ZN11SourceMedia11TotalTracksEv 0x04d4167c
_ZN11SourceMedia12CurrentTrackEv 0x04d41978
_ZN7Binding10ClickToNavEjjjjjjRK5QListI8QVariantE 0x04d41c74
_ZN7Binding9PortalZarEb 0x04d42168
_ZN7Binding16SetCardgetPortalEv 0x04d42450
_ZN7Binding24UnlockPortalNotificationEv 0x04d42ad8
_ZN7Binding18PortalNotificationEjRK7QStringffbS2_S2_ 0x04d42d0c
_ZN7Binding23StoreContact2AdressBookERK7QStringS2_ 0x04d4352c
_ZN7Binding15LaunchPhoneCallERK7QString 0x04d43a5c
_ZN7Binding18StoreVcard2ContactERK7QString 0x04d43e6c
_ZN7Binding14StoreVcard2POIERK7QString 0x04d44280
_ZN7Binding14LaunchGuidanceEff 0x04d44694
_ZN7Binding16AddURL2BookmarksERK7QStringS2_ 0x04d449d4
_ZN6Device10MapVersionEv 0x04d44f80
_ZN6Device10SupplierIdEv 0x04d4528c
_ZN6Device15HardwareReleaseEv 0x04d45598
_ZN6Device15SoftwareReleaseEv 0x04d458a4
_ZN27C_Addon_JavascriptInterface14loadFolderDataERK7QStringi 0x04d45bb0
_ZN27C_Addon_JavascriptInterface12loadMetadataERK7QStringS2_S2_ 0x04d461fc
_ZN27C_Addon_JavascriptInterface13loadTrackDataEiii 0x04d46b14
_ZN27C_Addon_JavascriptInterface14loadDeviceInfoEii 0x04d472f4
_ZN27C_Addon_JavascriptInterface13loadRadioDataERK7QStringfiiS2_iii 0x04d478d8
_ZN27C_Addon_JavascriptInterface14addToJSContextEP9QWebFrame 0x04d4918c
_ZN27C_Addon_JavascriptInterface14addToJSContextEv 0x04d49bb8
_ZN27C_Addon_JavascriptInterface27slotRequestRadioValueUpdateEi 0x04d4af94
_ZN27C_Addon_JavascriptInterface27slotRequestMediaValueUpdateEi 0x04d4aff8
_ZN27C_Addon_JavascriptInterface14slotClickToNavEjjjjjjRK5QListI8QVariantE 0x04d4b05c
_ZN27C_Addon_JavascriptInterface13slotPortalZarEb 0x04d4b0f0
_ZN27C_Addon_JavascriptInterface22slotPortalNotificationEjRK7QStringffbS2_S2_ 0x04d4b160
_ZN27C_Addon_JavascriptInterface13slotSaveVCardEiRK7QString 0x04d4b200
_ZN27C_Addon_JavascriptInterface15slotSaveContactERK7QStringS2_ 0x04d4b26c
_ZN27C_Addon_JavascriptInterface18slotStartPhoneCallERK7QString 0x04d4b2d8
_ZN27C_Addon_JavascriptInterface28slotStartGuidanceCoordinatesEff 0x04d4b33c
_ZN27C_Addon_JavascriptInterface15slotAddBookmarkERK7QStringS2_S2_ 0x04d4b3a8
_ZN27C_Addon_JavascriptInterface13disconnectAllEv 0x04d4b41c
_ZN27C_Addon_JavascriptInterface10connectAllEv 0x04d4b698
_ZN27C_Addon_JavascriptInterfaceD0Ev 0x04d4b8f8
_ZN27C_Addon_JavascriptInterfaceD1Ev 0x04d4bf9c
_ZN27C_Addon_JavascriptInterfaceD2Ev 0x04d4c640
_GLOBAL__D__ZN22C_Addon_NetworkManagerC2EP7QObject 0x04d4cea8
_GLOBAL__I__ZN22C_Addon_NetworkManagerC2EP7QObject 0x04d4cef0
_ZN22C_Addon_NetworkManager12finishedSlotEP13QNetworkReply 0x04d4cf7c
_ZN22C_Addon_NetworkManager10executeSSLERK5QListI9QSslErrorEP13QNetworkReply 0x04d4dae0
_ZN22C_Addon_NetworkManager16sslErrorCallbackEP13QNetworkReplyRK5QListI9QSslErrorE 0x04d4fc7c
_ZN22C_Addon_NetworkManager22unloadLocalCertificateEv 0x04d4fecc
_ZN22C_Addon_NetworkManager20loadLocalCertificateEv 0x04d500e8
_ZN22C_Addon_NetworkManager23enableLocaleCertificateEb 0x04d50db8
_ZN22C_Addon_NetworkManager16loadCertificatesEv 0x04d50fe8
_ZN22C_Addon_NetworkManager13disconnectAllEv 0x04d51cc8
_ZN22C_Addon_NetworkManagerD0Ev 0x04d51f58
_ZN22C_Addon_NetworkManagerD1Ev 0x04d5220c
_ZN22C_Addon_NetworkManagerD2Ev 0x04d524c0
_ZN22C_Addon_NetworkManagerC1EP7QObject 0x04d52774
_ZN22C_Addon_NetworkManagerC2EP7QObject 0x04d52c08
_ZNK15C_Addon_WebPage15userAgentForUrlERK4QUrl 0x04d5309c
_GLOBAL__D__ZN15C_Addon_WebPageC2EP7QObject 0x04d531a8
_GLOBAL__I__ZN15C_Addon_WebPageC2EP7QObject 0x04d531f0
_ZN15C_Addon_WebPage12frameCreatedEP9QWebFrame 0x04d5327c
_ZN15C_Addon_WebPage13loadUserAgentERK7QString 0x04d5363c
_ZN15C_Addon_WebPage13disconnectAllEv 0x04d5390c
_ZN15C_Addon_WebPage4initEv 0x04d539b0
_ZN15C_Addon_WebPageD0Ev 0x04d53bb0
_ZN15C_Addon_WebPageD1Ev 0x04d53eb8
_ZN15C_Addon_WebPageD2Ev 0x04d541c0
_ZN15C_Addon_WebPageC1EP7QObject 0x04d544c8
_ZN15C_Addon_WebPageC2EP7QObject 0x04d547b4
_GLOBAL__D__ZN15C_Addon_WebViewC2EP7QWidget 0x04d54c64
_GLOBAL__I__ZN15C_Addon_WebViewC2EP7QWidget 0x04d54cac
_ZNK15C_Addon_WebView21WebWindowTypeToStringEN8QWebPage13WebWindowTypeE 0x04d54d38
_ZN15C_Addon_WebView12acceptPopupsEb 0x04d54e40
_ZN15C_Addon_WebView15mousePressEventEP11QMouseEvent 0x04d550a4
_ZN15C_Addon_WebView12createWindowEN8QWebPage13WebWindowTypeE 0x04d56534
_ZN15C_Addon_WebViewD0Ev 0x04d56cf8
_ZN15C_Addon_WebViewD1Ev 0x04d56f74
_ZN15C_Addon_WebViewD2Ev 0x04d571f0
_ZN15C_Addon_WebViewC1EP7QWidget 0x04d5746c
_ZN15C_Addon_WebViewC2EP7QWidget 0x04d576cc
_GLOBAL__D__Z16start_inet_addonv 0x04d579d0
_GLOBAL__I__Z16start_inet_addonv 0x04d57a18
_ZN20C_GUI_InternetClient12createWebkitEv 0x04d57aa4
_ZN20C_GUI_InternetClient12createWebkitEm 0x04d57ce4
_ZN20C_GUI_InternetClient13destroyWebkitEv 0x04d57f10
_ZN20C_GUI_InternetClient14releaseWebViewEv 0x04d58118
_ZN20C_GUI_InternetClient10getWebViewEv 0x04d58330
_ZN20C_GUI_InternetClient20ProcessConfigMessageEP27C_HMI_InternetConfigMessage 0x04d58560
_ZN20C_GUI_InternetClient18InitInternetClientEP13C_GUI_Manager 0x04d587a8
_ZN20C_GUI_InternetClientD0Ev 0x04d59104
_ZN20C_GUI_InternetClientD1Ev 0x04d59424
_ZN20C_GUI_InternetClientD2Ev 0x04d59744
_ZN20C_GUI_InternetClientC1Ev 0x04d59a64
_ZN20C_GUI_InternetClientC2Ev 0x04d59cc8
_Z16start_inet_addonv 0x04d59f2c
_GLOBAL__D__ZN22C_Addon_SpyDataHandlerC2Ev 0x04d5a668
_GLOBAL__I__ZN22C_Addon_SpyDataHandlerC2Ev 0x04d5a6b0
_ZN22C_Addon_SpyDataHandler19UpdateStaticSpyDataER9CMMString 0x04d5a73c
_ZN22C_Addon_SpyDataHandler20SetUserGuideFilePathERK7QString 0x04d5ad90
_ZN22C_Addon_SpyDataHandler24SetRegisterResourceStateENS_23t_user_guide_init_stateE 0x04d5afa0
_ZN22C_Addon_SpyDataHandler22SetLastPageLoadStartedERK7QString 0x04d5b19c
_ZN22C_Addon_SpyDataHandler18SetBrowserInstanceERK7QString 0x04d5b3ac
_ZN22C_Addon_SpyDataHandler18SetActivationFlagsERK7QString 0x04d5b5bc
_ZN22C_Addon_SpyDataHandler11SetProxyUrlERK7QString 0x04d5b7cc
_ZN22C_Addon_SpyDataHandler9SetPsaUrlERK7QString 0x04d5b9dc
_ZN22C_Addon_SpyDataHandler17SetSpeedThresholdERK7QString 0x04d5bbec
_ZN22C_Addon_SpyDataHandlerC1Ev 0x04d5bdfc
_ZN22C_Addon_SpyDataHandlerC2Ev 0x04d5c1cc
_ZN22C_Addon_SpyDataHandler26WriteStaticSpyEventHandlerEPS_ 0x04d5c59c
_ZN22C_Addon_SpyDataHandler15WriteDynamicSpyER9CMMString 0x04d5ce18
_ZN22C_Addon_SpyDataHandler4InitEv 0x04d5d50c
_ZN22C_Addon_SpyDataHandlerD0Ev 0x04d5dd34
_ZN22C_Addon_SpyDataHandlerD1Ev 0x04d5e76c
_ZN22C_Addon_SpyDataHandlerD2Ev 0x04d5f1a4
_GLOBAL__D__Z18INET_ADDON_LogsOffv 0x04d5fc80
_GLOBAL__I__Z18INET_ADDON_LogsOffv 0x04d5fcc8
_Z17INET_ADDON_LogsOnv 0x04d5fd10
_Z18INET_ADDON_LogsOffv 0x04d5fd68
_ZN4QMapI7QString8QVariantE11node_createEP8QMapDataPPNS3_4NodeERKS0_RKS1_ 0x04d601b8
_ZN4QMapI7QString8QVariantEaSERKS2_ 0x04d604a0
_ZNKSt5ctypeIcE2isEsc 0x04d605a4
_ZNSt8ios_base4setfENSt5_IosbIiE9_FmtflagsE 0x04d6061c
_ZStaNRNSt5_IosbIiE9_FmtflagsES1_ 0x04d60674
_ZStanNSt5_IosbIiE8_IostateES1_ 0x04d606bc
_ZSt9boolalphaRSt8ios_base 0x04d606f0
_ZNK18INET_ADDON_logging3Log14isLogActivatedEv 0x04d60744
_ZN18INET_ADDON_logging3LogC1Ev 0x04d60774
_ZN7QWidget4showEv 0x04d60a48
_ZN12t_text_fieldC1Ev 0x04d60a98
_ZN6QFlagsIN2Qt16KeyboardModifierEEC1ES1_ 0x04d60b18
_ZN6QFlagsIN4QUrl16FormattingOptionEEC1ES1_ 0x04d60b48
_ZNSolsEPFRSt8ios_baseS0_E 0x04d60b78
_ZNSi12_Sentry_baseD2Ev 0x04d60c2c
_ZNSi6sentryD1Ev 0x04d60d14
_ZNKSi6sentrycvbEv 0x04d60d5c
_ZNSt8iteratorISt18input_iterator_tagclPcRcEC2Ev 0x04d60d8c
_ZNSt19istreambuf_iteratorIcSt11char_traitsIcEEC1EPSt15basic_streambufIcS1_E 0x04d60dac
_ZNKSt7num_getIcSt19istreambuf_iteratorIcSt11char_traitsIcEEE3getES3_S3_RSt8ios_baseRNSt5_IosbIiE8_IostateERl 0x04d60e1c
_ZNKSt7num_putIcSt19ostreambuf_iteratorIcSt11char_traitsIcEEE3putES3_RSt8ios_basecd 0x04d60ef0
_ZNSi12_Sentry_baseC2ERSi 0x04d60fb4
_ZNSt15basic_streambufIcSt11char_traitsIcEE5sgetcEv 0x04d610ac
_ZNSt7num_getIcSt19istreambuf_iteratorIcSt11char_traitsIcEEE5_InitERKSt8_Locinfo 0x04d611a0
_ZSt11_MaklocbyteIcEcT_RKSt7_Cvtvec 0x04d611f4
_ZNSt15basic_streambufIcSt11char_traitsIcEE6sbumpcEv 0x04d61228
_ZNSt15basic_streambufIcSt11char_traitsIcEE6snextcEv 0x04d6131c
_ZNKSt19istreambuf_iteratorIcSt11char_traitsIcEEdeEv 0x04d613ec
_ZNKSt19istreambuf_iteratorIcSt11char_traitsIcEE5equalERKS2_ 0x04d6145c
_ZSteqIcSt11char_traitsIcEEbRKSt19istreambuf_iteratorIT_T0_ES7_ 0x04d6154c
_ZStneIcSt11char_traitsIcEEbRKSt19istreambuf_iteratorIT_T0_ES7_ 0x04d615a0
_ZNSt19istreambuf_iteratorIcSt11char_traitsIcEE4_IncEv 0x04d615fc
_ZNSt19istreambuf_iteratorIcSt11char_traitsIcEEppEv 0x04d616ec
_ZN18INET_ADDON_logging3LogD0Ev 0x04d61738
_ZN18INET_ADDON_logging3LogD1Ev 0x04d6179c
_ZN7QString13fromStdStringERKSs 0x04d61800
_ZN12t_text_fieldD1Ev 0x04d61ba8
_ZN18INET_ADDON_logging3Log9getHandleEv 0x04d61cac
_ZTv0_n12_NSt19basic_istringstreamIcSt11char_traitsIcESaIcEED0Ev 0x04d61d64
_ZNSt19basic_istringstreamIcSt11char_traitsIcESaIcEED0Ev 0x04d61d74
_ZTv0_n12_NSt19basic_istringstreamIcSt11char_traitsIcESaIcEED1Ev 0x04d61f54
_ZNSt19basic_istringstreamIcSt11char_traitsIcESaIcEED1Ev 0x04d61f64
_ZNSt7num_getIcSt19istreambuf_iteratorIcSt11char_traitsIcEEEC1Ej 0x04d62144
_ZNSt7num_getIcSt19istreambuf_iteratorIcSt11char_traitsIcEEE7_GetcatEPPKNSt6locale5facetE 0x04d6223c
_ZSt9use_facetISt7num_getIcSt19istreambuf_iteratorIcSt11char_traitsIcEEEERKT_RKSt6locale 0x04d62310
_ZNSi5_IpfxEb 0x04d62504
_ZNSi6sentryC1ERSib 0x04d629f0
_ZNSirsERi 0x04d62ac0
_ZNSt15basic_stringbufIcSt11char_traitsIcESaIcEEC1ERKSsNSt5_IosbIiE9_OpenmodeE 0x04d62e78
_ZNSt19basic_istringstreamIcSt11char_traitsIcESaIcEEC1ERKSsNSt5_IosbIiE9_OpenmodeE 0x04d62fac
_ZNSolsEf 0x04d6312c
_ZN16QCoreApplication9sendEventEP7QObjectP6QEvent 0x04d635cc
_ZSt10_GetloctxtIcSt19istreambuf_iteratorIcSt11char_traitsIcEEEiRT0_S5_jPKT_ 0x04d63938
_ZN8QPalette8setColorENS_10ColorGroupENS_9ColorRoleERK6QColor 0x04d63d98
_ZN8QPalette8setColorENS_9ColorRoleERK6QColor 0x04d63e74
_ZNKSs5rfindEPKcj 0x04d642a0
__errnoRef 0x04d64318
_ZN5QListI14QNetworkCookieEC1Ev 0x04d646cc
_ZNK5QListI14QNetworkCookieE4sizeEv 0x04d64728
_ZNSt6vectorI13cookie_structSaIS0_EE14const_iteratorC1Ev 0x04d64798
_ZNSt6vectorI13cookie_structSaIS0_EE14const_iteratorppEv 0x04d647ec
_ZNKSt6vectorI13cookie_structSaIS0_EE14const_iteratordeEv 0x04d64828
_ZN5QListI14QNetworkCookieE4Node1tEv 0x04d64854
_ZNK5QListI14QNetworkCookieE2atEi 0x04d6487c
_ZNSt6vectorI13cookie_structSaIS0_EE14const_iteratorC1EPS0_ 0x04d648fc
_ZNKSt6vectorI13cookie_structSaIS0_EE5beginEv 0x04d64954
_ZNKSt6vectorI13cookie_structSaIS0_EE3endEv 0x04d649b0
_ZNKSt6vectorI13cookie_structSaIS0_EE14const_iteratoreqERKS3_ 0x04d64a0c
_ZNKSt6vectorI13cookie_structSaIS0_EE14const_iteratorneERKS3_ 0x04d64a50
_ZN5QListI14QNetworkCookieE13node_destructEPNS1_4NodeES3_ 0x04d64be4
_ZN5QListI14QNetworkCookieE9node_copyEPNS1_4NodeES3_S3_ 0x04d64dd0
_ZN5QListI14QNetworkCookieE6detachEv 0x04d64fe8
_ZN5QListI14QNetworkCookieE14node_constructEPNS1_4NodeERKS0_ 0x04d65058
_ZN5QListI14QNetworkCookieElsERKS0_ 0x04d65214
_ZN7Binding17setInternetStatusEb 0x04d65268
_ZN7Binding17setPortalOnScreenEb 0x04d6529c
_ZN7CarTime8setHoursEi 0x04d652d0
_ZN7CarTime10setMinutesEi 0x04d65300
_ZN5Units7setFuelEi 0x04d65330
_ZN5Units11setDistanceEi 0x04d65360
_ZN5Units8setSpeedEi 0x04d65390
_ZN5Units14setConsumptionEi 0x04d653c0
_ZN4Trip10setMileageEd 0x04d653f0
_ZN4Trip14setConsumptionEd 0x04d65420
_ZN4Trip15setAverageSpeedEd 0x04d65450
_ZN3Car15setDrivingStateEb 0x04d65480
_ZN3Car11setFuelTypeEi 0x04d654b4
_ZN3Car8setSpeedEd 0x04d654e4
_ZN3Car10setMileageEd 0x04d65514
_ZN3Car11setAutonomyEd 0x04d65544
_ZN3Car12setOffsetUTCEi 0x04d65574
_ZN11SourceMedia15setCurrentTrackEi 0x04d655a4
_ZN11SourceMedia14setTotalTracksEi 0x04d655d4
_ZN11SourceMedia15setFolderNumberEi 0x04d65604
_ZN11SourceMedia14setTotalFolderEi 0x04d65634
_ZN11SourceMedia12setMediaTypeEi 0x04d65664
_ZN11SourceMedia13setMediaStateEi 0x04d65694
_ZN11SourceRadio12setFrequencyEd 0x04d656c4
_ZN11SourceRadio9setPresetEi 0x04d656f4
_ZN11SourceRadio7setBandEi 0x04d65724
_ZN11SourceRadio6setRDSEb 0x04d65754
_ZN11SourceRadio5setTAEb 0x04d65788
_ZN11SourceRadio6setPTYEi 0x04d657bc
_ZN15CurrentPosition11setLatitudeEd 0x04d657ec
_ZN15CurrentPosition12setLongitudeEd 0x04d6581c
_ZN15CurrentPosition11setAltitudeEd 0x04d6584c
_ZN15CurrentPosition6setPQIEj 0x04d6587c
_ZN11Destination11setETAHoursEi 0x04d658ac
_ZN11Destination13setETAMinutesEi 0x04d658dc
_ZNK5QListIP9QWebFrameE5countEv 0x04d6590c
_ZN4QMapI7QString8QVariantEC1Ev 0x04d6595c
_ZN5QListIP9QWebFrameE4Node1tEv 0x04d65a0c
_ZNK5QListIP9QWebFrameE2atEi 0x04d65a34
_ZN4QMapI7QString8QVariantE8iteratorC1EPN8QMapData4NodeE 0x04d65ab4
_ZN5QListIP9QWebFrameE13node_destructEPNS2_4NodeES4_ 0x04d65ae4
_ZN5QListIP9QWebFrameE4freeEPN9QListData4DataE 0x04d65b0c
_ZN5QListIP9QWebFrameED1Ev 0x04d65bd0
_ZN7Binding28loadSetCardgetPortalVariableERK7QStringff 0x04d65c88
_ZN6Device18setSoftwareReleaseERK7QString 0x04d65cfc
_ZN6Device18setHardwareReleaseERK7QString 0x04d65d50
_ZN6Device13setSupplierIdERK7QString 0x04d65da4
_ZN6Device13setMapVersionERK7QString 0x04d65df8
_ZN3Car6setVINERK7QString 0x04d65e4c
_ZN11SourceMedia13setFolderNameERK7QString 0x04d65ea0
_ZN11SourceMedia12setTrackNameERK7QString 0x04d65ef4
_ZN11SourceMedia13setArtistNameERK7QString 0x04d65f48
_ZN11SourceMedia12setAlbumNameERK7QString 0x04d65f9c
_ZN11SourceRadio9setPSNameERK7QString 0x04d65ff0
_ZN11SourceRadio7setTextERK7QString 0x04d66044
_ZN15CurrentPosition9setStreetERK7QString 0x04d66098
_ZN15CurrentPosition7setTownERK7QString 0x04d660ec
_ZN15CurrentPosition10setCountryERK7QString 0x04d66140
_ZN4QMapI7QString8QVariantE6detachEv 0x04d663bc
_ZN4QMapI7QString8QVariantE6insertERKS0_RKS1_ 0x04d66430
_ZN6QFlagsIN12QDirIterator12IteratorFlagEEC1ES1_ 0x04d667a0
_ZN5QListI15QSslCertificateEC1Ev 0x04d667d0
_ZNK5QListI15QSslCertificateE7isEmptyEv 0x04d6682c
_ZNK5QListI9QSslErrorE14const_iteratorneERKS2_ 0x04d6687c
_ZN5QListI9QSslErrorE14const_iteratorppEv 0x04d668cc
_ZNK5QListI7QStringE7isEmptyEv 0x04d66908
_ZNK5QListI15QSslCertificateE4sizeEv 0x04d66958
_ZNK5QListI15QSslCertificateE14const_iteratorneERKS2_ 0x04d669a8
_ZN5QListI15QSslCertificateE14const_iteratorppEv 0x04d669f8
_ZN5QListI15QSslCertificateE14const_iteratorC1ERKS2_ 0x04d66a34
_ZN5QListI7QStringE14node_constructEPNS1_4NodeERKS0_ 0x04d66b9c
_ZN5QListI9QSslErrorE14const_iteratorC1EPNS1_4NodeE 0x04d66cd0
_ZNK5QListI9QSslErrorE10constBeginEv 0x04d66d00
_ZNK5QListI9QSslErrorE8constEndEv 0x04d66d80
_ZN5QListI9QSslErrorE4Node1tEv 0x04d66e00
_ZNK5QListI9QSslErrorE14const_iteratorptEv 0x04d66e2c
_ZN5QListI15QSslCertificateE4Node1tEv 0x04d66e80
_ZNK5QListI15QSslCertificateE14const_iteratordeEv 0x04d66eac
_ZNK5QListI15QSslCertificateE8iteratordeEv 0x04d66f00
_ZN5QListI15QSslCertificateE8iteratorC1EPNS1_4NodeE 0x04d66f54
_ZN5QListI15QSslCertificateE14const_iteratorC1EPNS1_4NodeE 0x04d66f84
_ZNK5QListI15QSslCertificateE5beginEv 0x04d66fb4
_ZNK5QListI15QSslCertificateE3endEv 0x04d67034
_ZN5QListI15QSslCertificateE13node_destructEPNS1_4NodeES3_ 0x04d672e4
_ZN17QForeachContainerI5QListI15QSslCertificateEED1Ev 0x04d674f8
_ZN5QListI15QSslCertificateE9node_copyEPNS1_4NodeES3_S3_ 0x04d67540
_ZN5QListI15QSslCertificateE14node_constructEPNS1_4NodeERKS0_ 0x04d67634
_ZN5QListI7QStringEpLERKS0_ 0x04d67970
_ZN11QStringListlsERK7QString 0x04d679c4
_ZN11QStringListC1ERK7QString 0x04d67a1c
_ZN5QListI15QSslCertificateE6detachEv 0x04d67be0
_ZN5QListI15QSslCertificateElsERKS0_ 0x04d67cd0
_ZN5QListI15QSslCertificateE5beginEv 0x04d67d24
_ZN5QListI15QSslCertificateE5firstEv 0x04d67db8
_ZN5QListI15QSslCertificateEC1ERKS1_ 0x04d67e34
_ZN17QForeachContainerI5QListI15QSslCertificateEEC1ERKS2_ 0x04d67ec0
_ZNK5QListI15QSslCertificateE8containsERKS0_ 0x04d67f64
_ZN5QListI15QSslCertificateE6appendERKS1_ 0x04d68258
_ZNK11QStringList4joinERK7QString 0x04d682a4
_ZN9QIODevice5writeERK10QByteArray 0x04d683c4
_ZNK11QMouseEvent3posEv 0x04d68530
_ZThn8_N15C_Addon_WebViewD0Ev 0x04d685b0
_ZThn8_N15C_Addon_WebViewD1Ev 0x04d685b8
_ZN18INET_ADDON_logging3Log15setLogActivatedEb 0x04d685c0
QtWebDateCode 0x04d685f4
_Z12jsRegExpFreeP8JSRegExp 0x04d6913c
_Z15jsRegExpCompilePKti24JSRegExpIgnoreCaseOption23JSRegExpMultilineOptionPjPPKc 0x04d6b7e8
_Z15jsRegExpExecutePK8JSRegExpPKtiiPii 0x04d6fb24
_Z22jsc_pcre_ucp_othercasej 0x04d700b4
_Z15jsc_pcre_xclassiPKh 0x04d70184
WTFLog 0x04d7046c
WTFLogVerbose 0x04d705b8
WTFReportError 0x04d706f4
WTFReportFatalError 0x04d70800
WTFReportArgumentAssertionFailure 0x04d7090c
WTFReportAssertionFailureWithMessage 0x04d7098c
WTFReportAssertionFailure 0x04d70aa4
_ZN3WTF28setMainThreadCallbacksPausedEb 0x04d70b7c
_ZN3WTF28mainThreadFunctionQueueMutexEv 0x04d70c70
_ZN3WTF20initializeMainThreadEv 0x04d70d10
_ZN3WTF31dispatchFunctionsFromMainThreadEv 0x04d70d3c
_ZN3WTF16callOnMainThreadEPFvPvES0_ 0x04d70ed4
_ZN3WTF23callOnMainThreadAndWaitEPFvPvES0_ 0x04d70ff8
_ZN3WTF12randomNumberEv 0x04d71200
_ZN3WTF21RefCountedLeakCounter16suppressMessagesEPKc 0x04d712e4
_ZN3WTF21RefCountedLeakCounter24cancelMessageSuppressionEPKc 0x04d712e8
_ZN3WTF21RefCountedLeakCounterC2EPKc 0x04d712ec
_ZN3WTF21RefCountedLeakCounterC1EPKc 0x04d712f0
_ZN3WTF21RefCountedLeakCounterD2Ev 0x04d712f4
_ZN3WTF21RefCountedLeakCounterD1Ev 0x04d712f8
_ZN3WTF21RefCountedLeakCounter9incrementEv 0x04d712fc
_ZN3WTF21RefCountedLeakCounter9decrementEv 0x04d71300
_ZN3WTF8CollatorC2EPKc 0x04d71304
_ZN3WTF8CollatorC1EPKc 0x04d71308
_ZN3WTF8CollatorD2Ev 0x04d7130c
_ZN3WTF8CollatorD1Ev 0x04d71310
_ZN3WTF8Collator18setOrderLowerFirstEb 0x04d71314
_ZNK3WTF8Collator7collateEPKtjS2_j 0x04d71318
_ZN3WTF8Collator11userDefaultEv 0x04d71384
_ZN3WTF7Unicode18UTF8SequenceLengthEc 0x04d713c8
_ZN3WTF7Unicode18decodeUTF8SequenceEPKc 0x04d71420
_ZN3WTF7Unicode18convertUTF16ToUTF8EPPKtS2_PPcS4_b 0x04d7157c
_ZN3WTF7Unicode18convertUTF8ToUTF16EPPKcS2_PPtS4_b 0x04d717b0
JSReportExtraMemoryCost 0x04d71ac0
JSGarbageCollect 0x04d71b74
JSEvaluateScript 0x04d71c48
JSCheckScriptSyntax 0x04d71fa8
_ZN3JSC21JSCallbackConstructor16getConstructDataERNS_13ConstructDataE 0x04d722c8
_ZN3JSC21JSCallbackConstructorC2EN3WTF10PassRefPtrINS_9StructureEEEP13OpaqueJSClassPFP13OpaqueJSValuePK15OpaqueJSContextS8_jPKPKS7_PSD_E 0x04d724b8
_ZN3JSC21JSCallbackConstructorC1EN3WTF10PassRefPtrINS_9StructureEEEP13OpaqueJSClassPFP13OpaqueJSValuePK15OpaqueJSContextS8_jPKPKS7_PSD_E 0x04d7252c
_ZN3JSC21JSCallbackConstructorD2Ev 0x04d725a0
_ZN3JSC21JSCallbackConstructorD0Ev 0x04d726f0
_ZN3JSC21JSCallbackConstructorD1Ev 0x04d7286c
_ZN3JSC18JSCallbackFunction11getCallDataERNS_8CallDataE 0x04d729bc
_ZN3JSC18JSCallbackFunction4callEPNS_9ExecStateEPNS_8JSObjectENS_10JSValuePtrERKNS_7ArgListE 0x04d729d0
_ZN3JSC18JSCallbackFunctionC2EPNS_9ExecStateEPFPK13OpaqueJSValuePK15OpaqueJSContextPS3_S9_jPKS5_PS5_ERKNS_10IdentifierE 0x04d72bd0
_ZN3JSC18JSCallbackFunctionC1EPNS_9ExecStateEPFPK13OpaqueJSValuePK15OpaqueJSContextPS3_S9_jPKS5_PS5_ERKNS_10IdentifierE 0x04d72d04
_ZN13OpaqueJSClass9classNameEv 0x04d72e38
_Z25clearReferenceToPrototypeP13OpaqueJSValue 0x04d72e98
_ZN13OpaqueJSClassD1Ev 0x04d72ecc
_ZN13OpaqueJSClassD2Ev 0x04d73120
_ZN13OpaqueJSClassC1EPK17JSClassDefinitionPS_ 0x04d73368
_ZN13OpaqueJSClass6createEPK17JSClassDefinition 0x04d736e0
_ZN13OpaqueJSClass26createNoAutomaticPrototypeEPK17JSClassDefinition 0x04d738d0
_ZN13OpaqueJSClassC2EPK17JSClassDefinitionPS_ 0x04d73944
_ZN24OpaqueJSClassContextDataC1EP13OpaqueJSClass 0x04d73cbc
_ZN13OpaqueJSClass11contextDataEPN3JSC9ExecStateE 0x04d74088
_ZN13OpaqueJSClass15staticFunctionsEPN3JSC9ExecStateE 0x04d74158
_ZN13OpaqueJSClass12staticValuesEPN3JSC9ExecStateE 0x04d74188
_ZN24OpaqueJSClassContextDataD1Ev 0x04d741b8
_ZN24OpaqueJSClassContextDataD2Ev 0x04d742fc
_ZN24OpaqueJSClassContextDataC2EP13OpaqueJSClass 0x04d74440
_ZN13OpaqueJSClass9prototypeEPN3JSC9ExecStateE 0x04d7480c
JSContextGroupRetain 0x04d74a18
JSContextGetGroup 0x04d74a28
JSContextGetGlobalObject 0x04d74a34
JSGlobalContextRetain 0x04d74af0
JSGlobalContextRelease 0x04d74c3c
JSContextGroupRelease 0x04d74ddc
JSContextGroupCreate 0x04d74e58
JSGlobalContextCreateInGroup 0x04d74e8c
JSGlobalContextCreate 0x04d75214
JSClassRetain 0x04d75248
JSPropertyNameArrayRetain 0x04d7525c
JSPropertyNameArrayGetCount 0x04d7526c
JSPropertyNameArrayGetNameAtIndex 0x04d75274
JSObjectIsConstructor 0x04d75284
JSObjectIsFunction 0x04d752c4
JSObjectGetPrototype 0x04d75304
JSObjectSetPrivate 0x04d75310
JSObjectSetProperty 0x04d75438
JSObjectGetPrivate 0x04d7561c
JSObjectMakeFunctionWithCallback 0x04d75720
JSObjectHasProperty 0x04d7588c
JSPropertyNameArrayRelease 0x04d759a8
JSObjectDeleteProperty 0x04d75b00
JSObjectSetPropertyAtIndex 0x04d75c6c
JSObjectGetPropertyAtIndex 0x04d75d6c
JSPropertyNameAccumulatorAddName 0x04d75fd0
JSClassCreate 0x04d760d8
JSClassRelease 0x04d7614c
JSObjectGetProperty 0x04d761b8
JSObjectMakeError 0x04d76578
JSObjectMakeDate 0x04d7681c
JSObjectMakeArray 0x04d76ac0
JSObjectMakeFunction 0x04d76d80
JSObjectCallAsConstructor 0x04d772c0
JSObjectCallAsFunction 0x04d775cc
JSObjectMakeRegExp 0x04d778d0
JSObjectMakeConstructor 0x04d77b74
JSObjectMake 0x04d77f2c
JSObjectCopyPropertyNames 0x04d781e4
JSObjectSetPrototype 0x04d785fc
JSStringGetCharactersPtr 0x04d78718
JSStringGetMaximumUTF8CStringSize 0x04d78730
JSStringRetain 0x04d78750
JSStringIsEqual 0x04d78764
JSStringGetLength 0x04d787f8
JSStringGetUTF8CString 0x04d78810
JSStringCreateWithCharacters 0x04d788cc
JSStringRelease 0x04d7896c
JSStringCreateWithUTF8CString 0x04d789e4
JSStringIsEqualToUTF8CString 0x04d78c90
JSValueIsStrictEqual 0x04d78d0c
JSValueIsObject 0x04d78d48
JSValueIsString 0x04d78d6c
JSValueIsNull 0x04d78d90
JSValueToBoolean 0x04d78da0
JSValueMakeBoolean 0x04d78e24
JSValueMakeNull 0x04d78e38
JSValueMakeUndefined 0x04d78e40
JSValueIsEqual 0x04d78e48
JSValueIsBoolean 0x04d78f44
JSValueIsUndefined 0x04d78f58
JSValueGetType 0x04d78f68
JSValueIsNumber 0x04d78fdc
JSValueUnprotect 0x04d79014
JSValueProtect 0x04d790e4
JSValueToObject 0x04d791b4
JSValueToNumber 0x04d792f8
JSValueMakeString 0x04d79454
JSValueMakeNumber 0x04d7955c
JSValueIsInstanceOfConstructor 0x04d7966c
JSValueIsObjectOfClass 0x04d79a30
JSValueToStringCopy 0x04d79b60
_ZNK14OpaqueJSString7ustringEv 0x04d79d2c
_ZN14OpaqueJSString6createERKN3JSC7UStringE 0x04d79dcc
_ZNK14OpaqueJSString10identifierEPN3JSC12JSGlobalDataE 0x04d79eec
_ZN3JSC19initializeThreadingEv 0x04d79f94
_ZN3JSC12JSGlobalData22sharedInstanceInternalEv 0x04d79fe0
_ZN3JSC12JSGlobalData20sharedInstanceExistsEv 0x04d79fec
_ZN3JSC12JSGlobalData10ClientDataD0Ev 0x04d7a024
_ZN3JSC12JSGlobalData10ClientDataD1Ev 0x04d7a05c
_ZN3JSC12JSGlobalData10ClientDataD2Ev 0x04d7a06c
_ZN3JSC12JSGlobalDataD1Ev 0x04d7a07c
_ZN3JSC12JSGlobalDataD2Ev 0x04d7a688
_ZN3JSC12JSGlobalDataC1Eb 0x04d7ac94
_ZN3JSC12JSGlobalData14sharedInstanceEv 0x04d7b174
_ZN3JSC12JSGlobalData6createEv 0x04d7b210
_ZN3JSC12JSGlobalData12createLeakedEv 0x04d7b274
_ZN3JSC12JSGlobalDataC2Eb 0x04d7b2b0
_ZN3JSC14JSGlobalObject10globalExecEv 0x04d7b790
_ZNK3JSC14JSGlobalObject14isDynamicScopeEv 0x04d7b7ac
_ZN3JSC14JSGlobalObjectnwEjPNS_12JSGlobalDataE 0x04d7b7b4
_ZN3JSC14JSGlobalObject17startTimeoutCheckEv 0x04d7b7ec
_ZN3JSC14JSGlobalObject14setTimeoutTimeEj 0x04d7b858
_ZN3JSC14JSGlobalObject16stopTimeoutCheckEv 0x04d7b87c
_ZN3JSC14JSGlobalObject15copyGlobalsFromERNS_12RegisterFileE 0x04d7b8a8
_ZN3JSC14JSGlobalObject13copyGlobalsToERNS_12RegisterFileE 0x04d7b9bc
_ZN3JSC14JSGlobalObject12defineGetterEPNS_9ExecStateERKNS_10IdentifierEPNS_8JSObjectE 0x04d7baf4
_ZN3JSC14JSGlobalObjectD2Ev 0x04d7bbfc
_ZN3JSC14JSGlobalObject12defineSetterEPNS_9ExecStateERKNS_10IdentifierEPNS_8JSObjectE 0x04d7c094
_ZN3JSC14JSGlobalObject3putEPNS_9ExecStateERKNS_10IdentifierENS_10JSValuePtrERNS_15PutPropertySlotE 0x04d7c19c
_ZN3JSC14JSGlobalObject4markEv 0x04d7c2f8
_ZN3JSC14JSGlobalObject17putWithAttributesEPNS_9ExecStateERKNS_10IdentifierENS_10JSValuePtrEj 0x04d7cc94
_ZN3JSC14JSGlobalObjectD0Ev 0x04d7d228
_ZN3JSC14JSGlobalObjectD1Ev 0x04d7d6ec
_ZN3JSC14JSGlobalObject14resetPrototypeENS_10JSValuePtrE 0x04d7db84
_ZN3JSC14JSGlobalObject5resetENS_10JSValuePtrE 0x04d7dd4c
_ZN3JSC14JSGlobalObject4initEPNS_8JSObjectE 0x04d82aa8
_ZNK3JSC19JSStaticScopeObject12toThisObjectEPNS_9ExecStateE 0x04d82e50
_ZNK3JSC19JSStaticScopeObject14isDynamicScopeEv 0x04d82e5c
_ZN3JSC19JSStaticScopeObject4markEv 0x04d82e64
_ZN3JSC19JSStaticScopeObject17putWithAttributesEPNS_9ExecStateERKNS_10IdentifierENS_10JSValuePtrEj 0x04d82f00
_ZN3JSC19JSStaticScopeObject3putEPNS_9ExecStateERKNS_10IdentifierENS_10JSValuePtrERNS_15PutPropertySlotE 0x04d82fec
_ZN3JSC19JSStaticScopeObjectD0Ev 0x04d830c8
_ZN3JSC19JSStaticScopeObjectD1Ev 0x04d83278
_ZN3JSC19JSStaticScopeObjectD2Ev 0x04d83400
_ZNK3JSC16JSVariableObject16isVariableObjectEv 0x04d83588
_ZN3JSC16JSVariableObject16getPropertyNamesEPNS_9ExecStateERNS_17PropertyNameArrayE 0x04d83590
_ZNK3JSC16JSVariableObject21getPropertyAttributesEPNS_9ExecStateERKNS_10IdentifierERj 0x04d83778
_ZN3JSC16JSVariableObject14deletePropertyEPNS_9ExecStateERKNS_10IdentifierE 0x04d83858
_ZNK3JSC12JSActivation12toThisObjectEPNS_9ExecStateE 0x04d838ec
_ZN3JSC12JSActivation18getArgumentsGetterEv 0x04d838f8
_ZNK3JSC12JSActivation14isDynamicScopeEv 0x04d83904
_ZN3JSC12JSActivation14deletePropertyEPNS_9ExecStateERKNS_10IdentifierE 0x04d83918
_ZN3JSC12JSActivation4markEv 0x04d8396c
_ZN3JSC12JSActivation18getOwnPropertySlotEPNS_9ExecStateERKNS_10IdentifierERNS_12PropertySlotE 0x04d83b0c
_ZN3JSC12JSActivationD2Ev 0x04d83df0
_ZN3JSC12JSActivation15argumentsGetterEPNS_9ExecStateERKNS_10IdentifierERKNS_12PropertySlotE 0x04d83f94
_ZN3JSC12JSActivationC2EPNS_9ExecStateEN3WTF10PassRefPtrINS_16FunctionBodyNodeEEE 0x04d84418
_ZN3JSC12JSActivationC1EPNS_9ExecStateEN3WTF10PassRefPtrINS_16FunctionBodyNodeEEE 0x04d844e4
_ZN3JSC12JSActivation17putWithAttributesEPNS_9ExecStateERKNS_10IdentifierENS_10JSValuePtrEj 0x04d845b0
_ZN3JSC12JSActivation3putEPNS_9ExecStateERKNS_10IdentifierENS_10JSValuePtrERNS_15PutPropertySlotE 0x04d84704
_ZN3JSC12JSActivationD0Ev 0x04d84858
_ZN3JSC12JSActivationD1Ev 0x04d84a24
_ZNK3JSC13JSNotAnObject11toPrimitiveEPNS_9ExecStateENS_22PreferredPrimitiveTypeE 0x04d84bc8
_ZN3JSC13JSNotAnObject18getPrimitiveNumberEPNS_9ExecStateERdRNS_10JSValuePtrE 0x04d84bd0
_ZNK3JSC13JSNotAnObject9toBooleanEPNS_9ExecStateE 0x04d84bd8
_ZNK3JSC13JSNotAnObject8toNumberEPNS_9ExecStateE 0x04d84be0
_ZNK3JSC13JSNotAnObject8toObjectEPNS_9ExecStateE 0x04d84bec
_ZN3JSC13JSNotAnObject18getOwnPropertySlotEPNS_9ExecStateERKNS_10IdentifierERNS_12PropertySlotE 0x04d84bf4
_ZN3JSC13JSNotAnObject18getOwnPropertySlotEPNS_9ExecStateEjRNS_12PropertySlotE 0x04d84bfc
_ZN3JSC13JSNotAnObject3putEPNS_9ExecStateERKNS_10IdentifierENS_10JSValuePtrERNS_15PutPropertySlotE 0x04d84c04
_ZN3JSC13JSNotAnObject3putEPNS_9ExecStateEjNS_10JSValuePtrE 0x04d84c08
_ZN3JSC13JSNotAnObject14deletePropertyEPNS_9ExecStateERKNS_10IdentifierE 0x04d84c0c
_ZN3JSC13JSNotAnObject14deletePropertyEPNS_9ExecStateEj 0x04d84c14
_ZN3JSC13JSNotAnObject16getPropertyNamesEPNS_9ExecStateERNS_17PropertyNameArrayE 0x04d84c1c
_ZNK3JSC13JSNotAnObject8toStringEPNS_9ExecStateE 0x04d84c20
_ZN3JSC13JSNotAnObject4markEv 0x04d84c64
_ZN3JSC9CodeBlock14dumpStatisticsEv 0x04d84cec
_ZNK3JSC9CodeBlock13refStructuresEPNS_11InstructionE 0x04d84d24
_ZN3JSC9CodeBlock24handlerForBytecodeOffsetEj 0x04d84dd8
_ZN3JSC9CodeBlockC2EPNS_9ScopeNodeENS_8CodeTypeEN3WTF10PassRefPtrINS_14SourceProviderEEEj 0x04d84e2c
_ZN3JSC9CodeBlockC1EPNS_9ScopeNodeENS_8CodeTypeEN3WTF10PassRefPtrINS_14SourceProviderEEEj 0x04d84fa0
_ZN3JSC9CodeBlock4markEv 0x04d85114
_ZN3JSC9CodeBlock34reparseForExceptionInfoIfNecessaryEPNS_9ExecStateE 0x04d85310
_ZN3JSC9CodeBlock37getByIdExceptionInfoForBytecodeOffsetEPNS_9ExecStateEjRNS_8OpcodeIDE 0x04d85660
_ZN3JSC9CodeBlock27lineNumberForBytecodeOffsetEPNS_9ExecStateEj 0x04d8575c
_ZN3JSC9CodeBlock32expressionRangeForBytecodeOffsetEPNS_9ExecStateEjRiS3_S3_ 0x04d85834
_ZN3JSC9CodeBlock11shrinkToFitEv 0x04d859d4
_ZNK3JSC9CodeBlock15derefStructuresEPNS_11InstructionE 0x04d85bac
_ZN3JSC9CodeBlockD1Ev 0x04d861c0
_ZN3JSC9CodeBlockD2Ev 0x04d86898
_ZN3JSC15SimpleJumpTable14offsetForValueEii 0x04d86f70
_ZN3JSC17BytecodeGenerator21setDumpsGeneratedCodeEb 0x04d86fac
_ZN3JSC17BytecodeGenerator18dumpsGeneratedCodeEv 0x04d86fb0
_ZN3JSC17BytecodeGenerator20retrieveLastBinaryOpERiS1_S1_ 0x04d86fb8
_ZN3JSC17BytecodeGenerator19retrieveLastUnaryOpERiS1_ 0x04d87008
_ZN3JSC17BytecodeGenerator18pushFinallyContextEPNS_5LabelEPNS_10RegisterIDE 0x04d87064
_ZN3JSC17BytecodeGenerator10emitOpcodeENS_8OpcodeIDE 0x04d8712c
_ZN3JSC17BytecodeGenerator12emitPopScopeEv 0x04d871ec
_ZN3JSC17BytecodeGenerator11addConstantEPNS_12FuncExprNodeE 0x04d87250
_ZN3JSC17BytecodeGenerator17popFinallyContextEv 0x04d87310
_ZN3JSC17BytecodeGenerator11breakTargetERKNS_10IdentifierE 0x04d87360
_ZN3JSC17BytecodeGenerator8newLabelEv 0x04d87564
_ZN3JSC17BytecodeGenerator11newRegisterEv 0x04d87858
_ZN3JSC17BytecodeGenerator19highestUsedRegisterEv 0x04d87a88
_ZN3JSC17BytecodeGenerator12newTemporaryEv 0x04d87b54
_ZN3JSC17BytecodeGenerator17allocateConstantsEj 0x04d87c68
_ZN3JSC17BytecodeGenerator9emitLabelEPNS_5LabelE 0x04d87d6c
_ZN3JSC17BytecodeGenerator8generateEv 0x04d87eb4
_ZN3JSC17BytecodeGenerator11addConstantEPNS_12FuncDeclNodeE 0x04d880c4
_ZN3JSC17BytecodeGenerator13newLabelScopeENS_10LabelScope4TypeEPKNS_10IdentifierE 0x04d88430
_ZN3JSC17BytecodeGenerator14continueTargetERKNS_10IdentifierE 0x04d88810
_ZN3JSC17BytecodeGeneratorC1EPNS_8EvalNodeEPKNS_8DebuggerERKNS_10ScopeChainEPN3WTF7HashMapINS9_6RefPtrINS_7UString3RepEEENS_16SymbolTableEntryENS_17IdentifierRepHashENS9_10HashTraitsISE_EENS_26SymbolTableIndexHashTraitsEEEPNS_13EvalCodeBlockE 0x04d88a28
_ZN3JSC17BytecodeGeneratorC2EPNS_8EvalNodeEPKNS_8DebuggerERKNS_10ScopeChainEPN3WTF7HashMapINS9_6RefPtrINS_7UString3RepEEENS_16SymbolTableEntryENS_17IdentifierRepHashENS9_10HashTraitsISE_EENS_26SymbolTableIndexHashTraitsEEEPNS_13EvalCodeBlockE 0x04d88fa8
_ZN3JSC17BytecodeGenerator11addConstantERKNS_10IdentifierE 0x04d89528
_ZN3JSC17BytecodeGenerator9addRegExpEPNS_6RegExpE 0x04d8969c
_ZN3JSC17BytecodeGenerator21addUnexpectedConstantENS_10JSValuePtrE 0x04d89a00
_ZN3JSC17BytecodeGenerator7isLocalERKNS_10IdentifierE 0x04d89d58
_ZN3JSC17BytecodeGenerator9endSwitchEjPN3WTF6RefPtrINS_5LabelEEEPPNS_14ExpressionNodeEPS3_ii 0x04d89de8
_ZN3JSC17BytecodeGenerator6addVarERKNS_10IdentifierEbRPNS_10RegisterIDE 0x04d8af14
_ZN3JSC17BytecodeGenerator18findScopedPropertyERKNS_10IdentifierERiRjbRPNS_8JSObjectE 0x04d8b0e4
_ZN3JSC17BytecodeGenerator15isLocalConstantERKNS_10IdentifierE 0x04d8b350
_ZN3JSC17BytecodeGenerator11registerForERKNS_10IdentifierE 0x04d8b388
_ZN3JSC17BytecodeGenerator12addParameterERKNS_10IdentifierE 0x04d8b4d0
_ZN3JSC17BytecodeGenerator11addConstantENS_10JSValuePtrE 0x04d8b6c8
_ZN3JSC17BytecodeGenerator16constRegisterForERKNS_10IdentifierE 0x04d8b90c
_ZN3JSC17BytecodeGenerator12addGlobalVarERKNS_10IdentifierEbRPNS_10RegisterIDE 0x04d8ba3c
_ZN3JSC17BytecodeGenerator11beginSwitchEPNS_10RegisterIDENS_10SwitchInfo10SwitchTypeE 0x04d8bd6c
_ZN3JSC17BytecodeGenerator8emitJumpEPNS_5LabelE 0x04d8bfc0
_ZN3JSC17BytecodeGenerator16emitPushNewScopeEPNS_10RegisterIDERNS_10IdentifierES2_ 0x04d8c154
_ZN3JSC17BytecodeGenerator20emitSubroutineReturnEPNS_10RegisterIDE 0x04d8c390
_ZN3JSC17BytecodeGenerator18emitJumpSubroutineEPNS_10RegisterIDEPNS_5LabelE 0x04d8c440
_ZN3JSC17BytecodeGenerator12emitNewErrorEPNS_10RegisterIDENS_9ErrorTypeENS_10JSValuePtrE 0x04d8c624
_ZN3JSC17BytecodeGenerator9emitCatchEPNS_10RegisterIDEPNS_5LabelES4_ 0x04d8c7d8
_ZN3JSC17BytecodeGenerator20emitNextPropertyNameEPNS_10RegisterIDES2_PNS_5LabelE 0x04d8cd14
_ZN3JSC17BytecodeGenerator21emitComplexJumpScopesEPNS_5LabelEPNS_18ControlFlowContextES4_ 0x04d8cf44
_ZN3JSC17BytecodeGenerator14emitJumpScopesEPNS_5LabelEi 0x04d8d35c
_ZN3JSC17BytecodeGenerator13emitDebugHookENS_11DebugHookIDEii 0x04d8d5dc
_ZN3JSC17BytecodeGenerator16emitUnaryNoDstOpENS_8OpcodeIDEPNS_10RegisterIDE 0x04d8d794
_ZN3JSC17BytecodeGenerator13emitPushScopeEPNS_10RegisterIDE 0x04d8d84c
_ZN3JSC17BytecodeGenerator35emitThrowExpressionTooDeepExceptionEv 0x04d8d940
_ZN3JSC17BytecodeGenerator10emitReturnEPNS_10RegisterIDE 0x04d8db20
_ZN3JSC17BytecodeGenerator25emitNewFunctionExpressionEPNS_10RegisterIDEPNS_12FuncExprNodeE 0x04d8dc6c
_ZN3JSC17BytecodeGenerator13emitNewRegExpEPNS_10RegisterIDEPNS_6RegExpE 0x04d8ddb4
_ZN3JSC17BytecodeGenerator15emitNewFunctionEPNS_10RegisterIDEPNS_12FuncDeclNodeE 0x04d8defc
_ZN3JSC17BytecodeGeneratorC1EPNS_16FunctionBodyNodeEPKNS_8DebuggerERKNS_10ScopeChainEPN3WTF7HashMapINS9_6RefPtrINS_7UString3RepEEENS_16SymbolTableEntryENS_17IdentifierRepHashENS9_10HashTraitsISE_EENS_26SymbolTableIndexHashTraitsEEEPNS_9CodeBlockE 0x04d8e044
_ZN3JSC17BytecodeGeneratorC2EPNS_16FunctionBodyNodeEPKNS_8DebuggerERKNS_10ScopeChainEPN3WTF7HashMapINS9_6RefPtrINS_7UString3RepEEENS_16SymbolTableEntryENS_17IdentifierRepHashENS9_10HashTraitsISE_EENS_26SymbolTableIndexHashTraitsEEEPNS_9CodeBlockE 0x04d8ebd4
_ZN3JSC17BytecodeGenerator12emitNewArrayEPNS_10RegisterIDEPNS_11ElementNodeE 0x04d8f764
_ZN3JSC17BytecodeGenerator13emitNewObjectEPNS_10RegisterIDE 0x04d8fba4
_ZN3JSC17BytecodeGenerator14emitPutByIndexEPNS_10RegisterIDEjS2_ 0x04d8fc60
_ZN3JSC17BytecodeGenerator15emitDeleteByValEPNS_10RegisterIDES2_S2_ 0x04d8fdf0
_ZN3JSC17BytecodeGenerator12emitPutByValEPNS_10RegisterIDES2_S2_ 0x04d8ff8c
_ZN3JSC17BytecodeGenerator12emitGetByValEPNS_10RegisterIDES2_S2_ 0x04d90120
_ZN3JSC17BytecodeGenerator14emitDeleteByIdEPNS_10RegisterIDES2_RKNS_10IdentifierE 0x04d902bc
_ZN3JSC17BytecodeGenerator13emitPutSetterEPNS_10RegisterIDERKNS_10IdentifierES2_ 0x04d90470
_ZN3JSC17BytecodeGenerator13emitPutGetterEPNS_10RegisterIDERKNS_10IdentifierES2_ 0x04d9061c
_ZN3JSC17BytecodeGenerator18emitUnexpectedLoadEPNS_10RegisterIDEd 0x04d907c8
_ZN3JSC17BytecodeGenerator11emitPutByIdEPNS_10RegisterIDERKNS_10IdentifierES2_ 0x04d909d0
_ZN3JSC17BytecodeGenerator19emitResolveFunctionEPNS_10RegisterIDES2_RKNS_10IdentifierE 0x04d90d70
_ZN3JSC17BytecodeGenerator11emitPostIncEPNS_10RegisterIDES2_ 0x04d90f24
_ZN3JSC17BytecodeGenerator15emitResolveBaseEPNS_10RegisterIDERKNS_10IdentifierE 0x04d91054
_ZN3JSC17BytecodeGenerator16emitGetScopedVarEPNS_10RegisterIDEjiNS_10JSValuePtrE 0x04d9119c
_ZN3JSC17BytecodeGenerator19emitResolveWithBaseEPNS_10RegisterIDES2_RKNS_10IdentifierE 0x04d91564
_ZN3JSC17BytecodeGenerator11emitGetByIdEPNS_10RegisterIDES2_RKNS_10IdentifierE 0x04d91718
_ZN3JSC17BytecodeGenerator16emitPutScopedVarEjiPNS_10RegisterIDENS_10JSValuePtrE 0x04d91ac0
_ZN3JSC17BytecodeGenerator10emitPreIncEPNS_10RegisterIDE 0x04d91d48
_ZN3JSC17BytecodeGenerator18emitUnexpectedLoadEPNS_10RegisterIDEb 0x04d91e04
_ZN3JSC17BytecodeGenerator10emitPreDecEPNS_10RegisterIDE 0x04d91f60
_ZN3JSC17BytecodeGenerator11emitResolveEPNS_10RegisterIDERKNS_10IdentifierE 0x04d9201c
_ZN3JSC17BytecodeGenerator14emitInstanceOfEPNS_10RegisterIDES2_S2_S2_ 0x04d9260c
_ZN3JSC17BytecodeGenerator12emitBinaryOpENS_8OpcodeIDEPNS_10RegisterIDES3_S3_NS_12OperandTypesE 0x04d92814
_ZN3JSC17BytecodeGenerator14emitEqualityOpENS_8OpcodeIDEPNS_10RegisterIDES3_S3_ 0x04d92a50
_ZN3JSC17BytecodeGenerator11emitUnaryOpENS_8OpcodeIDEPNS_10RegisterIDES3_ 0x04d92fa4
_ZN3JSC17BytecodeGenerator11emitPostDecEPNS_10RegisterIDES2_ 0x04d930d0
_ZN3JSC17BytecodeGenerator8emitMoveEPNS_10RegisterIDES2_ 0x04d93200
_ZN3JSC17BytecodeGenerator13emitConstructEPNS_10RegisterIDES2_PNS_13ArgumentsNodeEjjj 0x04d93330
_ZN3JSC17BytecodeGenerator8emitCallENS_8OpcodeIDEPNS_10RegisterIDES3_S3_PNS_13ArgumentsNodeEjjj 0x04d94010
_ZN3JSC17BytecodeGenerator12emitCallEvalEPNS_10RegisterIDES2_S2_PNS_13ArgumentsNodeEjjj 0x04d948f8
_ZN3JSC17BytecodeGenerator8emitCallEPNS_10RegisterIDES2_S2_PNS_13ArgumentsNodeEjjj 0x04d94970
_ZN3JSC17BytecodeGenerator8emitLoadEPNS_10RegisterIDENS_10JSValuePtrE 0x04d949e8
_ZN3JSC17BytecodeGenerator8emitLoadEPNS_10RegisterIDERKNS_10IdentifierE 0x04d94a68
_ZN3JSC17BytecodeGenerator8emitLoadEPNS_10RegisterIDEd 0x04d94b40
_ZN3JSC17BytecodeGenerator8emitLoadEPNS_10RegisterIDEb 0x04d94d5c
_ZN3JSC17BytecodeGeneratorC1EPNS_11ProgramNodeEPKNS_8DebuggerERKNS_10ScopeChainEPN3WTF7HashMapINS9_6RefPtrINS_7UString3RepEEENS_16SymbolTableEntryENS_17IdentifierRepHashENS9_10HashTraitsISE_EENS_26SymbolTableIndexHashTraitsEEEPNS_16ProgramCodeBlockE 0x04d94da0
_ZN3JSC17BytecodeGeneratorC2EPNS_11ProgramNodeEPKNS_8DebuggerERKNS_10ScopeChainEPN3WTF7HashMapINS9_6RefPtrINS_7UString3RepEEENS_16SymbolTableEntryENS_17IdentifierRepHashENS9_10HashTraitsISE_EENS_26SymbolTableIndexHashTraitsEEEPNS_16ProgramCodeBlockE 0x04d95c68
_ZN3JSC17BytecodeGenerator14emitJumpIfTrueEPNS_10RegisterIDEPNS_5LabelE 0x04d96b30
_ZN3JSC17BytecodeGenerator15emitJumpIfFalseEPNS_10RegisterIDEPNS_5LabelE 0x04d97200
_ZN3JSC35createInterruptedExecutionExceptionEPNS_12JSGlobalDataE 0x04d97768
_ZN3JSC11createErrorEPNS_9ExecStateENS_9ErrorTypeEPKc 0x04d977ec
_ZN3JSC24createStackOverflowErrorEPNS_9ExecStateE 0x04d9792c
_ZN3JSC26createNotAnObjectErrorStubEPNS_9ExecStateEb 0x04d97b70
_ZN3JSC11createErrorEPNS_9ExecStateENS_9ErrorTypeEPKcRKNS_10IdentifierE 0x04d97c0c
_ZN3JSC11createErrorEPNS_9ExecStateENS_9ErrorTypeEPKcNS_10JSValuePtrE 0x04d97d74
_ZN3JSC28createUndefinedVariableErrorEPNS_9ExecStateERKNS_10IdentifierEjPNS_9CodeBlockE 0x04d98528
_ZN3JSC23createNotAFunctionErrorEPNS_9ExecStateENS_10JSValuePtrEjPNS_9CodeBlockE 0x04d98870
_ZN3JSC26createNotAConstructorErrorEPNS_9ExecStateENS_10JSValuePtrEjPNS_9CodeBlockE 0x04d98c24
_ZN3JSC23createInvalidParamErrorEPNS_9ExecStateEPKcNS_10JSValuePtrEjPNS_9CodeBlockE 0x04d9904c
_ZN3JSC22createNotAnObjectErrorEPNS_9ExecStateEPNS_22JSNotAnObjectErrorStubEjPNS_9CodeBlockE 0x04d99468
_ZNK3JSC22JSPropertyNameIterator11toPrimitiveEPNS_9ExecStateENS_22PreferredPrimitiveTypeE 0x04d99918
_ZN3JSC22JSPropertyNameIterator18getPrimitiveNumberEPNS_9ExecStateERdRNS_10JSValuePtrE 0x04d99920
_ZNK3JSC22JSPropertyNameIterator9toBooleanEPNS_9ExecStateE 0x04d99928
_ZNK3JSC22JSPropertyNameIterator8toNumberEPNS_9ExecStateE 0x04d99930
_ZNK3JSC22JSPropertyNameIterator8toObjectEPNS_9ExecStateE 0x04d9993c
_ZNK3JSC22JSPropertyNameIterator8toStringEPNS_9ExecStateE 0x04d99944
_ZN3JSC22JSPropertyNameIterator4markEv 0x04d99988
_ZN3JSC22JSPropertyNameIterator10invalidateEv 0x04d99a28
_ZN3JSC22JSPropertyNameIteratorD1Ev 0x04d99c20
_ZN3JSC22JSPropertyNameIteratorD0Ev 0x04d99e24
_ZN3JSC22JSPropertyNameIteratorD2Ev 0x04d9a008
_ZN3JSC11Interpreter10initializeEPNS_12JSGlobalDataE 0x04d9a20c
_ZN3JSC11Interpreter17resetTimeoutCheckEv 0x04d9a210
_ZN3JSC11Interpreter21findFunctionCallFrameEPNS_9ExecStateEPNS_16InternalFunctionE 0x04d9a228
_ZN3JSC11Interpreter14uncachePutByIDEPNS_9CodeBlockEPNS_11InstructionE 0x04d9a3b4
_ZN3JSC11Interpreter14uncacheGetByIDEPNS_9CodeBlockEPNS_11InstructionE 0x04d9a410
_ZN3JSC11InterpreterD1Ev 0x04d9a46c
_ZN3JSC11InterpreterD2Ev 0x04d9a4c0
_ZNK3JSC11Interpreter14retrieveCallerEPNS_9ExecStateEPNS_16InternalFunctionE 0x04d9a514
_ZN3JSC11Interpreter15unwindCallFrameERPNS_9ExecStateENS_10JSValuePtrERjRPNS_9CodeBlockE 0x04d9a57c
_ZN3JSC11Interpreter8isOpcodeEPv 0x04d9aa00
_ZNK3JSC11Interpreter18retrieveLastCallerEPNS_9ExecStateERiS3_RNS_7UStringERNS_10JSValuePtrE 0x04d9aa70
_ZN3JSC11Interpreter7resolveEPNS_9ExecStateEPNS_11InstructionERNS_10JSValuePtrE 0x04d9ac18
_ZN3JSC11Interpreter5debugEPNS_9ExecStateENS_11DebugHookIDEii 0x04d9af9c
_ZN3JSC11Interpreter18resolveBaseAndFuncEPNS_9ExecStateEPNS_11InstructionERNS_10JSValuePtrE 0x04d9b1e0
_ZN3JSC11Interpreter22resolveBaseAndPropertyEPNS_9ExecStateEPNS_11InstructionERNS_10JSValuePtrE 0x04d9b5bc
_ZN3JSC11Interpreter11resolveBaseEPNS_9ExecStateEPNS_11InstructionE 0x04d9b960
_ZN3JSC11Interpreter13resolveGlobalEPNS_9ExecStateEPNS_11InstructionERNS_10JSValuePtrE 0x04d9bc78
_ZN3JSC11Interpreter11resolveSkipEPNS_9ExecStateEPNS_11InstructionERNS_10JSValuePtrE 0x04d9c0cc
_ZN3JSC11Interpreter14throwExceptionERPNS_9ExecStateERNS_10JSValuePtrEjb 0x04d9c46c
_ZN3JSC11Interpreter20createExceptionScopeEPNS_9ExecStateEPKNS_11InstructionE 0x04d9cfe4
_ZNK3JSC11Interpreter17retrieveArgumentsEPNS_9ExecStateEPNS_10JSFunctionE 0x04d9d5e0
_ZN3JSC11Interpreter15tryCacheGetByIDEPNS_9ExecStateEPNS_9CodeBlockEPNS_11InstructionENS_10JSValuePtrERKNS_10IdentifierERKNS_12PropertySlotE 0x04d9db84
_ZN3JSC11Interpreter15tryCachePutByIDEPNS_9ExecStateEPNS_9CodeBlockEPNS_11InstructionENS_10JSValuePtrERKNS_15PutPropertySlotE 0x04d9e1f4
_ZN3JSC11Interpreter14privateExecuteENS0_13ExecutionFlagEPNS_12RegisterFileEPNS_9ExecStateEPNS_10JSValuePtrE 0x04d9e360
_ZN3JSC11Interpreter7executeEPNS_8EvalNodeEPNS_9ExecStateEPNS_8JSObjectEiPNS_14ScopeChainNodeEPNS_10JSValuePtrE 0x04da9360
_ZN3JSC11Interpreter7executeEPNS_8EvalNodeEPNS_9ExecStateEPNS_8JSObjectEPNS_14ScopeChainNodeEPNS_10JSValuePtrE 0x04da986c
_ZN3JSC11Interpreter8callEvalEPNS_9ExecStateEPNS_12RegisterFileEPNS_8RegisterEiiRNS_10JSValuePtrE 0x04da9950
_ZN3JSC11Interpreter7executeEPNS_16FunctionBodyNodeEPNS_9ExecStateEPNS_10JSFunctionEPNS_8JSObjectERKNS_7ArgListEPNS_14ScopeChainNodeEPNS_10JSValuePtrE 0x04daa248
_ZN3JSC11Interpreter7executeEPNS_11ProgramNodeEPNS_9ExecStateEPNS_14ScopeChainNodeEPNS_8JSObjectEPNS_10JSValuePtrE 0x04daa600
_ZN3JSC11InterpreterC1Ev 0x04daa974
_ZN3JSC11InterpreterC2Ev 0x04daad54
_ZN3JSC12SamplingTool4dumpEPNS_9ExecStateE 0x04dab134
_ZN3JSC12SamplingTool4stopEv 0x04dab138
_ZN3JSC12SamplingTool5startEj 0x04dab174
_ZN3JSC12SamplingTool13notifyOfScopeEPNS_9ScopeNodeE 0x04dab1d0
_ZN3JSC12SamplingTool3runEv 0x04dab2b4
_ZN3JSC12SamplingTool15threadStartFuncEPv 0x04dab3dc
_ZN3JSC17ScopeSampleRecord6sampleEPNS_9CodeBlockEPNS_11InstructionE 0x04dab40c
_ZN3JSC12RegisterFileD1Ev 0x04dab4c4
_ZN3JSC12RegisterFileD2Ev 0x04dab510
_ZN3JSC7ArgList9markListsERN3WTF7HashSetIPS0_NS1_7PtrHashIS3_EENS1_10HashTraitsIS3_EEEE 0x04dab55c
_ZNK3JSC7ArgList8getSliceEiRS0_ 0x04dab6a8
_ZN3JSC7ArgList10slowAppendENS_10JSValuePtrE 0x04dab774
_ZN3JSC9Arguments18getOwnPropertySlotEPNS_9ExecStateERKNS_10IdentifierERNS_12PropertySlotE 0x04dab8e0
_ZN3JSC9Arguments14deletePropertyEPNS_9ExecStateERKNS_10IdentifierE 0x04dabd00
_ZN3JSC9Arguments4markEv 0x04dabf30
_ZN3JSC9Arguments3putEPNS_9ExecStateEjNS_10JSValuePtrERNS_15PutPropertySlotE 0x04dac164
_ZN3JSC9Arguments18getOwnPropertySlotEPNS_9ExecStateEjRNS_12PropertySlotE 0x04dac374
_ZN3JSC9Arguments14deletePropertyEPNS_9ExecStateEj 0x04dac75c
_ZN3JSC9Arguments11fillArgListEPNS_9ExecStateERNS_7ArgListE 0x04dac99c
_ZN3JSC9ArgumentsD1Ev 0x04dad0b4
_ZN3JSC9ArgumentsD2Ev 0x04dad270
_ZN3JSC9ArgumentsD0Ev 0x04dad42c
_ZN3JSC9Arguments3putEPNS_9ExecStateERKNS_10IdentifierENS_10JSValuePtrERNS_15PutPropertySlotE 0x04dad610
_ZN3JSC16ArrayConstructor16getConstructDataERNS_13ConstructDataE 0x04dada84
_ZN3JSC16ArrayConstructor11getCallDataERNS_8CallDataE 0x04dada98
_ZN3JSC16ArrayConstructorC2EPNS_9ExecStateEN3WTF10PassRefPtrINS_9StructureEEEPNS_14ArrayPrototypeE 0x04dadaac
_ZN3JSC16ArrayConstructorC1EPNS_9ExecStateEN3WTF10PassRefPtrINS_9StructureEEEPNS_14ArrayPrototypeE 0x04dae0a0
_ZN3JSC14ArrayPrototypeC2EN3WTF10PassRefPtrINS_9StructureEEE 0x04dae33c
_ZN3JSC14ArrayPrototype18getOwnPropertySlotEPNS_9ExecStateERKNS_10IdentifierERNS_12PropertySlotE 0x04dae408
_ZN3JSC14ArrayPrototypeC1EN3WTF10PassRefPtrINS_9StructureEEE 0x04dae508
_ZN3JSC18BooleanConstructor16getConstructDataERNS_13ConstructDataE 0x04db6e00
_ZN3JSC18BooleanConstructor11getCallDataERNS_8CallDataE 0x04db6e14
_ZN3JSC18BooleanConstructorC1EPNS_9ExecStateEN3WTF10PassRefPtrINS_9StructureEEEPNS_16BooleanPrototypeE 0x04db6ed8
_ZN3JSC36constructBooleanFromImmediateBooleanEPNS_9ExecStateENS_10JSValuePtrE 0x04db711c
_ZN3JSC18BooleanConstructorC2EPNS_9ExecStateEN3WTF10PassRefPtrINS_9StructureEEEPNS_16BooleanPrototypeE 0x04db724c
_ZN3JSC16constructBooleanEPNS_9ExecStateERKNS_7ArgListE 0x04db7490
_ZN3JSC13BooleanObjectC2EN3WTF10PassRefPtrINS_9StructureEEE 0x04db7684
_ZN3JSC13BooleanObjectC1EN3WTF10PassRefPtrINS_9StructureEEE 0x04db76bc
_ZN3JSC16BooleanPrototypeC2EPNS_9ExecStateEN3WTF10PassRefPtrINS_9StructureEEEPS5_ 0x04db7c1c
_ZN3JSC16BooleanPrototypeC1EPNS_9ExecStateEN3WTF10PassRefPtrINS_9StructureEEEPS5_ 0x04db7efc
_ZN3JSC9ByteArray6createEj 0x04db81dc
_ZN3JSC4callEPNS_9ExecStateENS_10JSValuePtrENS_8CallTypeERKNS_8CallDataES2_RKNS_7ArgListE 0x04db823c
_ZN3JSC4Heap15recordExtraCostEj 0x04db82c0
_ZN3JSC4Heap14registerThreadEv 0x04db82d0
_ZN3JSC4Heap11objectCountEv 0x04db82d4
_ZN3JSC4Heap17globalObjectCountEv 0x04db82e4
_ZN3JSC4Heap6isBusyEv 0x04db8324
_ZNK3JSC4Heap10statisticsEv 0x04db8344
_ZN3JSC4Heap14primaryHeapEndEv 0x04db83f4
_ZN3JSC4Heap16primaryHeapBeginEv 0x04db8448
_ZN3JSC4Heap20protectedObjectCountEv 0x04db8648
_ZN3JSC4Heap4heapENS_10JSValuePtrE 0x04db86b8
_ZN3JSC4HeapC2EPNS_12JSGlobalDataE 0x04db86d8
_ZN3JSC4Heap26protectedGlobalObjectCountEv 0x04db875c
_ZN3JSC4HeapC1EPNS_12JSGlobalDataE 0x04db8858
_ZN3JSC4HeapD2Ev 0x04db88dc
_ZN3JSC4Heap7destroyEv 0x04db8950
_ZN3JSC4Heap20markProtectedObjectsEv 0x04db8a7c
_ZN3JSC4Heap18markConservativelyEPvS1_ 0x04db8bc0
_ZN3JSC4Heap39markCurrentThreadConservativelyInternalEv 0x04db8d90
_ZN3JSC4Heap31markCurrentThreadConservativelyEv 0x04db8dcc
_ZN3JSC4Heap30markStackObjectsConservativelyEv 0x04db8e14
_ZN3JSC4Heap7collectEv 0x04db8e40
_ZN3JSC4Heap14allocateNumberEj 0x04db8ff8
_ZN3JSC4Heap8allocateEj 0x04db91e4
_ZN3JSC4Heap25protectedObjectTypeCountsEv 0x04db9428
_ZN3JSC4Heap24setGCProtectNeedsLockingEv 0x04db9648
_ZN3JSC4HeapD1Ev 0x04db9708
_ZN3JSC4Heap9unprotectENS_10JSValuePtrE 0x04db977c
_ZN3JSC4Heap7protectENS_10JSValuePtrE 0x04db988c
_ZN3JSC17CommonIdentifiersC1EPNS_12JSGlobalDataE 0x04db9944
_ZN3JSC17CommonIdentifiersC2EPNS_12JSGlobalDataE 0x04db9e80
_ZN3JSC9constructEPNS_9ExecStateENS_10JSValuePtrENS_13ConstructTypeERKNS_13ConstructDataERKNS_7ArgListE 0x04dba3bc
_ZN3JSC15DateConstructor16getConstructDataERNS_13ConstructDataE 0x04dba428
_ZN3JSC15DateConstructor11getCallDataERNS_8CallDataE 0x04dba43c
_ZN3JSC15DateConstructorC2EPNS_9ExecStateEN3WTF10PassRefPtrINS_9StructureEEEPS5_PNS_13DatePrototypeE 0x04dba8a8
_ZN3JSC15DateConstructorC1EPNS_9ExecStateEN3WTF10PassRefPtrINS_9StructureEEEPS5_PNS_13DatePrototypeE 0x04dbad84
_ZN3JSC13constructDateEPNS_9ExecStateERKNS_7ArgListE 0x04dbbd30
_ZNK3JSC12DateInstance10getUTCTimeERd 0x04dbc9a4
_ZN3JSC12DateInstanceD2Ev 0x04dbca78
_ZNK3JSC12DateInstance21msToGregorianDateTimeEdbRNS_17GregorianDateTimeE 0x04dbcc04
_ZNK3JSC12DateInstance7getTimeERdRi 0x04dbce5c
_ZNK3JSC12DateInstance10getUTCTimeERNS_17GregorianDateTimeE 0x04dbcff0
_ZNK3JSC12DateInstance7getTimeERNS_17GregorianDateTimeERi 0x04dbd128
_ZN3JSC12DateInstanceC1EN3WTF10PassRefPtrINS_9StructureEEE 0x04dbd278
_ZN3JSC12DateInstanceC2EN3WTF10PassRefPtrINS_9StructureEEE 0x04dbd2b4
_ZN3JSC12DateInstanceD0Ev 0x04dbd2f0
_ZN3JSC12DateInstanceD1Ev 0x04dbd4a4
_ZN3JSC20formatDateUTCVariantERKNS_17GregorianDateTimeE 0x04dbd630
_ZN3JSC10formatDateERKNS_17GregorianDateTimeE 0x04dbd700
_ZN3JSC8timeClipEd 0x04dbd7d0
_ZN3JSC12getUTCOffsetEv 0x04dbd9dc
_ZN3JSC12getLocalTimeEPKmP2tm 0x04dbda74
_ZN3JSC33getCurrentUTCTimeWithMicrosecondsEv 0x04dbdaa0
_ZN3JSC17getCurrentUTCTimeEv 0x04dbdb4c
_ZN3JSC10formatTimeERKNS_17GregorianDateTimeEb 0x04dbdb88
_ZN3JSC20equivalentYearForDSTEi 0x04dbe244
_ZN3JSC12initDateMathEv 0x04dbe338
_ZN3JSC21gregorianDateTimeToMSERKNS_17GregorianDateTimeEdb 0x04dbeb10
_ZN3JSC9parseDateERKNS_7UStringE 0x04dbec3c
_ZN3JSC21msToGregorianDateTimeEdbRNS_17GregorianDateTimeE 0x04dbfb5c
_ZN3JSC13DatePrototypeC1EPNS_9ExecStateEN3WTF10PassRefPtrINS_9StructureEEE 0x04dc0344
_ZN3JSC13DatePrototype18getOwnPropertySlotEPNS_9ExecStateERKNS_10IdentifierERNS_12PropertySlotE 0x04dc0414
_ZN3JSC13DatePrototypeC2EPNS_9ExecStateEN3WTF10PassRefPtrINS_9StructureEEE 0x04dc06fc
_ZN3JSC8DebuggerC1Ev 0x04dc6ba0
_ZN3JSC8Debugger6attachEPNS_14JSGlobalObjectE 0x04dc6bcc
_ZN3JSC8DebuggerC2Ev 0x04dc6c24
_ZN3JSC8Debugger6detachEPNS_14JSGlobalObjectE 0x04dc6c50
_ZN3JSC8DebuggerD1Ev 0x04dc6d10
_ZN3JSC8DebuggerD2Ev 0x04dc6df0
_ZN3JSC8DebuggerD0Ev 0x04dc6ed0
_ZNK3JSC17DebuggerCallFrame10thisObjectEv 0x04dc6fd0
_ZNK3JSC17DebuggerCallFrame12functionNameEv 0x04dc7018
_ZNK3JSC17DebuggerCallFrame4typeEv 0x04dc708c
_ZNK3JSC17DebuggerCallFrame8evaluateERKNS_7UStringERNS_10JSValuePtrE 0x04dc70a0
_ZN3WTF8freedtoaEPc 0x04dc811c
_ZN3WTF4dtoaEdiPiS0_PPc 0x04dc8610
_ZN3WTF6strtodEPKcPPc 0x04dc90e0
_ZN3JSC5Error6createEPNS_9ExecStateENS_9ErrorTypeERKNS_7UStringEiiS6_ 0x04dca4d8
_ZN3JSC10throwErrorEPNS_9ExecStateENS_9ErrorTypeERKNS_7UStringEiiS5_ 0x04dcac2c
_ZN3JSC10throwErrorEPNS_9ExecStateENS_9ErrorTypeEPKc 0x04dcac70
_ZN3JSC10throwErrorEPNS_9ExecStateENS_9ErrorTypeERKNS_7UStringE 0x04dcadc8
_ZN3JSC10throwErrorEPNS_9ExecStateENS_9ErrorTypeE 0x04dcaecc
_ZN3JSC5Error6createEPNS_9ExecStateENS_9ErrorTypeEPKc 0x04dcb010
_ZN3JSC16ErrorConstructor16getConstructDataERNS_13ConstructDataE 0x04dcb150
_ZN3JSC16ErrorConstructor11getCallDataERNS_8CallDataE 0x04dcb164
_ZN3JSC16ErrorConstructorC1EPNS_9ExecStateEN3WTF10PassRefPtrINS_9StructureEEEPNS_14ErrorPrototypeE 0x04dcb178
_ZN3JSC16ErrorConstructorC2EPNS_9ExecStateEN3WTF10PassRefPtrINS_9StructureEEEPNS_14ErrorPrototypeE 0x04dcb3bc
_ZN3JSC14constructErrorEPNS_9ExecStateERKNS_7ArgListE 0x04dcb600
_ZN3JSC13ErrorInstanceC1EN3WTF10PassRefPtrINS_9StructureEEE 0x04dcba0c
_ZN3JSC13ErrorInstanceC2EN3WTF10PassRefPtrINS_9StructureEEE 0x04dcba40
_ZN3JSC14ErrorPrototypeC2EPNS_9ExecStateEN3WTF10PassRefPtrINS_9StructureEEEPS5_ 0x04dcc2e4
_ZN3JSC14ErrorPrototypeC1EPNS_9ExecStateEN3WTF10PassRefPtrINS_9StructureEEEPS5_ 0x04dcc7ac
_ZN3JSC9ExecState9thisValueEv 0x04dccc74
_ZN3JSC19FunctionConstructor16getConstructDataERNS_13ConstructDataE 0x04dccc88
_ZN3JSC19FunctionConstructor11getCallDataERNS_8CallDataE 0x04dccc9c
_ZN3JSC19FunctionConstructorC1EPNS_9ExecStateEN3WTF10PassRefPtrINS_9StructureEEEPNS_17FunctionPrototypeE 0x04dcccb0
_ZN3JSC19FunctionConstructorC2EPNS_9ExecStateEN3WTF10PassRefPtrINS_9StructureEEEPNS_17FunctionPrototypeE 0x04dccef4
_ZN3JSC17constructFunctionEPNS_9ExecStateERKNS_7ArgListERKNS_10IdentifierERKNS_7UStringEi 0x04dcd138
_ZN3JSC17constructFunctionEPNS_9ExecStateERKNS_7ArgListE 0x04dcdf24
_ZN3JSC17FunctionPrototype11getCallDataERNS_8CallDataE 0x04dce0b4
_ZN3JSC17FunctionPrototypeC2EPNS_9ExecStateEN3WTF10PassRefPtrINS_9StructureEEE 0x04dcec14
_ZN3JSC17FunctionPrototype21addFunctionPropertiesEPNS_9ExecStateEPNS_9StructureE 0x04dced70
_ZN3JSC17FunctionPrototypeC1EPNS_9ExecStateEN3WTF10PassRefPtrINS_9StructureEEE 0x04dcf090
_ZN3JSC12GetterSetter18getPrimitiveNumberEPNS_9ExecStateERdRNS_10JSValuePtrE 0x04dcf960
_ZNK3JSC12GetterSetter9toBooleanEPNS_9ExecStateE 0x04dcf97c
_ZNK3JSC12GetterSetter8toNumberEPNS_9ExecStateE 0x04dcf984
_ZNK3JSC12GetterSetter14isGetterSetterEv 0x04dcf990
_ZNK3JSC12GetterSetter8toObjectEPNS_9ExecStateE 0x04dcf998
_ZNK3JSC12GetterSetter8toStringEPNS_9ExecStateE 0x04dcf9d0
_ZNK3JSC12GetterSetter11toPrimitiveEPNS_9ExecStateENS_22PreferredPrimitiveTypeE 0x04dcfa28
_ZN3JSC12GetterSetter4markEv 0x04dcfa30
_ZN3JSC18GlobalEvalFunction4markEv 0x04dcfb30
_ZN3JSC18GlobalEvalFunctionC1EPNS_9ExecStateEN3WTF10PassRefPtrINS_9StructureEEEiRKNS_10IdentifierEPFNS_10JSValuePtrES2_PNS_8JSObjectESA_RKNS_7ArgListEEPNS_14JSGlobalObjectE 0x04dcfbac
_ZN3JSC18GlobalEvalFunctionC2EPNS_9ExecStateEN3WTF10PassRefPtrINS_9StructureEEEiRKNS_10IdentifierEPFNS_10JSValuePtrES2_PNS_8JSObjectESA_RKNS_7ArgListEEPNS_14JSGlobalObjectE 0x04dcfc90
_ZN3JSC10Identifier5equalEPKNS_7UString3RepEPKc 0x04dcfd74
_ZN3JSC10Identifier5equalEPKNS_7UString3RepEPKti 0x04dcfdec
_ZN3JSC10Identifier24checkSameIdentifierTableEPNS_9ExecStateEPNS_7UString3RepE 0x04dcfe64
_ZN3JSC10Identifier24checkSameIdentifierTableEPNS_12JSGlobalDataEPNS_7UString3RepE 0x04dcfe68
_ZN3JSC21createIdentifierTableEv 0x04dcfe6c
_ZN3JSC21deleteIdentifierTableEPNS_15IdentifierTableE 0x04dcfecc
_ZN3JSC10Identifier6removeEPNS_7UString3RepE 0x04dcffbc
_ZN3JSC10Identifier11addSlowCaseEPNS_12JSGlobalDataEPNS_7UString3RepE 0x04dd004c
_ZN3JSC10Identifier11addSlowCaseEPNS_9ExecStateEPNS_7UString3RepE 0x04dd01ec
_ZN3JSC10Identifier3addEPNS_12JSGlobalDataEPKti 0x04dd0230
_ZN3JSC10Identifier3addEPNS_9ExecStateEPKti 0x04dd03e0
_ZN3JSC10Identifier3addEPNS_12JSGlobalDataEPKc 0x04dd0424
_ZN3JSC10Identifier3addEPNS_9ExecStateEPKc 0x04dd06c0
_ZNK3JSC16InternalFunction9classInfoEv 0x04dd0704
_ZN3JSC16InternalFunction4nameEPNS_12JSGlobalDataE 0x04dd0710
_ZN3JSC16InternalFunctionC2EPNS_12JSGlobalDataEN3WTF10PassRefPtrINS_9StructureEEERKNS_10IdentifierE 0x04dd087c
_ZN3JSC16InternalFunctionC1EPNS_12JSGlobalDataEN3WTF10PassRefPtrINS_9StructureEEERKNS_10IdentifierE 0x04dd0b88
_ZN3JSC11checkSyntaxEPNS_9ExecStateERKNS_10SourceCodeE 0x04dd0e94
_ZN3JSC8evaluateEPNS_9ExecStateERNS_10ScopeChainERKNS_10SourceCodeENS_10JSValuePtrE 0x04dd1090
_ZN3JSC7JSArray16lazyCreationDataEv 0x04dd1414
_ZN3JSC7JSArray19setLazyCreationDataEPv 0x04dd1420
_ZN3JSC7JSArray20increaseVectorLengthEj 0x04dd1460
_ZN3JSC7JSArray14deletePropertyEPNS_9ExecStateERKNS_10IdentifierE 0x04dd1530
_ZN3JSC7JSArray11fillArgListEPNS_9ExecStateERNS_7ArgListE 0x04dd1678
_ZN3JSC7JSArrayC2EN3WTF10PassRefPtrINS_9StructureEEE 0x04dd19d8
_ZN3JSC7JSArrayD1Ev 0x04dd1a60
_ZN3JSC7JSArray17compactForSortingEv 0x04dd1be4
_ZN3JSC7JSArray4sortEPNS_9ExecStateE 0x04dd1ed4
_ZN3JSC7JSArray4markEv 0x04dd2294
_ZN3JSC7JSArray9setLengthEj 0x04dd2450
_ZN3JSC7JSArray3putEPNS_9ExecStateERKNS_10IdentifierENS_10JSValuePtrERNS_15PutPropertySlotE 0x04dd26d4
_ZN3JSC7JSArray3popEv 0x04dd29b4
_ZN3JSC7JSArrayC2EPNS_9ExecStateEN3WTF10PassRefPtrINS_9StructureEEERKNS_7ArgListE 0x04dd2b8c
_ZN3JSC7JSArrayC1EN3WTF10PassRefPtrINS_9StructureEEEj 0x04dd2c6c
_ZN3JSC7JSArrayC2EN3WTF10PassRefPtrINS_9StructureEEEj 0x04dd2d5c
_ZN3JSC7JSArrayD2Ev 0x04dd2e4c
_ZN3JSC7JSArrayD0Ev 0x04dd2fd0
_ZN3JSC7JSArray16getPropertyNamesEPNS_9ExecStateERNS_17PropertyNameArrayE 0x04dd3178
_ZN3JSC7JSArray14deletePropertyEPNS_9ExecStateEj 0x04dd34e8
_ZN3JSC7JSArray11putSlowCaseEPNS_9ExecStateEjNS_10JSValuePtrE 0x04dd375c
_ZN3JSC7JSArray4pushEPNS_9ExecStateENS_10JSValuePtrE 0x04dd3e94
_ZN3JSC7JSArray3putEPNS_9ExecStateEjNS_10JSValuePtrE 0x04dd3fe8
_ZN3JSC7JSArray18getOwnPropertySlotEPNS_9ExecStateEjRNS_12PropertySlotE 0x04dd40b0
_ZN3JSC7JSArray18getOwnPropertySlotEPNS_9ExecStateERKNS_10IdentifierERNS_12PropertySlotE 0x04dd42f0
_ZN3JSC7JSArrayC1EN3WTF10PassRefPtrINS_9StructureEEE 0x04dd4614
_ZN3JSC19constructEmptyArrayEPNS_9ExecStateE 0x04dd469c
_ZN3JSC19constructEmptyArrayEPNS_9ExecStateEj 0x04dd47b4
_ZN3JSC7JSArrayC1EPNS_9ExecStateEN3WTF10PassRefPtrINS_9StructureEEERKNS_7ArgListE 0x04dd48d4
_ZN3JSC14constructArrayEPNS_9ExecStateERKNS_7ArgListE 0x04dd49b4
_ZN3JSC14constructArrayEPNS_9ExecStateENS_10JSValuePtrE 0x04dd4ae8
_ZN3JSC7JSArray4sortEPNS_9ExecStateENS_10JSValuePtrENS_8CallTypeERKNS_8CallDataE 0x04dd4d00
_ZN3JSC11JSByteArray3putEPNS_9ExecStateEjNS_10JSValuePtrE 0x04dd60cc
_ZN3JSC11JSByteArray15createStructureENS_10JSValuePtrE 0x04dd6104
_ZN3JSC11JSByteArray3putEPNS_9ExecStateERKNS_10IdentifierENS_10JSValuePtrERNS_15PutPropertySlotE 0x04dd618c
_ZN3JSC11JSByteArray18getOwnPropertySlotEPNS_9ExecStateERKNS_10IdentifierERNS_12PropertySlotE 0x04dd627c
_ZN3JSC11JSByteArray18getOwnPropertySlotEPNS_9ExecStateEjRNS_12PropertySlotE 0x04dd6544
_ZN3JSC11JSByteArray16getPropertyNamesEPNS_9ExecStateERNS_17PropertyNameArrayE 0x04dd6890
_ZN3JSC11JSByteArrayC1EPNS_9ExecStateEN3WTF10PassRefPtrINS_9StructureEEEPNS_9ByteArrayEPKNS_9ClassInfoE 0x04dd6a5c
_ZN3JSC11JSByteArrayC2EPNS_9ExecStateEN3WTF10PassRefPtrINS_9StructureEEEPNS_9ByteArrayEPKNS_9ClassInfoE 0x04dd6d90
_ZNK3JSC6JSCell9getUInt32ERj 0x04dd70c4
_ZNK3JSC6JSCell17getTruncatedInt32ERi 0x04dd70cc
_ZNK3JSC6JSCell18getTruncatedUInt32ERj 0x04dd70d4
_ZNK3JSC6JSCell9getNumberEv 0x04dd70dc
_ZN3JSC6JSCell9getObjectEv 0x04dd7104
_ZN3JSC6JSCell11getCallDataERNS_8CallDataE 0x04dd7124
_ZN3JSC6JSCell16getConstructDataERNS_13ConstructDataE 0x04dd712c
_ZN3JSC6JSCell3putEPNS_9ExecStateERKNS_10IdentifierENS_10JSValuePtrERNS_15PutPropertySlotE 0x04dd7134
_ZN3JSC6JSCell3putEPNS_9ExecStateEjNS_10JSValuePtrE 0x04dd71b4
_ZN3JSC6JSCell14deletePropertyEPNS_9ExecStateERKNS_10IdentifierE 0x04dd7224
_ZN3JSC6JSCell14deletePropertyEPNS_9ExecStateEj 0x04dd7280
_ZNK3JSC6JSCell12toThisObjectEPNS_9ExecStateE 0x04dd72dc
_ZNK3JSC6JSCell12toThisStringEPNS_9ExecStateE 0x04dd7308
_ZNK3JSC6JSCell9classInfoEv 0x04dd7374
_ZN3JSC6JSCell11getJSNumberEv 0x04dd737c
_ZNK3JSC6JSCell14isGetterSetterEv 0x04dd7384
_GLOBAL__I__ZN3JSC3NaNE 0x04dd73c8
_ZN3JSC6JSCell14toThisJSStringEPNS_9ExecStateE 0x04dd7400
_ZN3JSC6JSCellnwEjPNS_9ExecStateE 0x04dd74c4
_ZN3JSC6JSCell18getOwnPropertySlotEPNS_9ExecStateERKNS_10IdentifierERNS_12PropertySlotE 0x04dd7500
_ZNK3JSC6JSCell9getStringEv 0x04dd77e0
_ZNK3JSC6JSCell9getObjectEv 0x04dd782c
_ZNK3JSC6JSCell9getNumberERd 0x04dd784c
_ZN3JSC6JSCell18getOwnPropertySlotEPNS_9ExecStateEjRNS_12PropertySlotE 0x04dd7878
_ZNK3JSC6JSCell9getStringERNS_7UStringE 0x04dd7968
_ZN3JSC10JSFunction11getCallDataERNS_8CallDataE 0x04dd7a08
_ZN3JSC10JSFunction14deletePropertyEPNS_9ExecStateERKNS_10IdentifierE 0x04dd7a24
_ZN3JSC10JSFunction3putEPNS_9ExecStateERKNS_10IdentifierENS_10JSValuePtrERNS_15PutPropertySlotE 0x04dd7a98
_ZN3JSC10JSFunction15argumentsGetterEPNS_9ExecStateERKNS_10IdentifierERKNS_12PropertySlotE 0x04dd7b08
_ZN3JSC10JSFunction16getConstructDataERNS_13ConstructDataE 0x04dd7b48
_ZN3JSC10JSFunction12lengthGetterEPNS_9ExecStateERKNS_10IdentifierERKNS_12PropertySlotE 0x04dd7b64
_ZN3JSC10JSFunction12callerGetterEPNS_9ExecStateERKNS_10IdentifierERKNS_12PropertySlotE 0x04dd7b9c
_ZN3JSC10JSFunction4markEv 0x04dd7bdc
_ZN3JSC10JSFunction4callEPNS_9ExecStateENS_10JSValuePtrERKNS_7ArgListE 0x04dd7c9c
_ZN3JSC10JSFunctionD2Ev 0x04dd7f3c
_ZN3JSC10JSFunction9constructEPNS_9ExecStateERKNS_7ArgListE 0x04dd8110
_ZN3JSC10JSFunctionC1EPNS_9ExecStateERKNS_10IdentifierEPNS_16FunctionBodyNodeEPNS_14ScopeChainNodeE 0x04dd8564
_ZN3JSC10JSFunctionC2EPNS_9ExecStateERKNS_10IdentifierEPNS_16FunctionBodyNodeEPNS_14ScopeChainNodeE 0x04dd86f0
_ZN3JSC10JSFunction18getOwnPropertySlotEPNS_9ExecStateERKNS_10IdentifierERNS_12PropertySlotE 0x04dd887c
_ZN3JSC10JSFunctionD0Ev 0x04dd9254
_ZN3JSC10JSFunctionD1Ev 0x04dd944c
_ZN3JSC16parseIntOverflowEPKcii 0x04dd9680
_ZN3JSC15isStrWhiteSpaceEt 0x04dd97b0
_ZN3JSC28globalFuncEncodeURIComponentEPNS_9ExecStateEPNS_8JSObjectENS_10JSValuePtrERKNS_7ArgListE 0x04dd9b58
_ZN3JSC19globalFuncEncodeURIEPNS_9ExecStateEPNS_8JSObjectENS_10JSValuePtrERKNS_7ArgListE 0x04dd9b90
_ZN3JSC18globalFuncIsFiniteEPNS_9ExecStateEPNS_8JSObjectENS_10JSValuePtrERKNS_7ArgListE 0x04dd9bc8
_ZN3JSC15globalFuncIsNaNEPNS_9ExecStateEPNS_8JSObjectENS_10JSValuePtrERKNS_7ArgListE 0x04dd9cec
_ZN3JSC18globalFuncUnescapeEPNS_9ExecStateEPNS_8JSObjectENS_10JSValuePtrERKNS_7ArgListE 0x04dd9de8
_ZN3JSC16globalFuncEscapeEPNS_9ExecStateEPNS_8JSObjectENS_10JSValuePtrERKNS_7ArgListE 0x04dda118
_ZN3JSC20globalFuncParseFloatEPNS_9ExecStateEPNS_8JSObjectENS_10JSValuePtrERKNS_7ArgListE 0x04dda5c0
_ZN3JSC18globalFuncParseIntEPNS_9ExecStateEPNS_8JSObjectENS_10JSValuePtrERKNS_7ArgListE 0x04dda83c
_ZN3JSC14globalFuncEvalEPNS_9ExecStateEPNS_8JSObjectENS_10JSValuePtrERKNS_7ArgListE 0x04ddaed4
_ZN3JSC28globalFuncDecodeURIComponentEPNS_9ExecStateEPNS_8JSObjectENS_10JSValuePtrERKNS_7ArgListE 0x04ddb8ec
_ZN3JSC19globalFuncDecodeURIEPNS_9ExecStateEPNS_8JSObjectENS_10JSValuePtrERKNS_7ArgListE 0x04ddb928
_ZN3JSC11JSImmediate12nonInlineNaNEv 0x04ddb964
_ZN3JSC11JSImmediate8toStringENS_10JSValuePtrE 0x04ddb970
_ZN3JSC11JSImmediate8toObjectENS_10JSValuePtrEPNS_9ExecStateE 0x04ddba20
_ZN3JSC11JSImmediate12toThisObjectENS_10JSValuePtrEPNS_9ExecStateE 0x04ddbb84
_ZN3JSC11JSImmediate9prototypeENS_10JSValuePtrEPNS_9ExecStateE 0x04ddbcfc
_ZN3JSC6JSLockC1EPNS_9ExecStateE 0x04ddbe94
_ZN3JSC6JSLock9lockCountEv 0x04ddbea0
_ZN3JSC6JSLock26currentThreadIsHoldingLockEv 0x04ddbea8
_ZN3JSC6JSLock4lockEb 0x04ddbeb0
_ZN3JSC6JSLock6unlockEb 0x04ddbeb4
_ZN3JSC6JSLock4lockEPNS_9ExecStateE 0x04ddbeb8
_ZN3JSC6JSLock6unlockEPNS_9ExecStateE 0x04ddbebc
_ZN3JSC6JSLock12DropAllLocksD2Ev 0x04ddbec0
_ZN3JSC6JSLockC2EPNS_9ExecStateE 0x04ddbec4
_ZN3JSC6JSLock12DropAllLocksC1Eb 0x04ddbed0
_ZN3JSC6JSLock12DropAllLocksC2Eb 0x04ddbed4
_ZN3JSC6JSLock12DropAllLocksC1EPNS_9ExecStateE 0x04ddbed8
_ZN3JSC6JSLock12DropAllLocksC2EPNS_9ExecStateE 0x04ddbedc
_ZN3JSC6JSLock12DropAllLocksD1Ev 0x04ddbee0
_ZN3JSC12JSNumberCell18getPrimitiveNumberEPNS_9ExecStateERdRNS_10JSValuePtrE 0x04ddbee4
_ZNK3JSC12JSNumberCell9toBooleanEPNS_9ExecStateE 0x04ddbefc
_ZNK3JSC12JSNumberCell8toNumberEPNS_9ExecStateE 0x04ddbf20
_ZNK3JSC12JSNumberCell9getUInt32ERj 0x04ddbf28
_ZNK3JSC12JSNumberCell17getTruncatedInt32ERi 0x04ddbfdc
_ZNK3JSC12JSNumberCell18getTruncatedUInt32ERj 0x04ddc018
_ZNK3JSC12JSNumberCell12toThisObjectEPNS_9ExecStateE 0x04ddc088
_ZNK3JSC12JSNumberCell8toObjectEPNS_9ExecStateE 0x04ddc0c0
_ZNK3JSC12JSNumberCell12toThisStringEPNS_9ExecStateE 0x04ddc0f8
_ZNK3JSC12JSNumberCell8toStringEPNS_9ExecStateE 0x04ddc178
_ZNK3JSC12JSNumberCell11toPrimitiveEPNS_9ExecStateENS_22PreferredPrimitiveTypeE 0x04ddc1f8
_ZN3JSC12jsNumberCellEPNS_12JSGlobalDataEd 0x04ddc1fc
_ZN3JSC12jsNumberCellEPNS_9ExecStateEd 0x04ddc260
_ZN3JSC12JSNumberCell11getJSNumberEv 0x04ddc2d4
_ZN3JSC5jsNaNEPNS_12JSGlobalDataE 0x04ddc2d8
_ZN3JSC5jsNaNEPNS_9ExecStateE 0x04ddc338
_ZNK3JSC8JSObject20propertyIsEnumerableEPNS_9ExecStateERKNS_10IdentifierE 0x04ddc3a8
_ZNK3JSC8JSObject9toBooleanEPNS_9ExecStateE 0x04ddc3f0
_ZNK3JSC8JSObject8toObjectEPNS_9ExecStateE 0x04ddc3f8
_ZNK3JSC8JSObject12toThisObjectEPNS_9ExecStateE 0x04ddc3fc
_ZN3JSC8JSObject15unwrappedObjectEv 0x04ddc400
_ZN3JSC8JSObject23allocatePropertyStorageEjj 0x04ddc404
_ZNK3JSC8JSObject9classNameEv 0x04ddc4d8
_ZN3JSC8JSObject16getPropertyNamesEPNS_9ExecStateERNS_17PropertyNameArrayE 0x04ddc56c
_ZNK3JSC8JSObject21findPropertyHashEntryEPNS_9ExecStateERKNS_10IdentifierE 0x04ddc5a0
_ZNK3JSC8JSObject8toNumberEPNS_9ExecStateE 0x04ddc698
_ZN3JSC8JSObject22fillGetterPropertySlotERNS_12PropertySlotEPNS_10JSValuePtrE 0x04ddc784
_ZNK3JSC8JSObject14hasOwnPropertyEPNS_9ExecStateERKNS_10IdentifierE 0x04ddc7c0
_ZNK3JSC8JSObject11hasPropertyEPNS_9ExecStateEj 0x04ddc804
_ZNK3JSC8JSObject21getPropertyAttributesEPNS_9ExecStateERKNS_10IdentifierERj 0x04ddc8dc
_ZNK3JSC8JSObject8toStringEPNS_9ExecStateE 0x04ddc9ac
_ZN3JSC8JSObject11hasInstanceEPNS_9ExecStateENS_10JSValuePtrES3_ 0x04ddcaac
_ZN3JSC8JSObject17putWithAttributesEPNS_9ExecStateEjNS_10JSValuePtrEj 0x04ddcb70
_ZN3JSC8JSObject4markEv 0x04ddccf0
_ZN3JSC8JSObject18getPrimitiveNumberEPNS_9ExecStateERdRNS_10JSValuePtrE 0x04ddce60
_ZN3JSC8JSObject34putDirectFunctionWithoutTransitionEPNS_9ExecStateEPNS_16InternalFunctionEj 0x04ddcf54
_ZN3JSC8JSObject12lookupGetterEPNS_9ExecStateERKNS_10IdentifierE 0x04ddd0b8
_ZNK3JSC8JSObject11hasPropertyEPNS_9ExecStateERKNS_10IdentifierE 0x04ddd28c
_ZN3JSC8JSObject12lookupSetterEPNS_9ExecStateERKNS_10IdentifierE 0x04ddd51c
_ZN3JSC8JSObject3putEPNS_9ExecStateEjNS_10JSValuePtrE 0x04ddd6f0
_ZN3JSC8JSObject18getOwnPropertySlotEPNS_9ExecStateEjRNS_12PropertySlotE 0x04ddd870
_ZN3JSC8JSObject14deletePropertyEPNS_9ExecStateEj 0x04ddd9e4
_ZNK3JSC8JSObject12defaultValueEPNS_9ExecStateENS_22PreferredPrimitiveTypeE 0x04dddb44
_ZN3JSC20constructEmptyObjectEPNS_9ExecStateE 0x04dde8b4
_ZN3JSC8JSObject17createInheritorIDEv 0x04dde968
_ZN3JSC8JSObject12removeDirectERKNS_10IdentifierE 0x04ddea64
_ZN3JSC8JSObject14deletePropertyEPNS_9ExecStateERKNS_10IdentifierE 0x04ddeb88
_ZN3JSC8JSObject12defineSetterEPNS_9ExecStateERKNS_10IdentifierEPS0_ 0x04ddec8c
_ZN3JSC8JSObject12defineGetterEPNS_9ExecStateERKNS_10IdentifierEPS0_ 0x04ddef38
_ZN3JSC8JSObject3putEPNS_9ExecStateERKNS_10IdentifierENS_10JSValuePtrERNS_15PutPropertySlotE 0x04ddf1e4
_ZN3JSC8JSObject17putWithAttributesEPNS_9ExecStateERKNS_10IdentifierENS_10JSValuePtrEj 0x04ddf72c
_ZN3JSC8JSObject17putDirectFunctionEPNS_9ExecStateEPNS_16InternalFunctionEj 0x04ddf784
_ZNK3JSC8JSString11toPrimitiveEPNS_9ExecStateENS_22PreferredPrimitiveTypeE 0x04ddf8c8
_ZNK3JSC8JSString9toBooleanEPNS_9ExecStateE 0x04ddf8cc
_ZNK3JSC8JSString8toStringEPNS_9ExecStateE 0x04ddf8e4
_ZN3JSC8JSString14toThisJSStringEPNS_9ExecStateE 0x04ddf904
_ZNK3JSC8JSString12toThisObjectEPNS_9ExecStateE 0x04ddf908
_ZNK3JSC8JSString8toNumberEPNS_9ExecStateE 0x04ddfa24
_ZN3JSC8JSString18getPrimitiveNumberEPNS_9ExecStateERdRNS_10JSValuePtrE 0x04ddfa54
_ZNK3JSC8JSString12toThisStringEPNS_9ExecStateE 0x04ddfa9c
_ZN3JSC13jsOwnedStringEPNS_12JSGlobalDataERKNS_7UStringE 0x04ddfabc
_ZNK3JSC8JSString8toObjectEPNS_9ExecStateE 0x04ddfbf8
_ZN3JSC8JSString18getOwnPropertySlotEPNS_9ExecStateERKNS_10IdentifierERNS_12PropertySlotE 0x04ddfd14
_ZN3JSC8JSString18getOwnPropertySlotEPNS_9ExecStateEjRNS_12PropertySlotE 0x04de0098
_ZN3JSC11jsSubstringEPNS_12JSGlobalDataERKNS_7UStringEjj 0x04de03d8
_ZN3JSC8jsStringEPNS_12JSGlobalDataERKNS_7UStringE 0x04de061c
_ZN3JSC15toInt32SlowCaseEdRb 0x04de07b8
_ZN3JSC16toUInt32SlowCaseEdRb 0x04de0928
_ZNK3JSC7JSValue16toUInt32SlowCaseEPNS_9ExecStateERb 0x04de0ae0
_ZNK3JSC7JSValue9toIntegerEPNS_9ExecStateE 0x04de0bac
_ZNK3JSC7JSValue15toInt32SlowCaseEPNS_9ExecStateERb 0x04de0d88
_ZNK3JSC7JSValue20toIntegerPreserveNaNEPNS_9ExecStateE 0x04de0e54
_ZNK3JSC7JSValue7toFloatEPNS_9ExecStateE 0x04de0fdc
_ZN3JSC15JSWrapperObject4markEv 0x04de1078
_ZN3JSC5Lexer5shiftEj 0x04de1108
_ZN3JSC5Lexer7setCodeERKNS_10SourceCodeE 0x04de11a8
_ZN3JSC5Lexer8nextLineEv 0x04de1260
_ZN3JSC5Lexer7setDoneENS0_5StateE 0x04de1278
_ZN3JSC5Lexer16isLineTerminatorEv 0x04de1288
_ZN3JSC5Lexer10isHexDigitEi 0x04de12f4
_ZN3JSC5Lexer12isOctalDigitEi 0x04de1320
_ZN3JSC5Lexer15matchPunctuatorERiiiii 0x04de1334
_ZN3JSC5Lexer12singleEscapeEt 0x04de1804
_ZN3JSC5Lexer12convertOctalEiii 0x04de1878
_ZN3JSC5Lexer10convertHexEi 0x04de1894
_ZN3JSC5Lexer10convertHexEii 0x04de18c8
_ZN3JSC5Lexer14convertUnicodeEiiii 0x04de1928
_ZN3JSC5Lexer12isIdentStartEi 0x04de19c8
_ZNK3JSC5Lexer12isWhiteSpaceEv 0x04de1a50
_ZN3JSC5Lexer11isIdentPartEi 0x04de1aac
_ZN3JSC5Lexer8record16Et 0x04de1b38
_ZN3JSC5Lexer8record16Ei 0x04de1bcc
_ZN3JSC5Lexer7record8Ei 0x04de1bfc
_ZN3JSC5LexerC1EPNS_12JSGlobalDataE 0x04de1c8c
_ZN3JSC5LexerC2EPNS_12JSGlobalDataE 0x04de1e74
_ZN3JSC5Lexer5clearEv 0x04de205c
_ZN3JSC5Lexer10scanRegExpEv 0x04de2304
_ZN3JSC5LexerD1Ev 0x04de2628
_ZN3JSC5LexerD2Ev 0x04de28f4
_ZN3JSC5Lexer3lexEPvS1_ 0x04de2bc0
_Z8jscyylexPvS_S_ 0x04de43c4
_ZNK3JSC9HashTable11createTableEPNS_12JSGlobalDataE 0x04de4404
_ZNK3JSC9HashTable11deleteTableEv 0x04de4538
_ZN3JSC23setUpStaticFunctionSlotEPNS_9ExecStateEPKNS_9HashEntryEPNS_8JSObjectERKNS_10IdentifierERNS_12PropertySlotE 0x04de4614
_ZN3JSC10MathObject18getOwnPropertySlotEPNS_9ExecStateERKNS_10IdentifierERNS_12PropertySlotE 0x04de4b68
_ZN3JSC10MathObjectC2EPNS_9ExecStateEN3WTF10PassRefPtrINS_9StructureEEE 0x04de5510
_ZN3JSC10MathObjectC1EPNS_9ExecStateEN3WTF10PassRefPtrINS_9StructureEEE 0x04de76f8
_ZN3JSC22NativeErrorConstructor16getConstructDataERNS_13ConstructDataE 0x04de81ac
_ZN3JSC22NativeErrorConstructor11getCallDataERNS_8CallDataE 0x04de81c0
_ZN3JSC22NativeErrorConstructor9constructEPNS_9ExecStateERKNS_7ArgListE 0x04de81d4
_ZN3JSC22NativeErrorConstructorC1EPNS_9ExecStateEN3WTF10PassRefPtrINS_9StructureEEEPNS_20NativeErrorPrototypeE 0x04de841c
_ZN3JSC22NativeErrorConstructorC2EPNS_9ExecStateEN3WTF10PassRefPtrINS_9StructureEEEPNS_20NativeErrorPrototypeE 0x04de8808
_ZN3JSC20NativeErrorPrototypeC2EPNS_9ExecStateEN3WTF10PassRefPtrINS_9StructureEEERKNS_7UStringES9_ 0x04de8bf4
_ZN3JSC20NativeErrorPrototypeC1EPNS_9ExecStateEN3WTF10PassRefPtrINS_9StructureEEERKNS_7UStringES9_ 0x04de908c
_ZN3JSC16ParserRefCounted12releaseNodesERNS_12NodeReleaserE 0x04de9524
_ZN3JSC13StatementNode6setLocEii 0x04de9528
_ZN3JSC18EmptyStatementNode12emitBytecodeERNS_17BytecodeGeneratorEPNS_10RegisterIDE 0x04de9534
_ZN3JSC16FunctionBodyNode13finishParsingEPNS_10IdentifierEj 0x04de953c
_ZN3JSC13ConstDeclNode12emitBytecodeERNS_17BytecodeGeneratorEPNS_10RegisterIDE 0x04de9548
_ZN3JSC16ParserRefCountedD2Ev 0x04de95ac
_ZN3JSC16ParserRefCounted16deleteNewObjectsEPNS_12JSGlobalDataE 0x04de95bc
_ZN3JSC12FuncDeclNode12makeFunctionEPNS_9ExecStateEPNS_14ScopeChainNodeE 0x04de964c
_ZN3JSC16ParserRefCountedC1EPNS_12JSGlobalDataE 0x04de96dc
_ZN3JSC16ParserRefCountedC2EPNS_12JSGlobalDataE 0x04de9788
_ZN3JSC4NodeC1EPNS_12JSGlobalDataE 0x04de9834
_ZN3JSC4NodeC2EPNS_12JSGlobalDataE 0x04de9890
_ZN3JSC13StatementNodeC1EPNS_12JSGlobalDataE 0x04de98ec
_ZN3JSC13StatementNodeC2EPNS_12JSGlobalDataE 0x04de9938
_ZN3JSC9ScopeNodeC1EPNS_12JSGlobalDataE 0x04de9984
_ZN3JSC9ScopeNodeC2EPNS_12JSGlobalDataE 0x04de99e8
_ZN3JSC16FunctionBodyNodeC1EPNS_12JSGlobalDataE 0x04de9a4c
_ZN3JSC16FunctionBodyNode6createEPNS_12JSGlobalDataE 0x04de9aa4
_ZN3JSC16FunctionBodyNodeC2EPNS_12JSGlobalDataE 0x04de9b04
_ZN3JSC16FunctionBodyNode14copyParametersEv 0x04de9b5c
_ZNK3JSC16FunctionBodyNode11paramStringEv 0x04de9bec
_ZN3JSC21DebuggerStatementNode12emitBytecodeERNS_17BytecodeGeneratorEPNS_10RegisterIDE 0x04de9cf4
_ZN3JSC8NullNode12emitBytecodeERNS_17BytecodeGeneratorEPNS_10RegisterIDE 0x04de9d44
_ZN3JSC16FunctionBodyNode4markEv 0x04de9d9c
_ZNK3JSC11ResolveNode6isPureERNS_17BytecodeGeneratorE 0x04de9e80
_ZN3JSC12FuncDeclNode12emitBytecodeERNS_17BytecodeGeneratorEPNS_10RegisterIDE 0x04de9eb8
_ZN3JSC8ThisNode12emitBytecodeERNS_17BytecodeGeneratorEPNS_10RegisterIDE 0x04de9ed8
_ZN3JSC10StringNode12emitBytecodeERNS_17BytecodeGeneratorEPNS_10RegisterIDE 0x04de9f3c
_ZN3JSC10NumberNode12emitBytecodeERNS_17BytecodeGeneratorEPNS_10RegisterIDE 0x04de9f90
_ZN3JSC11BooleanNode12emitBytecodeERNS_17BytecodeGeneratorEPNS_10RegisterIDE 0x04de9fe8
_ZN3JSC16ParserRefCountedD0Ev 0x04dea040
_ZN3JSC16ParserRefCountedD1Ev 0x04dea078
_ZN3JSC13CaseBlockNode18tryOptimizedSwitchERN3WTF6VectorIPNS_14ExpressionNodeELj8EEERiS7_ 0x04dea334
_ZN3JSC16ParserRefCounted3refEv 0x04dea4b4
_ZN3JSC16ParserRefCounted5derefEv 0x04dea600
_ZN3JSC13ConstDeclNodeC1EPNS_12JSGlobalDataERKNS_10IdentifierEPNS_14ExpressionNodeE 0x04dea6f8
_ZN3JSC16ParserRefCounted9hasOneRefEv 0x04dea7a0
_ZN3JSC13ConstDeclNodeC2EPNS_12JSGlobalDataERKNS_10IdentifierEPNS_14ExpressionNodeE 0x04dea854
_ZN3JSC9ForInNodeC1EPNS_12JSGlobalDataERKNS_10IdentifierEPNS_14ExpressionNodeES7_PNS_13StatementNodeEiii 0x04dea8fc
_ZN3JSC9ForInNodeC2EPNS_12JSGlobalDataEPNS_14ExpressionNodeES4_PNS_13StatementNodeE 0x04deab64
_ZN3JSC9ForInNodeC1EPNS_12JSGlobalDataEPNS_14ExpressionNodeES4_PNS_13StatementNodeE 0x04deac6c
_ZN3JSC9ForInNodeC2EPNS_12JSGlobalDataERKNS_10IdentifierEPNS_14ExpressionNodeES7_PNS_13StatementNodeEiii 0x04dead74
_ZN3JSC14SourceElements6appendEN3WTF10PassRefPtrINS_13StatementNodeEEE 0x04deafdc
_ZN3JSC16FunctionBodyNode13finishParsingERKNS_10SourceCodeEPNS_13ParameterNodeE 0x04deb0a0
_ZN3JSC12NodeReleaser15releaseAllNodesEPNS_16ParserRefCountedE 0x04deb27c
_ZN3JSC13CaseBlockNodeD0Ev 0x04deb3f0
_ZN3JSC13CaseBlockNodeD1Ev 0x04deb4b0
_ZN3JSC13CaseBlockNodeD2Ev 0x04deb55c
_ZN3JSC14ClauseListNodeD0Ev 0x04deb608
_ZN3JSC14ClauseListNodeD1Ev 0x04deb6ac
_ZN3JSC14ClauseListNodeD2Ev 0x04deb73c
_ZN3JSC13ArgumentsNodeD0Ev 0x04deb7cc
_ZN3JSC13ArgumentsNodeD1Ev 0x04deb854
_ZN3JSC13ArgumentsNodeD2Ev 0x04deb8c8
_ZN3JSC12NodeReleaser5adoptEN3WTF10PassRefPtrINS_16ParserRefCountedEEE 0x04deb93c
_ZN3JSC13ParameterNode12releaseNodesERNS_12NodeReleaserE 0x04debaa8
_ZN3JSC14ClauseListNode12releaseNodesERNS_12NodeReleaserE 0x04debb18
_ZN3JSC23FunctionCallResolveNode12releaseNodesERNS_12NodeReleaserE 0x04debbe8
_ZN3JSC17ObjectLiteralNode12releaseNodesERNS_12NodeReleaserE 0x04debc58
_ZN3JSC12NodeReleaser21adoptFunctionBodyNodeERN3WTF6RefPtrINS_16FunctionBodyNodeEEE 0x04debcc8
_ZN3JSC13ArgumentsNode12releaseNodesERNS_12NodeReleaserE 0x04debda8
_ZN3JSC16PropertyListNode12releaseNodesERNS_12NodeReleaserE 0x04debe18
_ZN3JSC18ConstStatementNode12releaseNodesERNS_12NodeReleaserE 0x04debee8
_ZN3JSC9ArrayNode12releaseNodesERNS_12NodeReleaserE 0x04debf58
_ZN3JSC9BlockNodeC1EPNS_12JSGlobalDataEPNS_14SourceElementsE 0x04debfc8
_ZN3JSC9BlockNodeC2EPNS_12JSGlobalDataEPNS_14SourceElementsE 0x04dec07c
_ZN3JSC16FunctionBodyNode31bytecodeForExceptionInfoReparseEPNS_14ScopeChainNodeE 0x04dec130
_ZN3JSC8EvalNode31bytecodeForExceptionInfoReparseEPNS_14ScopeChainNodeE 0x04dec394
_ZN3JSC13CaseBlockNode12releaseNodesERNS_12NodeReleaserE 0x04dec6d0
_ZN3JSC12FuncDeclNode12releaseNodesERNS_12NodeReleaserE 0x04dec7ec
_ZN3JSC12FuncExprNode12releaseNodesERNS_12NodeReleaserE 0x04dec890
_ZN3JSC13ParameterNodeD0Ev 0x04dec934
_ZN3JSC13ParameterNodeD1Ev 0x04dec9f4
_ZN3JSC13ParameterNodeD2Ev 0x04decac4
_ZN3JSC11ProgramNode16generateBytecodeEPNS_14ScopeChainNodeE 0x04decb94
_ZN3JSC16FunctionBodyNode16generateBytecodeEPNS_14ScopeChainNodeE 0x04decfac
_ZN3JSC13ScopeNodeDataC1EPNS_14SourceElementsEPN3WTF6VectorISt4pairINS_10IdentifierEjELj0EEEPNS4_INS3_6RefPtrINS_12FuncDeclNodeEEELj0EEEi 0x04ded324
_ZN3JSC9ScopeNodeC1EPNS_12JSGlobalDataERKNS_10SourceCodeEPNS_14SourceElementsEPN3WTF6VectorISt4pairINS_10IdentifierEjELj0EEEPNS9_INS8_6RefPtrINS_12FuncDeclNodeEEELj0EEEji 0x04ded440
_ZN3JSC9ScopeNodeC2EPNS_12JSGlobalDataERKNS_10SourceCodeEPNS_14SourceElementsEPN3WTF6VectorISt4pairINS_10IdentifierEjELj0EEEPNS9_INS8_6RefPtrINS_12FuncDeclNodeEEELj0EEEji 0x04ded54c
_ZN3JSC16FunctionBodyNodeC1EPNS_12JSGlobalDataEPNS_14SourceElementsEPN3WTF6VectorISt4pairINS_10IdentifierEjELj0EEEPNS6_INS5_6RefPtrINS_12FuncDeclNodeEEELj0EEERKNS_10SourceCodeEji 0x04ded658
_ZN3JSC16FunctionBodyNode6createEPNS_12JSGlobalDataEPNS_14SourceElementsEPN3WTF6VectorISt4pairINS_10IdentifierEjELj0EEEPNS6_INS5_6RefPtrINS_12FuncDeclNodeEEELj0EEERKNS_10SourceCodeEji 0x04ded6d4
_ZN3JSC16FunctionBodyNodeC2EPNS_12JSGlobalDataEPNS_14SourceElementsEPN3WTF6VectorISt4pairINS_10IdentifierEjELj0EEEPNS6_INS5_6RefPtrINS_12FuncDeclNodeEEELj0EEERKNS_10SourceCodeEji 0x04ded794
_ZN3JSC8EvalNodeC1EPNS_12JSGlobalDataEPNS_14SourceElementsEPN3WTF6VectorISt4pairINS_10IdentifierEjELj0EEEPNS6_INS5_6RefPtrINS_12FuncDeclNodeEEELj0EEERKNS_10SourceCodeEji 0x04ded810
_ZN3JSC8EvalNode6createEPNS_12JSGlobalDataEPNS_14SourceElementsEPN3WTF6VectorISt4pairINS_10IdentifierEjELj0EEEPNS6_INS5_6RefPtrINS_12FuncDeclNodeEEELj0EEERKNS_10SourceCodeEji 0x04ded880
_ZN3JSC8EvalNodeC2EPNS_12JSGlobalDataEPNS_14SourceElementsEPN3WTF6VectorISt4pairINS_10IdentifierEjELj0EEEPNS6_INS5_6RefPtrINS_12FuncDeclNodeEEELj0EEERKNS_10SourceCodeEji 0x04ded940
_ZN3JSC11ProgramNodeC1EPNS_12JSGlobalDataEPNS_14SourceElementsEPN3WTF6VectorISt4pairINS_10IdentifierEjELj0EEEPNS6_INS5_6RefPtrINS_12FuncDeclNodeEEELj0EEERKNS_10SourceCodeEji 0x04ded9b0
_ZN3JSC11ProgramNode6createEPNS_12JSGlobalDataEPNS_14SourceElementsEPN3WTF6VectorISt4pairINS_10IdentifierEjELj0EEEPNS6_INS5_6RefPtrINS_12FuncDeclNodeEEELj0EEERKNS_10SourceCodeEji 0x04deda20
_ZN3JSC11ProgramNodeC2EPNS_12JSGlobalDataEPNS_14SourceElementsEPN3WTF6VectorISt4pairINS_10IdentifierEjELj0EEEPNS6_INS5_6RefPtrINS_12FuncDeclNodeEEELj0EEERKNS_10SourceCodeEji 0x04dedae0
_ZN3JSC13ScopeNodeDataC2EPNS_14SourceElementsEPN3WTF6VectorISt4pairINS_10IdentifierEjELj0EEEPNS4_INS3_6RefPtrINS_12FuncDeclNodeEEELj0EEEi 0x04dedb50
_ZN3JSC16PropertyListNodeD0Ev 0x04dedc6c
_ZN3JSC16PropertyListNodeD1Ev 0x04dedd1c
_ZN3JSC16PropertyListNodeD2Ev 0x04deddb8
_ZN3JSC20EvalFunctionCallNode12releaseNodesERNS_12NodeReleaserE 0x04dede54
_ZN3JSC8EvalNode16generateBytecodeEPNS_14ScopeChainNodeE 0x04dedec4
_ZN3JSC11ElementNodeD2Ev 0x04dee208
_ZN3JSC12PropertyNodeD1Ev 0x04dee298
_ZN3JSC11ElementNodeD0Ev 0x04dee368
_ZN3JSC12PropertyNodeD2Ev 0x04dee40c
_ZN3JSC12PropertyNodeD0Ev 0x04dee4dc
_ZN3JSC11ElementNodeD1Ev 0x04dee59c
_ZN3JSC16ArgumentListNodeD1Ev 0x04dee62c
_ZN3JSC14CaseClauseNodeD0Ev 0x04dee6c8
_ZN3JSC14CaseClauseNodeD2Ev 0x04dee798
_ZN3JSC14CaseClauseNodeD1Ev 0x04dee854
_ZN3JSC10ReturnNodeD1Ev 0x04dee910
_ZN3JSC16ArgumentListNodeD2Ev 0x04dee990
_ZN3JSC16ArgumentListNodeD0Ev 0x04deea2c
_ZN3JSC12FuncExprNode12emitBytecodeERNS_17BytecodeGeneratorEPNS_10RegisterIDE 0x04deeadc
_ZN3JSC17TypeOfResolveNode12emitBytecodeERNS_17BytecodeGeneratorEPNS_10RegisterIDE 0x04deeb8c
_ZN3JSC23FunctionCallResolveNode12emitBytecodeERNS_17BytecodeGeneratorEPNS_10RegisterIDE 0x04deed94
_ZN3JSC20EvalFunctionCallNode12emitBytecodeERNS_17BytecodeGeneratorEPNS_10RegisterIDE 0x04def2f8
_ZN3JSC11ResolveNode12emitBytecodeERNS_17BytecodeGeneratorEPNS_10RegisterIDE 0x04def5a4
_ZN3JSC23ThrowableExpressionData14emitThrowErrorERNS_17BytecodeGeneratorENS_9ErrorTypeEPKcRKNS_10IdentifierE 0x04def7bc
_ZN3JSC23ThrowableExpressionData14emitThrowErrorERNS_17BytecodeGeneratorENS_9ErrorTypeEPKc 0x04defc18
_ZN3JSC9BreakNode12emitBytecodeERNS_17BytecodeGeneratorEPNS_10RegisterIDE 0x04defe9c
_ZN3JSC12ContinueNode12emitBytecodeERNS_17BytecodeGeneratorEPNS_10RegisterIDE 0x04deffec
_ZN3JSC15AssignErrorNode12emitBytecodeERNS_17BytecodeGeneratorEPNS_10RegisterIDE 0x04df013c
_ZN3JSC15PrefixErrorNode12emitBytecodeERNS_17BytecodeGeneratorEPNS_10RegisterIDE 0x04df0178
_ZN3JSC16PostfixErrorNode12emitBytecodeERNS_17BytecodeGeneratorEPNS_10RegisterIDE 0x04df01c8
_ZN3JSC10RegExpNode12emitBytecodeERNS_17BytecodeGeneratorEPNS_10RegisterIDE 0x04df0218
_ZN3JSC17PrefixResolveNode12emitBytecodeERNS_17BytecodeGeneratorEPNS_10RegisterIDE 0x04df04dc
_ZN3JSC18PostfixResolveNode12emitBytecodeERNS_17BytecodeGeneratorEPNS_10RegisterIDE 0x04df0b54
_ZN3JSC17DeleteResolveNode12emitBytecodeERNS_17BytecodeGeneratorEPNS_10RegisterIDE 0x04df10ac
_ZN3JSC9ScopeNode12releaseNodesERNS_12NodeReleaserE 0x04df1390
_ZN3JSC7TryNode12releaseNodesERNS_12NodeReleaserE 0x04df146c
_ZN3JSC9BlockNode12releaseNodesERNS_12NodeReleaserE 0x04df1588
_ZN3JSC9LabelNode12releaseNodesERNS_12NodeReleaserE 0x04df1654
_ZN3JSC12FuncExprNode12makeFunctionEPNS_9ExecStateEPNS_14ScopeChainNodeE 0x04df16c4
_ZN3JSC16VarStatementNodeD0Ev 0x04df18a0
_ZN3JSC16VarStatementNodeD1Ev 0x04df1934
_ZN3JSC16VarStatementNodeD2Ev 0x04df19b4
_ZN3JSC9BlockNodeD0Ev 0x04df1a34
_ZN3JSC9BlockNodeD1Ev 0x04df1af4
_ZN3JSC9BlockNodeD2Ev 0x04df1ba0
_ZN3JSC18ConstStatementNodeD0Ev 0x04df1c4c
_ZN3JSC18ConstStatementNodeD1Ev 0x04df1ce0
_ZN3JSC18ConstStatementNodeD2Ev 0x04df1d60
_ZN3JSC10ReturnNodeD2Ev 0x04df1de0
_ZN3JSC9ForInNodeD0Ev 0x04df1e60
_ZN3JSC9ForInNodeD1Ev 0x04df1f7c
_ZN3JSC9ForInNodeD2Ev 0x04df20b4
_ZN3JSC7ForNodeD0Ev 0x04df21ec
_ZN3JSC7ForNodeD1Ev 0x04df22d4
_ZN3JSC7ForNodeD2Ev 0x04df23a8
_ZN3JSC9WhileNodeD0Ev 0x04df247c
_ZN3JSC9WhileNodeD1Ev 0x04df252c
_ZN3JSC9WhileNodeD2Ev 0x04df25c8
_ZN3JSC11DoWhileNodeD0Ev 0x04df2664
_ZN3JSC11DoWhileNodeD1Ev 0x04df2714
_ZN3JSC11DoWhileNodeD2Ev 0x04df27b0
_ZN3JSC6IfNodeD0Ev 0x04df284c
_ZN3JSC6IfNodeD1Ev 0x04df28fc
_ZN3JSC6IfNodeD2Ev 0x04df2998
_ZN3JSC10IfElseNodeD0Ev 0x04df2a34
_ZN3JSC10IfElseNodeD1Ev 0x04df2abc
_ZN3JSC10IfElseNodeD2Ev 0x04df2b30
_ZN3JSC12FuncDeclNodeD0Ev 0x04df2ba4
_ZN3JSC12FuncDeclNodeD1Ev 0x04df2ca8
_ZN3JSC12FuncDeclNodeD2Ev 0x04df2dc8
_ZN3JSC9ScopeNodeD0Ev 0x04df2ee8
_ZN3JSC9ScopeNodeD1Ev 0x04df30ec
_ZN3JSC9ScopeNodeD2Ev 0x04df32dc
_ZN3JSC16FunctionBodyNodeD0Ev 0x04df34cc
_ZN3JSC16FunctionBodyNodeD1Ev 0x04df35f8
_ZN3JSC16FunctionBodyNodeD2Ev 0x04df3714
_ZN3JSC7TryNodeD0Ev 0x04df3830
_ZN3JSC7TryNodeD1Ev 0x04df3934
_ZN3JSC7TryNodeD2Ev 0x04df3a24
_ZN3JSC9ThrowNodeD0Ev 0x04df3b14
_ZN3JSC9ThrowNodeD1Ev 0x04df3ba8
_ZN3JSC9ThrowNodeD2Ev 0x04df3c28
_ZN3JSC9LabelNodeD0Ev 0x04df3ca8
_ZN3JSC9LabelNodeD1Ev 0x04df3d74
_ZN3JSC9LabelNodeD2Ev 0x04df3e5c
_ZN3JSC10SwitchNodeD0Ev 0x04df3f44
_ZN3JSC10SwitchNodeD1Ev 0x04df3ff4
_ZN3JSC10SwitchNodeD2Ev 0x04df4090
_ZN3JSC8WithNodeD0Ev 0x04df412c
_ZN3JSC8WithNodeD1Ev 0x04df41dc
_ZN3JSC8WithNodeD2Ev 0x04df4278
_ZN3JSC10ReturnNodeD0Ev 0x04df4314
_ZN3JSC19BracketAccessorNodeD0Ev 0x04df43a8
_ZN3JSC19BracketAccessorNodeD1Ev 0x04df4458
_ZN3JSC19BracketAccessorNodeD2Ev 0x04df44f4
_ZN3JSC17ObjectLiteralNodeD0Ev 0x04df4590
_ZN3JSC17ObjectLiteralNodeD1Ev 0x04df4624
_ZN3JSC17ObjectLiteralNodeD2Ev 0x04df46a4
_ZN3JSC9ArrayNodeD0Ev 0x04df4724
_ZN3JSC9ArrayNodeD1Ev 0x04df47b8
_ZN3JSC15ConditionalNodeD2Ev 0x04df4838
_ZN3JSC13LogicalOpNodeD0Ev 0x04df48f0
_ZN3JSC13LogicalOpNodeD1Ev 0x04df49a0
_ZN3JSC13LogicalOpNodeD2Ev 0x04df4a3c
_ZN3JSC12BinaryOpNodeD0Ev 0x04df4ad8
_ZN3JSC12BinaryOpNodeD1Ev 0x04df4b88
_ZN3JSC12BinaryOpNodeD2Ev 0x04df4c24
_ZN3JSC11UnaryOpNodeD0Ev 0x04df4cc0
_ZN3JSC11UnaryOpNodeD1Ev 0x04df4d54
_ZN3JSC11UnaryOpNodeD2Ev 0x04df4dd4
_ZN3JSC15PrefixErrorNodeD0Ev 0x04df4e54
_ZN3JSC15PrefixErrorNodeD1Ev 0x04df4ee8
_ZN3JSC15PrefixErrorNodeD2Ev 0x04df4f68
_ZN3JSC13PrefixDotNodeD0Ev 0x04df4fe8
_ZN3JSC13PrefixDotNodeD1Ev 0x04df50b4
_ZN3JSC13PrefixDotNodeD2Ev 0x04df516c
_ZN3JSC17PrefixBracketNodeD0Ev 0x04df5224
_ZN3JSC17PrefixBracketNodeD1Ev 0x04df52d4
_ZN3JSC17PrefixBracketNodeD2Ev 0x04df5370
_ZN3JSC15TypeOfValueNodeD0Ev 0x04df540c
_ZN3JSC15TypeOfValueNodeD1Ev 0x04df54a0
_ZN3JSC15TypeOfValueNodeD2Ev 0x04df5520
_ZN3JSC8VoidNodeD0Ev 0x04df55a0
_ZN3JSC8VoidNodeD1Ev 0x04df5634
_ZN3JSC8VoidNodeD2Ev 0x04df56b4
_ZN3JSC15DeleteValueNodeD0Ev 0x04df5734
_ZN3JSC15DeleteValueNodeD1Ev 0x04df57c8
_ZN3JSC15DeleteValueNodeD2Ev 0x04df5848
_ZN3JSC13DeleteDotNodeD0Ev 0x04df58c8
_ZN3JSC13DeleteDotNodeD1Ev 0x04df5994
_ZN3JSC13DeleteDotNodeD2Ev 0x04df5a4c
_ZN3JSC17DeleteBracketNodeD0Ev 0x04df5b04
_ZN3JSC17DeleteBracketNodeD1Ev 0x04df5bb4
_ZN3JSC17DeleteBracketNodeD2Ev 0x04df5c50
_ZN3JSC16PostfixErrorNodeD0Ev 0x04df5cec
_ZN3JSC16PostfixErrorNodeD1Ev 0x04df5d80
_ZN3JSC16PostfixErrorNodeD2Ev 0x04df5e00
_ZN3JSC14PostfixDotNodeD0Ev 0x04df5e80
_ZN3JSC14PostfixDotNodeD1Ev 0x04df5f4c
_ZN3JSC14PostfixDotNodeD2Ev 0x04df6004
_ZN3JSC18PostfixBracketNodeD0Ev 0x04df60bc
_ZN3JSC18PostfixBracketNodeD1Ev 0x04df616c
_ZN3JSC18PostfixBracketNodeD2Ev 0x04df6208
_ZN3JSC19FunctionCallDotNodeD0Ev 0x04df62a4
_ZN3JSC19FunctionCallDotNodeD1Ev 0x04df638c
_ZN3JSC19FunctionCallDotNodeD2Ev 0x04df6460
_ZN3JSC23FunctionCallBracketNodeD0Ev 0x04df6534
_ZN3JSC23FunctionCallBracketNodeD1Ev 0x04df6600
_ZN3JSC23FunctionCallBracketNodeD2Ev 0x04df66b8
_ZN3JSC23FunctionCallResolveNodeD0Ev 0x04df6770
_ZN3JSC23FunctionCallResolveNodeD1Ev 0x04df683c
_ZN3JSC23FunctionCallResolveNodeD2Ev 0x04df6924
_ZN3JSC21FunctionCallValueNodeD0Ev 0x04df6a0c
_ZN3JSC21FunctionCallValueNodeD1Ev 0x04df6abc
_ZN3JSC21FunctionCallValueNodeD2Ev 0x04df6b58
_ZN3JSC20EvalFunctionCallNodeD0Ev 0x04df6bf4
_ZN3JSC20EvalFunctionCallNodeD1Ev 0x04df6c88
_ZN3JSC20EvalFunctionCallNodeD2Ev 0x04df6d08
_ZN3JSC11NewExprNodeD0Ev 0x04df6d88
_ZN3JSC11NewExprNodeD1Ev 0x04df6e38
_ZN3JSC11NewExprNodeD2Ev 0x04df6ed4
_ZN3JSC15DotAccessorNodeD0Ev 0x04df6f70
_ZN3JSC15DotAccessorNodeD1Ev 0x04df703c
_ZN3JSC15DotAccessorNodeD2Ev 0x04df70f4
_ZN3JSC9ArrayNodeD2Ev 0x04df71ac
_ZN3JSC12FuncExprNodeD0Ev 0x04df722c
_ZN3JSC12FuncExprNodeD1Ev 0x04df7330
_ZN3JSC12FuncExprNodeD2Ev 0x04df7450
_ZN3JSC13ConstDeclNodeD0Ev 0x04df7570
_ZN3JSC13ConstDeclNodeD1Ev 0x04df7658
_ZN3JSC13ConstDeclNodeD2Ev 0x04df775c
_ZN3JSC9CommaNodeD0Ev 0x04df7860
_ZN3JSC9CommaNodeD1Ev 0x04df7910
_ZN3JSC9CommaNodeD2Ev 0x04df79ac
_ZN3JSC21ReadModifyBracketNodeD0Ev 0x04df7a48
_ZN3JSC21ReadModifyBracketNodeD1Ev 0x04df7b14
_ZN3JSC21ReadModifyBracketNodeD2Ev 0x04df7bcc
_ZN3JSC17AssignBracketNodeD0Ev 0x04df7c84
_ZN3JSC17AssignBracketNodeD1Ev 0x04df7d50
_ZN3JSC17AssignBracketNodeD2Ev 0x04df7e08
_ZN3JSC15AssignErrorNodeD0Ev 0x04df7ec0
_ZN3JSC15AssignErrorNodeD1Ev 0x04df7f70
_ZN3JSC15AssignErrorNodeD2Ev 0x04df800c
_ZN3JSC17ReadModifyDotNodeD0Ev 0x04df80a8
_ZN3JSC17ReadModifyDotNodeD1Ev 0x04df8190
_ZN3JSC17ReadModifyDotNodeD2Ev 0x04df8264
_ZN3JSC13AssignDotNodeD0Ev 0x04df8338
_ZN3JSC13AssignDotNodeD1Ev 0x04df8420
_ZN3JSC13AssignDotNodeD2Ev 0x04df84f4
_ZN3JSC17AssignResolveNodeD0Ev 0x04df85c8
_ZN3JSC17AssignResolveNodeD1Ev 0x04df8694
_ZN3JSC17AssignResolveNodeD2Ev 0x04df877c
_ZN3JSC21ReadModifyResolveNodeD0Ev 0x04df8864
_ZN3JSC21ReadModifyResolveNodeD1Ev 0x04df8930
_ZN3JSC21ReadModifyResolveNodeD2Ev 0x04df8a18
_ZN3JSC15ConditionalNodeD0Ev 0x04df8b00
_ZN3JSC15ConditionalNodeD1Ev 0x04df8bcc
_ZN3JSC17ExprStatementNode12emitBytecodeERNS_17BytecodeGeneratorEPNS_10RegisterIDE 0x04df8c84
_ZN3JSC9CommaNode12emitBytecodeERNS_17BytecodeGeneratorEPNS_10RegisterIDE 0x04df8e08
_ZN3JSC17AssignResolveNode12emitBytecodeERNS_17BytecodeGeneratorEPNS_10RegisterIDE 0x04df90c0
_ZN3JSC13LogicalOpNode12emitBytecodeERNS_17BytecodeGeneratorEPNS_10RegisterIDE 0x04df9910
_ZN3JSC15DeleteValueNode12emitBytecodeERNS_17BytecodeGeneratorEPNS_10RegisterIDE 0x04df9d54
_ZN3JSC16ArgumentListNode12emitBytecodeERNS_17BytecodeGeneratorEPNS_10RegisterIDE 0x04df9f0c
_ZN3JSC17ObjectLiteralNode12emitBytecodeERNS_17BytecodeGeneratorEPNS_10RegisterIDE 0x04dfa090
_ZN3JSC13DeleteDotNode12emitBytecodeERNS_17BytecodeGeneratorEPNS_10RegisterIDE 0x04dfa29c
_ZN3JSC7TryNode12emitBytecodeERNS_17BytecodeGeneratorEPNS_10RegisterIDE 0x04dfa600
_ZN3JSC9ThrowNode12emitBytecodeERNS_17BytecodeGeneratorEPNS_10RegisterIDE 0x04dfb0f4
_ZN3JSC9LabelNode12emitBytecodeERNS_17BytecodeGeneratorEPNS_10RegisterIDE 0x04dfb44c
_ZN3JSC8WithNode12emitBytecodeERNS_17BytecodeGeneratorEPNS_10RegisterIDE 0x04dfb6c0
_ZN3JSC10ReturnNode12emitBytecodeERNS_17BytecodeGeneratorEPNS_10RegisterIDE 0x04dfbae0
_ZN3JSC11ElementNode12releaseNodesERNS_12NodeReleaserE 0x04dfbe00
_ZN3JSC9ThrowNode12releaseNodesERNS_12NodeReleaserE 0x04dfbed0
_ZN3JSC14CaseClauseNode12releaseNodesERNS_12NodeReleaserE 0x04dfbf40
_ZN3JSC8WithNode12releaseNodesERNS_12NodeReleaserE 0x04dfbfb0
_ZN3JSC9WhileNode12releaseNodesERNS_12NodeReleaserE 0x04dfc080
_ZN3JSC15PrefixErrorNode12releaseNodesERNS_12NodeReleaserE 0x04dfc150
_ZN3JSC17PrefixBracketNode12releaseNodesERNS_12NodeReleaserE 0x04dfc1c0
_ZN3JSC10ReturnNode12releaseNodesERNS_12NodeReleaserE 0x04dfc290
_ZN3JSC11NewExprNode12releaseNodesERNS_12NodeReleaserE 0x04dfc300
_ZN3JSC16ArgumentListNode12releaseNodesERNS_12NodeReleaserE 0x04dfc3d0
_ZN3JSC17ReadModifyDotNode12releaseNodesERNS_12NodeReleaserE 0x04dfc4a0
_ZN3JSC16PostfixErrorNode12releaseNodesERNS_12NodeReleaserE 0x04dfc570
_ZN3JSC14PostfixDotNode12releaseNodesERNS_12NodeReleaserE 0x04dfc5e0
_ZN3JSC10SwitchNode12releaseNodesERNS_12NodeReleaserE 0x04dfc650
_ZN3JSC15DotAccessorNode12releaseNodesERNS_12NodeReleaserE 0x04dfc720
_ZN3JSC12PropertyNode12releaseNodesERNS_12NodeReleaserE 0x04dfc790
_ZN3JSC15TypeOfValueNode12releaseNodesERNS_12NodeReleaserE 0x04dfc800
_ZN3JSC15DeleteValueNode12releaseNodesERNS_12NodeReleaserE 0x04dfc870
_ZN3JSC13DeleteDotNode12releaseNodesERNS_12NodeReleaserE 0x04dfc8e0
_ZN3JSC9ForInNode12releaseNodesERNS_12NodeReleaserE 0x04dfc950
_ZN3JSC21FunctionCallValueNode12releaseNodesERNS_12NodeReleaserE 0x04dfcab4
_ZN3JSC19FunctionCallDotNode12releaseNodesERNS_12NodeReleaserE 0x04dfcb84
_ZN3JSC23FunctionCallBracketNode12releaseNodesERNS_12NodeReleaserE 0x04dfcc54
_ZN3JSC11DoWhileNode12releaseNodesERNS_12NodeReleaserE 0x04dfcd70
_ZN3JSC16VarStatementNode12releaseNodesERNS_12NodeReleaserE 0x04dfce40
_ZN3JSC13ConstDeclNode12releaseNodesERNS_12NodeReleaserE 0x04dfceb0
_ZN3JSC19BracketAccessorNode12releaseNodesERNS_12NodeReleaserE 0x04dfcf80
_ZN3JSC17AssignResolveNode12releaseNodesERNS_12NodeReleaserE 0x04dfd050
_ZN3JSC21ReadModifyResolveNode12releaseNodesERNS_12NodeReleaserE 0x04dfd0c0
_ZN3JSC13PrefixDotNode12releaseNodesERNS_12NodeReleaserE 0x04dfd130
_ZN3JSC21ReadModifyBracketNode12releaseNodesERNS_12NodeReleaserE 0x04dfd1a0
_ZN3JSC17AssignBracketNode12releaseNodesERNS_12NodeReleaserE 0x04dfd2bc
_ZN3JSC17DeleteBracketNode12releaseNodesERNS_12NodeReleaserE 0x04dfd3d8
_ZN3JSC13LogicalOpNode12releaseNodesERNS_12NodeReleaserE 0x04dfd4a8
_ZN3JSC11UnaryOpNode12releaseNodesERNS_12NodeReleaserE 0x04dfd578
_ZN3JSC8VoidNode12releaseNodesERNS_12NodeReleaserE 0x04dfd5e8
_ZN3JSC7ForNode12releaseNodesERNS_12NodeReleaserE 0x04dfd658
_ZN3JSC18PostfixBracketNode12releaseNodesERNS_12NodeReleaserE 0x04dfd7bc
_ZN3JSC15AssignErrorNode12releaseNodesERNS_12NodeReleaserE 0x04dfd88c
_ZN3JSC9CommaNode12releaseNodesERNS_12NodeReleaserE 0x04dfd95c
_ZN3JSC15ConditionalNode12releaseNodesERNS_12NodeReleaserE 0x04dfda2c
_ZN3JSC6IfNode12releaseNodesERNS_12NodeReleaserE 0x04dfdb48
_ZN3JSC10IfElseNode12releaseNodesERNS_12NodeReleaserE 0x04dfdc18
_ZN3JSC13AssignDotNode12releaseNodesERNS_12NodeReleaserE 0x04dfdcb0
_ZN3JSC12BinaryOpNode12releaseNodesERNS_12NodeReleaserE 0x04dfdd80
_ZN3JSC7ForNode12emitBytecodeERNS_17BytecodeGeneratorEPNS_10RegisterIDE 0x04dfde50
_ZN3JSC9WhileNode12emitBytecodeERNS_17BytecodeGeneratorEPNS_10RegisterIDE 0x04dfe664
_ZN3JSC9ForInNode12emitBytecodeERNS_17BytecodeGeneratorEPNS_10RegisterIDE 0x04dfeae4
_ZN3JSC21FunctionCallValueNode12emitBytecodeERNS_17BytecodeGeneratorEPNS_10RegisterIDE 0x04dffa2c
_ZN3JSC16VarStatementNode12emitBytecodeERNS_17BytecodeGeneratorEPNS_10RegisterIDE 0x04dffcb8
_ZN3JSC16PropertyListNode12emitBytecodeERNS_17BytecodeGeneratorEPNS_10RegisterIDE 0x04dffe2c
_ZN3JSC10IfElseNode12emitBytecodeERNS_17BytecodeGeneratorEPNS_10RegisterIDE 0x04e00190
_ZN3JSC14PostfixDotNode12emitBytecodeERNS_17BytecodeGeneratorEPNS_10RegisterIDE 0x04e00708
_ZN3JSC15DotAccessorNode12emitBytecodeERNS_17BytecodeGeneratorEPNS_10RegisterIDE 0x04e00d04
_ZN3JSC11DoWhileNode12emitBytecodeERNS_17BytecodeGeneratorEPNS_10RegisterIDE 0x04e01068
_ZN3JSC17DeleteBracketNode12emitBytecodeERNS_17BytecodeGeneratorEPNS_10RegisterIDE 0x04e01508
_ZN3JSC15ConditionalNode12emitBytecodeERNS_17BytecodeGeneratorEPNS_10RegisterIDE 0x04e019ac
_ZN3JSC11NewExprNode12emitBytecodeERNS_17BytecodeGeneratorEPNS_10RegisterIDE 0x04e01f18
_ZN3JSC13ConstDeclNode14emitCodeSingleERNS_17BytecodeGeneratorE 0x04e0212c
_ZN3JSC19FunctionCallDotNode12emitBytecodeERNS_17BytecodeGeneratorEPNS_10RegisterIDE 0x04e02528
_ZN3JSC13PrefixDotNode12emitBytecodeERNS_17BytecodeGeneratorEPNS_10RegisterIDE 0x04e029c4
_ZN3JSC9ArrayNode12emitBytecodeERNS_17BytecodeGeneratorEPNS_10RegisterIDE 0x04e02fa4
_ZN3JSC6IfNode12emitBytecodeERNS_17BytecodeGeneratorEPNS_10RegisterIDE 0x04e033c4
_ZN3JSC18PostfixBracketNode12emitBytecodeERNS_17BytecodeGeneratorEPNS_10RegisterIDE 0x04e03740
_ZN3JSC23FunctionCallBracketNode12emitBytecodeERNS_17BytecodeGeneratorEPNS_10RegisterIDE 0x04e03e80
_ZN3JSC8VoidNode12emitBytecodeERNS_17BytecodeGeneratorEPNS_10RegisterIDE 0x04e04430
_ZN3JSC18ConstStatementNode12emitBytecodeERNS_17BytecodeGeneratorEPNS_10RegisterIDE 0x04e047a0
_ZN3JSC11UnaryOpNode12emitBytecodeERNS_17BytecodeGeneratorEPNS_10RegisterIDE 0x04e04914
_ZN3JSC21ReadModifyResolveNode12emitBytecodeERNS_17BytecodeGeneratorEPNS_10RegisterIDE 0x04e04af4
_ZN3JSC15TypeOfValueNode12emitBytecodeERNS_17BytecodeGeneratorEPNS_10RegisterIDE 0x04e05bf0
_ZN3JSC17PrefixBracketNode12emitBytecodeERNS_17BytecodeGeneratorEPNS_10RegisterIDE 0x04e05f48
_ZN3JSC16FunctionBodyNode12emitBytecodeERNS_17BytecodeGeneratorEPNS_10RegisterIDE 0x04e0666c
_ZN3JSC8EvalNode12emitBytecodeERNS_17BytecodeGeneratorEPNS_10RegisterIDE 0x04e06974
_ZN3JSC9BlockNode12emitBytecodeERNS_17BytecodeGeneratorEPNS_10RegisterIDE 0x04e06c58
_ZN3JSC11ProgramNode12emitBytecodeERNS_17BytecodeGeneratorEPNS_10RegisterIDE 0x04e06e6c
_ZN3JSC13CaseBlockNode20emitBytecodeForBlockERNS_17BytecodeGeneratorEPNS_10RegisterIDES4_ 0x04e07150
_ZN3JSC10SwitchNode12emitBytecodeERNS_17BytecodeGeneratorEPNS_10RegisterIDE 0x04e08050
_ZN3JSC19ReverseBinaryOpNode12emitBytecodeERNS_17BytecodeGeneratorEPNS_10RegisterIDE 0x04e0829c
_ZN3JSC15StrictEqualNode12emitBytecodeERNS_17BytecodeGeneratorEPNS_10RegisterIDE 0x04e08840
_ZN3JSC9EqualNode12emitBytecodeERNS_17BytecodeGeneratorEPNS_10RegisterIDE 0x04e08d54
_ZN3JSC12BinaryOpNode12emitBytecodeERNS_17BytecodeGeneratorEPNS_10RegisterIDE 0x04e094dc
_ZN3JSC21ReadModifyBracketNode12emitBytecodeERNS_17BytecodeGeneratorEPNS_10RegisterIDE 0x04e09cdc
_ZN3JSC19BracketAccessorNode12emitBytecodeERNS_17BytecodeGeneratorEPNS_10RegisterIDE 0x04e0a96c
_ZN3JSC17ReadModifyDotNode12emitBytecodeERNS_17BytecodeGeneratorEPNS_10RegisterIDE 0x04e0afc8
_ZN3JSC13AssignDotNode12emitBytecodeERNS_17BytecodeGeneratorEPNS_10RegisterIDE 0x04e0b90c
_ZN3JSC14InstanceOfNode12emitBytecodeERNS_17BytecodeGeneratorEPNS_10RegisterIDE 0x04e0c030
_ZN3JSC21ThrowableBinaryOpNode12emitBytecodeERNS_17BytecodeGeneratorEPNS_10RegisterIDE 0x04e0c8f8
_ZN3JSC17AssignBracketNode12emitBytecodeERNS_17BytecodeGeneratorEPNS_10RegisterIDE 0x04e0d000
_ZN3JSC17NumberConstructor16getConstructDataERNS_13ConstructDataE 0x04e0da6c
_ZN3JSC17NumberConstructor11getCallDataERNS_8CallDataE 0x04e0da80
_ZN3JSC17NumberConstructor18getOwnPropertySlotEPNS_9ExecStateERKNS_10IdentifierERNS_12PropertySlotE 0x04e0db94
_ZN3JSC17NumberConstructorC1EPNS_9ExecStateEN3WTF10PassRefPtrINS_9StructureEEEPNS_15NumberPrototypeE 0x04e0df8c
_ZN3JSC17NumberConstructorC2EPNS_9ExecStateEN3WTF10PassRefPtrINS_9StructureEEEPNS_15NumberPrototypeE 0x04e0e1c0
_ZN3JSC12NumberObject11getJSNumberEv 0x04e0e638
_ZN3JSC12NumberObjectC1EN3WTF10PassRefPtrINS_9StructureEEE 0x04e0e640
_ZN3JSC34constructNumberFromImmediateNumberEPNS_9ExecStateENS_10JSValuePtrE 0x04e0e678
_ZN3JSC15constructNumberEPNS_9ExecStateEPNS_12JSNumberCellE 0x04e0e7a8
_ZN3JSC12NumberObjectC2EN3WTF10PassRefPtrINS_9StructureEEE 0x04e0e8d8
_ZN3JSC15NumberPrototypeC1EPNS_9ExecStateEN3WTF10PassRefPtrINS_9StructureEEEPS5_ 0x04e0fc1c
_ZN3JSC15NumberPrototypeC2EPNS_9ExecStateEN3WTF10PassRefPtrINS_9StructureEEEPS5_ 0x04e10230
_ZN3JSC17ObjectConstructor16getConstructDataERNS_13ConstructDataE 0x04e12804
_ZN3JSC17ObjectConstructor11getCallDataERNS_8CallDataE 0x04e12818
_ZN3JSC17ObjectConstructorC1EPNS_9ExecStateEN3WTF10PassRefPtrINS_9StructureEEEPNS_15ObjectPrototypeE 0x04e1295c
_ZN3JSC17ObjectConstructorC2EPNS_9ExecStateEN3WTF10PassRefPtrINS_9StructureEEEPNS_15ObjectPrototypeE 0x04e12cc0
_ZN3JSC23objectProtoFuncToStringEPNS_9ExecStateEPNS_8JSObjectENS_10JSValuePtrERKNS_7ArgListE 0x04e13ad8
_ZN3JSC15ObjectPrototypeC1EPNS_9ExecStateEN3WTF10PassRefPtrINS_9StructureEEEPS5_ 0x04e141dc
_ZN3JSC15ObjectPrototypeC2EPNS_9ExecStateEN3WTF10PassRefPtrINS_9StructureEEEPS5_ 0x04e14aa4
_ZN3JSC19strictEqualSlowCaseENS_10JSValuePtrES0_ 0x04e1536c
_ZN3JSC21throwOutOfMemoryErrorEPNS_9ExecStateE 0x04e153b0
_ZN3JSC11strictEqualENS_10JSValuePtrES0_ 0x04e15400
_ZN3JSC13equalSlowCaseEPNS_9ExecStateENS_10JSValuePtrES2_ 0x04e154c0
_ZN3JSC5equalEPNS_9ExecStateENS_10JSValuePtrES2_ 0x04e15504
_ZN3JSC6Parser5parseEPNS_12JSGlobalDataEPiPNS_7UStringE 0x04e1557c
_ZN3JSC6Parser16didFinishParsingEPNS_14SourceElementsEPNS_20ParserRefCountedDataIN3WTF6VectorISt4pairINS_10IdentifierEjELj0EEEEEPNS3_INS5_INS4_6RefPtrINS_12FuncDeclNodeEEELj0EEEEEjii 0x04e15750
_ZN3JSC6Parser14reparseInPlaceEPNS_12JSGlobalDataEPNS_16FunctionBodyNodeE 0x04e1587c
_ZN3JSC17PropertyNameArray3addEPNS_7UString3RepE 0x04e15b14
_ZN3JSC12PropertySlot14functionGetterEPNS_9ExecStateERKNS_10IdentifierERKS0_ 0x04e15d88
_ZN3JSC17PrototypeFunction11getCallDataERNS_8CallDataE 0x04e15e6c
_ZN3JSC17PrototypeFunctionC1EPNS_9ExecStateEN3WTF10PassRefPtrINS_9StructureEEEiRKNS_10IdentifierEPFNS_10JSValuePtrES2_PNS_8JSObjectESA_RKNS_7ArgListEE 0x04e15e7c
_ZN3JSC17PrototypeFunctionC2EPNS_9ExecStateEN3WTF10PassRefPtrINS_9StructureEEEiRKNS_10IdentifierEPFNS_10JSValuePtrES2_PNS_8JSObjectESA_RKNS_7ArgListEE 0x04e161f8
_ZN3JSC17PrototypeFunctionC1EPNS_9ExecStateEiRKNS_10IdentifierEPFNS_10JSValuePtrES2_PNS_8JSObjectES6_RKNS_7ArgListEE 0x04e16574
_ZN3JSC17PrototypeFunctionC2EPNS_9ExecStateEiRKNS_10IdentifierEPFNS_10JSValuePtrES2_PNS_8JSObjectES6_RKNS_7ArgListEE 0x04e16934
_ZN3JSC6RegExp6createEPNS_12JSGlobalDataERKNS_7UStringES5_ 0x04e16cf4
_ZN3JSC6RegExp6createEPNS_12JSGlobalDataERKNS_7UStringE 0x04e16ea0
_ZN3JSC6RegExpD1Ev 0x04e16f94
_ZN3JSC6RegExpD2Ev 0x04e17050
_ZN3JSC6RegExp5matchERKNS_7UStringEiPN3WTF11OwnArrayPtrIiEE 0x04e1710c
_ZN3JSC17RegExpConstructor16getConstructDataERNS_13ConstructDataE 0x04e172b4
_ZN3JSC17RegExpConstructor11getCallDataERNS_8CallDataE 0x04e172c8
_ZNK3JSC17RegExpConstructor5inputEv 0x04e172dc
_ZN3JSC17RegExpConstructor12setMultilineEb 0x04e172e4
_ZNK3JSC17RegExpConstructor9multilineEv 0x04e172f8
_ZNK3JSC17RegExpConstructor10getBackrefEPNS_9ExecStateEj 0x04e17308
_ZN3JSC17RegExpConstructor18getOwnPropertySlotEPNS_9ExecStateERKNS_10IdentifierERNS_12PropertySlotE 0x04e17718
_ZNK3JSC17RegExpConstructor15getRightContextEPNS_9ExecStateE 0x04e17a2c
_ZNK3JSC17RegExpConstructor14getLeftContextEPNS_9ExecStateE 0x04e17b14
_ZNK3JSC17RegExpConstructor12getLastParenEPNS_9ExecStateE 0x04e17bf4
_ZN3JSC17RegExpConstructor8setInputERKNS_7UStringE 0x04e17cf8
_ZN3JSC17RegExpConstructor12performMatchEPNS_6RegExpERKNS_7UStringEiRiS6_PPi 0x04e17d78
_ZN3JSC18RegExpMatchesArray17fillArrayInstanceEPNS_9ExecStateE 0x04e18054
_ZN3JSC18RegExpMatchesArrayD0Ev 0x04e182b8
_ZN3JSC18RegExpMatchesArrayD1Ev 0x04e183d4
_ZN3JSC18RegExpMatchesArrayD2Ev 0x04e184d4
_ZN3JSC15constructRegExpEPNS_9ExecStateERKNS_7ArgListE 0x04e185d4
_ZN3JSC18RegExpMatchesArrayC1EPNS_9ExecStateEPNS_24RegExpConstructorPrivateE 0x04e18ad4
_ZNK3JSC17RegExpConstructor14arrayOfMatchesEPNS_9ExecStateE 0x04e18d70
_ZN3JSC18RegExpMatchesArrayC2EPNS_9ExecStateEPNS_24RegExpConstructorPrivateE 0x04e18de0
_ZN3JSC17RegExpConstructorC2EPNS_9ExecStateEN3WTF10PassRefPtrINS_9StructureEEEPNS_15RegExpPrototypeE 0x04e1907c
_ZN3JSC17RegExpConstructorC1EPNS_9ExecStateEN3WTF10PassRefPtrINS_9StructureEEEPNS_15RegExpPrototypeE 0x04e19300
_ZN3JSC17RegExpConstructor3putEPNS_9ExecStateERKNS_10IdentifierENS_10JSValuePtrERNS_15PutPropertySlotE 0x04e19584
_ZN3JSC12RegExpObject11getCallDataERNS_8CallDataE 0x04e19854
_ZN3JSC12RegExpObject18getOwnPropertySlotEPNS_9ExecStateERKNS_10IdentifierERNS_12PropertySlotE 0x04e199b0
_ZN3JSC12RegExpObjectC2EN3WTF10PassRefPtrINS_9StructureEEENS2_INS_6RegExpEEE 0x04e19c6c
_ZN3JSC12RegExpObjectD2Ev 0x04e19d74
_ZN3JSC12RegExpObject5matchEPNS_9ExecStateERKNS_7ArgListE 0x04e19f2c
_ZN3JSC12RegExpObject4execEPNS_9ExecStateERKNS_7ArgListE 0x04e1a400
_ZN3JSC12RegExpObject4testEPNS_9ExecStateERKNS_7ArgListE 0x04e1a4d0
_ZN3JSC12RegExpObjectD0Ev 0x04e1a50c
_ZN3JSC12RegExpObjectD1Ev 0x04e1a6dc
_ZN3JSC12RegExpObjectC1EN3WTF10PassRefPtrINS_9StructureEEENS2_INS_6RegExpEEE 0x04e1a894
_ZN3JSC12RegExpObject3putEPNS_9ExecStateERKNS_10IdentifierENS_10JSValuePtrERNS_15PutPropertySlotE 0x04e1a924
_ZN3JSC15RegExpPrototypeC1EPNS_9ExecStateEN3WTF10PassRefPtrINS_9StructureEEEPS5_ 0x04e1c144
_ZN3JSC15RegExpPrototypeC2EPNS_9ExecStateEN3WTF10PassRefPtrINS_9StructureEEEPS5_ 0x04e1c55c
_ZNK3JSC10ScopeChain10localDepthEv 0x04e1c974
_ZN3JSC12SmallStringsC1Ev 0x04e1c9f0
_ZN3JSC19SmallStringsStorageD1Ev 0x04e1ca1c
_ZN3JSC19SmallStringsStorageD2Ev 0x04e1ca4c
_ZN3JSC19SmallStringsStorageC1Ev 0x04e1ca7c
_ZN3JSC19SmallStringsStorageC2Ev 0x04e1cb34
_ZN3JSC12SmallStringsC2Ev 0x04e1cbec
_ZN3JSC12SmallStringsD2Ev 0x04e1cc18
_ZN3JSC12SmallStrings4markEv 0x04e1cc70
_ZN3JSC12SmallStrings17createEmptyStringEPNS_12JSGlobalDataE 0x04e1cd64
_ZN3JSC12SmallStringsD1Ev 0x04e1ce4c
_ZN3JSC12SmallStrings27createSingleCharacterStringEPNS_12JSGlobalDataEh 0x04e1cea4
_ZN3JSC12SmallStrings24singleCharacterStringRepEh 0x04e1cfcc
_ZN3JSC17StringConstructor16getConstructDataERNS_13ConstructDataE 0x04e1d0cc
_ZN3JSC17StringConstructor11getCallDataERNS_8CallDataE 0x04e1d0e0
_ZN3JSC17StringConstructorC1EPNS_9ExecStateEN3WTF10PassRefPtrINS_9StructureEEEPS5_PNS_15StringPrototypeE 0x04e1d660
_ZN3JSC17StringConstructorC2EPNS_9ExecStateEN3WTF10PassRefPtrINS_9StructureEEEPS5_PNS_15StringPrototypeE 0x04e1d98c
_ZN3JSC12StringObject3putEPNS_9ExecStateERKNS_10IdentifierENS_10JSValuePtrERNS_15PutPropertySlotE 0x04e1df20
_ZN3JSC12StringObject14toThisJSStringEPNS_9ExecStateE 0x04e1df74
_ZNK3JSC12StringObject8toStringEPNS_9ExecStateE 0x04e1df7c
_ZN3JSC12StringObject14deletePropertyEPNS_9ExecStateERKNS_10IdentifierE 0x04e1dfa0
_ZNK3JSC12StringObject12toThisStringEPNS_9ExecStateE 0x04e1dff4
_ZN3JSC12StringObject18getOwnPropertySlotEPNS_9ExecStateERKNS_10IdentifierERNS_12PropertySlotE 0x04e1e018
_ZN3JSC12StringObject16getPropertyNamesEPNS_9ExecStateERNS_17PropertyNameArrayE 0x04e1e4f0
_ZN3JSC12StringObject18getOwnPropertySlotEPNS_9ExecStateEjRNS_12PropertySlotE 0x04e1e6cc
_ZN3JSC12StringObjectC2EPNS_9ExecStateEN3WTF10PassRefPtrINS_9StructureEEERKNS_7UStringE 0x04e1ebbc
_ZN3JSC12StringObjectC1EN3WTF10PassRefPtrINS_9StructureEEEPNS_8JSStringE 0x04e1ec38
_ZN3JSC12StringObjectC1EPNS_9ExecStateEN3WTF10PassRefPtrINS_9StructureEEERKNS_7UStringE 0x04e1ec70
_ZN3JSC12StringObjectC2EPNS_9ExecStateEN3WTF10PassRefPtrINS_9StructureEEE 0x04e1ecec
_ZN3JSC12StringObjectC2EN3WTF10PassRefPtrINS_9StructureEEEPNS_8JSStringE 0x04e1eda0
_ZN3JSC12StringObjectC1EPNS_9ExecStateEN3WTF10PassRefPtrINS_9StructureEEE 0x04e1edd8
_ZN3JSC15StringPrototype18getOwnPropertySlotEPNS_9ExecStateERKNS_10IdentifierERNS_12PropertySlotE 0x04e1ef3c
_ZN3JSC15StringPrototypeC1EPNS_9ExecStateEN3WTF10PassRefPtrINS_9StructureEEE 0x04e1f03c
_ZN3JSC15StringPrototypeC2EPNS_9ExecStateEN3WTF10PassRefPtrINS_9StructureEEE 0x04e1f184
_ZN3JSC9StructureC1ENS_10JSValuePtrERKNS_8TypeInfoE 0x04e27e5c
_ZN3JSC9Structure18startIgnoringLeaksEv 0x04e27ec0
_ZN3JSC9Structure17stopIgnoringLeaksEv 0x04e27ec4
_ZN3JSC9Structure27growPropertyStorageCapacityEv 0x04e27f2c
_ZN3JSC9Structure30insertIntoPropertyMapHashTableERKNS_16PropertyMapEntryE 0x04e27f50
_ZN3JSC9StructureC2ENS_10JSValuePtrERKNS_8TypeInfoE 0x04e28050
_ZN3JSC9Structure26rehashPropertyMapHashTableEj 0x04e280b4
_ZN3JSC9Structure26rehashPropertyMapHashTableEv 0x04e281f8
_ZN3JSC9Structure26expandPropertyMapHashTableEv 0x04e2822c
_ZN3JSC9Structure26createPropertyMapHashTableEj 0x04e28264
_ZN3JSC9Structure26createPropertyMapHashTableEv 0x04e282cc
_ZN3JSC9Structure3putERKNS_10IdentifierEj 0x04e282fc
_ZN3JSC9Structure17copyPropertyTableEv 0x04e2859c
_ZN3JSC9Structure14dumpStatisticsEv 0x04e286c0
_ZN3JSC9Structure24fromDictionaryTransitionEPS0_ 0x04e286f8
_ZN3JSC9Structure22materializePropertyMapEv 0x04e28754
_ZN3JSC9Structure6removeERKNS_10IdentifierE 0x04e289d4
_ZN3JSC9Structure3getERKNS_10IdentifierERj 0x04e28ca0
_ZN3JSC9Structure34getEnumerablePropertyNamesInternalERNS_17PropertyNameArrayE 0x04e28e0c
_ZN3JSC9Structure40addPropertyTransitionToExistingStructureEPS0_RKNS_10IdentifierEjRj 0x04e29458
_ZN3JSC9StructureD1Ev 0x04e295b4
_ZN3JSC9Structure22toDictionaryTransitionEPS0_ 0x04e29b34
_ZN3JSC9Structure22getterSetterTransitionEPS0_ 0x04e29c2c
_ZN3JSC9Structure24removePropertyTransitionEPS0_RKNS_10IdentifierERj 0x04e29d0c
_ZN3JSC9Structure25changePrototypeTransitionEPS0_NS_10JSValuePtrE 0x04e29d90
_ZN3JSC9Structure21addPropertyTransitionEPS0_RKNS_10IdentifierEjRj 0x04e29e80
_ZN3JSC9Structure21clearEnumerationCacheEv 0x04e2a480
_ZN3JSC9Structure31removePropertyWithoutTransitionERKNS_10IdentifierE 0x04e2a684
_ZN3JSC9Structure28addPropertyWithoutTransitionERKNS_10IdentifierEj 0x04e2a724
_ZN3JSC9Structure26createCachedPrototypeChainEv 0x04e2a82c
_ZN3JSC9StructureD2Ev 0x04e2a9bc
_ZN3JSC9Structure26getEnumerablePropertyNamesEPNS_9ExecStateERNS_17PropertyNameArrayEPNS_8JSObjectE 0x04e2af3c
_ZN3JSC23structureChainsAreEqualEPNS_14StructureChainES1_ 0x04e2b598
_ZN3JSC14StructureChainC1EPNS_9StructureE 0x04e2b5f4
_ZN3JSC14StructureChainC2EPNS_9StructureE 0x04e2b91c
_ZN3JSC7UString3Rep11computeHashEPKti 0x04e2bc44
_ZN3JSC7UString3Rep11computeHashEPKci 0x04e2bcec
_ZN3JSC7UString7nullRepEv 0x04e2bd94
_ZN3JSC7CStringD1Ev 0x04e2bda0
_ZN3JSC7CStringD2Ev 0x04e2bddc
_ZN3JSC7CStringaSERKS0_ 0x04e2be18
_ZN3JSC7CStringaSEPKc 0x04e2bedc
_ZN3JSC7CString6appendERKS0_ 0x04e2bf7c
_ZN3JSC7CStringC1ERKS0_ 0x04e2c080
_ZN3JSC7CStringC2ERKS0_ 0x04e2c118
_ZN3JSC7CStringC1EPKcj 0x04e2c1b0
_ZN3JSC7CStringC2EPKcj 0x04e2c228
_ZN3JSC7CStringC1EPKc 0x04e2c2a0
_ZN3JSC7CStringC2EPKc 0x04e2c320
_ZN3JSC7UString3Rep6createEPti 0x04e2c3a0
_ZN3JSC9createRepEPKc 0x04e2c438
_ZN3JSC7UString4nullEv 0x04e2c554
_ZN3JSC7compareERKNS_7UStringES2_ 0x04e2c5f4
_ZN3JSCgtERKNS_7UStringES2_ 0x04e2c6b4
_ZN3JSCltERKNS_7UStringES2_ 0x04e2c764
_ZN3JSCeqERKNS_7UStringES2_ 0x04e2c814
_ZNK3JSC7UString5rfindEti 0x04e2c920
_ZNK3JSC7UString5rfindERKS0_i 0x04e2c9ac
_ZNK3JSC7UString4findEti 0x04e2cb1c
_ZNK3JSC7UString4findERKS0_i 0x04e2cba0
_ZNK3JSC7UStringixEi 0x04e2cd0c
_ZNK3JSC7UString6is8BitEv 0x04e2cd4c
_ZNK3JSC7UString5asciiEv 0x04e2cdb8
_ZN3JSC5equalEPKNS_7UString3RepES3_ 0x04e2ce90
_ZNK3JSC7UString14toStrictUInt32EPb 0x04e2cf28
_ZN3JSCeqERKNS_7CStringES2_ 0x04e2d018
_ZN3JSCeqERKNS_7UStringEPKc 0x04e2d088
_ZN3JSC7CString5adoptEPcj 0x04e2d13c
_ZNK3JSC7UString10getCStringERN3WTF6VectorIcLj32EEE 0x04e2d148
_ZNK3JSC7UString8toDoubleEbb 0x04e2d214
_ZNK3JSC7UString8toUInt32EPbb 0x04e2d718
_ZNK3JSC7UString8toDoubleEv 0x04e2d7d0
_ZNK3JSC7UString8toUInt32EPb 0x04e2d804
_ZNK3JSC7UString8toDoubleEb 0x04e2d8b8
_ZNK3JSC7UString10UTF8StringEb 0x04e2d8e8
_ZN3JSC7UString3Rep7destroyEv 0x04e2da64
_ZN3JSC7UString3Rep6createEN3WTF10PassRefPtrIS1_EEii 0x04e2db1c
_ZN3JSC7UString8makeNullEv 0x04e2dc34
_ZN3JSC7UStringC2EPKc 0x04e2dcac
_ZN3JSC7UStringC1EPKc 0x04e2dcf0
_ZN3JSC7UString4fromEd 0x04e2dd34
_ZNK3JSC7UString6substrEii 0x04e2e130
_ZN3JSC7UStringaSEPKc 0x04e2e268
_ZN3JSC7UString14expandCapacityEi 0x04e2e484
_ZN3JSC7UString6appendEt 0x04e2e5c4
_ZN3JSC7UString6appendEPKc 0x04e2ef1c
_ZN3JSC11concatenateEPNS_7UString3RepEd 0x04e2f000
_ZN3JSC7UString17expandPreCapacityEi 0x04e2f4d0
_ZN3JSC7UString3Rep13createCopyingEPKti 0x04e2f680
_ZN3JSC7UString6appendEPKti 0x04e2fdc0
_ZN3JSC11concatenateEPNS_7UString3RepEi 0x04e2fea8
_ZN3JSC7UStringC1ERKN3WTF6VectorItLj0EEE 0x04e30070
_ZN3JSC7UStringC2ERKN3WTF6VectorItLj0EEE 0x04e30154
_ZN3JSC7UStringC1EPtib 0x04e30238
_ZN3JSC7UStringC2EPtib 0x04e30318
_ZN3JSC7UStringC1EPKti 0x04e303f8
_ZN3JSC7UString4fromEl 0x04e304d0
_ZN3JSC7UString4fromEj 0x04e30600
_ZN3JSC7UString4fromEi 0x04e306d0
_ZN3JSC7UStringC2EPKti 0x04e30800
_ZN3JSC7UString3Rep14createFromUTF8EPKc 0x04e308d8
_ZN3JSC7UString6appendERKS0_ 0x04e30ab0
_ZNK3JSC7UString30spliceSubstringsWithSeparatorsEPKNS0_5RangeEiPKS0_i 0x04e30f38
_ZN3JSC11concatenateEPNS_7UString3RepES2_ 0x04e31334
_ZN3JSC12HeavyProfile22addAncestorsAsChildrenEPNS_11ProfileNodeES2_ 0x04e3194c
_ZN3JSC12HeavyProfile13mergeProfilesEPNS_11ProfileNodeES2_ 0x04e31d48
_ZN3JSC12HeavyProfile7addNodeEPNS_11ProfileNodeE 0x04e31e28
_ZN3JSC12HeavyProfile22generateHeavyStructureEv 0x04e320fc
_ZN3JSC12HeavyProfileC1EPNS_11TreeProfileE 0x04e322d8
_ZN3JSC12HeavyProfileC2EPNS_11TreeProfileE 0x04e32374
_ZN3JSC7Profile7forEachEMNS_11ProfileNodeEFvvE 0x04e32410
_ZN3JSC7Profile10restoreAllEv 0x04e32580
_ZN3JSC7Profile6createERKNS_7UStringEj 0x04e325d0
_ZN3JSC7Profile5focusEPKNS_11ProfileNodeE 0x04e32618
_ZN3JSC7Profile7excludeEPKNS_11ProfileNodeE 0x04e326e8
_ZN3JSC7ProfileD1Ev 0x04e327b0
_ZN3JSC7ProfileD2Ev 0x04e32924
_ZN3JSC7ProfileC1ERKNS_7UStringEj 0x04e32a98
_ZN3JSC7ProfileC2ERKNS_7UStringEj 0x04e32d84
_ZN3JSC7ProfileD0Ev 0x04e33070
_ZN3JSC16ProfileGenerator16removeProfileEndEv 0x04e33208
_ZNK3JSC16ProfileGenerator5titleEv 0x04e332d8
_ZN3JSC16ProfileGenerator18removeProfileStartEv 0x04e332e4
_ZN3JSC16ProfileGenerator24addParentForConsoleStartEPNS_9ExecStateE 0x04e333a4
_ZN3JSC16ProfileGeneratorC2ERKNS_7UStringEPNS_9ExecStateEj 0x04e337f0
_ZN3JSC16ProfileGenerator10didExecuteERKNS_14CallIdentifierE 0x04e33ba0
_ZN3JSC16ProfileGenerator11willExecuteERKNS_14CallIdentifierE 0x04e33eec
_ZN3JSC16ProfileGeneratorC1ERKNS_7UStringEPNS_9ExecStateEj 0x04e34054
_ZN3JSC16ProfileGenerator6createERKNS_7UStringEPNS_9ExecStateEj 0x04e34404
_ZN3JSC16ProfileGenerator13stopProfilingEv 0x04e34494
_ZNK3JSC11ProfileNode25traverseNextNodePostOrderEv 0x04e34958
_ZNK3JSC11ProfileNode24traverseNextNodePreOrderEb 0x04e3499c
_ZN3JSC11ProfileNode14setTreeVisibleEPS0_b 0x04e349f0
_ZN3JSC11ProfileNode7restoreEv 0x04e34a78
_ZN3JSC11ProfileNode22resetChildrensSiblingsEv 0x04e34a94
_ZN3JSC11ProfileNode10startTimerEv 0x04e34b18
_ZN3JSC11ProfileNodeC1ERKNS_14CallIdentifierEPS0_S4_ 0x04e34b68
_ZN3JSC11ProfileNodeC2ERKNS_14CallIdentifierEPS0_S4_ 0x04e34c30
_ZN3JSC11ProfileNode16endAndRecordCallEv 0x04e34cf8
_ZN3JSC11ProfileNode10didExecuteEv 0x04e34d7c
_ZN3JSC11ProfileNode13stopProfilingEv 0x04e34db8
_ZN3JSC11ProfileNode25calculateVisibleTotalTimeEv 0x04e34e94
_ZN3JSC11ProfileNodeC1EPS0_S1_ 0x04e34efc
_ZN3JSC11ProfileNodeC2EPS0_S1_ 0x04e34fb0
_ZNK3JSC11ProfileNode9findChildEPS0_ 0x04e35064
_ZN3JSC11ProfileNode5focusERKNS_14CallIdentifierE 0x04e3514c
_ZN3JSC11ProfileNode7excludeERKNS_14CallIdentifierE 0x04e35238
_ZN3JSC11ProfileNode11willExecuteERKNS_14CallIdentifierE 0x04e35304
_ZN3JSC11ProfileNode11removeChildEPS0_ 0x04e355fc
_ZN3JSC11ProfileNode8addChildEN3WTF10PassRefPtrIS0_EE 0x04e35820
_ZN3JSC11ProfileNode10insertNodeEN3WTF10PassRefPtrIS0_EE 0x04e359c4
_ZN3JSC11ProfileNode4sortEPFbRKN3WTF6RefPtrIS0_EES5_E 0x04e35cec
_ZN3JSC8Profiler8profilerEv 0x04e35d5c
_ZN3JSC8Profiler20createCallIdentifierEPNS_12JSGlobalDataENS_10JSValuePtrERKNS_7UStringEi 0x04e35de0
_ZN3JSC8Profiler10didExecuteEPNS_9ExecStateERKNS_7UStringEi 0x04e363b8
_ZN3JSC8Profiler10didExecuteEPNS_9ExecStateENS_10JSValuePtrE 0x04e3657c
_ZN3JSC8Profiler11willExecuteEPNS_9ExecStateERKNS_7UStringEi 0x04e367a4
_ZN3JSC8Profiler11willExecuteEPNS_9ExecStateENS_10JSValuePtrE 0x04e36968
_ZN3JSC8Profiler13stopProfilingEPNS_9ExecStateERKNS_7UStringE 0x04e36b90
_ZN3JSC8Profiler14startProfilingEPNS_9ExecStateERKNS_7UStringE 0x04e37014
_ZN3JSC11TreeProfileC1ERKNS_7UStringEj 0x04e3742c
_ZN3JSC11TreeProfile6createERKNS_7UStringEj 0x04e37478
_ZN3JSC11TreeProfileC2ERKNS_7UStringEj 0x04e374f8
_ZN3JSC11TreeProfile12heavyProfileEv 0x04e37544
_ZN3WTF27releaseFastMallocFreeMemoryEv 0x04e37624
_ZN3WTF20fastMallocStatisticsEv 0x04e37628
_ZN3WTF11fastReallocEPvj 0x04e37640
_ZN3WTF14tryFastReallocEPvj 0x04e376ac
_ZN3WTF8fastFreeEPv 0x04e376d8
_ZN3WTF10fastCallocEjj 0x04e37704
_ZN3WTF13tryFastCallocEjj 0x04e37770
_ZN3WTF10fastMallocEj 0x04e3779c
_ZN3WTF13tryFastMallocEj 0x04e37808
_ZN3WTF19tryFastZeroedMallocEj 0x04e37834
_ZN3WTF16fastZeroedMallocEj 0x04e37898
_ZN3WTF12createThreadEPFPvS0_ES0_PKc 0x04e379a0
_ZN3WTF13ThreadPrivate3runEv 0x04e37a78
_ZN3WTF12detachThreadEj 0x04e37ab4
_ZN3WTF15ThreadCondition9broadcastEv 0x04e37ab8
_ZN3WTF15ThreadCondition6signalEv 0x04e37ae8
_ZN3WTF15ThreadCondition4waitERNS_5MutexE 0x04e37b18
_ZN3WTF15ThreadCondition9timedWaitERNS_5MutexEd 0x04e37b50
_ZN3WTF15ThreadConditionD2Ev 0x04e37c04
_ZN3WTF5Mutex6unlockEv 0x04e37c5c
_ZN3WTF38unlockAtomicallyInitializedStaticMutexEv 0x04e37c8c
_ZN3WTF5Mutex7tryLockEv 0x04e37cc0
_ZN3WTF5Mutex4lockEv 0x04e37cf0
_ZN3WTF36lockAtomicallyInitializedStaticMutexEv 0x04e37d20
_ZN3WTF5MutexD1Ev 0x04e37d54
_ZN3WTF5MutexC1Ev 0x04e37de0
_ZN3WTF5MutexC2Ev 0x04e37e40
_ZN3WTF13ThreadPrivateC1EPFPvS1_ES1_ 0x04e381bc
_ZN3WTF13ThreadPrivateC2EPFPvS1_ES1_ 0x04e3822c
_ZN3WTF5MutexD2Ev 0x04e3829c
_ZN3WTF15ThreadConditionC1Ev 0x04e382f4
_ZN3WTF15ThreadConditionC2Ev 0x04e38350
_ZN3WTF15ThreadConditionD1Ev 0x04e383ac
_ZN3WTF12isMainThreadEv 0x04e38404
_ZN3WTF13currentThreadEv 0x04e38514
_ZN3WTF20createThreadInternalEPFPvS0_ES0_PKc 0x04e38588
_ZN3WTF19initializeThreadingEv 0x04e38638
_ZN3WTF23waitForThreadCompletionEjPPv 0x04e38778
_ZNK3WTF17MainThreadInvoker10metaObjectEv 0x04e38910
_ZN3WTF17MainThreadInvoker11qt_metacastEPKc 0x04e38980
_ZN3WTF17MainThreadInvoker8dispatchEv 0x04e38a20
_ZN3WTF17MainThreadInvoker11qt_metacallEN11QMetaObject4CallEiPPv 0x04e38a4c
_ZN3WTF17MainThreadInvokerC1Ev 0x04e38ac4
_ZN3WTF17MainThreadInvokerC2Ev 0x04e38c60
_ZN3WTF37scheduleDispatchFunctionsOnMainThreadEv 0x04e38cd8
_Z10jscyyerrorPKc 0x04e39294
_Z10jscyyparsePv 0x04e3b980
_ZN3JSC12RuntimeArray14deletePropertyEPNS_9ExecStateERKNS_10IdentifierE 0x04e84a38
_ZN3JSC12RuntimeArray14deletePropertyEPNS_9ExecStateEj 0x04e84a40
_ZN3JSC12RuntimeArray18getOwnPropertySlotEPNS_9ExecStateEjRNS_12PropertySlotE 0x04e84a48
_ZN3JSC12RuntimeArray11indexGetterEPNS_9ExecStateERKNS_10IdentifierERKNS_12PropertySlotE 0x04e84b14
_ZN3JSC12RuntimeArray3putEPNS_9ExecStateERKNS_10IdentifierENS_10JSValuePtrERNS_15PutPropertySlotE 0x04e84b50
_ZN3JSC12RuntimeArray18getOwnPropertySlotEPNS_9ExecStateERKNS_10IdentifierERNS_12PropertySlotE 0x04e84ca8
_ZN3JSC12RuntimeArray12lengthGetterEPNS_9ExecStateERKNS_10IdentifierERKNS_12PropertySlotE 0x04e84f94
_ZN3JSC12RuntimeArray3putEPNS_9ExecStateEjNS_10JSValuePtrE 0x04e84fec
_ZN3JSC12RuntimeArrayC2EPNS_9ExecStateEPNS_8Bindings5ArrayE 0x04e850b0
_ZN3JSC12RuntimeArrayC1EPNS_9ExecStateEPNS_8Bindings5ArrayE 0x04e8525c
_ZN3JSC8Bindings8Instance21setDidExecuteFunctionEPFvPNS_9ExecStateEPNS_8JSObjectEE 0x04e85408
_ZN3JSC8Bindings8Instance18didExecuteFunctionEv 0x04e85414
_ZN3JSC8Bindings8Instance5beginEv 0x04e85420
_ZN3JSC8Bindings8Instance3endEv 0x04e8544c
_ZNK3JSC8Bindings8Instance15getValueOfFieldEPNS_9ExecStateEPKNS0_5FieldE 0x04e85478
_ZNK3JSC8Bindings8Instance15setValueOfFieldEPNS_9ExecStateEPKNS0_5FieldENS_10JSValuePtrE 0x04e854b0
_ZN3JSC8Bindings5ArrayC2EN3WTF10PassRefPtrINS0_10RootObjectEEE 0x04e854f4
_ZNK3JSC8Bindings8Instance10rootObjectEv 0x04e85514
_ZN3JSC8Bindings5ArrayD0Ev 0x04e85534
_ZN3JSC8Bindings8InstanceC2EN3WTF10PassRefPtrINS0_10RootObjectEEE 0x04e855fc
_ZN3JSC8Bindings8InstanceC1EN3WTF10PassRefPtrINS0_10RootObjectEEE 0x04e85624
_ZN3JSC8Bindings5ArrayC1EN3WTF10PassRefPtrINS0_10RootObjectEEE 0x04e8564c
_ZN3JSC8Bindings5ArrayD1Ev 0x04e8566c
_ZN3JSC8Bindings5ArrayD2Ev 0x04e856f8
_ZN3JSC8Bindings8InstanceD0Ev 0x04e85784
_ZN3JSC8Bindings8InstanceD1Ev 0x04e8584c
_ZN3JSC8Bindings8InstanceD2Ev 0x04e858d8
_ZN3JSC8Bindings8Instance19createRuntimeObjectEPNS_9ExecStateEN3WTF10PassRefPtrIS1_EE 0x04e85964
_ZN3JSC8Bindings8Instance11getInstanceEPNS_8JSObjectENS1_15BindingLanguageE 0x04e85aac
_ZN3JSC13RuntimeMethod11getCallDataERNS_8CallDataE 0x04e85b58
_ZN3JSC13RuntimeMethod12lengthGetterEPNS_9ExecStateERKNS_10IdentifierERKNS_12PropertySlotE 0x04e85b6c
_ZN3JSC13RuntimeMethod18getOwnPropertySlotEPNS_9ExecStateERKNS_10IdentifierERNS_12PropertySlotE 0x04e85bcc
_ZN3JSC13RuntimeMethodC2EPNS_9ExecStateERKNS_10IdentifierERN3WTF6VectorIPNS_8Bindings6MethodELj0EEE 0x04e85e44
_ZN3JSC13RuntimeMethodC1EPNS_9ExecStateERKNS_10IdentifierERN3WTF6VectorIPNS_8Bindings6MethodELj0EEE 0x04e866f8
_ZN3JSC16RuntimeObjectImp14deletePropertyEPNS_9ExecStateERKNS_10IdentifierE 0x04e8694c
_ZN3JSC16RuntimeObjectImp10invalidateEv 0x04e86954
_ZN3JSC16RuntimeObjectImp23throwInvalidAccessErrorEPNS_9ExecStateE 0x04e869c8
_ZN3JSC16RuntimeObjectImp11getCallDataERNS_8CallDataE 0x04e86a00
_ZN3JSC16RuntimeObjectImp16getPropertyNamesEPNS_9ExecStateERNS_17PropertyNameArrayE 0x04e86a78
_ZN3JSC16RuntimeObjectImp16getConstructDataERNS_13ConstructDataE 0x04e86b38
_ZN3JSC16RuntimeObjectImp11fieldGetterEPNS_9ExecStateERKNS_10IdentifierERKNS_12PropertySlotE 0x04e86bb0
_ZN3JSC16RuntimeObjectImp20fallbackObjectGetterEPNS_9ExecStateERKNS_10IdentifierERKNS_12PropertySlotE 0x04e86d18
_ZN3JSC22callRuntimeConstructorEPNS_9ExecStateEPNS_8JSObjectERKNS_7ArgListE 0x04e86e68
_ZNK3JSC16RuntimeObjectImp12defaultValueEPNS_9ExecStateENS_22PreferredPrimitiveTypeE 0x04e8708c
_ZN3JSC16RuntimeObjectImp3putEPNS_9ExecStateERKNS_10IdentifierENS_10JSValuePtrERNS_15PutPropertySlotE 0x04e871dc
_ZN3JSC16RuntimeObjectImp12methodGetterEPNS_9ExecStateERKNS_10IdentifierERKNS_12PropertySlotE 0x04e87408
_ZN3JSC16RuntimeObjectImp18getOwnPropertySlotEPNS_9ExecStateERKNS_10IdentifierERNS_12PropertySlotE 0x04e8761c
_ZN3JSC16RuntimeObjectImpD1Ev 0x04e87a50
_ZN3JSC16RuntimeObjectImpC1EPNS_9ExecStateEN3WTF10PassRefPtrINS_8Bindings8InstanceEEE 0x04e87bf4
_ZN3JSC16RuntimeObjectImpC2EPNS_9ExecStateEN3WTF10PassRefPtrINS_8Bindings8InstanceEEE 0x04e87dd0
_ZN3JSC16RuntimeObjectImpC2EPNS_9ExecStateEN3WTF10PassRefPtrINS_9StructureEEENS4_INS_8Bindings8InstanceEEE 0x04e87fac
_ZN3JSC16RuntimeObjectImpC1EPNS_9ExecStateEN3WTF10PassRefPtrINS_9StructureEEENS4_INS_8Bindings8InstanceEEE 0x04e88038
_ZN3JSC16RuntimeObjectImpD2Ev 0x04e880c4
_ZN3JSC16RuntimeObjectImpD0Ev 0x04e88268
_ZNK3JSC8Bindings10RootObject12nativeHandleEv 0x04e88438
_ZNK3JSC8Bindings10RootObject12globalObjectEv 0x04e88440
_ZN3JSC8Bindings10RootObject19removeRuntimeObjectEPNS_16RuntimeObjectImpE 0x04e88448
_ZN3JSC8Bindings10RootObject16addRuntimeObjectEPNS_16RuntimeObjectImpE 0x04e8857c
_ZN3JSC8Bindings10RootObjectC1EPKvPNS_14JSGlobalObjectE 0x04e885bc
_ZN3JSC8Bindings10RootObject6createEPKvPNS_14JSGlobalObjectE 0x04e886ac
_ZN3JSC8Bindings14findRootObjectEPNS_14JSGlobalObjectE 0x04e8872c
_ZN3JSC8Bindings10RootObjectC2EPKvPNS_14JSGlobalObjectE 0x04e88838
_ZN3JSC8Bindings10RootObject13gcIsProtectedEPNS_8JSObjectE 0x04e88928
_ZN3JSC8Bindings24findProtectingRootObjectEPNS_8JSObjectE 0x04e88964
_ZN3JSC8Bindings10RootObject9gcProtectEPNS_8JSObjectE 0x04e88a94
_ZN3JSC8Bindings10RootObject11gcUnprotectEPNS_8JSObjectE 0x04e88b6c
_ZN3JSC8Bindings10RootObject10invalidateEv 0x04e88cc0
_ZN3JSC8Bindings10RootObjectD1Ev 0x04e88f5c
_ZN3JSC8Bindings10RootObjectD2Ev 0x04e8901c
_Z15getPropertyName13CSSPropertyID 0x04ea40ec
_Z12getValueNamet 0x04ea44fc
_ZN3JSC8Bindings7QtClassC2EPK11QMetaObject 0x0528a700
_ZN3JSC8Bindings7QtClassC1EPK11QMetaObject 0x0528a714
_ZNK3JSC8Bindings7QtClass4nameEv 0x0528a728
_ZNK3JSC8Bindings7QtClass12methodsNamedERKNS_10IdentifierEPNS0_8InstanceE 0x0528a734
_ZN3JSC8Bindings7QtClassD2Ev 0x0528a74c
_ZN3JSC8Bindings7QtClassD0Ev 0x0528a75c
_ZN3JSC8Bindings7QtClassD1Ev 0x0528a794
_ZN3JSC8Bindings7QtClass14classForObjectEP7QObject 0x0528a7a4
_ZN3JSC8Bindings7QtClass14fallbackObjectEPNS_9ExecStateEPNS0_8InstanceERKNS_10IdentifierE 0x0528a8e0
_ZNK3JSC8Bindings7QtClass10fieldNamedERKNS_10IdentifierEPNS0_8InstanceE 0x0528afd8
_ZN3JSC8Bindings10QtInstance5beginEv 0x0528bb3c
_ZN3JSC8Bindings10QtInstance3endEv 0x0528bb40
_ZNK3JSC8Bindings10QtInstance12booleanValueEv 0x0528bb44
_GLOBAL__D__ZN3JSC8Bindings18QtRuntimeObjectImpC2EPNS_9ExecStateEN3WTF10PassRefPtrINS0_8InstanceEEE 0x0528bc64
_GLOBAL__I__ZN3JSC8Bindings18QtRuntimeObjectImpC2EPNS_9ExecStateEN3WTF10PassRefPtrINS0_8InstanceEEE 0x0528bc9c
_ZNK3JSC8Bindings10QtInstance11numberValueEPNS_9ExecStateE 0x0528bcd4
_ZNK3JSC8Bindings10QtInstance8getClassEv 0x0528bd08
_ZN3JSC8Bindings10QtInstance12invokeMethodEPNS_9ExecStateERKN3WTF6VectorIPNS0_6MethodELj0EEERKNS_7ArgListE 0x0528bd68
_ZN3JSC8Bindings10QtInstance4markEv 0x0528bd70
_ZN3JSC8Bindings18QtRuntimeObjectImpC1EPNS_9ExecStateEN3WTF10PassRefPtrINS0_8InstanceEEE 0x0528c0a8
_ZN3JSC8Bindings10QtInstanceC1EP7QObjectN3WTF10PassRefPtrINS0_10RootObjectEEEN13QScriptEngine14ValueOwnershipE 0x0528c338
_ZN3JSC8Bindings10QtInstanceC2EP7QObjectN3WTF10PassRefPtrINS0_10RootObjectEEEN13QScriptEngine14ValueOwnershipE 0x0528c470
_ZN3JSC8Bindings18QtRuntimeObjectImp15removeFromCacheEv 0x0528c5a8
_ZN3JSC8Bindings18QtRuntimeObjectImp10invalidateEv 0x0528c614
_ZN3JSC8Bindings18QtRuntimeObjectImpD0Ev 0x0528c660
_ZN3JSC8Bindings18QtRuntimeObjectImpD1Ev 0x0528c6cc
_ZN3JSC8Bindings18QtRuntimeObjectImpD2Ev 0x0528c724
_ZN3JSC8Bindings18QtRuntimeObjectImpC2EPNS_9ExecStateEN3WTF10PassRefPtrINS0_8InstanceEEE 0x0528c77c
_ZN3JSC8Bindings10QtInstance13getQtInstanceEP7QObjectN3WTF10PassRefPtrINS0_10RootObjectEEEN13QScriptEngine14ValueOwnershipE 0x0528ca0c
_ZN3JSC8Bindings10QtInstance16getRuntimeObjectEPNS_9ExecStateEN3WTF10PassRefPtrIS1_EE 0x0528cd7c
_ZN3JSC8Bindings10QtInstance16getPropertyNamesEPNS_9ExecStateERNS_17PropertyNameArrayE 0x0528d06c
_ZN3JSC8Bindings10QtInstanceD0Ev 0x0528d4fc
_ZN3JSC8Bindings10QtInstanceD1Ev 0x0528d9e0
_ZN3JSC8Bindings10QtInstanceD2Ev 0x0528deb0
_ZNK3JSC8Bindings7QtField4nameEv 0x0528e380
_ZNK3JSC8Bindings7QtField17valueFromInstanceEPNS_9ExecStateEPKNS0_8InstanceE 0x0528e4c0
_ZNK3JSC8Bindings7QtField18setValueToInstanceEPNS_9ExecStateEPKNS0_8InstanceENS_10JSValuePtrE 0x0528e984
_ZNK3JSC8Bindings10QtInstance11stringValueEPNS_9ExecStateE 0x0528ec50
_ZNK3JSC8Bindings10QtInstance7valueOfEPNS_9ExecStateE 0x0528f2d4
_ZNK3JSC8Bindings10QtInstance12defaultValueEPNS_9ExecStateENS_22PreferredPrimitiveTypeE 0x0528f300
_ZN3JSC8Bindings19QtRuntimeMetaMethod11getCallDataERNS_8CallDataE 0x0528f37c
_ZN3JSC8Bindings25QtRuntimeConnectionMethod11getCallDataERNS_8CallDataE 0x0528f390
_ZNK3JSC8Bindings18QtConnectionObject10metaObjectEv 0x0528f3a4
_ZN3JSC8Bindings18QtConnectionObject5matchEP7QObjectiPNS_8JSObjectES5_ 0x0528f3b0
_GLOBAL__D__ZN3JSC8Bindings22convertValueToQVariantEPNS_9ExecStateENS_10JSValuePtrEN9QMetaType4TypeEPiPN3WTF7HashSetIPNS_8JSObjectENS7_7PtrHashISA_EENS7_10HashTraitsISA_EEEE 0x0528f4ac
_GLOBAL__I__ZN3JSC8Bindings22convertValueToQVariantEPNS_9ExecStateENS_10JSValuePtrEN9QMetaType4TypeEPiPN3WTF7HashSetIPNS_8JSObjectENS7_7PtrHashISA_EENS7_10HashTraitsISA_EEEE 0x0528f4e4
_ZNK3JSC8Bindings17QtMethodMatchType6typeIdEv 0x0528f51c
_ZN3JSC8Bindings18QtConnectionObject11qt_metacastEPKc 0x0528f57c
_ZN3JSC8Bindings25QtRuntimeConnectionMethod12lengthGetterEPNS_9ExecStateERKNS_10IdentifierERKNS_12PropertySlotE 0x0528f61c
_ZN3JSC8Bindings19QtRuntimeMetaMethod12lengthGetterEPNS_9ExecStateERKNS_10IdentifierERKNS_12PropertySlotE 0x0528f64c
_ZNK3JSC8Bindings17QtMethodMatchType4nameEv 0x0528f67c
_ZN3JSC8Bindings19QtRuntimeMetaMethod4markEv 0x0528f728
_ZN3JSC8Bindings18QtConnectionObjectC2EN3WTF10PassRefPtrINS0_10QtInstanceEEEiPNS_8JSObjectES7_ 0x0528f7a4
_ZN3JSC8Bindings18QtConnectionObjectC1EN3WTF10PassRefPtrINS0_10QtInstanceEEEiPNS_8JSObjectES7_ 0x0528f8e0
_ZN3JSC8Bindings19QtRuntimeMetaMethod18getOwnPropertySlotEPNS_9ExecStateERKNS_10IdentifierERNS_12PropertySlotE 0x0528fa1c
_ZN3JSC8Bindings19QtRuntimeMethodDataD1Ev 0x0528fd0c
_ZN3JSC8Bindings15QtRuntimeMethodD2Ev 0x0528fd84
_ZN3JSC8Bindings18QtConnectionObjectD1Ev 0x0528fed4
_ZN3JSC8Bindings18QtConnectionObjectD0Ev 0x05290124
_ZN3JSC8Bindings19QtRuntimeMethodDataD2Ev 0x05290358
_ZN3JSC8Bindings19QtRuntimeMethodDataD0Ev 0x052903d0
_ZN3JSC8Bindings18QtConnectionObjectD2Ev 0x05290480
_ZN3JSC8Bindings15QtRuntimeMethodC2EPNS0_19QtRuntimeMethodDataEPNS_9ExecStateERKNS_10IdentifierEN3WTF10PassRefPtrINS0_10QtInstanceEEE 0x052906d0
_ZN3JSC8Bindings25QtRuntimeConnectionMethodC1EPNS_9ExecStateERKNS_10IdentifierEbN3WTF10PassRefPtrINS0_10QtInstanceEEEiRK10QByteArray 0x0529097c
_ZN3JSC8Bindings19QtRuntimeMetaMethod16disconnectGetterEPNS_9ExecStateERKNS_10IdentifierERKNS_12PropertySlotE 0x05290ad4
_ZN3JSC8Bindings19QtRuntimeMetaMethod13connectGetterEPNS_9ExecStateERKNS_10IdentifierERKNS_12PropertySlotE 0x05290c04
_ZN3JSC8Bindings25QtRuntimeConnectionMethodC2EPNS_9ExecStateERKNS_10IdentifierEbN3WTF10PassRefPtrINS0_10QtInstanceEEEiRK10QByteArray 0x05290d34
_ZN3JSC8Bindings19QtRuntimeMetaMethodC1EPNS_9ExecStateERKNS_10IdentifierEN3WTF10PassRefPtrINS0_10QtInstanceEEEiRK10QByteArrayb 0x05290e8c
_ZN3JSC8Bindings19QtRuntimeMetaMethodC2EPNS_9ExecStateERKNS_10IdentifierEN3WTF10PassRefPtrINS0_10QtInstanceEEEiRK10QByteArrayb 0x05290ff0
_ZN3JSC8Bindings29QtRuntimeConnectionMethodDataD0Ev 0x05291440
_ZN3JSC8Bindings29QtRuntimeConnectionMethodDataD1Ev 0x052914d0
_ZN3JSC8Bindings29QtRuntimeConnectionMethodDataD2Ev 0x05291570
_ZN3JSC8Bindings23QtRuntimeMetaMethodDataD0Ev 0x05291610
_ZN3JSC8Bindings23QtRuntimeMetaMethodDataD1Ev 0x052916a0
_ZN3JSC8Bindings23QtRuntimeMetaMethodDataD2Ev 0x05291740
_ZN3JSC8Bindings15QtRuntimeMethodC1EPNS0_19QtRuntimeMethodDataEPNS_9ExecStateERKNS_10IdentifierEN3WTF10PassRefPtrINS0_10QtInstanceEEE 0x052917e0
_ZN3JSC8Bindings22convertQVariantToValueEPNS_9ExecStateEN3WTF10PassRefPtrINS0_10RootObjectEEERK8QVariant 0x05291a8c
_ZN3JSC8Bindings18QtConnectionObject7executeEPPv 0x052930a4
_ZN3JSC8Bindings18QtConnectionObject11qt_metacallEN11QMetaObject4CallEiPPv 0x05293f0c
_ZN3JSC8Bindings25QtRuntimeConnectionMethod18getOwnPropertySlotEPNS_9ExecStateERKNS_10IdentifierERNS_12PropertySlotE 0x05293f94
_ZN3JSC8Bindings25QtRuntimeConnectionMethod4callEPNS_9ExecStateEPNS_8JSObjectENS_10JSValuePtrERKNS_7ArgListE 0x0529420c
_ZN3JSC8Bindings22convertValueToQVariantEPNS_9ExecStateENS_10JSValuePtrEN9QMetaType4TypeEPiPN3WTF7HashSetIPNS_8JSObjectENS7_7PtrHashISA_EENS7_10HashTraitsISA_EEEE 0x0529552c
_ZN3JSC8Bindings22convertValueToQVariantEPNS_9ExecStateENS_10JSValuePtrEN9QMetaType4TypeEPi 0x0529931c
_ZN3JSC8Bindings19QtRuntimeMetaMethod4callEPNS_9ExecStateEPNS_8JSObjectENS_10JSValuePtrERKNS_7ArgListE 0x05299398
_ZN3JSC8Bindings15QtRuntimeMethodD0Ev 0x0529bee4
_ZN3JSC8Bindings15QtRuntimeMethodD1Ev 0x0529c060
_Z25qt_dump_editing_callbacksb 0x052ce1c8
_Z27qt_dump_set_accepts_editingb 0x052ce1d4
_ZN13EditCommandQtD2Ev 0x052d12ac
_ZN13EditCommandQt4undoEv 0x052d1318
_ZN13EditCommandQt4redoEv 0x052d1354
_ZN13EditCommandQtD1Ev 0x052d13dc
_Z20qt_dump_frame_loaderb 0x052d1448
_Z31qt_dump_resource_load_callbacksb 0x052d1454
_GLOBAL__D__Z20qt_dump_frame_loaderb 0x052d4858
_GLOBAL__I__Z20qt_dump_frame_loaderb 0x052d4890
_ZNK9QWebFrame4pageEv 0x052d92a4
_ZNK9QWebFrame15scrollBarPolicyEN2Qt11OrientationE 0x052d92b0
_ZNK9QWebFrame16scrollBarMinimumEN2Qt11OrientationE 0x052d92d0
_ZN16QWebFramePrivate4coreEP9QWebFrame 0x052d92d8
_ZN17QWebHitTestResultC2EP24QWebHitTestResultPrivate 0x052d92e4
_ZN17QWebHitTestResultC1EP24QWebHitTestResultPrivate 0x052d92ec
_ZN17QWebHitTestResultC2Ev 0x052d92f4
_ZN17QWebHitTestResultC1Ev 0x052d9300
_ZNK17QWebHitTestResult6isNullEv 0x052d930c
_ZNK17QWebHitTestResult17isContentEditableEv 0x052d931c
_ZNK17QWebHitTestResult17isContentSelectedEv 0x052d9338
_ZNK17QWebHitTestResult15linkTargetFrameEv 0x052d9354
_ZNK17QWebHitTestResult6pixmapEv 0x052d9370
_ZNK17QWebHitTestResult8imageUrlEv 0x052d93e4
_ZNK17QWebHitTestResult7linkUrlEv 0x052d9458
_ZNK17QWebHitTestResult9linkTitleEv 0x052d94cc
_ZN17QWebHitTestResultC2ERKS_ 0x052d9540
_ZNK9QWebFrame3urlEv 0x052d96ec
_ZN9QWebFrame5eventEP6QEvent 0x052d97a4
_ZNK9QWebFrame8geometryEv 0x052d97d0
_ZNK9QWebFrame3posEv 0x052d98b4
_ZNK16QWebFramePrivate17verticalScrollBarEv 0x052d99b8
_ZNK16QWebFramePrivate19horizontalScrollBarEv 0x052d9a18
_ZNK9QWebFrame16scrollBarMaximumEN2Qt11OrientationE 0x052d9a78
_ZNK9QWebFrame12contentsSizeEv 0x052d9ae4
_ZNK9QWebFrame10zoomFactorEv 0x052d9ba0
_ZNK9QWebFrame18textSizeMultiplierEv 0x052d9bd4
_ZN9QWebFrame13setZoomFactorEf 0x052d9c08
_ZN9QWebFrame21setTextSizeMultiplierEf 0x052d9c70
_ZN9QWebFrame6renderEP8QPainter 0x052d9ca8
_ZNK9QWebFrame14scrollPositionEv 0x052d9dcc
_ZN9QWebFrame6scrollEii 0x052d9e70
_ZNK9QWebFrame14scrollBarValueEN2Qt11OrientationE 0x052d9f38
_ZN9QWebFrame17setScrollBarValueEN2Qt11OrientationEi 0x052d9fac
_ZNK9QWebFrame9frameNameEv 0x052da0a0
_ZNK9QWebFrame11childFramesEv 0x052da0fc
_ZNK9QWebFrame5titleEv 0x052da21c
_ZN9QWebFrameD0Ev 0x052da2ec
_ZN9QWebFrameD1Ev 0x052da3f4
_ZN9QWebFrameD2Ev 0x052da4f0
_Z36qt_drt_setJavaScriptProfilingEnabledP9QWebFrameb 0x052da5ec
_ZNK17QWebHitTestResult13alternateTextEv 0x052da688
_ZNK17QWebHitTestResult8linkTextEv 0x052da6d0
_ZNK17QWebHitTestResult5titleEv 0x052da718
_ZN9QWebFrame18setScrollBarPolicyEN2Qt11OrientationENS0_15ScrollBarPolicyE 0x052da760
_ZNK17QWebHitTestResult3posEv 0x052da8bc
_ZNK17QWebHitTestResult12boundingRectEv 0x052da8ec
_ZN9QWebFrame6renderEP8QPainterRK7QRegion 0x052da934
_ZN9QWebFrame17setScrollPositionERK6QPoint 0x052dabb4
_ZNK17QWebHitTestResult5frameEv 0x052dac34
_ZNK9QWebFrame4iconEv 0x052dac50
_ZNK9QWebFrame11parentFrameEv 0x052dace4
_ZNK9QWebFrame14securityOriginEv 0x052dad28
_ZN9QWebFrameC1EPS_P13QWebFrameData 0x052db230
_ZN9QWebFrameC2EPS_P13QWebFrameData 0x052db30c
_ZNK9QWebFrame14renderTreeDumpEv 0x052db3e8
_ZNK9QWebFrame11toPlainTextEv 0x052db558
_ZNK9QWebFrame6toHtmlEv 0x052db6d8
_ZN9QWebFrameC2EP8QWebPageP13QWebFrameData 0x052db818
_ZN9QWebFrame27addToJavaScriptWindowObjectERK7QStringP7QObjectN13QScriptEngine14ValueOwnershipE 0x052dbb90
_ZN9QWebFrame27addToJavaScriptWindowObjectERK7QStringP7QObject 0x052dc028
_ZNK9QWebFrame8metaDataEv 0x052dc058
_ZN17QWebHitTestResultaSERKS_ 0x052dc5b8
_ZNK9QWebFrame14hitTestContentERK6QPoint 0x052dd23c
_ZN9QWebFrame7setHtmlERK7QStringRK4QUrl 0x052dd414
_ZN17QWebHitTestResultC1ERKS_ 0x052ddb98
_ZN9QWebFrame18evaluateJavaScriptERK7QString 0x052ddd44
_GLOBAL__D__Z36qt_drt_setJavaScriptProfilingEnabledP9QWebFrameb 0x052de20c
_GLOBAL__I__Z36qt_drt_setJavaScriptProfilingEnabledP9QWebFrameb 0x052de244
_ZN9QWebFrame10setContentERK10QByteArrayRK7QStringRK4QUrl 0x052dea70
_ZN17QWebHitTestResultD1Ev 0x052df204
_ZN17QWebHitTestResultD2Ev 0x052df41c
_ZN9QWebFrameC1EP8QWebPageP13QWebFrameData 0x052df634
_ZN9QWebFrame4loadERK15QNetworkRequestN21QNetworkAccessManager9OperationERK10QByteArray 0x052df9ac
_ZN9QWebFrame4loadERK4QUrl 0x052e03d0
_ZN9QWebFrame6setUrlERK4QUrl 0x052e0624
_Z10qt_drt_runb 0x052e0a38
_ZN15QWebPagePrivate26editorCommandForWebActionsEN8QWebPage9WebActionE 0x052e0a44
_ZNK8QWebPage7historyEv 0x052e0bb4
_ZNK8QWebPage4viewEv 0x052e0bc0
_ZN8QWebPage15javaScriptAlertEP9QWebFrameRK7QString 0x052e0bcc
_ZN8QWebPage17javaScriptConfirmEP9QWebFrameRK7QString 0x052e0bd0
_ZN8QWebPage16javaScriptPromptEP9QWebFrameRK7QStringS4_PS2_ 0x052e0bd8
_ZN8QWebPage12createPluginERK7QStringRK4QUrlRK11QStringListS8_ 0x052e0be0
_ZNK8QWebPage10isModifiedEv 0x052e0be8
_ZNK8QWebPage17isContentEditableEv 0x052e0bf0
_ZN8QWebPage28setForwardUnsupportedContentEb 0x052e0bfc
_ZNK8QWebPage25forwardUnsupportedContentEv 0x052e0c08
_ZN8QWebPage23setLinkDelegationPolicyENS_20LinkDelegationPolicyE 0x052e0c14
_ZNK8QWebPage20linkDelegationPolicyEv 0x052e0c20
_ZN8QWebPage9extensionENS_9ExtensionEPKNS_15ExtensionOptionEPNS_15ExtensionReturnE 0x052e0c2c
_ZNK8QWebPage17supportsExtensionENS_9ExtensionE 0x052e0c34
_ZNK8QWebPage8settingsEv 0x052e0c3c
_ZN8QWebPage10chooseFileEP9QWebFrameRK7QString 0x052e0c48
_ZN8QWebPage23setNetworkAccessManagerEP21QNetworkAccessManager 0x052e0c68
_ZN8QWebPage16setPluginFactoryEP17QWebPluginFactory 0x052e0ce4
_ZNK8QWebPage13pluginFactoryEv 0x052e0cf0
_ZN15QWebPagePrivate24_q_onLoadProgressChangedEi 0x052e0cfc
_ZNK8QWebPage10totalBytesEv 0x052e0d2c
_ZNK8QWebPage13bytesReceivedEv 0x052e0d3c
_ZNK8QWebPage10metaObjectEv 0x052e0d4c
_ZN15QWebPagePrivate23acceptNavigationRequestEP9QWebFrameRK15QNetworkRequestN8QWebPage14NavigationTypeE 0x052e0d58
_ZN8QWebPage26restoreFrameStateRequestedEP9QWebFrame 0x052e0dc4
_ZN8QWebPage23saveFrameStateRequestedEP9QWebFrameP15QWebHistoryItem 0x052e0e14
_ZN8QWebPage21databaseQuotaExceededEP9QWebFrame7QString 0x052e0e70
_ZN8QWebPage15contentsChangedEv 0x052e0ec4
_ZN8QWebPage17microFocusChangedEv 0x052e0f00
_ZN8QWebPage17downloadRequestedERK15QNetworkRequest 0x052e0f3c
_ZN8QWebPage18unsupportedContentEP13QNetworkReply 0x052e0f84
_ZN8QWebPage32menuBarVisibilityChangeRequestedEb 0x052e0fd4
_ZN8QWebPage34statusBarVisibilityChangeRequestedEb 0x052e1024
_ZN8QWebPage32toolBarVisibilityChangeRequestedEb 0x052e1074
_ZN8QWebPage11linkClickedERK4QUrl 0x052e10c4
_ZN8QWebPage14printRequestedEP9QWebFrame 0x052e110c
_ZN8QWebPage20windowCloseRequestedEv 0x052e115c
_ZN8QWebPage15scrollRequestedEiiRK5QRect 0x052e1198
_ZN8QWebPage16repaintRequestedERK5QRect 0x052e11f8
_ZN8QWebPage23geometryChangeRequestedERK5QRect 0x052e1240
_ZN8QWebPage12frameCreatedEP9QWebFrame 0x052e1288
_ZN8QWebPage16selectionChangedEv 0x052e12d8
_ZN8QWebPage16statusBarMessageERK7QString 0x052e1314
_ZN8QWebPage11linkHoveredERK7QStringS2_S2_ 0x052e135c
_ZN8QWebPage12loadFinishedEb 0x052e13ac
_ZN8QWebPage12loadProgressEi 0x052e13fc
_ZN8QWebPage11loadStartedEv 0x052e144c
_ZN8QWebPage11qt_metacastEPKc 0x052e1488
_ZNK8QWebPage20networkAccessManagerEv 0x052e1528
_ZNK8QWebPage12viewportSizeEv 0x052e15c8
_ZN15QWebPagePrivate15handleScrollingEP9QKeyEvent 0x052e16f0
_ZN15QWebPagePrivate21shortcutOverrideEventEP9QKeyEvent 0x052e18cc
_ZNK8QWebPage7paletteEv 0x052e1a04
_ZN8QWebPage10setPaletteERK8QPalette 0x052e1a48
_ZN15QWebPagePrivate14dragLeaveEventEP15QDragLeaveEvent 0x052e1bf4
_ZN15QWebPagePrivate14dragEnterEventEP15QDragEnterEvent 0x052e1cd0
_ZN15QWebPagePrivate13focusOutEventEP11QFocusEvent 0x052e1e6c
_ZN15QWebPagePrivate10wheelEventEP11QWheelEvent 0x052e1ee4
_ZN15QWebPagePrivate17mouseReleaseEventEP11QMouseEvent 0x052e1f9c
_ZN15QWebPagePrivate21mouseTripleClickEventEP11QMouseEvent 0x052e206c
_ZN15QWebPagePrivate21mouseDoubleClickEventEP11QMouseEvent 0x052e213c
_ZN15QWebPagePrivate15mousePressEventEP11QMouseEvent 0x052e2254
_ZN15QWebPagePrivate14mouseMoveEventEP11QMouseEvent 0x052e23cc
_ZN15QWebPagePrivate10leaveEventEP6QEvent 0x052e2490
_ZN15QWebPagePrivate10timerEventEP11QTimerEvent 0x052e2544
_ZN15QWebPagePrivate21_q_webActionTriggeredEb 0x052e25ac
_ZNK15QWebPagePrivate7frameAtERK6QPoint 0x052e268c
_ZN15QWebPagePrivateD2Ev 0x052e285c
_ZNK8QWebPage12currentFrameEv 0x052e2adc
_Z20qt_webpage_groupNameP8QWebPage 0x052e2b54
_ZN8QWebPage23swallowContextMenuEventEP17QContextMenuEvent 0x052e2bb0
_ZN8QWebPage12createWindowENS_13WebWindowTypeE 0x052e2d94
_ZN15QWebPagePrivateD1Ev 0x052e2e28
_ZN8QWebPageD0Ev 0x052e2f90
_ZN8QWebPageD1Ev 0x052e3068
_ZN8QWebPageD2Ev 0x052e3124
_ZN8QWebPage25createStandardContextMenuEv 0x052e31e0
_ZN15QWebPagePrivate16contextMenuEventEP17QContextMenuEvent 0x052e3230
_ZN15QWebPagePrivate9dropEventEP10QDropEvent 0x052e32a0
_ZN15QWebPagePrivate13dragMoveEventEP14QDragMoveEvent 0x052e3408
_ZN15QWebPagePrivate12focusInEventEP11QFocusEvent 0x052e35a4
_GLOBAL__D__ZN15QWebPagePrivate6drtRunE 0x052e37a8
_GLOBAL__I__ZN15QWebPagePrivate6drtRunE 0x052e37e0
_ZNK8QWebPage12selectedTextEv 0x052e3818
_ZN15QWebPagePrivate13keyPressEventEP9QKeyEvent 0x052e3900
_ZN15QWebPagePrivate12updateActionEN8QWebPage9WebActionE 0x052e3c34
_ZN15QWebPagePrivate19updateEditorActionsEv 0x052e3f54
_ZN8QWebPage18setContentEditableEb 0x052e41d8
_ZN15QWebPagePrivate23updateNavigationActionsEv 0x052e4290
_ZN15QWebPagePrivate15createMainFrameEv 0x052e4304
_ZNK8QWebPage9mainFrameEv 0x052e44fc
_ZNK8QWebPage15setViewportSizeERK5QSize 0x052e4540
_ZN8QWebPage7setViewEP7QWidget 0x052e4670
_ZN15QWebPagePrivateC1EP8QWebPage 0x052e470c
_ZN8QWebPageC1EP7QObject 0x052e4a88
_ZN8QWebPageC2EP7QObject 0x052e4b74
_ZN8QWebPage8findTextERK7QString6QFlagsINS_8FindFlagEE 0x052e4c60
_ZN15QWebPagePrivateC2EP8QWebPage 0x052e4d50
_Z23qt_webpage_setGroupNameP8QWebPageRK7QString 0x052e50cc
_ZN15QWebPagePrivate15keyReleaseEventEP9QKeyEvent 0x052e5190
_ZN8QWebPage11qt_metacallEN11QMetaObject4CallEiPPv 0x052e59d4
_ZN8QWebPage23acceptNavigationRequestEP9QWebFrameRK15QNetworkRequestNS_14NavigationTypeE 0x052e60e4
_ZN8QWebPage13triggerActionENS_9WebActionEb 0x052e6328
_ZN8QWebPage24javaScriptConsoleMessageERK7QStringiS2_ 0x052e74f8
_ZNK8QWebPage15userAgentForUrlERK4QUrl 0x052e7888
_ZN8QWebPage18focusNextPrevChildEb 0x052e7d58
_ZNK8QWebPage6actionENS_9WebActionE 0x052e7ec4
_ZNK8QWebPage16inputMethodQueryEN2Qt16InputMethodQueryE 0x052e9ba0
_ZN15QWebPagePrivate16inputMethodEventEP17QInputMethodEvent 0x052ea188
_ZN8QWebPage5eventEP6QEvent 0x052ea4f0
_ZN8QWebPage30updatePositionDependentActionsERK6QPoint 0x052ead80
_ZNK8QWebView8sizeHintEv 0x052eb300
_ZNK8QWebView5printEP8QPrinter 0x052eb314
_ZN8QWebView4stopEv 0x052eb318
_ZN8QWebView4backEv 0x052eb360
_ZN8QWebView7forwardEv 0x052eb3a8
_ZN8QWebView6reloadEv 0x052eb3f0
_ZN8QWebView12createWindowEN8QWebPage13WebWindowTypeE 0x052eb438
_ZN8QWebView15mousePressEventEP11QMouseEvent 0x052eb440
_ZN8QWebView14dragEnterEventEP15QDragEnterEvent 0x052eb4a8
_ZN8QWebView14dragLeaveEventEP15QDragLeaveEvent 0x052eb4e8
_ZN8QWebView13dragMoveEventEP14QDragMoveEvent 0x052eb528
_ZN8QWebView9dropEventEP10QDropEvent 0x052eb568
_ZN8QWebView16inputMethodEventEP17QInputMethodEvent 0x052eb5a8
_ZNK8QWebView16inputMethodQueryEN2Qt16InputMethodQueryE 0x052eb5e8
_ZN8QWebView18focusNextPrevChildEb 0x052eb668
_ZN8QWebView13focusOutEventEP11QFocusEvent 0x052eb6fc
_ZN8QWebView12focusInEventEP11QFocusEvent 0x052eb75c
_ZN8QWebView10paintEventEP11QPaintEvent 0x052eb7bc
_ZN8QWebView11resizeEventEP12QResizeEvent 0x052eb914
_ZN8QWebView8findTextERK7QString6QFlagsIN8QWebPage8FindFlagEE 0x052eb958
_ZNK8QWebView10isModifiedEv 0x052eb9b0
_ZNK8QWebView4iconEv 0x052eb9f8
_ZNK8QWebView3urlEv 0x052eba88
_ZNK8QWebView5titleEv 0x052ebb18
_ZN8QWebView7setPageEP8QWebPage 0x052ebbb4
_ZNK8QWebView4pageEv 0x052ebe4c
_ZNK8QWebView18textSizeMultiplierEv 0x052ebef4
_ZN8QWebView21setTextSizeMultiplierEf 0x052ebf40
_ZNK8QWebView10zoomFactorEv 0x052ebf9c
_ZN8QWebView13setZoomFactorEf 0x052ebfe8
_ZN8QWebView17triggerPageActionEN8QWebPage9WebActionEb 0x052ec044
_ZNK8QWebView10pageActionEN8QWebPage9WebActionE 0x052ec0a0
_ZN8QWebView6setUrlERK4QUrl 0x052ec0ec
_ZNK8QWebView8settingsEv 0x052ec148
_ZNK8QWebView7historyEv 0x052ec184
_ZN8QWebView10setContentERK10QByteArrayRK7QStringRK4QUrl 0x052ec1c0
_ZN8QWebView7setHtmlERK7QStringRK4QUrl 0x052ec23c
_ZN8QWebView4loadERK15QNetworkRequestN21QNetworkAccessManager9OperationERK10QByteArray 0x052ec2a8
_ZN8QWebView4loadERK4QUrl 0x052ec324
_ZN8QWebView15keyReleaseEventEP9QKeyEvent 0x052ec380
_ZN8QWebView13keyPressEventEP9QKeyEvent 0x052ec3fc
_ZN8QWebView14mouseMoveEventEP11QMouseEvent 0x052ec478
_ZN8QWebView10wheelEventEP11QWheelEvent 0x052ec4e0
_ZN8QWebView16contextMenuEventEP17QContextMenuEvent 0x052ec548
_ZN8QWebView17mouseReleaseEventEP11QMouseEvent 0x052ec5b0
_ZN8QWebView21mouseDoubleClickEventEP11QMouseEvent 0x052ec618
_ZN8QWebView11changeEventEP6QEvent 0x052ec680
_ZN8QWebViewD0Ev 0x052ec74c
_ZNK8QWebView12selectedTextEv 0x052ec850
_ZN8QWebViewC2EP7QWidget 0x052ec8d4
_ZN8QWebViewD1Ev 0x052ec9cc
_ZN8QWebViewD2Ev 0x052ecab4
_ZN8QWebViewC1EP7QWidget 0x052ecb9c
_ZN8QWebView5eventEP6QEvent 0x052ecc94
_ZN15QWebHistoryItemC1ERKS_ 0x052ecf0c
_ZN11QWebHistoryC2Ev 0x052ecf30
_ZN11QWebHistoryC1Ev 0x052ecf3c
_ZN15QWebHistoryItemC2ERKS_ 0x052ecf48
_ZN11QWebHistory19setMaximumItemCountEi 0x052ecf6c
_ZNK11QWebHistory16maximumItemCountEv 0x052ecfa0
_ZNK11QWebHistory16currentItemIndexEv 0x052ecfd4
_ZNK11QWebHistory9canGoBackEv 0x052ed008
_ZNK11QWebHistory12canGoForwardEv 0x052ed048
_ZNK15QWebHistoryItem7isValidEv 0x052ed088
_ZNK15QWebHistoryItem8userDataEv 0x052ed09c
_ZNK15QWebHistoryItem4iconEv 0x052ed11c
_ZNK15QWebHistoryItem11lastVisitedEv 0x052ed1bc
_ZNK15QWebHistoryItem5titleEv 0x052ed288
_ZN15QWebHistoryItem11setUserDataERK8QVariant 0x052ed324
_ZNK11QWebHistory5countEv 0x052ed364
_ZN11QWebHistoryD1Ev 0x052ed39c
_ZN11QWebHistoryD2Ev 0x052ed43c
_ZNK15QWebHistoryItem11originalUrlEv 0x052ed4dc
_ZNK15QWebHistoryItem3urlEv 0x052ed644
_ZN15QWebHistoryItemC1EP22QWebHistoryItemPrivate 0x052ed7ac
_ZNK11QWebHistory6itemAtEi 0x052ed8a8
_ZNK11QWebHistory11forwardItemEv 0x052ed94c
_ZNK11QWebHistory11currentItemEv 0x052ed9ec
_ZNK11QWebHistory8backItemEv 0x052eda8c
_ZN15QWebHistoryItemD2Ev 0x052edb2c
_ZN11QWebHistory5clearEv 0x052edbec
_ZN15QWebHistoryItemC2EP22QWebHistoryItemPrivate 0x052eddec
_ZN15QWebHistoryItemaSERKS_ 0x052edee8
_ZN15QWebHistoryItemD1Ev 0x052edff8
_ZN11QWebHistory8goToItemERK15QWebHistoryItem 0x052ee0b8
_ZN11QWebHistory7forwardEv 0x052ee164
_ZN11QWebHistory4backEv 0x052ee208
_ZNK11QWebHistory12forwardItemsEi 0x052ee2ac
_ZNK11QWebHistory9backItemsEi 0x052ee4d0
_ZNK11QWebHistory5itemsEv 0x052ee6f4
_Z45qt_websettings_offlineWebApplicationCachePathv 0x052ee854
_ZN12QWebSettings18offlineStoragePathEv 0x052ee8b8
_ZN12QWebSettings19maximumPagesInCacheEv 0x052ee91c
_ZN12QWebSettings22setMaximumPagesInCacheEi 0x052ee94c
_ZN12QWebSettings17clearIconDatabaseEv 0x052ee9d0
_ZNK12QWebSettings17userStyleSheetUrlEv 0x052eea58
_ZN12QWebSettings24setObjectCacheCapacitiesEiii 0x052eec54
_Z39qt_websettings_localStorageDatabasePathP12QWebSettings 0x052eed8c
_ZN12QWebSettings21setOfflineStoragePathERK7QString 0x052eefd8
_ZN12QWebSettings16iconDatabasePathEv 0x052ef0bc
_ZN12QWebSettings19setIconDatabasePathERK7QString 0x052ef1e8
_ZN12QWebSettingsD2Ev 0x052ef3c0
_ZN12QWebSettingsD1Ev 0x052ef5fc
_ZN12QWebSettings10iconForUrlERK4QUrl 0x052ef838
_Z48qt_websettings_setOfflineWebApplicationCachePathRK7QString 0x052ef9d0
_ZN12QWebSettings10webGraphicENS_10WebGraphicE 0x052f0278
_ZN12QWebSettings13setWebGraphicENS_10WebGraphicERK7QPixmap 0x052f0354
_ZN12QWebSettingsC1Ev 0x052f0594
_ZN12QWebSettings14globalSettingsEv 0x052f2008
_ZN12QWebSettings26offlineStorageDefaultQuotaEv 0x052f2090
_ZN12QWebSettings29setOfflineStorageDefaultQuotaEx 0x052f20c8
_ZNK12QWebSettings13testAttributeENS_12WebAttributeE 0x052f2118
_ZNK12QWebSettings10fontFamilyENS_10FontFamilyE 0x052f2264
_ZNK12QWebSettings8fontSizeENS_8FontSizeE 0x052f2498
_ZN19QWebSettingsPrivate5applyEv 0x052f25c0
_Z42qt_websettings_setLocalStorageDatabasePathP12QWebSettingsRK7QString 0x052f43f0
_ZN12QWebSettings14resetAttributeENS_12WebAttributeE 0x052f4440
_ZN12QWebSettings12setAttributeENS_12WebAttributeEb 0x052f44ac
_ZN12QWebSettings15resetFontFamilyENS_10FontFamilyE 0x052f4648
_ZN12QWebSettings13setFontFamilyENS_10FontFamilyERK7QString 0x052f46b4
_ZN12QWebSettings20setUserStyleSheetUrlERK4QUrl 0x052f4840
_ZN12QWebSettings13resetFontSizeENS_8FontSizeE 0x052f4894
_ZN12QWebSettings11setFontSizeENS_8FontSizeEi 0x052f4900
_ZN12QWebSettingsC2Ev 0x052f4cdc
_ZN20QWebHistoryInterface16defaultInterfaceEv 0x052f6750
_ZN20QWebHistoryInterfaceD0Ev 0x052f675c
_ZN20QWebHistoryInterfaceD1Ev 0x052f6804
_ZN20QWebHistoryInterfaceD2Ev 0x052f6874
_ZN20QWebHistoryInterfaceC1EP7QObject 0x052f68e4
_ZN20QWebHistoryInterfaceC2EP7QObject 0x052f6928
_ZN20QWebHistoryInterface19setDefaultInterfaceEPS_ 0x052f696c
_ZN17QWebPluginFactory14refreshPluginsEv 0x052f6aa8
_ZN17QWebPluginFactory9extensionENS_9ExtensionEPKNS_15ExtensionOptionEPNS_15ExtensionReturnE 0x052f6aac
_ZNK17QWebPluginFactory17supportsExtensionENS_9ExtensionE 0x052f6ab4
_ZN17QWebPluginFactoryD0Ev 0x052f6abc
_ZN17QWebPluginFactoryD1Ev 0x052f6b14
_ZN17QWebPluginFactoryD2Ev 0x052f6b4c
_ZN17QWebPluginFactoryC1EP7QObject 0x052f6b84
_ZN17QWebPluginFactoryC2EP7QObject 0x052f6bc8
_ZN18QWebSecurityOriginC1ERKS_ 0x052f6c0c
_ZN18QWebSecurityOriginC2ERKS_ 0x052f6c30
_ZNK18QWebSecurityOrigin13databaseUsageEv 0x052f6c54
_ZN18QWebSecurityOrigin16setDatabaseQuotaEx 0x052f6ca4
_ZNK18QWebSecurityOrigin13databaseQuotaEv 0x052f6d14
_ZNK18QWebSecurityOrigin4portEv 0x052f6d64
_ZNK18QWebSecurityOrigin4hostEv 0x052f6d74
_ZN18QWebSecurityOriginD1Ev 0x052f6e44
_ZNK18QWebSecurityOrigin6schemeEv 0x052f6fd4
_ZN18QWebSecurityOriginD2Ev 0x052f70a4
_ZN18QWebSecurityOriginaSERKS_ 0x052f7234
_ZN18QWebSecurityOriginC2EP25QWebSecurityOriginPrivate 0x052f7410
_ZNK18QWebSecurityOrigin9databasesEv 0x052f75d8
_ZN18QWebSecurityOriginC1EP25QWebSecurityOriginPrivate 0x052f792c
_ZN18QWebSecurityOrigin10allOriginsEv 0x052f7af4
_ZN12QWebDatabaseC2ERKS_ 0x052f7dc4
_ZNK12QWebDatabase4nameEv 0x052f7de8
_ZN12QWebDatabase14removeDatabaseERKS_ 0x052f7e2c
_ZN12QWebDatabaseC1ERKS_ 0x052f7e80
_ZNK12QWebDatabase8fileNameEv 0x052f7ea4
_ZNK12QWebDatabase4sizeEv 0x052f7fa0
_ZNK12QWebDatabase6originEv 0x052f80d4
_ZN12QWebDatabaseC1EP19QWebDatabasePrivate 0x052f8294
_ZNK12QWebDatabase12expectedSizeEv 0x052f84a4
_ZNK12QWebDatabase11displayNameEv 0x052f85d8
_ZN12QWebDatabaseC2EP19QWebDatabasePrivate 0x052f870c
_ZN12QWebDatabaseaSERKS_ 0x052f891c
_ZN12QWebDatabaseD2Ev 0x052f8b40
_ZN12QWebDatabaseD1Ev 0x052f8d18
_Z10cssyyparsePv 0x055e1408
_Z12xpathyyerrorPKc 0x055f8e9c
_Z10xpathyylexP7YYSTYPE 0x055f8ea4
_Z12xpathyyparsePv 0x055f8edc
_ZNK17QWebPluginFactory10metaObjectEv 0x055fb088
_ZN17QWebPluginFactory11qt_metacallEN11QMetaObject4CallEiPPv 0x055fb094
_ZN17QWebPluginFactory11qt_metacastEPKc 0x055fb0c0
_ZNK9QWebFrame10metaObjectEv 0x055fb160
_ZN9QWebFrame11iconChangedEv 0x055fb16c
_ZN9QWebFrame22initialLayoutCompletedEv 0x055fb1a8
_ZN9QWebFrame10urlChangedERK4QUrl 0x055fb1e4
_ZN9QWebFrame12titleChangedERK7QString 0x055fb22c
_ZN9QWebFrame15provisionalLoadEv 0x055fb274
_ZN9QWebFrame29javaScriptWindowObjectClearedEv 0x055fb2b0
_ZN9QWebFrame11qt_metacallEN11QMetaObject4CallEiPPv 0x055fb2ec
_ZN9QWebFrame11qt_metacastEPKc 0x055fb734
_ZNK8QWebView10metaObjectEv 0x055fb7d4
_ZN8QWebView10urlChangedERK4QUrl 0x055fb7e0
_ZN8QWebView11iconChangedEv 0x055fb828
_ZN8QWebView16selectionChangedEv 0x055fb864
_ZN8QWebView11linkClickedERK4QUrl 0x055fb8a0
_ZN8QWebView16statusBarMessageERK7QString 0x055fb8e8
_ZN8QWebView12titleChangedERK7QString 0x055fb930
_ZN8QWebView12loadFinishedEb 0x055fb978
_ZN8QWebView12loadProgressEi 0x055fb9c8
_ZN8QWebView11loadStartedEv 0x055fba18
_ZN8QWebView11qt_metacastEPKc 0x055fba54
_ZN8QWebView11qt_metacallEN11QMetaObject4CallEiPPv 0x055fbaf4
_ZNK20QWebHistoryInterface10metaObjectEv 0x055fc02c
_ZN20QWebHistoryInterface11qt_metacallEN11QMetaObject4CallEiPPv 0x055fc038
_ZN20QWebHistoryInterface11qt_metacastEPKc 0x055fc064
_Z24qCleanupResources_WebKitv 0x055fc104
_Z21qInitResources_WebKitv 0x055fc150
_GLOBAL__D__Z21qInitResources_WebKitv 0x055fc224
_GLOBAL__I__Z21qInitResources_WebKitv 0x055fc25c
_ZN3WTF6VectorINS_19FunctionWithContextELj0EE6shrinkEj 0x055fc424
_ZN3WTF6VectorINS_19FunctionWithContextELj0EE15reserveCapacityEj 0x055fc42c
_ZN3WTF6VectorINS_19FunctionWithContextELj0EE14expandCapacityEj 0x055fc54c
_ZN3WTF6VectorINS_19FunctionWithContextELj0EE14expandCapacityEjPKS1_ 0x055fc5dc
_ZNK3JSC21UStringSourceProvider4dataEv 0x055fc68c
_ZNK3JSC21UStringSourceProvider6lengthEv 0x055fc6b0
_ZN3JSC6JSCell4markEv 0x055fc6bc
_ZNK3JSC6JSCell8isObjectEPKNS_9ClassInfoE 0x055fc6ec
_ZN3JSC7JSValueD1Ev 0x055fc768
_ZN3JSC6JSCellD1Ev 0x055fc778
_ZNK3JSC21UStringSourceProvider8getRangeEii 0x055fc788
_ZN3JSC7JSValueD0Ev 0x055fc7cc
_ZN3JSC6JSCellD0Ev 0x055fc804
_ZN3JSC14SourceProviderD1Ev 0x055fc83c
_ZN3JSC21UStringSourceProviderD1Ev 0x055fc8a8
_ZN3JSC21UStringSourceProviderD0Ev 0x055fc968
_ZN3JSC14SourceProviderD0Ev 0x055fca50
_ZNK3JSC8JSObject14isGlobalObjectEv 0x055fcaf4
_ZNK3JSC8JSObject16isVariableObjectEv 0x055fcafc
_ZNK3JSC8JSObject19isWatchdogExceptionEv 0x055fcb04
_ZNK3JSC8JSObject22isNotAnObjectErrorStubEv 0x055fcb0c
_ZNK3JSC8JSObject11toPrimitiveEPNS_9ExecStateENS_22PreferredPrimitiveTypeE 0x055fcb14
_ZNK3JSC21JSCallbackConstructor9classInfoEv 0x055fcb40
_ZN3WTF6VectorIPK13OpaqueJSValueLj16EE6shrinkEj 0x055fcb4c
_ZN3JSC8JSObject18getOwnPropertySlotEPNS_9ExecStateERKNS_10IdentifierERNS_12PropertySlotE 0x055fcb54
_ZNK3JSC18JSCallbackFunction9classInfoEv 0x055fcd98
_ZN3JSC18JSCallbackFunctionD1Ev 0x055fcda4
_ZN3JSC18JSCallbackFunctionD0Ev 0x055fcecc
_ZN3WTF6VectorIPFvPK15OpaqueJSContextP13OpaqueJSValueELj16EE6shrinkEj 0x055fd020
_ZN3WTF9HashTableIP13OpaqueJSClassSt4pairIS2_P24OpaqueJSClassContextDataENS_18PairFirstExtractorIS6_EENS_7PtrHashIS2_EENS_14PairHashTraitsINS_10HashTraitsIS2_EENSC_IS5_EEEESD_E4findIS2_NS_22IdentityHashTranslatorIS2_S6_SA_EEEENS_17HashTableIteratorIS2_S6_S8_SA_SF_SD_EERKT_ 0x055fd028
_ZNK3JSC16JSCallbackObjectINS_8JSObjectEE9classInfoEv 0x055fd178
_ZN3WTF9HashTableIP13OpaqueJSClassSt4pairIS2_P24OpaqueJSClassContextDataENS_18PairFirstExtractorIS6_EENS_7PtrHashIS2_EENS_14PairHashTraitsINS_10HashTraitsIS2_EENSC_IS5_EEEESD_E15deallocateTableEPS6_i 0x055fd184
_ZN3WTF9HashTableIP13OpaqueJSClassSt4pairIS2_P24OpaqueJSClassContextDataENS_18PairFirstExtractorIS6_EENS_7PtrHashIS2_EENS_14PairHashTraitsINS_10HashTraitsIS2_EENSC_IS5_EEEESD_E13allocateTableEi 0x055fd1b0
_ZN3WTF9HashTableIP13OpaqueJSClassSt4pairIS2_P24OpaqueJSClassContextDataENS_18PairFirstExtractorIS6_EENS_7PtrHashIS2_EENS_14PairHashTraitsINS_10HashTraitsIS2_EENSC_IS5_EEEESD_E6rehashEi 0x055fd1e0
_ZN3WTF9HashTableIP13OpaqueJSClassSt4pairIS2_P24OpaqueJSClassContextDataENS_18PairFirstExtractorIS6_EENS_7PtrHashIS2_EENS_14PairHashTraitsINS_10HashTraitsIS2_EENSC_IS5_EEEESD_E6expandEv 0x055fd3b8
_ZN3WTF7HashMapIP13OpaqueJSClassP24OpaqueJSClassContextDataNS_7PtrHashIS2_EENS_10HashTraitsIS2_EENS7_IS4_EEE3addERKS2_RKS4_ 0x055fd44c
_ZN3WTF9HashTableINS_6RefPtrIN3JSC7UString3RepEEESt4pairIS5_P19StaticFunctionEntryENS_18PairFirstExtractorIS9_EENS_7StrHashIS5_EENS_14PairHashTraitsINS_10HashTraitsIS5_EENSF_IS8_EEEESG_E13allocateTableEi 0x055fd6f4
_ZN3WTF9HashTableINS_6RefPtrIN3JSC7UString3RepEEESt4pairIS5_P16StaticValueEntryENS_18PairFirstExtractorIS9_EENS_7StrHashIS5_EENS_14PairHashTraitsINS_10HashTraitsIS5_EENSF_IS8_EEEESG_E13allocateTableEi 0x055fd724
_ZN3JSC16JSCallbackObjectINS_8JSObjectEE16getConstructDataERNS_13ConstructDataE 0x055fd754
_ZN3JSC16JSCallbackObjectINS_8JSObjectEE11getCallDataERNS_8CallDataE 0x055fd790
_ZNK3JSC16JSCallbackObjectINS_8JSObjectEE8toNumberEPNS_9ExecStateE 0x055fd7cc
_ZN3JSC16JSCallbackObjectINS_8JSObjectEE11hasInstanceEPNS_9ExecStateENS_10JSValuePtrES5_ 0x055fd9e4
_ZN3JSC16JSCallbackObjectINS_8JSObjectEE4callEPNS_9ExecStateEPS1_NS_10JSValuePtrERKNS_7ArgListE 0x055fdae4
_ZNK3JSC16JSCallbackObjectINS_8JSObjectEE8toStringEPNS_9ExecStateE 0x055fdd3c
_ZN3WTF6VectorIPFvPK15OpaqueJSContextP13OpaqueJSValueELj16EE15reserveCapacityEj 0x055fdef8
_ZN3WTF6VectorIPFvPK15OpaqueJSContextP13OpaqueJSValueELj16EE14expandCapacityEj 0x055fe00c
_ZN3WTF6VectorIPFvPK15OpaqueJSContextP13OpaqueJSValueELj16EE14expandCapacityEjPKS7_ 0x055fe09c
_ZN3JSC16JSCallbackObjectINS_8JSObjectEE4initEPNS_9ExecStateE 0x055fe14c
_ZN3JSC16JSCallbackObjectINS_8JSObjectEE9constructEPNS_9ExecStateEPS1_RKNS_7ArgListE 0x055fe320
_ZN3WTF9HashTableINS_6RefPtrIN3JSC7UString3RepEEESt4pairIS5_P19StaticFunctionEntryENS_18PairFirstExtractorIS9_EENS_7StrHashIS5_EENS_14PairHashTraitsINS_10HashTraitsIS5_EENSF_IS8_EEEESG_E15deallocateTableEPS9_i 0x055fe528
_ZN3WTF9HashTableINS_6RefPtrIN3JSC7UString3RepEEESt4pairIS5_P16StaticValueEntryENS_18PairFirstExtractorIS9_EENS_7StrHashIS5_EENS_14PairHashTraitsINS_10HashTraitsIS5_EENSF_IS8_EEEESG_E15deallocateTableEPS9_i 0x055fe5e0
_ZN3JSC16JSCallbackObjectINS_8JSObjectEE14deletePropertyEPNS_9ExecStateEj 0x055fe698
_ZNK3JSC16JSCallbackObjectINS_8JSObjectEE9classNameEv 0x055fe7f8
_ZN3WTF9HashTableINS_6RefPtrIN3JSC7UString3RepEEESt4pairIS5_P16StaticValueEntryENS_18PairFirstExtractorIS9_EENS_7StrHashIS5_EENS_14PairHashTraitsINS_10HashTraitsIS5_EENSF_IS8_EEEESG_E4findIS5_NS_22IdentityHashTranslatorIS5_S9_SD_EEEENS_17HashTableIteratorIS5_S9_SB_SD_SI_SG_EERKT_ 0x055fe8e4
_ZNK3WTF9HashTableINS_6RefPtrIN3JSC7UString3RepEEESt4pairIS5_P19StaticFunctionEntryENS_18PairFirstExtractorIS9_EENS_7StrHashIS5_EENS_14PairHashTraitsINS_10HashTraitsIS5_EENSF_IS8_EEEESG_E8containsIPS4_NS_29RefPtrHashMapRawKeyTranslatorISL_S9_SI_SD_EEEEbRKT_ 0x055feaa4
_ZN3WTF20deleteAllPairSecondsIP16StaticValueEntryKNS_7HashMapINS_6RefPtrIN3JSC7UString3RepEEES2_NS_7StrHashIS8_EENS_10HashTraitsIS8_EENSB_IS2_EEEEEEvRT0_ 0x055fec38
_ZN3WTF9HashTableINS_6RefPtrIN3JSC7UString3RepEEESt4pairIS5_P19StaticFunctionEntryENS_18PairFirstExtractorIS9_EENS_7StrHashIS5_EENS_14PairHashTraitsINS_10HashTraitsIS5_EENSF_IS8_EEEESG_E4findIS5_NS_22IdentityHashTranslatorIS5_S9_SD_EEEENS_17HashTableIteratorIS5_S9_SB_SD_SI_SG_EERKT_ 0x055fed04
_ZN3JSC16JSCallbackObjectINS_8JSObjectEE18getOwnPropertySlotEPNS_9ExecStateEjRNS_12PropertySlotE 0x055feec4
_ZN3WTF9HashTableINS_6RefPtrIN3JSC7UString3RepEEESt4pairIS5_P16StaticValueEntryENS_18PairFirstExtractorIS9_EENS_7StrHashIS5_EENS_14PairHashTraitsINS_10HashTraitsIS5_EENSF_IS8_EEEESG_E6rehashEi 0x055ff038
_ZN3WTF9HashTableINS_6RefPtrIN3JSC7UString3RepEEESt4pairIS5_P16StaticValueEntryENS_18PairFirstExtractorIS9_EENS_7StrHashIS5_EENS_14PairHashTraitsINS_10HashTraitsIS5_EENSF_IS8_EEEESG_E6expandEv 0x055ff384
_ZN3WTF7HashMapINS_6RefPtrIN3JSC7UString3RepEEEP16StaticValueEntryNS_7StrHashIS5_EENS_10HashTraitsIS5_EENSA_IS7_EEE3addERKS5_RKS7_ 0x055ff418
_ZNK3WTF9HashTableINS_6RefPtrIN3JSC7UString3RepEEESt4pairIS5_P16StaticValueEntryENS_18PairFirstExtractorIS9_EENS_7StrHashIS5_EENS_14PairHashTraitsINS_10HashTraitsIS5_EENSF_IS8_EEEESG_E8containsIPS4_NS_29RefPtrHashMapRawKeyTranslatorISL_S9_SI_SD_EEEEbRKT_ 0x055ff788
_ZN3WTF9HashTableINS_6RefPtrIN3JSC7UString3RepEEESt4pairIS5_P19StaticFunctionEntryENS_18PairFirstExtractorIS9_EENS_7StrHashIS5_EENS_14PairHashTraitsINS_10HashTraitsIS5_EENSF_IS8_EEEESG_E6rehashEi 0x055ff91c
_ZN3WTF9HashTableINS_6RefPtrIN3JSC7UString3RepEEESt4pairIS5_P19StaticFunctionEntryENS_18PairFirstExtractorIS9_EENS_7StrHashIS5_EENS_14PairHashTraitsINS_10HashTraitsIS5_EENSF_IS8_EEEESG_E6expandEv 0x055ffc68
_ZN3WTF7HashMapINS_6RefPtrIN3JSC7UString3RepEEEP19StaticFunctionEntryNS_7StrHashIS5_EENS_10HashTraitsIS5_EENSA_IS7_EEE3addERKS5_RKS7_ 0x055ffcfc
_ZN3JSC16JSCallbackObjectINS_8JSObjectEE16getPropertyNamesEPNS_9ExecStateERNS_17PropertyNameArrayE 0x0560006c
_ZN3WTF20deleteAllPairSecondsIP19StaticFunctionEntryKNS_7HashMapINS_6RefPtrIN3JSC7UString3RepEEES2_NS_7StrHashIS8_EENS_10HashTraitsIS8_EENSB_IS2_EEEEEEvRT0_ 0x05600458
_ZN3JSC16JSCallbackObjectINS_8JSObjectEED1Ev 0x0560051c
_ZNK3WTF7HashMapINS_6RefPtrIN3JSC7UString3RepEEEP16StaticValueEntryNS_7StrHashIS5_EENS_10HashTraitsIS5_EENSA_IS7_EEE3getEPS4_ 0x056006c4
_ZNK3WTF7HashMapINS_6RefPtrIN3JSC7UString3RepEEEP19StaticFunctionEntryNS_7StrHashIS5_EENS_10HashTraitsIS5_EENSA_IS7_EEE3getEPS4_ 0x05600854
_ZN3JSC16JSCallbackObjectINS_8JSObjectEEC1EPNS_9ExecStateEN3WTF10PassRefPtrINS_9StructureEEEP13OpaqueJSClassPv 0x056009e4
_ZN3JSC16JSCallbackObjectINS_8JSObjectEE17staticValueGetterEPNS_9ExecStateERKNS_10IdentifierERKNS_12PropertySlotE 0x05600ab8
_ZN3JSC16JSCallbackObjectINS_8JSObjectEE14deletePropertyEPNS_9ExecStateERKNS_10IdentifierE 0x05600cd8
_ZN3JSC16JSCallbackObjectINS_8JSObjectEE14callbackGetterEPNS_9ExecStateERKNS_10IdentifierERKNS_12PropertySlotE 0x05600f68
_ZN3JSC16JSCallbackObjectINS_8JSObjectEE18getOwnPropertySlotEPNS_9ExecStateERKNS_10IdentifierERNS_12PropertySlotE 0x0560113c
_ZN3JSC16JSCallbackObjectINS_8JSObjectEE3putEPNS_9ExecStateERKNS_10IdentifierENS_10JSValuePtrERNS_15PutPropertySlotE 0x0560167c
_ZN3JSC16JSCallbackObjectINS_8JSObjectEED0Ev 0x05601b74
_ZN3JSC16JSCallbackObjectINS_8JSObjectEE20staticFunctionGetterEPNS_9ExecStateERKNS_10IdentifierERKNS_12PropertySlotE 0x05601d40
_ZNK3JSC14JSGlobalObject17supportsProfilingEv 0x0560225c
_ZNK3JSC14JSGlobalObject14isGlobalObjectEv 0x05602264
_ZNK3JSC14JSGlobalObject21shouldInterruptScriptEv 0x0560226c
_ZNK3JSC14JSGlobalObject16allowsAccessFromEPKS0_ 0x05602274
_ZNK3JSC16JSCallbackObjectINS_14JSGlobalObjectEE9classInfoEv 0x0560227c
_ZN3WTF9HashTableIPN3JSC16ProgramCodeBlockES3_NS_17IdentityExtractorIS3_EENS_7PtrHashIS3_EENS_10HashTraitsIS3_EES9_E15deallocateTableEPS3_i 0x05602288
_ZN3JSC16JSCallbackObjectINS_14JSGlobalObjectEE16getConstructDataERNS_13ConstructDataE 0x056022b4
_ZN3JSC16JSCallbackObjectINS_14JSGlobalObjectEE11getCallDataERNS_8CallDataE 0x056022f0
_ZN3JSC16JSCallbackObjectINS_14JSGlobalObjectEE11hasInstanceEPNS_9ExecStateENS_10JSValuePtrES5_ 0x0560232c
_ZNK3JSC16JSCallbackObjectINS_14JSGlobalObjectEE8toStringEPNS_9ExecStateE 0x0560242c
_ZNK3JSC16JSCallbackObjectINS_14JSGlobalObjectEE8toNumberEPNS_9ExecStateE 0x056025e8
_ZN3JSC16JSCallbackObjectINS_14JSGlobalObjectEE4callEPNS_9ExecStateEPNS_8JSObjectENS_10JSValuePtrERKNS_7ArgListE 0x05602800
_ZN3JSC16JSCallbackObjectINS_14JSGlobalObjectEED0Ev 0x05602a58
_ZN3JSC16JSCallbackObjectINS_14JSGlobalObjectEED1Ev 0x05602b28
_ZN3JSC16JSCallbackObjectINS_14JSGlobalObjectEE4initEPNS_9ExecStateE 0x05602be8
_ZN3JSC14JSGlobalObject18getOwnPropertySlotEPNS_9ExecStateERKNS_10IdentifierERNS_12PropertySlotERb 0x05602dbc
_ZN3WTF9HashTableINS_6RefPtrIN3JSC7UString3RepEEESt4pairIS5_NS2_16SymbolTableEntryEENS_18PairFirstExtractorIS8_EENS2_17IdentifierRepHashENS_14PairHashTraitsINS_10HashTraitsIS5_EENS2_26SymbolTableIndexHashTraitsEEESE_E15deallocateTableEPS8_i 0x05603060
_ZN3JSC16JSCallbackObjectINS_14JSGlobalObjectEE14deletePropertyEPNS_9ExecStateEj 0x05603118
_ZNK3JSC16JSCallbackObjectINS_14JSGlobalObjectEE9classNameEv 0x05603278
_ZN3JSC16JSCallbackObjectINS_14JSGlobalObjectEE9constructEPNS_9ExecStateEPNS_8JSObjectERKNS_7ArgListE 0x05603364
_ZN3JSC16JSCallbackObjectINS_14JSGlobalObjectEE16getPropertyNamesEPNS_9ExecStateERNS_17PropertyNameArrayE 0x0560356c
_ZN3JSC16JSCallbackObjectINS_14JSGlobalObjectEE18getOwnPropertySlotEPNS_9ExecStateEjRNS_12PropertySlotE 0x05603958
_ZN3JSC14JSGlobalObject18JSGlobalObjectDataD0Ev 0x05603acc
_ZN3JSC14JSGlobalObject18JSGlobalObjectDataD1Ev 0x0560405c
_ZN3JSC16JSCallbackObjectINS_14JSGlobalObjectEE14deletePropertyEPNS_9ExecStateERKNS_10IdentifierE 0x0560460c
_ZN3JSC16JSCallbackObjectINS_14JSGlobalObjectEEC1EP13OpaqueJSClass 0x0560489c
_ZN3JSC16JSCallbackObjectINS_14JSGlobalObjectEE17staticValueGetterEPNS_9ExecStateERKNS_10IdentifierERKNS_12PropertySlotE 0x05604ac0
_ZN3JSC16JSCallbackObjectINS_14JSGlobalObjectEE14callbackGetterEPNS_9ExecStateERKNS_10IdentifierERKNS_12PropertySlotE 0x05604ce0
_ZN3JSC16JSCallbackObjectINS_14JSGlobalObjectEE20staticFunctionGetterEPNS_9ExecStateERKNS_10IdentifierERKNS_12PropertySlotE 0x05604eb4
_ZN3JSC16JSCallbackObjectINS_14JSGlobalObjectEE18getOwnPropertySlotEPNS_9ExecStateERKNS_10IdentifierERNS_12PropertySlotE 0x056054a8
_ZN3JSC16JSCallbackObjectINS_14JSGlobalObjectEE3putEPNS_9ExecStateERKNS_10IdentifierENS_10JSValuePtrERNS_15PutPropertySlotE 0x05605ad0
_ZN3JSC16JSCallbackObjectINS_14JSGlobalObjectEE10getPrivateEv 0x05605fc8
_ZN3JSC16JSCallbackObjectINS_8JSObjectEE10getPrivateEv 0x05605fd4
_ZN3JSC16JSCallbackObjectINS_14JSGlobalObjectEE10setPrivateEPv 0x05605fe0
_ZN3JSC16JSCallbackObjectINS_8JSObjectEE10setPrivateEPv 0x05605fec
_ZN3WTF6VectorIN3JSC8RegisterELj8EE6shrinkEj 0x05605ff8
_ZN3WTF9HashTableIPN3JSC7ArgListES3_NS_17IdentityExtractorIS3_EENS_7PtrHashIS3_EENS_10HashTraitsIS3_EES9_E4findIS3_NS_22IdentityHashTranslatorIS3_S3_S7_EEEENS_17HashTableIteratorIS3_S3_S5_S7_S9_S9_EERKT_ 0x05606000
_ZN3WTF9HashTableIPN3JSC7UString3RepES4_NS_17IdentityExtractorIS4_EENS_7PtrHashIS4_EENS_10HashTraitsIS4_EESA_E15deallocateTableEPS4_i 0x05606150
_ZN3WTF9HashTableIPN3JSC7ArgListES3_NS_17IdentityExtractorIS3_EENS_7PtrHashIS3_EENS_10HashTraitsIS3_EES9_E15deallocateTableEPS3_i 0x0560617c
_ZN3WTF9HashTableIPN3JSC7ArgListES3_NS_17IdentityExtractorIS3_EENS_7PtrHashIS3_EENS_10HashTraitsIS3_EES9_E13allocateTableEi 0x056061a8
_ZN3WTF9HashTableIPN3JSC7ArgListES3_NS_17IdentityExtractorIS3_EENS_7PtrHashIS3_EENS_10HashTraitsIS3_EES9_E6rehashEi 0x056061d8
_ZN3WTF9HashTableIPN3JSC7ArgListES3_NS_17IdentityExtractorIS3_EENS_7PtrHashIS3_EENS_10HashTraitsIS3_EES9_E6removeEPS3_ 0x056063a0
_ZN3WTF9HashTableIPN3JSC7ArgListES3_NS_17IdentityExtractorIS3_EENS_7PtrHashIS3_EENS_10HashTraitsIS3_EES9_E47removeAndInvalidateWithoutEntryConsistencyCheckEPS3_ 0x0560641c
_ZN3WTF6VectorI11JSRetainPtrIP14OpaqueJSStringELj0EE6shrinkEj 0x05606448
_ZN3WTF6VectorI11JSRetainPtrIP14OpaqueJSStringELj0EE15reserveCapacityEj 0x056064e4
_ZN3WTF6VectorI11JSRetainPtrIP14OpaqueJSStringELj0EE14expandCapacityEj 0x0560664c
_ZN3WTF6VectorI11JSRetainPtrIP14OpaqueJSStringELj0EE14expandCapacityEjPKS4_ 0x056066dc
_ZN3WTF6VectorIN3JSC10IdentifierELj20EE6shrinkEj 0x0560678c
_ZN3WTF6VectorItLj1024EE6shrinkEj 0x0560684c
_ZNK3JSC16JSCallbackObjectINS_14JSGlobalObjectEE8inheritsEP13OpaqueJSClass 0x05606854
_ZNK3JSC16JSCallbackObjectINS_8JSObjectEE8inheritsEP13OpaqueJSClass 0x05606894
_ZN3WTF20deleteAllPairSecondsIP24OpaqueJSClassContextDataKNS_7HashMapIP13OpaqueJSClassS2_NS_7PtrHashIS5_EENS_10HashTraitsIS5_EENS8_IS2_EEEEEEvRT0_ 0x056068d4
_ZN3WTF9HashTableIPN3JSC16ParserRefCountedESt4pairIS3_jENS_18PairFirstExtractorIS5_EENS_7PtrHashIS3_EENS_14PairHashTraitsINS_10HashTraitsIS3_EENSB_IjEEEESC_E15deallocateTableEPS5_i 0x056069b8
_ZN3WTF9HashTableIPN3JSC16ParserRefCountedES3_NS_17IdentityExtractorIS3_EENS_7PtrHashIS3_EENS_10HashTraitsIS3_EES9_E15deallocateTableEPS3_i 0x056069e4
_ZN3WTF9HashTableIPN3JSC8JSObjectES3_NS_17IdentityExtractorIS3_EENS_7PtrHashIS3_EENS_10HashTraitsIS3_EES9_E15deallocateTableEPS3_i 0x05606a10
_ZN3JSC17CommonIdentifiersD1Ev 0x05606a3c
_ZN3WTF10RefCountedIN3JSC9StructureEE5derefEv 0x05607294
_ZN3JSC9Structure6createENS_10JSValuePtrERKNS_8TypeInfoE 0x05607310
_ZN3JSC8JSObject26putDirectWithoutTransitionERKNS_10IdentifierENS_10JSValuePtrEj 0x05607394
_ZN3WTF9HashTableINS_6RefPtrIN3JSC7UString3RepEEESt4pairIS5_NS2_16SymbolTableEntryEENS_18PairFirstExtractorIS8_EENS2_17IdentifierRepHashENS_14PairHashTraitsINS_10HashTraitsIS5_EENS2_26SymbolTableIndexHashTraitsEEESE_E13allocateTableEi 0x05607430
_ZN3WTF9HashTableINS_6RefPtrIN3JSC7UString3RepEEESt4pairIS5_NS2_16SymbolTableEntryEENS_18PairFirstExtractorIS8_EENS2_17IdentifierRepHashENS_14PairHashTraitsINS_10HashTraitsIS5_EENS2_26SymbolTableIndexHashTraitsEEESE_E4findIS5_NS_22IdentityHashTranslatorIS5_S8_SB_EEEENS_17HashTableIteratorIS5_S8_SA_SB_SG_SE_EERKT_ 0x05607460
_ZN3WTF9HashTableINS_6RefPtrIN3JSC7UString3RepEEESt4pairIS5_NS2_16SymbolTableEntryEENS_18PairFirstExtractorIS8_EENS2_17IdentifierRepHashENS_14PairHashTraitsINS_10HashTraitsIS5_EENS2_26SymbolTableIndexHashTraitsEEESE_E6rehashEi 0x0560757c
_ZN3WTF9HashTableINS_6RefPtrIN3JSC7UString3RepEEESt4pairIS5_NS2_16SymbolTableEntryEENS_18PairFirstExtractorIS8_EENS2_17IdentifierRepHashENS_14PairHashTraitsINS_10HashTraitsIS5_EENS2_26SymbolTableIndexHashTraitsEEESE_E6expandEv 0x05607834
_ZN3WTF7HashMapINS_6RefPtrIN3JSC7UString3RepEEENS2_16SymbolTableEntryENS2_17IdentifierRepHashENS_10HashTraitsIS5_EENS2_26SymbolTableIndexHashTraitsEE3addEPS4_RKS6_ 0x056078c8
_ZN3WTF9HashTableINS_6RefPtrIN3JSC7UString3RepEEESt4pairIS5_NS2_16SymbolTableEntryEENS_18PairFirstExtractorIS8_EENS2_17IdentifierRepHashENS_14PairHashTraitsINS_10HashTraitsIS5_EENS2_26SymbolTableIndexHashTraitsEEESE_E4findIPS4_NS_29RefPtrHashMapRawKeyTranslatorISJ_S8_SG_SB_EEEENS_17HashTableIteratorIS5_S8_SA_SB_SG_SE_EERKT_ 0x05607bf8
_ZN3JSC14JSGlobalObject18getOwnPropertySlotEPNS_9ExecStateERKNS_10IdentifierERNS_12PropertySlotE 0x05607d14
_ZN3JSC19JSStaticScopeObject18getOwnPropertySlotEPNS_9ExecStateERKNS_10IdentifierERNS_12PropertySlotE 0x05608078
_ZN3JSC19JSStaticScopeObject18getOwnPropertySlotEPNS_9ExecStateERKNS_10IdentifierERNS_12PropertySlotERb 0x05608160
_ZNK3WTF7HashMapINS_6RefPtrIN3JSC7UString3RepEEENS2_16SymbolTableEntryENS2_17IdentifierRepHashENS_10HashTraitsIS5_EENS2_26SymbolTableIndexHashTraitsEE3getEPS4_ 0x05608270
_ZN3JSC16JSVariableObjectD0Ev 0x05608324
_ZNK3WTF9HashTableINS_6RefPtrIN3JSC7UString3RepEEESt4pairIS5_NS2_16SymbolTableEntryEENS_18PairFirstExtractorIS8_EENS2_17IdentifierRepHashENS_14PairHashTraitsINS_10HashTraitsIS5_EENS2_26SymbolTableIndexHashTraitsEEESE_E8containsIPS4_NS_29RefPtrHashMapRawKeyTranslatorISJ_S8_SG_SB_EEEEbRKT_ 0x05608478
_ZN3JSC16JSVariableObjectD1Ev 0x05608538
_ZNK3JSC12JSActivation9classInfoEv 0x05608660
_ZN3JSC8JSObject9putDirectERKNS_10IdentifierENS_10JSValuePtrEjbRNS_15PutPropertySlotE 0x0560866c
_ZN3JSC13JSNotAnObjectD1Ev 0x05608950
_ZN3JSC13JSNotAnObjectD0Ev 0x05608a78
_ZN3WTF6VectorIiLj0EE6shrinkEj 0x05608bcc
_ZN3WTF6VectorIN3JSC11HandlerInfoELj0EE6shrinkEj 0x05608bd4
_ZN3WTF6VectorIN3JSC10JSValuePtrELj0EE6shrinkEj 0x05608bdc
_ZN3WTF6VectorIN3JSC19ExpressionRangeInfoELj0EE6shrinkEj 0x05608be4
_ZN3WTF6VectorIN3JSC8LineInfoELj0EE6shrinkEj 0x05608bec
_ZN3WTF6VectorIN3JSC20GetByIdExceptionInfoELj0EE6shrinkEj 0x05608bf4
_ZN3WTF6VectorIN3JSC11InstructionELj0EE6shrinkEj 0x05608bfc
_ZN3WTF6VectorIjLj0EE6shrinkEj 0x05608c04
_ZN3WTF6VectorIN3JSC8RegisterELj0EE6shrinkEj 0x05608c0c
_ZN3WTF6VectorIiLj0EEC1ERKS1_ 0x05608c14
_ZN3WTF6VectorINS_6RefPtrIN3JSC12FuncExprNodeEEELj0EE6shrinkEj 0x05608ccc
_ZN3WTF6VectorINS_6RefPtrIN3JSC12FuncDeclNodeEEELj0EE6shrinkEj 0x05608d68
_ZN3WTF6VectorINS_6RefPtrIN3JSC6RegExpEEELj0EE6shrinkEj 0x05608e04
_ZN3WTF6VectorINS_6RefPtrIN3JSC12FuncExprNodeEEELj0EE14shrinkCapacityEj 0x05608eec
_ZN3WTF6VectorIN3JSC11InstructionELj0EE14shrinkCapacityEj 0x0560902c
_ZN3WTF6VectorIjLj0EE14shrinkCapacityEj 0x0560916c
_ZN3WTF6VectorIN3JSC8RegisterELj0EE14shrinkCapacityEj 0x056092ac
_ZN3WTF6VectorINS_6RefPtrIN3JSC12FuncDeclNodeEEELj0EE14shrinkCapacityEj 0x056093ec
_ZN3WTF6VectorIN3JSC10JSValuePtrELj0EE14shrinkCapacityEj 0x0560952c
_ZN3WTF6VectorINS_6RefPtrIN3JSC6RegExpEEELj0EE14shrinkCapacityEj 0x05609678
_ZN3WTF6VectorIN3JSC19ExpressionRangeInfoELj0EE14shrinkCapacityEj 0x056097b8
_ZN3WTF6VectorIN3JSC8LineInfoELj0EE14shrinkCapacityEj 0x05609914
_ZN3WTF6VectorIN3JSC20GetByIdExceptionInfoELj0EE14shrinkCapacityEj 0x05609a68
_ZN3WTF6VectorIN3JSC11HandlerInfoELj0EE14shrinkCapacityEj 0x05609bb4
_ZN3WTF9HashTableINS_6RefPtrIN3JSC7UString3RepEEESt4pairIS5_NS2_14OffsetLocationEENS_18PairFirstExtractorIS8_EENS_7StrHashIS5_EENS_14PairHashTraitsINS_10HashTraitsIS5_EENSE_IS7_EEEESF_E13allocateTableEi 0x05609d18
_ZN3WTF6VectorIN3JSC10IdentifierELj0EE6shrinkEj 0x05609d78
_ZN3WTF6VectorIN3JSC10IdentifierELj0EE14shrinkCapacityEj 0x05609e38
_ZN3WTF9HashTableINS_6RefPtrIN3JSC7UString3RepEEESt4pairIS5_NS1_INS2_8EvalNodeEEEENS_18PairFirstExtractorIS9_EENS_7StrHashIS5_EENS_14PairHashTraitsINS_10HashTraitsIS5_EENSF_IS8_EEEESG_E15deallocateTableEPS9_i 0x05609ff8
_ZN3WTF9HashTableINS_6RefPtrIN3JSC7UString3RepEEESt4pairIS5_NS2_14OffsetLocationEENS_18PairFirstExtractorIS8_EENS_7StrHashIS5_EENS_14PairHashTraitsINS_10HashTraitsIS5_EENSE_IS7_EEEESF_E15deallocateTableEPS8_i 0x0560a0ec
_ZN3WTF6VectorIN3JSC15StringJumpTableELj0EE6shrinkEj 0x0560a1a4
_ZN3WTF6VectorIN3JSC15SimpleJumpTableELj0EE6shrinkEj 0x0560a23c
_ZN3WTF6VectorIN3JSC15SimpleJumpTableELj0EE14shrinkCapacityEj 0x0560a33c
_ZN3JSC6Parser7reparseINS_8EvalNodeEEEN3WTF10PassRefPtrIT_EEPNS_12JSGlobalDataEPS5_ 0x0560a530
_ZN3JSC6Parser7reparseINS_16FunctionBodyNodeEEEN3WTF10PassRefPtrIT_EEPNS_12JSGlobalDataEPS5_ 0x0560a6cc
_ZN3WTF9HashTableINS_6RefPtrIN3JSC7UString3RepEEESt4pairIS5_NS2_14OffsetLocationEENS_18PairFirstExtractorIS8_EENS_7StrHashIS5_EENS_14PairHashTraitsINS_10HashTraitsIS5_EENSE_IS7_EEEESF_E6rehashEi 0x0560a880
_ZN3WTF9HashTableINS_6RefPtrIN3JSC7UString3RepEEESt4pairIS5_NS2_14OffsetLocationEENS_18PairFirstExtractorIS8_EENS_7StrHashIS5_EENS_14PairHashTraitsINS_10HashTraitsIS5_EENSE_IS7_EEEESF_E6expandEv 0x0560abcc
_ZN3WTF9HashTableINS_6RefPtrIN3JSC7UString3RepEEESt4pairIS5_NS2_14OffsetLocationEENS_18PairFirstExtractorIS8_EENS_7StrHashIS5_EENS_14PairHashTraitsINS_10HashTraitsIS5_EENSE_IS7_EEEESF_E4findIS5_NS_22IdentityHashTranslatorIS5_S8_SC_EEEENS_17HashTableIteratorIS5_S8_SA_SC_SH_SF_EERKT_ 0x0560ac60
_ZN3WTF9HashTableINS_6RefPtrIN3JSC7UString3RepEEESt4pairIS5_NS2_14OffsetLocationEENS_18PairFirstExtractorIS8_EENS_7StrHashIS5_EENS_14PairHashTraitsINS_10HashTraitsIS5_EENSE_IS7_EEEESF_EC1ERKSI_ 0x0560ae20
_ZN3WTF6VectorIN3JSC15StringJumpTableELj0EE14shrinkCapacityEj 0x0560b170
_ZN3WTF6VectorIiLj8EE6shrinkEj 0x0560b30c
_ZN3WTF6VectorIN3JSC18ControlFlowContextELj0EE6shrinkEj 0x0560b314
_ZN3WTF6VectorIN3JSC10SwitchInfoELj0EE6shrinkEj 0x0560b31c
_ZN3WTF6VectorIPN3JSC10RegisterIDELj32EE6shrinkEj 0x0560b324
_ZN3WTF6VectorINS_6RefPtrIN3JSC10RegisterIDEEELj16EE6shrinkEj 0x0560b32c
_ZN3WTF6VectorINS_6RefPtrIN3JSC10RegisterIDEEELj8EE6shrinkEj 0x0560b378
_ZN3WTF6VectorIN3JSC10RegisterIDELj512EE6shrinkEj 0x0560b3c4
_ZN3WTF6VectorIN3JSC10LabelScopeELj256EE6shrinkEj 0x0560b3cc
_ZN3WTF9HashTableIdSt4pairIdN3JSC10JSValuePtrEENS_18PairFirstExtractorIS4_EENS_9FloatHashIdEENS_14PairHashTraitsINS_10HashTraitsIdEENSA_IS3_EEEESB_E15isDeletedBucketERKS4_ 0x0560b434
_ZN3WTF18PairFirstExtractorISt4pairIdN3JSC10JSValuePtrEEE7extractERKS4_ 0x0560b454
_ZN3WTF9HashTableIdSt4pairIdN3JSC10JSValuePtrEENS_18PairFirstExtractorIS4_EENS_9FloatHashIdEENS_14PairHashTraitsINS_10HashTraitsIdEENSA_IS3_EEEESB_E13isEmptyBucketERKS4_ 0x0560b458
_ZN3WTF14PairHashTraitsINS_10HashTraitsIdEENS1_IN3JSC10JSValuePtrEEEE10emptyValueEv 0x0560b474
_ZN3WTF9HashTableIPN3JSC23JSValueEncodedAsPointerESt4pairIS3_jENS_18PairFirstExtractorIS5_EENS_7PtrHashIS3_EENS_14PairHashTraitsINS1_17BytecodeGenerator17JSValueHashTraitsENS_10HashTraitsIjEEEESC_E4findIS3_NS_22IdentityHashTranslatorIS3_S5_S9_EEEENS_17HashTableIteratorIS3_S5_S7_S9_SF_SC_EERKT_ 0x0560b48c
_ZN3WTF9HashTableIPN3JSC7UString3RepESt4pairIS4_PNS1_8JSStringEENS_18PairFirstExtractorIS8_EENS1_17IdentifierRepHashENS_14PairHashTraitsINS_10HashTraitsIS4_EENSD_IS7_EEEESE_E4findIS4_NS_22IdentityHashTranslatorIS4_S8_SB_EEEENS_17HashTableIteratorIS4_S8_SA_SB_SG_SE_EERKT_ 0x0560b5dc
_ZN3WTF22IdentityHashTranslatorIdSt4pairIdN3JSC10JSValuePtrEENS_9FloatHashIdEEE5equalERKdS9_ 0x0560b6f8
_ZNSt4pairIdN3JSC10JSValuePtrEE4swapERS2_ 0x0560b710
_ZN3WTF9HashTableIdSt4pairIdN3JSC10JSValuePtrEENS_18PairFirstExtractorIS4_EENS_9FloatHashIdEENS_14PairHashTraitsINS_10HashTraitsIdEENSA_IS3_EEEESB_E13allocateTableEi 0x0560b734
_ZN3WTF6VectorIN3JSC20GetByIdExceptionInfoELj0EE15reserveCapacityEj 0x0560b7cc
_ZN3WTF6VectorIN3JSC20GetByIdExceptionInfoELj0EE14expandCapacityEj 0x0560b8dc
_ZN3WTF6VectorIN3JSC20GetByIdExceptionInfoELj0EE14expandCapacityEjPKS2_ 0x0560b96c
_ZN3WTF6VectorIN3JSC10SwitchInfoELj0EE15reserveCapacityEj 0x0560ba1c
_ZN3WTF6VectorIN3JSC10SwitchInfoELj0EE14expandCapacityEj 0x0560bb34
_ZN3WTF6VectorIN3JSC10SwitchInfoELj0EE14expandCapacityEjPKS2_ 0x0560bbc4
_ZN3WTF6VectorIN3JSC18ControlFlowContextELj0EE15reserveCapacityEj 0x0560bc74
_ZN3WTF6VectorIN3JSC18ControlFlowContextELj0EE14expandCapacityEj 0x0560bd94
_ZN3WTF6VectorIN3JSC18ControlFlowContextELj0EE14expandCapacityEjPKS2_ 0x0560be24
_ZN3WTF9HashTableIPN3JSC7UString3RepESt4pairIS4_PNS1_8JSStringEENS_18PairFirstExtractorIS8_EENS1_17IdentifierRepHashENS_14PairHashTraitsINS_10HashTraitsIS4_EENSD_IS7_EEEESE_E15deallocateTableEPS8_i 0x0560bed4
_ZN3WTF9HashTableIdSt4pairIdN3JSC10JSValuePtrEENS_18PairFirstExtractorIS4_EENS_9FloatHashIdEENS_14PairHashTraitsINS_10HashTraitsIdEENSA_IS3_EEEESB_E15deallocateTableEPS4_i 0x0560bf00
_ZN3WTF9HashTableIPN3JSC23JSValueEncodedAsPointerESt4pairIS3_jENS_18PairFirstExtractorIS5_EENS_7PtrHashIS3_EENS_14PairHashTraitsINS1_17BytecodeGenerator17JSValueHashTraitsENS_10HashTraitsIjEEEESC_E15deallocateTableEPS5_i 0x0560bf90
_ZN3WTF6VectorIN3JSC10RegisterIDELj512EE15reserveCapacityEj 0x0560bfbc
_ZN3WTF6VectorIN3JSC10RegisterIDELj512EE14expandCapacityEj 0x0560c0d0
_ZN3WTF6VectorIPNS0_IN3JSC5LabelELj256EEELj32EE15reserveCapacityEj 0x0560c160
_ZN3WTF6VectorIPNS0_IN3JSC5LabelELj256EEELj32EE14expandCapacityEj 0x0560c274
_ZN3WTF6VectorIPNS0_IN3JSC5LabelELj256EEELj32EE14expandCapacityEjPKS4_ 0x0560c304
_ZN3WTF6VectorIPNS0_IN3JSC10LabelScopeELj256EEELj32EE15reserveCapacityEj 0x0560c3b4
_ZN3WTF6VectorIPNS0_IN3JSC10LabelScopeELj256EEELj32EE14expandCapacityEj 0x0560c4c8
_ZN3WTF6VectorIPNS0_IN3JSC10LabelScopeELj256EEELj32EE14expandCapacityEjPKS4_ 0x0560c558
_ZN3WTF6VectorIPNS0_IN3JSC10RegisterIDELj512EEELj32EE15reserveCapacityEj 0x0560c608
_ZN3WTF6VectorIPNS0_IN3JSC10RegisterIDELj512EEELj32EE14expandCapacityEj 0x0560c71c
_ZN3WTF6VectorIPNS0_IN3JSC10RegisterIDELj512EEELj32EE14expandCapacityEjPKS4_ 0x0560c7ac
_ZN3WTF6VectorIN3JSC11InstructionELj0EE15reserveCapacityEj 0x0560c85c
_ZN3WTF6VectorIN3JSC11InstructionELj0EE14expandCapacityEj 0x0560c980
_ZN3WTF6VectorINS_6RefPtrIN3JSC12FuncExprNodeEEELj0EE15reserveCapacityEj 0x0560ca10
_ZN3WTF6VectorINS_6RefPtrIN3JSC12FuncExprNodeEEELj0EE14expandCapacityEj 0x0560cb34
_ZN3WTF6VectorIjLj0EE15reserveCapacityEj 0x0560cbc4
_ZN3WTF6VectorIjLj0EE14expandCapacityEj 0x0560cce8
_ZN3WTF6VectorIjLj0EE14expandCapacityEjPKj 0x0560cd78
_ZN3WTF6VectorIN3JSC8RegisterELj0EE15reserveCapacityEj 0x0560ce28
_ZN3WTF6VectorIN3JSC8RegisterELj0EE14expandCapacityEj 0x0560cf4c
_ZN3WTF6VectorIN3JSC8RegisterELj0EE14expandCapacityEjPKS2_ 0x0560cfdc
_ZN3WTF9HashTableIPN3JSC7UString3RepESt4pairIS4_PNS1_8JSStringEENS_18PairFirstExtractorIS8_EENS1_17IdentifierRepHashENS_14PairHashTraitsINS_10HashTraitsIS4_EENSD_IS7_EEEESE_E13allocateTableEi 0x0560d08c
_ZN3WTF9HashTableIPN3JSC7UString3RepESt4pairIS4_PNS1_8JSStringEENS_18PairFirstExtractorIS8_EENS1_17IdentifierRepHashENS_14PairHashTraitsINS_10HashTraitsIS4_EENSD_IS7_EEEESE_E6rehashEi 0x0560d0bc
_ZN3WTF9HashTableIPN3JSC7UString3RepESt4pairIS4_PNS1_8JSStringEENS_18PairFirstExtractorIS8_EENS1_17IdentifierRepHashENS_14PairHashTraitsINS_10HashTraitsIS4_EENSD_IS7_EEEESE_E6expandEv 0x0560d260
_ZN3WTF7HashMapIPN3JSC7UString3RepEPNS1_8JSStringENS1_17IdentifierRepHashENS_10HashTraitsIS4_EENS8_IS6_EEE3addERKS4_RKS6_ 0x0560d2f4
_ZN3WTF9HashTableIPN3JSC23JSValueEncodedAsPointerESt4pairIS3_jENS_18PairFirstExtractorIS5_EENS_7PtrHashIS3_EENS_14PairHashTraitsINS1_17BytecodeGenerator17JSValueHashTraitsENS_10HashTraitsIjEEEESC_E13allocateTableEi 0x0560d568
_ZN3WTF9HashTableIPN3JSC23JSValueEncodedAsPointerESt4pairIS3_jENS_18PairFirstExtractorIS5_EENS_7PtrHashIS3_EENS_14PairHashTraitsINS1_17BytecodeGenerator17JSValueHashTraitsENS_10HashTraitsIjEEEESC_E6rehashEi 0x0560d598
_ZN3WTF9HashTableIPN3JSC23JSValueEncodedAsPointerESt4pairIS3_jENS_18PairFirstExtractorIS5_EENS_7PtrHashIS3_EENS_14PairHashTraitsINS1_17BytecodeGenerator17JSValueHashTraitsENS_10HashTraitsIjEEEESC_E6expandEv 0x0560d770
_ZN3WTF7HashMapIPN3JSC23JSValueEncodedAsPointerEjNS_7PtrHashIS3_EENS1_17BytecodeGenerator17JSValueHashTraitsENS_10HashTraitsIjEEE3addERKS3_RKj 0x0560d804
_ZN3WTF9HashTableINS_6RefPtrIN3JSC7UString3RepEEES5_NS_17IdentityExtractorIS5_EENS2_17IdentifierRepHashENS_10HashTraitsIS5_EESA_E13allocateTableEi 0x0560daac
_ZN3WTF6VectorIN3JSC10RegisterIDELj512EE4growEj 0x0560dadc
_ZN3WTF6VectorIPN3JSC10RegisterIDELj32EE15reserveCapacityEj 0x0560db68
_ZN3WTF6VectorIPN3JSC10RegisterIDELj32EE14expandCapacityEj 0x0560dc7c
_ZN3WTF6VectorIPN3JSC10RegisterIDELj32EE14expandCapacityEjPKS3_ 0x0560dd0c
_ZN3WTF22IdentityHashTranslatorIdSt4pairIdN3JSC10JSValuePtrEENS_9FloatHashIdEEE4hashERKd 0x0560ddbc
_ZN3WTF9HashTableIdSt4pairIdN3JSC10JSValuePtrEENS_18PairFirstExtractorIS4_EENS_9FloatHashIdEENS_14PairHashTraitsINS_10HashTraitsIdEENSA_IS3_EEEESB_E6rehashEi 0x0560de90
_ZN3WTF9HashTableIdSt4pairIdN3JSC10JSValuePtrEENS_18PairFirstExtractorIS4_EENS_9FloatHashIdEENS_14PairHashTraitsINS_10HashTraitsIdEENSA_IS3_EEEESB_E6expandEv 0x0560e12c
_ZN3WTF9HashTableIdSt4pairIdN3JSC10JSValuePtrEENS_18PairFirstExtractorIS4_EENS_9FloatHashIdEENS_14PairHashTraitsINS_10HashTraitsIdEENSA_IS3_EEEESB_E4findIdNS_22IdentityHashTranslatorIdS4_S8_EEEENS_17HashTableIteratorIdS4_S6_S8_SD_SB_EERKT_ 0x0560e1c0
_ZN3WTF6VectorIN3JSC11HandlerInfoELj0EE15reserveCapacityEj 0x0560e35c
_ZN3WTF6VectorIN3JSC11HandlerInfoELj0EE14expandCapacityEj 0x0560e484
_ZN3WTF6VectorIN3JSC11HandlerInfoELj0EE14expandCapacityEjPKS2_ 0x0560e514
_ZN3WTF6VectorINS_6RefPtrIN3JSC12FuncDeclNodeEEELj0EE15reserveCapacityEj 0x0560e5c4
_ZN3WTF6VectorINS_6RefPtrIN3JSC12FuncDeclNodeEEELj0EE14expandCapacityEj 0x0560e6e8
_ZN3WTF6VectorIN3JSC10JSValuePtrELj0EE15reserveCapacityEj 0x0560e778
_ZN3WTF6VectorIN3JSC10JSValuePtrELj0EE14expandCapacityEj 0x0560e888
_ZN3WTF6VectorIN3JSC10JSValuePtrELj0EE14expandCapacityEjPKS2_ 0x0560e918
_ZN3WTF6VectorINS_6RefPtrIN3JSC6RegExpEEELj0EE15reserveCapacityEj 0x0560e9c8
_ZN3WTF6VectorINS_6RefPtrIN3JSC6RegExpEEELj0EE14expandCapacityEj 0x0560eaec
_ZN3WTF6VectorIN3JSC19ExpressionRangeInfoELj0EE15reserveCapacityEj 0x0560eb7c
_ZN3WTF6VectorIN3JSC19ExpressionRangeInfoELj0EE14expandCapacityEj 0x0560ec9c
_ZN3WTF6VectorIN3JSC19ExpressionRangeInfoELj0EE14expandCapacityEjPKS2_ 0x0560ed2c
_ZN3WTF6VectorIN3JSC8LineInfoELj0EE15reserveCapacityEj 0x0560eddc
_ZN3WTF6VectorIN3JSC8LineInfoELj0EE14expandCapacityEj 0x0560eef4
_ZN3WTF6VectorIN3JSC8LineInfoELj0EE14expandCapacityEjPKS2_ 0x0560ef84
_ZN3WTF9HashTableIdSt4pairIdN3JSC10JSValuePtrEENS_18PairFirstExtractorIS4_EENS_9FloatHashIdEENS_14PairHashTraitsINS_10HashTraitsIdEENSA_IS3_EEEESB_E3addIdS3_NS_17HashMapTranslatorIS4_SD_S8_EEEES1_INS_17HashTableIteratorIdS4_S6_S8_SD_SB_EEbERKT_RKT0_ 0x0560f034
_ZN3WTF7HashMapIdN3JSC10JSValuePtrENS_9FloatHashIdEENS_10HashTraitsIdEENS5_IS2_EEE3addERKdRKS2_ 0x0560f370
_ZN3WTF6VectorINS_6RefPtrIN3JSC10RegisterIDEEELj16EE15reserveCapacityEj 0x0560f3c8
_ZN3WTF6VectorINS_6RefPtrIN3JSC10RegisterIDEEELj16EE14expandCapacityEj 0x0560f4dc
_ZN3WTF6VectorIiLj0EE15reserveCapacityEj 0x0560f56c
_ZN3WTF6VectorIiLj0EE14expandCapacityEj 0x0560f690
_ZN3WTF6VectorIiLj0EE6resizeEj 0x0560f720
_ZN3WTF6VectorIN3JSC5LabelELj256EE6shrinkEj 0x0560f79c
_ZN3WTF6VectorINS_6RefPtrIN3JSC10RegisterIDEEELj8EE15reserveCapacityEj 0x0560f888
_ZN3WTF6VectorINS_6RefPtrIN3JSC10RegisterIDEEELj8EE14expandCapacityEj 0x0560f99c
_ZN3WTF9HashTableINS_6RefPtrIN3JSC7UString3RepEEESt4pairIS5_iENS_18PairFirstExtractorIS7_EENS2_17IdentifierRepHashENS_14PairHashTraitsINS_10HashTraitsIS5_EENS2_17BytecodeGenerator28IdentifierMapIndexHashTraitsEEESD_E15deallocateTableEPS7_i 0x0560fa2c
_ZN3WTF9HashTableINS_6RefPtrIN3JSC7UString3RepEEES5_NS_17IdentityExtractorIS5_EENS2_17IdentifierRepHashENS_10HashTraitsIS5_EESA_E15deallocateTableEPS5_i 0x0560fae4
_ZN3WTF9HashTableINS_6RefPtrIN3JSC7UString3RepEEESt4pairIS5_NS2_16SymbolTableEntryEENS_18PairFirstExtractorIS8_EENS2_17IdentifierRepHashENS_14PairHashTraitsINS_10HashTraitsIS5_EENS2_26SymbolTableIndexHashTraitsEEESE_E5clearEv 0x0560fb9c
_ZN3WTF6VectorIN3JSC10IdentifierELj0EE15reserveCapacityEj 0x0560fbf0
_ZN3WTF6VectorIN3JSC10IdentifierELj0EE14expandCapacityEj 0x0560fd6c
_ZN3WTF6VectorIN3JSC10IdentifierELj0EE14expandCapacityEjPKS2_ 0x0560fdfc
_ZN3WTF9HashTableINS_6RefPtrIN3JSC7UString3RepEEESt4pairIS5_iENS_18PairFirstExtractorIS7_EENS2_17IdentifierRepHashENS_14PairHashTraitsINS_10HashTraitsIS5_EENS2_17BytecodeGenerator28IdentifierMapIndexHashTraitsEEESD_E13allocateTableEi 0x0560feac
_ZN3WTF9HashTableINS_6RefPtrIN3JSC7UString3RepEEES5_NS_17IdentityExtractorIS5_EENS2_17IdentifierRepHashENS_10HashTraitsIS5_EESA_E6rehashEi 0x0560ff14
_ZN3WTF9HashTableINS_6RefPtrIN3JSC7UString3RepEEES5_NS_17IdentityExtractorIS5_EENS2_17IdentifierRepHashENS_10HashTraitsIS5_EESA_E6expandEv 0x056100b4
_ZNK3WTF9HashTableINS_6RefPtrIN3JSC7UString3RepEEES5_NS_17IdentityExtractorIS5_EENS2_17IdentifierRepHashENS_10HashTraitsIS5_EESA_E8containsIS5_NS_22IdentityHashTranslatorIS5_S5_S8_EEEEbRKT_ 0x05610148
_ZN3WTF6VectorIN3JSC15SimpleJumpTableELj0EE15reserveCapacityEj 0x05610208
_ZN3WTF6VectorIN3JSC15SimpleJumpTableELj0EE14expandCapacityEj 0x056103d8
_ZN3WTF6VectorIN3JSC15SimpleJumpTableELj0EE14expandCapacityEjPKS2_ 0x05610468
_ZN3WTF6VectorIiLj8EE15reserveCapacityEj 0x05610518
_ZN3WTF6VectorIiLj8EE14expandCapacityEj 0x0561062c
_ZN3WTF6VectorIiLj8EE14expandCapacityEjPKi 0x056106bc
_ZN3WTF6VectorIiLj0EE14shrinkCapacityEj 0x0561076c
_ZN3WTF6VectorIiLj0EE4fillERKij 0x056108ac
_ZN3WTF9HashTableINS_6RefPtrIN3JSC7UString3RepEEESt4pairIS5_iENS_18PairFirstExtractorIS7_EENS2_17IdentifierRepHashENS_14PairHashTraitsINS_10HashTraitsIS5_EENS2_17BytecodeGenerator28IdentifierMapIndexHashTraitsEEESD_E6rehashEi 0x056109c8
_ZN3WTF9HashTableINS_6RefPtrIN3JSC7UString3RepEEESt4pairIS5_iENS_18PairFirstExtractorIS7_EENS2_17IdentifierRepHashENS_14PairHashTraitsINS_10HashTraitsIS5_EENS2_17BytecodeGenerator28IdentifierMapIndexHashTraitsEEESD_E6expandEv 0x05610c80
_ZN3WTF9HashTableINS_6RefPtrIN3JSC7UString3RepEEESt4pairIS5_iENS_18PairFirstExtractorIS7_EENS2_17IdentifierRepHashENS_14PairHashTraitsINS_10HashTraitsIS5_EENS2_17BytecodeGenerator28IdentifierMapIndexHashTraitsEEESD_E4findIS5_NS_22IdentityHashTranslatorIS5_S7_SA_EEEENS_17HashTableIteratorIS5_S7_S9_SA_SG_SD_EERKT_ 0x05610d14
_ZN3WTF7HashMapINS_6RefPtrIN3JSC7UString3RepEEEiNS2_17IdentifierRepHashENS_10HashTraitsIS5_EENS2_17BytecodeGenerator28IdentifierMapIndexHashTraitsEE3addEPS4_RKi 0x05610e30
_ZN3WTF7HashMapINS_6RefPtrIN3JSC7UString3RepEEENS2_14OffsetLocationENS_7StrHashIS5_EENS_10HashTraitsIS5_EENS9_IS6_EEE3addEPS4_RKS6_ 0x05611168
_ZN3WTF6VectorIN3JSC15StringJumpTableELj0EE15reserveCapacityEj 0x056114d0
_ZN3WTF6VectorIN3JSC15StringJumpTableELj0EE14expandCapacityEj 0x05611628
_ZN3WTF6VectorIN3JSC15StringJumpTableELj0EE14expandCapacityEjPKS2_ 0x056116b8
_ZN3WTF7HashMapINS_6RefPtrIN3JSC7UString3RepEEENS2_16SymbolTableEntryENS2_17IdentifierRepHashENS_10HashTraitsIS5_EENS2_26SymbolTableIndexHashTraitsEE3setEPS4_RKS6_ 0x05611768
_ZN3WTF9HashTableINS_6RefPtrIN3JSC7UString3RepEEES5_NS_17IdentityExtractorIS5_EENS2_17IdentifierRepHashENS_10HashTraitsIS5_EESA_E4findIS5_NS_22IdentityHashTranslatorIS5_S5_S8_EEEENS_17HashTableIteratorIS5_S5_S7_S8_SA_SA_EERKT_ 0x05611aa0
_ZN3WTF7HashSetINS_6RefPtrIN3JSC7UString3RepEEENS2_17IdentifierRepHashENS_10HashTraitsIS5_EEE3addERKS5_ 0x05611bbc
_ZNK3JSC22JSNotAnObjectErrorStub22isNotAnObjectErrorStubEv 0x05611ec8
_ZNK3JSC25InterruptedExecutionError19isWatchdogExceptionEv 0x05611ed0
_ZN3JSC8jsNumberEPNS_9ExecStateEi 0x05611ed8
_ZN3JSC25InterruptedExecutionErrorD1Ev 0x05611f54
_ZN3JSC22JSNotAnObjectErrorStubD0Ev 0x0561207c
_ZN3JSC22JSNotAnObjectErrorStubD1Ev 0x056121d0
_ZN3JSC25InterruptedExecutionErrorD0Ev 0x056122f8
_ZN3WTF9HashTableIPvSt4pairIS1_N3JSC8OpcodeIDEENS_18PairFirstExtractorIS5_EENS_7PtrHashIS1_EENS_14PairHashTraitsINS_10HashTraitsIS1_EENSB_IS4_EEEESC_E4findIS1_NS_22IdentityHashTranslatorIS1_S5_S9_EEEENS_17HashTableIteratorIS1_S5_S7_S9_SE_SC_EERKT_ 0x0561244c
_ZN3WTF9HashTableIPvSt4pairIS1_N3JSC8OpcodeIDEENS_18PairFirstExtractorIS5_EENS_7PtrHashIS1_EENS_14PairHashTraitsINS_10HashTraitsIS1_EENSB_IS4_EEEESC_E13allocateTableEi 0x0561259c
_ZN3WTF9HashTableIPvSt4pairIS1_N3JSC8OpcodeIDEENS_18PairFirstExtractorIS5_EENS_7PtrHashIS1_EENS_14PairHashTraitsINS_10HashTraitsIS1_EENSB_IS4_EEEESC_E15deallocateTableEPS5_i 0x056125fc
_ZN3WTF9HashTableIPvSt4pairIS1_N3JSC8OpcodeIDEENS_18PairFirstExtractorIS5_EENS_7PtrHashIS1_EENS_14PairHashTraitsINS_10HashTraitsIS1_EENSB_IS4_EEEESC_E6rehashEi 0x05612628
_ZN3WTF9HashTableIPvSt4pairIS1_N3JSC8OpcodeIDEENS_18PairFirstExtractorIS5_EENS_7PtrHashIS1_EENS_14PairHashTraitsINS_10HashTraitsIS1_EENSB_IS4_EEEESC_E6expandEv 0x05612810
_ZN3WTF7HashMapIPvN3JSC8OpcodeIDENS_7PtrHashIS1_EENS_10HashTraitsIS1_EENS6_IS3_EEE3addERKS1_RKS3_ 0x056128a4
_ZNK3JSC12JSNumberCell7toInt32Ev 0x05612b4c
_ZN3WTF9HashTableINS_6RefPtrIN3JSC7UString3RepEEESt4pairIS5_NS1_INS2_8EvalNodeEEEENS_18PairFirstExtractorIS9_EENS_7StrHashIS5_EENS_14PairHashTraitsINS_10HashTraitsIS5_EENSF_IS8_EEEESG_E13allocateTableEi 0x05612bc8
_ZN3JSC6Parser5parseINS_8EvalNodeEEEN3WTF10PassRefPtrIT_EEPNS_9ExecStateEPNS_8DebuggerERKNS_10SourceCodeEPiPNS_7UStringE 0x05612bf8
_ZNK3WTF9HashTableIPvSt4pairIS1_N3JSC8OpcodeIDEENS_18PairFirstExtractorIS5_EENS_7PtrHashIS1_EENS_14PairHashTraitsINS_10HashTraitsIS1_EENSB_IS4_EEEESC_E8containsIS1_NS_22IdentityHashTranslatorIS1_S5_S9_EEEEbRKT_ 0x05612df0
_ZN3WTF9HashTableINS_6RefPtrIN3JSC7UString3RepEEESt4pairIS5_NS2_14OffsetLocationEENS_18PairFirstExtractorIS8_EENS_7StrHashIS5_EENS_14PairHashTraitsINS_10HashTraitsIS5_EENSE_IS7_EEEESF_E4findIPS4_NS_29RefPtrHashMapRawKeyTranslatorISK_S8_SH_SC_EEEENS_17HashTableIteratorIS5_S8_SA_SC_SH_SF_EERKT_ 0x05612ee4
_ZNK3JSC7JSValue3getEPNS_9ExecStateERKNS_10IdentifierERNS_12PropertySlotE 0x056130a4
_ZNK3WTF7HashMapINS_6RefPtrIN3JSC7UString3RepEEENS1_INS2_8EvalNodeEEENS_7StrHashIS5_EENS_10HashTraitsIS5_EENSA_IS7_EEE3getEPS4_ 0x05613528
_ZN3WTF9HashTableINS_6RefPtrIN3JSC7UString3RepEEESt4pairIS5_NS1_INS2_8EvalNodeEEEENS_18PairFirstExtractorIS9_EENS_7StrHashIS5_EENS_14PairHashTraitsINS_10HashTraitsIS5_EENSF_IS8_EEEESG_E4findIS5_NS_22IdentityHashTranslatorIS5_S9_SD_EEEENS_17HashTableIteratorIS5_S9_SB_SD_SI_SG_EERKT_ 0x056136f0
_ZN3WTF9HashTableINS_6RefPtrIN3JSC7UString3RepEEESt4pairIS5_NS1_INS2_8EvalNodeEEEENS_18PairFirstExtractorIS9_EENS_7StrHashIS5_EENS_14PairHashTraitsINS_10HashTraitsIS5_EENSF_IS8_EEEESG_E6rehashEi 0x056138b0
_ZN3WTF9HashTableINS_6RefPtrIN3JSC7UString3RepEEESt4pairIS5_NS1_INS2_8EvalNodeEEEENS_18PairFirstExtractorIS9_EENS_7StrHashIS5_EENS_14PairHashTraitsINS_10HashTraitsIS5_EENSF_IS8_EEEESG_E6expandEv 0x05613c9c
_ZN3WTF7HashMapINS_6RefPtrIN3JSC7UString3RepEEENS1_INS2_8EvalNodeEEENS_7StrHashIS5_EENS_10HashTraitsIS5_EENSA_IS7_EEE3setEPS4_RKS7_ 0x05613d30
_ZNK3WTF7HashMapIPvN3JSC8OpcodeIDENS_7PtrHashIS1_EENS_10HashTraitsIS1_EENS6_IS3_EEE3getERKS1_ 0x056140f4
_ZN3WTF9HashTableIPN3JSC9ScopeNodeESt4pairIS3_PNS1_17ScopeSampleRecordEENS_18PairFirstExtractorIS7_EENS_7PtrHashIS3_EENS_14PairHashTraitsINS_10HashTraitsIS3_EENSD_IS6_EEEESE_E4findIS3_NS_22IdentityHashTranslatorIS3_S7_SB_EEEENS_17HashTableIteratorIS3_S7_S9_SB_SG_SE_EERKT_ 0x056141e0
_ZN3WTF9HashTableIPN3JSC9ScopeNodeESt4pairIS3_PNS1_17ScopeSampleRecordEENS_18PairFirstExtractorIS7_EENS_7PtrHashIS3_EENS_14PairHashTraitsINS_10HashTraitsIS3_EENSD_IS6_EEEESE_E13allocateTableEi 0x05614330
_ZN3WTF9HashTableIPN3JSC9ScopeNodeESt4pairIS3_PNS1_17ScopeSampleRecordEENS_18PairFirstExtractorIS7_EENS_7PtrHashIS3_EENS_14PairHashTraitsINS_10HashTraitsIS3_EENSD_IS6_EEEESE_E15deallocateTableEPS7_i 0x05614360
_ZN3WTF9HashTableIPN3JSC9ScopeNodeESt4pairIS3_PNS1_17ScopeSampleRecordEENS_18PairFirstExtractorIS7_EENS_7PtrHashIS3_EENS_14PairHashTraitsINS_10HashTraitsIS3_EENSD_IS6_EEEESE_E6rehashEi 0x0561438c
_ZN3WTF9HashTableIPN3JSC9ScopeNodeESt4pairIS3_PNS1_17ScopeSampleRecordEENS_18PairFirstExtractorIS7_EENS_7PtrHashIS3_EENS_14PairHashTraitsINS_10HashTraitsIS3_EENSD_IS6_EEEESE_E6expandEv 0x05614564
_ZN3WTF7HashMapIPN3JSC9ScopeNodeEPNS1_17ScopeSampleRecordENS_7PtrHashIS3_EENS_10HashTraitsIS3_EENS8_IS5_EEE3setERKS3_RKS5_ 0x056145f8
_ZN3WTF9HashTableIPN3JSC7ArgListES3_NS_17IdentityExtractorIS3_EENS_7PtrHashIS3_EENS_10HashTraitsIS3_EES9_E6expandEv 0x05614898
_ZN3WTF7HashSetIPN3JSC7ArgListENS_7PtrHashIS3_EENS_10HashTraitsIS3_EEE3addERKS3_ 0x0561492c
_ZN3WTF6VectorIN3JSC8RegisterELj8EE15reserveCapacityEj 0x05614bb0
_ZN3WTF6VectorIN3JSC8RegisterELj8EE14expandCapacityEj 0x05614cc4
_ZN3WTF6VectorIN3JSC8RegisterELj8EE14expandCapacityEjPKS2_ 0x05614d54
_ZN3WTF6VectorIN3JSC8RegisterELj8EE11appendRangeIPKS2_EEvT_S7_ 0x05614e04
_ZNK3JSC9Arguments9classInfoEv 0x05614ec8
_ZN3JSC8jsNumberEPNS_9ExecStateEj 0x05614ed4
_ZN3JSC16ArrayConstructorD1Ev 0x05614f3c
_ZN3JSC16ArrayConstructorD0Ev 0x05615064
_ZN3JSC9ExecState10arrayTableEPS0_ 0x056151b8
_ZNK3JSC14ArrayPrototype9classInfoEv 0x056151c8
_ZN3WTF6VectorItLj256EE6shrinkEj 0x056151d4
_ZN3WTF9HashTableIPN3JSC8JSObjectES3_NS_17IdentityExtractorIS3_EENS_7PtrHashIS3_EENS_10HashTraitsIS3_EES9_E4findIS3_NS_22IdentityHashTranslatorIS3_S3_S7_EEEENS_17HashTableIteratorIS3_S3_S5_S7_S9_S9_EERKT_ 0x056151dc
_ZNK3JSC8JSObject3getEPNS_9ExecStateERKNS_10IdentifierE 0x0561532c
_ZN3WTF9HashTableIPN3JSC8JSObjectES3_NS_17IdentityExtractorIS3_EENS_7PtrHashIS3_EENS_10HashTraitsIS3_EES9_E13allocateTableEi 0x05615618
_ZN3WTF9HashTableIPN3JSC8JSObjectES3_NS_17IdentityExtractorIS3_EENS_7PtrHashIS3_EENS_10HashTraitsIS3_EES9_E6rehashEi 0x05615648
_ZN3WTF9HashTableIPN3JSC8JSObjectES3_NS_17IdentityExtractorIS3_EENS_7PtrHashIS3_EENS_10HashTraitsIS3_EES9_E6removeEPS3_ 0x05615810
_ZN3WTF9HashTableIPN3JSC8JSObjectES3_NS_17IdentityExtractorIS3_EENS_7PtrHashIS3_EENS_10HashTraitsIS3_EES9_E47removeAndInvalidateWithoutEntryConsistencyCheckEPS3_ 0x0561588c
_ZN3WTF9HashTableIPN3JSC8JSObjectES3_NS_17IdentityExtractorIS3_EENS_7PtrHashIS3_EENS_10HashTraitsIS3_EES9_E6expandEv 0x056158b8
_ZN3WTF7HashSetIPN3JSC8JSObjectENS_7PtrHashIS3_EENS_10HashTraitsIS3_EEE3addERKS3_ 0x0561594c
_ZN3WTF6VectorItLj256EE15reserveCapacityEj 0x05615bd0
_ZN3WTF6VectorItLj256EE14expandCapacityEj 0x05615cdc
_ZN3WTF6VectorItLj256EE14expandCapacityEjPKt 0x05615d6c
_ZN3WTF6VectorItLj256EE6appendItEEvPKT_j 0x05615e1c
_ZN3JSC14ArrayPrototypeD0Ev 0x05615ecc
_ZN3JSC14ArrayPrototypeD1Ev 0x05615f24
_ZNK3JSC12PropertySlot8getValueEPNS_9ExecStateEj 0x05615f5c
_ZN3JSC18BooleanConstructorD1Ev 0x056160d0
_ZN3JSC18BooleanConstructorD0Ev 0x056161f8
_ZNK3JSC13BooleanObject9classInfoEv 0x0561634c
_ZN3JSC13BooleanObjectD1Ev 0x05616358
_ZN3JSC13BooleanObjectD0Ev 0x05616480
_ZN3JSC16BooleanPrototypeD0Ev 0x056165d4
_ZN3JSC16BooleanPrototypeD1Ev 0x05616728
_ZN3JSC21CollectorHeapIteratorILNS_8HeapTypeE0EEppEv 0x05616850
_ZN3JSC21CollectorHeapIteratorILNS_8HeapTypeE0EEC1EPPNS_14CollectorBlockES5_ 0x056168dc
_ZNK3WTF9HashTableIPN3JSC6JSCellESt4pairIS3_jENS_18PairFirstExtractorIS5_EENS_7PtrHashIS3_EENS_14PairHashTraitsINS_10HashTraitsIS3_EENSB_IjEEEESC_E8containsIS3_NS_22IdentityHashTranslatorIS3_S5_S9_EEEEbRKT_ 0x05616970
_ZN3WTF9HashTableIPKcSt4pairIS2_jENS_18PairFirstExtractorIS4_EENS_7PtrHashIS2_EENS_14PairHashTraitsINS_10HashTraitsIS2_EENSA_IjEEEESB_E4findIS2_NS_22IdentityHashTranslatorIS2_S4_S8_EEEENS_17HashTableIteratorIS2_S4_S6_S8_SD_SB_EERKT_ 0x05616a64
_ZN3WTF9HashTableIPKcSt4pairIS2_jENS_18PairFirstExtractorIS4_EENS_7PtrHashIS2_EENS_14PairHashTraitsINS_10HashTraitsIS2_EENSA_IjEEEESB_E13allocateTableEi 0x05616bb4
_ZN3WTF9HashTableIPN3JSC6JSCellESt4pairIS3_jENS_18PairFirstExtractorIS5_EENS_7PtrHashIS3_EENS_14PairHashTraitsINS_10HashTraitsIS3_EENSB_IjEEEESC_E13allocateTableEi 0x05616be4
_ZN3WTF9HashTableIPKcSt4pairIS2_jENS_18PairFirstExtractorIS4_EENS_7PtrHashIS2_EENS_14PairHashTraitsINS_10HashTraitsIS2_EENSA_IjEEEESB_E15deallocateTableEPS4_i 0x05616c14
_ZN3WTF9HashTableIPKcSt4pairIS2_jENS_18PairFirstExtractorIS4_EENS_7PtrHashIS2_EENS_14PairHashTraitsINS_10HashTraitsIS2_EENSA_IjEEEESB_E6rehashEi 0x05616c40
_ZN3WTF9HashTableIPKcSt4pairIS2_jENS_18PairFirstExtractorIS4_EENS_7PtrHashIS2_EENS_14PairHashTraitsINS_10HashTraitsIS2_EENSA_IjEEEESB_E6expandEv 0x05616e18
_ZN3WTF7HashMapIPKcjNS_7PtrHashIS2_EENS_10HashTraitsIS2_EENS5_IjEEE3addERKS2_RKj 0x05616eac
_ZN3WTF9HashTableIPN3JSC6JSCellESt4pairIS3_jENS_18PairFirstExtractorIS5_EENS_7PtrHashIS3_EENS_14PairHashTraitsINS_10HashTraitsIS3_EENSB_IjEEEESC_E15deallocateTableEPS5_i 0x05617154
_ZN3WTF9HashTableIPN3JSC6JSCellESt4pairIS3_jENS_18PairFirstExtractorIS5_EENS_7PtrHashIS3_EENS_14PairHashTraitsINS_10HashTraitsIS3_EENSB_IjEEEESC_E6rehashEi 0x05617180
_ZN3WTF9HashTableIPN3JSC6JSCellESt4pairIS3_jENS_18PairFirstExtractorIS5_EENS_7PtrHashIS3_EENS_14PairHashTraitsINS_10HashTraitsIS3_EENSB_IjEEEESC_E6removeEPS5_ 0x05617358
_ZN3WTF9HashTableIPN3JSC6JSCellESt4pairIS3_jENS_18PairFirstExtractorIS5_EENS_7PtrHashIS3_EENS_14PairHashTraitsINS_10HashTraitsIS3_EENSB_IjEEEESC_E47removeAndInvalidateWithoutEntryConsistencyCheckEPS5_ 0x056173d4
_ZN3WTF9HashTableIPN3JSC6JSCellESt4pairIS3_jENS_18PairFirstExtractorIS5_EENS_7PtrHashIS3_EENS_14PairHashTraitsINS_10HashTraitsIS3_EENSB_IjEEEESC_E6expandEv 0x05617400
_ZN3JSC4Heap5sweepILNS_8HeapTypeE1EEEjv 0x05617494
_ZN3JSC4Heap5sweepILNS_8HeapTypeE0EEEjv 0x05617734
_ZN3WTF9HashTableIPN3JSC6JSCellESt4pairIS3_jENS_18PairFirstExtractorIS5_EENS_7PtrHashIS3_EENS_14PairHashTraitsINS_10HashTraitsIS3_EENSB_IjEEEESC_E4findIS3_NS_22IdentityHashTranslatorIS3_S5_S9_EEEENS_17HashTableIteratorIS3_S5_S7_S9_SE_SC_EERKT_ 0x05617a3c
_ZN3WTF7HashMapIPN3JSC6JSCellEjNS_7PtrHashIS3_EENS_10HashTraitsIS3_EENS6_IjEEE3addERKS3_RKj 0x05617b8c
_ZN3JSC17GregorianDateTimeC1ERK2tm 0x05617e34
_ZN3JSC15DateConstructorD1Ev 0x05617f2c
_ZN3JSC15DateConstructorD0Ev 0x05618054
_ZNK3JSC12DateInstance9classInfoEv 0x056181a8
_ZN3JSC9ExecState9dateTableEPS0_ 0x056181b4
_ZNK3JSC13DatePrototype9classInfoEv 0x056181c4
_ZN3JSC13DatePrototypeD0Ev 0x056181d0
_ZN3JSC13DatePrototypeD1Ev 0x05618228
_ZN3WTF9HashTableIPN3JSC14JSGlobalObjectES3_NS_17IdentityExtractorIS3_EENS_7PtrHashIS3_EENS_10HashTraitsIS3_EES9_E4findIS3_NS_22IdentityHashTranslatorIS3_S3_S7_EEEENS_17HashTableIteratorIS3_S3_S5_S7_S9_S9_EERKT_ 0x05618260
_ZN3WTF9HashTableIPN3JSC14JSGlobalObjectES3_NS_17IdentityExtractorIS3_EENS_7PtrHashIS3_EENS_10HashTraitsIS3_EES9_E13allocateTableEi 0x056183b0
_ZN3WTF9HashTableIPN3JSC14JSGlobalObjectES3_NS_17IdentityExtractorIS3_EENS_7PtrHashIS3_EENS_10HashTraitsIS3_EES9_E15deallocateTableEPS3_i 0x056183e0
_ZN3WTF9HashTableIPN3JSC14JSGlobalObjectES3_NS_17IdentityExtractorIS3_EENS_7PtrHashIS3_EENS_10HashTraitsIS3_EES9_E6rehashEi 0x0561840c
_ZN3WTF9HashTableIPN3JSC14JSGlobalObjectES3_NS_17IdentityExtractorIS3_EENS_7PtrHashIS3_EENS_10HashTraitsIS3_EES9_E6removeEPS3_ 0x056185d4
_ZN3WTF9HashTableIPN3JSC14JSGlobalObjectES3_NS_17IdentityExtractorIS3_EENS_7PtrHashIS3_EENS_10HashTraitsIS3_EES9_E47removeAndInvalidateWithoutEntryConsistencyCheckEPS3_ 0x05618650
_ZN3WTF9HashTableIPN3JSC14JSGlobalObjectES3_NS_17IdentityExtractorIS3_EENS_7PtrHashIS3_EENS_10HashTraitsIS3_EES9_E6expandEv 0x0561867c
_ZN3WTF7HashSetIPN3JSC14JSGlobalObjectENS_7PtrHashIS3_EENS_10HashTraitsIS3_EEE3addERKS3_ 0x05618710
_ZN3JSC16ErrorConstructorD1Ev 0x05618994
_ZN3JSC16ErrorConstructorD0Ev 0x05618abc
_ZNK3JSC13ErrorInstance9classInfoEv 0x05618c10
_ZN3JSC13ErrorInstanceD1Ev 0x05618c1c
_ZN3JSC13ErrorInstanceD0Ev 0x05618d44
_ZN3JSC14ErrorPrototypeD1Ev 0x05618e98
_ZN3JSC14ErrorPrototypeD0Ev 0x05618fc0
_ZN3JSC6Parser5parseINS_11ProgramNodeEEEN3WTF10PassRefPtrIT_EEPNS_9ExecStateEPNS_8DebuggerERKNS_10SourceCodeEPiPNS_7UStringE 0x05619114
_ZN3JSC19FunctionConstructorD0Ev 0x0561930c
_ZN3JSC19FunctionConstructorD1Ev 0x05619460
_ZN3JSC17FunctionPrototypeD0Ev 0x05619588
_ZN3JSC17FunctionPrototypeD1Ev 0x056196dc
_ZN3JSC12GetterSetterD1Ev 0x05619804
_ZN3JSC12GetterSetterD0Ev 0x05619814
_ZN3JSC18GlobalEvalFunctionD1Ev 0x0561984c
_ZN3JSC18GlobalEvalFunctionD0Ev 0x05619974
_ZN3WTF9HashTableIPKcSt4pairIS2_NS_6RefPtrIN3JSC7UString3RepEEEENS_18PairFirstExtractorIS9_EENS_7PtrHashIS2_EENS_14PairHashTraitsINS_10HashTraitsIS2_EENSF_IS8_EEEESG_E4findIS2_NS_22IdentityHashTranslatorIS2_S9_SD_EEEENS_17HashTableIteratorIS2_S9_SB_SD_SI_SG_EERKT_ 0x05619ac8
_ZN3WTF9HashTableIPKcSt4pairIS2_NS_6RefPtrIN3JSC7UString3RepEEEENS_18PairFirstExtractorIS9_EENS_7PtrHashIS2_EENS_14PairHashTraitsINS_10HashTraitsIS2_EENSF_IS8_EEEESG_E13allocateTableEi 0x05619c18
_ZN3WTF9HashTableIPN3JSC7UString3RepES4_NS_17IdentityExtractorIS4_EENS_7StrHashIS4_EENS_10HashTraitsIS4_EESA_E13allocateTableEi 0x05619c48
_ZN3WTF9HashTableIPN3JSC7UString3RepES4_NS_17IdentityExtractorIS4_EENS_7StrHashIS4_EENS_10HashTraitsIS4_EESA_E15deallocateTableEPS4_i 0x05619c78
_ZN3WTF9HashTableIPKcSt4pairIS2_NS_6RefPtrIN3JSC7UString3RepEEEENS_18PairFirstExtractorIS9_EENS_7PtrHashIS2_EENS_14PairHashTraitsINS_10HashTraitsIS2_EENSF_IS8_EEEESG_E15deallocateTableEPS9_i 0x05619ca4
_ZN3WTF9HashTableIPKcSt4pairIS2_NS_6RefPtrIN3JSC7UString3RepEEEENS_18PairFirstExtractorIS9_EENS_7PtrHashIS2_EENS_14PairHashTraitsINS_10HashTraitsIS2_EENSF_IS8_EEEESG_E6rehashEi 0x05619d70
_ZN3WTF9HashTableIPKcSt4pairIS2_NS_6RefPtrIN3JSC7UString3RepEEEENS_18PairFirstExtractorIS9_EENS_7PtrHashIS2_EENS_14PairHashTraitsINS_10HashTraitsIS2_EENSF_IS8_EEEESG_E6expandEv 0x0561a05c
_ZN3WTF7HashMapIPKcNS_6RefPtrIN3JSC7UString3RepEEENS_7PtrHashIS2_EENS_10HashTraitsIS2_EENSA_IS7_EEE3addERKS2_RKS7_ 0x0561a0f0
_ZN3WTF9HashTableIPN3JSC7UString3RepES4_NS_17IdentityExtractorIS4_EENS_7StrHashIS4_EENS_10HashTraitsIS4_EESA_E6rehashEi 0x0561a414
_ZN3WTF9HashTableIPN3JSC7UString3RepES4_NS_17IdentityExtractorIS4_EENS_7StrHashIS4_EENS_10HashTraitsIS4_EESA_E6removeEPS4_ 0x0561a65c
_ZN3WTF9HashTableIPN3JSC7UString3RepES4_NS_17IdentityExtractorIS4_EENS_7StrHashIS4_EENS_10HashTraitsIS4_EESA_E47removeAndInvalidateWithoutEntryConsistencyCheckEPS4_ 0x0561a6d8
_ZN3WTF9HashTableIPN3JSC7UString3RepES4_NS_17IdentityExtractorIS4_EENS_7StrHashIS4_EENS_10HashTraitsIS4_EESA_E6expandEv 0x0561a704
_ZN3WTF9HashTableIPN3JSC7UString3RepES4_NS_17IdentityExtractorIS4_EENS_7StrHashIS4_EENS_10HashTraitsIS4_EESA_E4findIS4_NS_22IdentityHashTranslatorIS4_S4_S8_EEEENS_17HashTableIteratorIS4_S4_S6_S8_SA_SA_EERKT_ 0x0561a798
_ZN3WTF7HashSetIPN3JSC7UString3RepENS_7StrHashIS4_EENS_10HashTraitsIS4_EEE3addINS1_11UCharBufferENS1_21UCharBufferTranslatorEEESt4pairINS_24HashTableIteratorAdapterINS_9HashTableIS4_S4_NS_17IdentityExtractorIS4_EES6_S8_S8_EES4_EEbERKT_ 0x0561a9c8
_ZN3WTF7HashSetIPN3JSC7UString3RepENS_7StrHashIS4_EENS_10HashTraitsIS4_EEE3addIPKcNS1_17CStringTranslatorEEESt4pairINS_24HashTableIteratorAdapterINS_9HashTableIS4_S4_NS_17IdentityExtractorIS4_EES6_S8_S8_EES4_EEbERKT_ 0x0561acc4
_ZN3WTF7HashSetIPN3JSC7UString3RepENS_7StrHashIS4_EENS_10HashTraitsIS4_EEE3addERKS4_ 0x0561afe4
_ZN3JSC16InternalFunctionD0Ev 0x0561b27c
_ZN3JSC16InternalFunctionD1Ev 0x0561b3d0
_ZNK3JSC7JSArray9classInfoEv 0x0561b4f8
_ZN3WTF6VectorIN3JSC26AVLTreeNodeForArrayCompareELj0EE6shrinkEj 0x0561b504
_ZN3WTF9HashTableIjSt4pairIjN3JSC10JSValuePtrEENS_18PairFirstExtractorIS4_EENS_7IntHashIjEENS_14PairHashTraitsINS_10HashTraitsIjEENSA_IS3_EEEESB_E4findIjNS_22IdentityHashTranslatorIjS4_S8_EEEENS_17HashTableIteratorIjS4_S6_S8_SD_SB_EERKT_ 0x0561b50c
_ZN3WTF9HashTableIjSt4pairIjN3JSC10JSValuePtrEENS_18PairFirstExtractorIS4_EENS_7IntHashIjEENS_14PairHashTraitsINS_10HashTraitsIjEENSA_IS3_EEEESB_E15deallocateTableEPS4_i 0x0561b65c
_ZN3WTF6VectorIN3JSC26AVLTreeNodeForArrayCompareELj0EE15reserveCapacityEj 0x0561b688
_ZN3WTF6VectorIN3JSC26AVLTreeNodeForArrayCompareELj0EE14expandCapacityEj 0x0561b7a8
_ZN3WTF6VectorIN3JSC26AVLTreeNodeForArrayCompareELj0EE6resizeEj 0x0561b838
_ZN3WTF9HashTableIjSt4pairIjN3JSC10JSValuePtrEENS_18PairFirstExtractorIS4_EENS_7IntHashIjEENS_14PairHashTraitsINS_10HashTraitsIjEENSA_IS3_EEEESB_E13allocateTableEi 0x0561b8e4
_ZN3WTF9HashTableIjSt4pairIjN3JSC10JSValuePtrEENS_18PairFirstExtractorIS4_EENS_7IntHashIjEENS_14PairHashTraitsINS_10HashTraitsIjEENSA_IS3_EEEESB_E6rehashEi 0x0561b944
_ZN3WTF9HashTableIjSt4pairIjN3JSC10JSValuePtrEENS_18PairFirstExtractorIS4_EENS_7IntHashIjEENS_14PairHashTraitsINS_10HashTraitsIjEENSA_IS3_EEEESB_E6removeEPS4_ 0x0561bb2c
_ZN3WTF9HashTableIjSt4pairIjN3JSC10JSValuePtrEENS_18PairFirstExtractorIS4_EENS_7IntHashIjEENS_14PairHashTraitsINS_10HashTraitsIjEENSA_IS3_EEEESB_E47removeAndInvalidateWithoutEntryConsistencyCheckEPS4_ 0x0561bba8
_ZN3WTF9HashTableIjSt4pairIjN3JSC10JSValuePtrEENS_18PairFirstExtractorIS4_EENS_7IntHashIjEENS_14PairHashTraitsINS_10HashTraitsIjEENSA_IS3_EEEESB_E6expandEv 0x0561bbd4
_ZN3WTF9HashTableIjSt4pairIjN3JSC10JSValuePtrEENS_18PairFirstExtractorIS4_EENS_7IntHashIjEENS_14PairHashTraitsINS_10HashTraitsIjEENSA_IS3_EEEESB_EC1ERKSE_ 0x0561bc68
_ZN3WTF7HashMapIjN3JSC10JSValuePtrENS_7IntHashIjEENS_10HashTraitsIjEENS5_IS2_EEE3setERKjRKS2_ 0x0561bed0
_ZN3WTF6VectorISt4pairIN3JSC10JSValuePtrENS2_7UStringEELj0EE6shrinkEj 0x0561c170
_ZNK3WTF9HashTableIjSt4pairIjN3JSC10JSValuePtrEENS_18PairFirstExtractorIS4_EENS_7IntHashIjEENS_14PairHashTraitsINS_10HashTraitsIjEENSA_IS3_EEEESB_E8containsIjNS_22IdentityHashTranslatorIjS4_S8_EEEEbRKT_ 0x0561c230
_ZN3JSC32AVLTreeAbstractorForArrayCompare15compare_key_keyENS_10JSValuePtrES1_ 0x0561c324
_ZN3WTF7HashMapIjN3JSC10JSValuePtrENS_7IntHashIjEENS_10HashTraitsIjEENS5_IS2_EEE4takeERKj 0x0561c54c
_ZN3WTF7AVLTreeIN3JSC32AVLTreeAbstractorForArrayCompareELj44ENS_18AVLTreeDefaultBSetILj44EEEE7balanceEi 0x0561c600
_ZNK3JSC11JSByteArray9classInfoEv 0x0561cc0c
_ZN3JSC11JSByteArray8setIndexEPNS_9ExecStateEjNS_10JSValuePtrE 0x0561cc14
_ZN3JSC11JSByteArrayD0Ev 0x0561cd40
_ZN3JSC11JSByteArrayD1Ev 0x0561ced0
_ZNK3JSC10JSFunction9classInfoEv 0x0561d038
_ZN3JSC12JSNumberCellD1Ev 0x0561d044
_ZN3JSC12JSNumberCellD0Ev 0x0561d054
_ZN3JSC8JSObjectD0Ev 0x0561d08c
_ZN3JSC8JSObjectD1Ev 0x0561d1e0
_ZN3JSC8JSStringD1Ev 0x0561d308
_ZN3JSC8JSStringD0Ev 0x0561d39c
_ZN3JSC15JSWrapperObjectD1Ev 0x0561d458
_ZN3JSC15JSWrapperObjectD0Ev 0x0561d580
_ZN3WTF6VectorIcLj0EE6shrinkEj 0x0561d6d4
_ZN3WTF6VectorItLj0EE6shrinkEj 0x0561d6dc
_ZN3WTF6VectorIPNS0_IN3JSC10IdentifierELj64EEELj32EE6shrinkEj 0x0561d6e4
_ZN3WTF6VectorIPNS0_IN3JSC10IdentifierELj64EEELj32EE15reserveCapacityEj 0x0561d6ec
_ZN3WTF6VectorIPNS0_IN3JSC10IdentifierELj64EEELj32EE14expandCapacityEj 0x0561d800
_ZN3WTF6VectorIPNS0_IN3JSC10IdentifierELj64EEELj32EE14expandCapacityEjPKS4_ 0x0561d890
_ZN3WTF6VectorIPNS0_IN3JSC10IdentifierELj64EEELj32EE6resizeEj 0x0561d940
_ZN3WTF6VectorIcLj0EE14shrinkCapacityEj 0x0561d9bc
_ZN3WTF6VectorItLj0EE15reserveCapacityEj 0x0561dadc
_ZN3WTF6VectorItLj0EE14expandCapacityEj 0x0561dbf8
_ZN3WTF6VectorItLj0EE14expandCapacityEjPKt 0x0561dc88
_ZN3WTF6VectorIcLj0EE15reserveCapacityEj 0x0561dd38
_ZN3WTF6VectorIcLj0EE14expandCapacityEj 0x0561de1c
_ZN3WTF6VectorIcLj0EE14expandCapacityEjPKc 0x0561deac
_ZN3WTF6VectorIN3JSC10IdentifierELj64EE6shrinkEj 0x0561df54
_ZN3WTF6VectorIN3JSC10IdentifierELj64EE14shrinkCapacityEj 0x0561e014
_ZN3WTF6VectorItLj0EE14shrinkCapacityEj 0x0561e220
_ZN3JSC9ExecState9mathTableEPS0_ 0x0561e354
_ZNK3JSC10MathObject9classInfoEv 0x0561e364
_ZN3JSC10MathObjectD1Ev 0x0561e370
_ZN3JSC10MathObjectD0Ev 0x0561e498
_ZNK3JSC22NativeErrorConstructor9classInfoEv 0x0561e5ec
_ZN3JSC22NativeErrorConstructorD1Ev 0x0561e5f8
_ZN3JSC8JSObject9putDirectERKNS_10IdentifierENS_10JSValuePtrEj 0x0561e778
_ZN3JSC22NativeErrorConstructorD0Ev 0x0561e9b4
_ZN3JSC20NativeErrorPrototypeD1Ev 0x0561eb5c
_ZN3JSC20NativeErrorPrototypeD0Ev 0x0561ec84
_ZNK3JSC14ExpressionNode8isNumberEv 0x0561edd8
_ZNK3JSC14ExpressionNode8isStringEv 0x0561ede0
_ZNK3JSC14ExpressionNode6isNullEv 0x0561ede8
_ZNK3JSC14ExpressionNode6isPureERNS_17BytecodeGeneratorE 0x0561edf0
_ZNK3JSC14ExpressionNode10isLocationEv 0x0561edf8
_ZNK3JSC14ExpressionNode13isResolveNodeEv 0x0561ee00
_ZNK3JSC14ExpressionNode21isBracketAccessorNodeEv 0x0561ee08
_ZNK3JSC14ExpressionNode17isDotAccessorNodeEv 0x0561ee10
_ZNK3JSC14ExpressionNode14isFuncExprNodeEv 0x0561ee18
_ZN3JSC14ExpressionNode14stripUnaryPlusEv 0x0561ee20
_ZNK3JSC13StatementNode16isEmptyStatementEv 0x0561ee24
_ZNK3JSC13StatementNode12isReturnNodeEv 0x0561ee2c
_ZNK3JSC13StatementNode15isExprStatementEv 0x0561ee34
_ZNK3JSC13StatementNode7isBlockEv 0x0561ee3c
_ZNK3JSC13StatementNode6isLoopEv 0x0561ee44
_ZNK3JSC8NullNode6isNullEv 0x0561ee4c
_ZNK3JSC11BooleanNode6isPureERNS_17BytecodeGeneratorE 0x0561ee54
_ZNK3JSC10NumberNode8isNumberEv 0x0561ee5c
_ZNK3JSC10NumberNode6isPureERNS_17BytecodeGeneratorE 0x0561ee64
_ZNK3JSC10StringNode8isStringEv 0x0561ee6c
_ZNK3JSC10StringNode6isPureERNS_17BytecodeGeneratorE 0x0561ee74
_ZNK3JSC11ResolveNode10isLocationEv 0x0561ee7c
_ZNK3JSC11ResolveNode13isResolveNodeEv 0x0561ee84
_ZNK3JSC19BracketAccessorNode10isLocationEv 0x0561ee8c
_ZNK3JSC19BracketAccessorNode21isBracketAccessorNodeEv 0x0561ee94
_ZNK3JSC15DotAccessorNode10isLocationEv 0x0561ee9c
_ZNK3JSC15DotAccessorNode17isDotAccessorNodeEv 0x0561eea4
_ZNK3JSC14InstanceOfNode8opcodeIDEv 0x0561eeac
_ZNK3JSC9EqualNode8opcodeIDEv 0x0561eeb4
_ZNK3JSC15StrictEqualNode8opcodeIDEv 0x0561eebc
_ZNK3JSC9BlockNode7isBlockEv 0x0561eec4
_ZNK3JSC18EmptyStatementNode16isEmptyStatementEv 0x0561eecc
_ZNK3JSC17ExprStatementNode15isExprStatementEv 0x0561eed4
_ZNK3JSC11DoWhileNode6isLoopEv 0x0561eedc
_ZNK3JSC9WhileNode6isLoopEv 0x0561eee4
_ZNK3JSC7ForNode6isLoopEv 0x0561eeec
_ZNK3JSC9ForInNode6isLoopEv 0x0561eef4
_ZNK3JSC10ReturnNode12isReturnNodeEv 0x0561eefc
_ZNK3JSC12FuncExprNode14isFuncExprNodeEv 0x0561ef04
_ZN3WTF6VectorINS_6RefPtrIN3JSC5LabelEEELj8EE6shrinkEj 0x0561ef0c
_ZN3WTF6VectorIPN3JSC14ExpressionNodeELj8EE6shrinkEj 0x0561ef58
_ZN3WTF6VectorIPNS0_IN3JSC10RegisterIDELj512EEELj32EE6shrinkEj 0x0561ef60
_ZN3WTF6VectorIPNS0_IN3JSC10LabelScopeELj256EEELj32EE6shrinkEj 0x0561ef68
_ZN3WTF6VectorIPNS0_IN3JSC5LabelELj256EEELj32EE6shrinkEj 0x0561ef70
_ZN3WTF9HashTableIPN3JSC16ParserRefCountedES3_NS_17IdentityExtractorIS3_EENS_7PtrHashIS3_EENS_10HashTraitsIS3_EES9_E4findIS3_NS_22IdentityHashTranslatorIS3_S3_S7_EEEENS_17HashTableIteratorIS3_S3_S5_S7_S9_S9_EERKT_ 0x0561ef78
_ZN3WTF15deleteAllValuesIPN3JSC16ParserRefCountedEKNS_9HashTableIS3_S3_NS_17IdentityExtractorIS3_EENS_7PtrHashIS3_EENS_10HashTraitsIS3_EESA_EEEEvRT0_ 0x0561f0c8
_ZN3WTF9HashTableIPN3JSC16ProgramCodeBlockES3_NS_17IdentityExtractorIS3_EENS_7PtrHashIS3_EENS_10HashTraitsIS3_EES9_E4findIS3_NS_22IdentityHashTranslatorIS3_S3_S7_EEEENS_17HashTableIteratorIS3_S3_S5_S7_S9_S9_EERKT_ 0x0561f18c
_ZN3WTF9HashTableIPN3JSC16ParserRefCountedESt4pairIS3_jENS_18PairFirstExtractorIS5_EENS_7PtrHashIS3_EENS_14PairHashTraitsINS_10HashTraitsIS3_EENSB_IjEEEESC_E4findIS3_NS_22IdentityHashTranslatorIS3_S5_S9_EEEENS_17HashTableIteratorIS3_S5_S7_S9_SE_SC_EERKT_ 0x0561f2dc
_ZN3JSC4NodeD0Ev 0x0561f42c
_ZN3JSC4NodeD1Ev 0x0561f484
_ZN3WTF9HashTableIPN3JSC16ParserRefCountedESt4pairIS3_jENS_18PairFirstExtractorIS5_EENS_7PtrHashIS3_EENS_14PairHashTraitsINS_10HashTraitsIS3_EENSB_IjEEEESC_E13allocateTableEi 0x0561f4bc
_ZN3WTF9HashTableIPN3JSC16ParserRefCountedES3_NS_17IdentityExtractorIS3_EENS_7PtrHashIS3_EENS_10HashTraitsIS3_EES9_E13allocateTableEi 0x0561f4ec
_ZN3WTF9HashTableIPN3JSC16ProgramCodeBlockES3_NS_17IdentityExtractorIS3_EENS_7PtrHashIS3_EENS_10HashTraitsIS3_EES9_E13allocateTableEi 0x0561f51c
_ZN3WTF9HashTableIPN3JSC16ParserRefCountedESt4pairIS3_jENS_18PairFirstExtractorIS5_EENS_7PtrHashIS3_EENS_14PairHashTraitsINS_10HashTraitsIS3_EENSB_IjEEEESC_E6rehashEi 0x0561f54c
_ZN3WTF9HashTableIPN3JSC16ParserRefCountedESt4pairIS3_jENS_18PairFirstExtractorIS5_EENS_7PtrHashIS3_EENS_14PairHashTraitsINS_10HashTraitsIS3_EENSB_IjEEEESC_E6removeEPS5_ 0x0561f724
_ZN3WTF9HashTableIPN3JSC16ParserRefCountedESt4pairIS3_jENS_18PairFirstExtractorIS5_EENS_7PtrHashIS3_EENS_14PairHashTraitsINS_10HashTraitsIS3_EENSB_IjEEEESC_E47removeAndInvalidateWithoutEntryConsistencyCheckEPS5_ 0x0561f7a0
_ZN3WTF9HashTableIPN3JSC16ParserRefCountedESt4pairIS3_jENS_18PairFirstExtractorIS5_EENS_7PtrHashIS3_EENS_14PairHashTraitsINS_10HashTraitsIS3_EENSB_IjEEEESC_E6expandEv 0x0561f7cc
_ZN3WTF7HashMapIPN3JSC16ParserRefCountedEjNS_7PtrHashIS3_EENS_10HashTraitsIS3_EENS6_IjEEE3addERKS3_RKj 0x0561f860
_ZN3WTF9HashTableIPN3JSC16ParserRefCountedES3_NS_17IdentityExtractorIS3_EENS_7PtrHashIS3_EENS_10HashTraitsIS3_EES9_E6rehashEi 0x0561fb08
_ZN3WTF9HashTableIPN3JSC16ParserRefCountedES3_NS_17IdentityExtractorIS3_EENS_7PtrHashIS3_EENS_10HashTraitsIS3_EES9_E6removeEPS3_ 0x0561fcd0
_ZN3WTF9HashTableIPN3JSC16ParserRefCountedES3_NS_17IdentityExtractorIS3_EENS_7PtrHashIS3_EENS_10HashTraitsIS3_EES9_E47removeAndInvalidateWithoutEntryConsistencyCheckEPS3_ 0x0561fd4c
_ZN3WTF9HashTableIPN3JSC16ParserRefCountedES3_NS_17IdentityExtractorIS3_EENS_7PtrHashIS3_EENS_10HashTraitsIS3_EES9_E6expandEv 0x0561fd78
_ZN3WTF7HashSetIPN3JSC16ParserRefCountedENS_7PtrHashIS3_EENS_10HashTraitsIS3_EEE3addERKS3_ 0x0561fe0c
_ZN3WTF9HashTableIPN3JSC16ProgramCodeBlockES3_NS_17IdentityExtractorIS3_EENS_7PtrHashIS3_EENS_10HashTraitsIS3_EES9_E6rehashEi 0x05620090
_ZN3WTF9HashTableIPN3JSC16ProgramCodeBlockES3_NS_17IdentityExtractorIS3_EENS_7PtrHashIS3_EENS_10HashTraitsIS3_EES9_E6removeEPS3_ 0x05620258
_ZN3WTF9HashTableIPN3JSC16ProgramCodeBlockES3_NS_17IdentityExtractorIS3_EENS_7PtrHashIS3_EENS_10HashTraitsIS3_EES9_E47removeAndInvalidateWithoutEntryConsistencyCheckEPS3_ 0x056202d4
_ZN3WTF9HashTableIPN3JSC16ProgramCodeBlockES3_NS_17IdentityExtractorIS3_EENS_7PtrHashIS3_EENS_10HashTraitsIS3_EES9_E6expandEv 0x05620300
_ZN3WTF6VectorINS_6RefPtrIN3JSC16ParserRefCountedEEELj0EE15reserveCapacityEj 0x05620394
_ZN3WTF6VectorINS_6RefPtrIN3JSC16ParserRefCountedEEELj0EE14expandCapacityEj 0x056204b8
_ZN3JSC8jsNumberEPNS_12JSGlobalDataEj 0x05620548
_ZN3WTF6VectorINS_6RefPtrIN3JSC5LabelEEELj8EE15reserveCapacityEj 0x056205b0
_ZN3WTF6VectorINS_6RefPtrIN3JSC5LabelEEELj8EE14expandCapacityEj 0x056206c4
_ZN3WTF6VectorIPN3JSC14ExpressionNodeELj8EE15reserveCapacityEj 0x05620754
_ZN3WTF6VectorIPN3JSC14ExpressionNodeELj8EE14expandCapacityEj 0x05620868
_ZN3WTF6VectorIPN3JSC14ExpressionNodeELj8EE14expandCapacityEjPKS3_ 0x056208f8
_ZN3WTF7HashSetIPN3JSC16ProgramCodeBlockENS_7PtrHashIS3_EENS_10HashTraitsIS3_EEE3addERKS3_ 0x056209a8
_ZN3WTF6VectorINS_6RefPtrIN3JSC16ParserRefCountedEEELj0EE6shrinkEj 0x05620c2c
_ZNK3WTF9HashTableIPN3JSC16ParserRefCountedESt4pairIS3_jENS_18PairFirstExtractorIS5_EENS_7PtrHashIS3_EENS_14PairHashTraitsINS_10HashTraitsIS3_EENSB_IjEEEESC_E8containsIS3_NS_22IdentityHashTranslatorIS3_S5_S9_EEEEbRKT_ 0x05620cc8
_ZNK3WTF9HashTableIPN3JSC16ParserRefCountedES3_NS_17IdentityExtractorIS3_EENS_7PtrHashIS3_EENS_10HashTraitsIS3_EES9_E8containsIS3_NS_22IdentityHashTranslatorIS3_S3_S7_EEEEbRKT_ 0x05620dbc
_ZN3WTF6VectorINS_6RefPtrIN3JSC12FuncDeclNodeEEELj0EEaSERKS5_ 0x05620eb0
_ZN3WTF6VectorINS_6RefPtrIN3JSC13StatementNodeEEELj0EE15reserveCapacityEj 0x05621078
_ZN3WTF6VectorINS_6RefPtrIN3JSC13StatementNodeEEELj0EE14expandCapacityEj 0x0562119c
_ZN3WTF6VectorISt4pairIN3JSC10IdentifierEjELj0EE15reserveCapacityEj 0x0562122c
_ZN3WTF6VectorISt4pairIN3JSC10IdentifierEjELj0EE6shrinkEj 0x056213b0
_ZN3WTF6VectorINS_6RefPtrIN3JSC13StatementNodeEEELj0EE6shrinkEj 0x05621470
_ZN3WTF6VectorINS_6RefPtrIN3JSC13StatementNodeEEELj0EE14shrinkCapacityEj 0x0562150c
_ZN3JSC17BytecodeGeneratorD1Ev 0x0562164c
_ZN3WTF6VectorISt4pairIN3JSC10IdentifierEjELj0EE14shrinkCapacityEj 0x05621eb8
_ZN3WTF6VectorISt4pairIN3JSC10IdentifierEjELj0EEaSERKS5_ 0x05622080
_ZN3JSC17PrefixResolveNodeD1Ev 0x0562226c
_ZN3JSC13StatementNodeD0Ev 0x05622328
_ZN3JSC13StatementNodeD1Ev 0x05622380
_ZN3JSC14ExpressionNodeD0Ev 0x056223b8
_ZN3JSC14ExpressionNodeD1Ev 0x05622410
_ZN3JSC18EmptyStatementNodeD0Ev 0x05622448
_ZN3JSC18EmptyStatementNodeD1Ev 0x056224a0
_ZN3JSC21DebuggerStatementNodeD0Ev 0x056224d8
_ZN3JSC21DebuggerStatementNodeD1Ev 0x05622530
_ZN3JSC17ExprStatementNodeD0Ev 0x05622568
_ZN3JSC17ExprStatementNodeD1Ev 0x056225ec
_ZN3JSC12ContinueNodeD0Ev 0x0562265c
_ZN3JSC12ContinueNodeD1Ev 0x056226fc
_ZN3JSC9BreakNodeD0Ev 0x056227b8
_ZN3JSC9BreakNodeD1Ev 0x05622858
_ZN3JSC11ProgramNodeD0Ev 0x05622914
_ZN3JSC11ProgramNodeD1Ev 0x05622a48
_ZN3JSC8EvalNodeD0Ev 0x05622b64
_ZN3JSC8EvalNodeD1Ev 0x05622c98
_ZN3JSC8NullNodeD0Ev 0x05622db4
_ZN3JSC8NullNodeD1Ev 0x05622e0c
_ZN3JSC9EqualNodeD0Ev 0x05622e44
_ZN3JSC9EqualNodeD1Ev 0x05622e9c
_ZN3JSC15StrictEqualNodeD0Ev 0x05622ed4
_ZN3JSC15StrictEqualNodeD1Ev 0x05622f2c
_ZN3JSC21ThrowableBinaryOpNodeD0Ev 0x05622f64
_ZN3JSC21ThrowableBinaryOpNodeD1Ev 0x05622fbc
_ZN3JSC14InstanceOfNodeD1Ev 0x05622ff4
_ZN3JSC19ReverseBinaryOpNodeD0Ev 0x0562302c
_ZN3JSC19ReverseBinaryOpNodeD1Ev 0x05623084
_ZN3JSC14InstanceOfNodeD0Ev 0x056230bc
_ZN3JSC18PrePostResolveNodeD0Ev 0x05623114
_ZN3JSC18PrePostResolveNodeD1Ev 0x056231b4
_ZN3JSC17PrefixResolveNodeD0Ev 0x05623270
_ZN3JSC11BooleanNodeD0Ev 0x05623310
_ZN3JSC11BooleanNodeD1Ev 0x05623368
_ZN3JSC10NumberNodeD0Ev 0x056233a0
_ZN3JSC10NumberNodeD1Ev 0x056233f8
_ZN3JSC10StringNodeD0Ev 0x05623430
_ZN3JSC10StringNodeD1Ev 0x056234d0
_ZN3JSC10RegExpNodeD0Ev 0x0562358c
_ZN3JSC10RegExpNodeD1Ev 0x05623664
_ZN3JSC8ThisNodeD0Ev 0x05623758
_ZN3JSC8ThisNodeD1Ev 0x056237b0
_ZN3JSC11ResolveNodeD0Ev 0x056237e8
_ZN3JSC11ResolveNodeD1Ev 0x05623888
_ZN3JSC17DeleteResolveNodeD0Ev 0x05623944
_ZN3JSC17DeleteResolveNodeD1Ev 0x056239e4
_ZN3JSC17TypeOfResolveNodeD0Ev 0x05623aa0
_ZN3JSC17TypeOfResolveNodeD1Ev 0x05623b40
_ZN3JSC18PostfixResolveNodeD0Ev 0x05623bfc
_ZN3JSC18PostfixResolveNodeD1Ev 0x05623c9c
_ZN3JSC9ExecState11numberTableEPS0_ 0x05623d58
_ZNK3JSC17NumberConstructor9classInfoEv 0x05623d68
_ZN3JSC17NumberConstructorD0Ev 0x05623d74
_ZN3JSC17NumberConstructorD1Ev 0x05623ec8
_ZNK3JSC12NumberObject9classInfoEv 0x05623ff0
_ZN3JSC12NumberObjectD1Ev 0x05623ffc
_ZN3JSC12NumberObjectD0Ev 0x05624124
_ZN3WTF6VectorIcLj1024EE6shrinkEj 0x05624278
_ZN3WTF6VectorIcLj2048EE6shrinkEj 0x05624280
_ZN3JSC15NumberPrototypeD0Ev 0x05624288
_ZN3JSC15NumberPrototypeD1Ev 0x056243dc
_ZN3JSC17ObjectConstructorD0Ev 0x05624504
_ZN3JSC17ObjectConstructorD1Ev 0x05624658
_ZN3JSC15ObjectPrototypeD1Ev 0x05624780
_ZN3JSC15ObjectPrototypeD0Ev 0x056248a8
_ZN3JSC25strictEqualSlowCaseInlineENS_10JSValuePtrES0_ 0x056249fc
_ZN3JSC19equalSlowCaseInlineEPNS_9ExecStateENS_10JSValuePtrES2_ 0x05624b7c
_ZN3WTF9HashTableIPN3JSC7UString3RepES4_NS_17IdentityExtractorIS4_EENS_7PtrHashIS4_EENS_10HashTraitsIS4_EESA_E4findIS4_NS_22IdentityHashTranslatorIS4_S4_S8_EEEENS_17HashTableIteratorIS4_S4_S6_S8_SA_SA_EERKT_ 0x056250fc
_ZN3WTF9HashTableIPN3JSC7UString3RepES4_NS_17IdentityExtractorIS4_EENS_7PtrHashIS4_EENS_10HashTraitsIS4_EESA_E13allocateTableEi 0x0562524c
_ZN3WTF9HashTableIPN3JSC7UString3RepES4_NS_17IdentityExtractorIS4_EENS_7PtrHashIS4_EENS_10HashTraitsIS4_EESA_E6rehashEi 0x0562527c
_ZN3WTF9HashTableIPN3JSC7UString3RepES4_NS_17IdentityExtractorIS4_EENS_7PtrHashIS4_EENS_10HashTraitsIS4_EESA_E6expandEv 0x05625444
_ZN3WTF7HashSetIPN3JSC7UString3RepENS_7PtrHashIS4_EENS_10HashTraitsIS4_EEE3addERKS4_ 0x056254d8
_ZN3WTF6VectorIN3JSC10IdentifierELj20EE15reserveCapacityEj 0x0562575c
_ZN3WTF6VectorIN3JSC10IdentifierELj20EE14expandCapacityEj 0x056258f8
_ZN3WTF6VectorIN3JSC10IdentifierELj20EE14expandCapacityEjPKS2_ 0x05625988
_ZN3JSC17PrototypeFunctionD1Ev 0x05625a38
_ZN3JSC17PrototypeFunctionD0Ev 0x05625b60
_ZN3JSC9ExecState22regExpConstructorTableEPS0_ 0x05625cb4
_ZNK3JSC17RegExpConstructor9classInfoEv 0x05625cc4
_ZN3JSC18RegExpMatchesArray16getPropertyNamesEPNS_9ExecStateERNS_17PropertyNameArrayE 0x05625cd0
_ZN3JSC18RegExpMatchesArray14deletePropertyEPNS_9ExecStateEj 0x05625d5c
_ZN3JSC18RegExpMatchesArray14deletePropertyEPNS_9ExecStateERKNS_10IdentifierE 0x05625de8
_ZN3JSC18RegExpMatchesArray3putEPNS_9ExecStateEjNS_10JSValuePtrE 0x05625e74
_ZN3JSC18RegExpMatchesArray3putEPNS_9ExecStateERKNS_10IdentifierENS_10JSValuePtrERNS_15PutPropertySlotE 0x05625f14
_ZN3JSC18RegExpMatchesArray18getOwnPropertySlotEPNS_9ExecStateEjRNS_12PropertySlotE 0x05625fc4
_ZN3JSC18RegExpMatchesArray18getOwnPropertySlotEPNS_9ExecStateERKNS_10IdentifierERNS_12PropertySlotE 0x05626060
_ZN3JSC17RegExpConstructorD1Ev 0x056260fc
_ZN3JSC17RegExpConstructorD0Ev 0x056262d4
_ZN3JSC9ExecState11regExpTableEPS0_ 0x056264d4
_ZNK3JSC12RegExpObject9classInfoEv 0x056264e4
_ZNK3JSC15RegExpPrototype9classInfoEv 0x056264f0
_ZN3JSC15RegExpPrototypeD1Ev 0x056264fc
_ZN3JSC15RegExpPrototypeD0Ev 0x05626624
_ZN3JSC17StringConstructorD1Ev 0x05626778
_ZN3JSC17StringConstructorD0Ev 0x056268a0
_ZNK3JSC12StringObject9classInfoEv 0x056269f4
_ZN3JSC12StringObjectD0Ev 0x05626a00
_ZN3JSC12StringObjectD1Ev 0x05626b54
_ZN3JSC9ExecState11stringTableEPS0_ 0x05626c7c
_ZNK3JSC15StringPrototype9classInfoEv 0x05626c8c
_ZN3WTF6VectorIN3JSC7UString5RangeELj16EE6shrinkEj 0x05626c98
_ZN3WTF6VectorIN3JSC7UString5RangeELj16EE15reserveCapacityEj 0x05626ca0
_ZN3WTF6VectorIN3JSC7UString5RangeELj16EE14expandCapacityEj 0x05626dd8
_ZN3WTF6VectorIN3JSC7UString5RangeELj16EE14expandCapacityEjPKS3_ 0x05626e68
_ZN3WTF6VectorIN3JSC7UStringELj16EE15reserveCapacityEj 0x05626f18
_ZN3WTF6VectorIN3JSC7UStringELj16EE14expandCapacityEj 0x056270b4
_ZN3WTF6VectorIN3JSC7UStringELj16EE14expandCapacityEjPKS2_ 0x05627144
_ZN3WTF6VectorIN3JSC7UStringELj16EE6shrinkEj 0x056271f4
_ZN3WTF6VectorItLj0EE6resizeEj 0x056272b4
_ZN3JSC15StringPrototypeD1Ev 0x05627330
_ZN3JSC15StringPrototypeD0Ev 0x05627458
_ZN3WTF6VectorIPN3JSC9StructureELj8EE6shrinkEj 0x056275ac
_ZN3WTF6VectorIPN3JSC16PropertyMapEntryELj1024EE6shrinkEj 0x056275b4
_ZN3WTF6VectorIjLj0EEC1ERKS1_ 0x056275bc
_ZN3WTF9HashTableISt4pairINS_6RefPtrIN3JSC7UString3RepEEEjES1_IS7_PNS3_9StructureEENS_18PairFirstExtractorISA_EENS3_28StructureTransitionTableHashENS_14PairHashTraitsINS3_34StructureTransitionTableHashTraitsENS_10HashTraitsIS9_EEEESF_E13allocateTableEi 0x05627674
_ZN3WTF6VectorIPN3JSC9StructureELj8EE15reserveCapacityEj 0x056276a4
_ZN3WTF6VectorIPN3JSC9StructureELj8EE14expandCapacityEj 0x056277b8
_ZN3WTF6VectorIPN3JSC9StructureELj8EE14expandCapacityEjPKS3_ 0x05627848
_ZN3WTF6VectorIPN3JSC16PropertyMapEntryELj1024EE15reserveCapacityEj 0x056278f8
_ZN3WTF6VectorIPN3JSC16PropertyMapEntryELj1024EE14expandCapacityEj 0x05627a0c
_ZN3WTF6VectorIPN3JSC16PropertyMapEntryELj1024EE6resizeEj 0x05627a9c
_ZN3WTF9HashTableISt4pairINS_6RefPtrIN3JSC7UString3RepEEEjES1_IS7_PNS3_9StructureEENS_18PairFirstExtractorISA_EENS3_28StructureTransitionTableHashENS_14PairHashTraitsINS3_34StructureTransitionTableHashTraitsENS_10HashTraitsIS9_EEEESF_E15deallocateTableEPSA_i 0x05627b18
_ZN3WTF9HashTableISt4pairINS_6RefPtrIN3JSC7UString3RepEEEjES1_IS7_PNS3_9StructureEENS_18PairFirstExtractorISA_EENS3_28StructureTransitionTableHashENS_14PairHashTraitsINS3_34StructureTransitionTableHashTraitsENS_10HashTraitsIS9_EEEESF_E4findIS7_NS_22IdentityHashTranslatorIS7_SA_SD_EEEENS_17HashTableIteratorIS7_SA_SC_SD_SI_SF_EERKT_ 0x05627bdc
_ZNK3WTF7HashMapISt4pairINS_6RefPtrIN3JSC7UString3RepEEEjEPNS3_9StructureENS3_28StructureTransitionTableHashENS3_34StructureTransitionTableHashTraitsENS_10HashTraitsIS9_EEE3getERKS7_ 0x05627d10
_ZN3WTF9HashTableISt4pairINS_6RefPtrIN3JSC7UString3RepEEEjES1_IS7_PNS3_9StructureEENS_18PairFirstExtractorISA_EENS3_28StructureTransitionTableHashENS_14PairHashTraitsINS3_34StructureTransitionTableHashTraitsENS_10HashTraitsIS9_EEEESF_E6rehashEi 0x05627dcc
_ZN3WTF9HashTableISt4pairINS_6RefPtrIN3JSC7UString3RepEEEjES1_IS7_PNS3_9StructureEENS_18PairFirstExtractorISA_EENS3_28StructureTransitionTableHashENS_14PairHashTraitsINS3_34StructureTransitionTableHashTraitsENS_10HashTraitsIS9_EEEESF_E6removeEPSA_ 0x056280b0
_ZN3WTF9HashTableISt4pairINS_6RefPtrIN3JSC7UString3RepEEEjES1_IS7_PNS3_9StructureEENS_18PairFirstExtractorISA_EENS3_28StructureTransitionTableHashENS_14PairHashTraitsINS3_34StructureTransitionTableHashTraitsENS_10HashTraitsIS9_EEEESF_E47removeAndInvalidateWithoutEntryConsistencyCheckEPSA_ 0x05628188
_ZN3WTF9HashTableISt4pairINS_6RefPtrIN3JSC7UString3RepEEEjES1_IS7_PNS3_9StructureEENS_18PairFirstExtractorISA_EENS3_28StructureTransitionTableHashENS_14PairHashTraitsINS3_34StructureTransitionTableHashTraitsENS_10HashTraitsIS9_EEEESF_E6expandEv 0x056281b4
_ZN3WTF7HashMapISt4pairINS_6RefPtrIN3JSC7UString3RepEEEjEPNS3_9StructureENS3_28StructureTransitionTableHashENS3_34StructureTransitionTableHashTraitsENS_10HashTraitsIS9_EEE3addERKS7_RKS9_ 0x05628248
_ZN3WTF6VectorIcLj32EE6shrinkEj 0x056285c0
_ZN3WTF6VectorIcLj32EE15reserveCapacityEj 0x056285c8
_ZN3WTF6VectorIcLj32EE14expandCapacityEj 0x056286c4
_ZN3WTF6VectorIcLj32EE6resizeEj 0x05628754
_ZN3JSC12HeavyProfile12heavyProfileEv 0x056287d0
_ZN3JSC12HeavyProfile11treeProfileEv 0x056287d4
_ZN3JSC12HeavyProfileD0Ev 0x056287dc
_ZN3JSC12HeavyProfileD1Ev 0x05628834
_ZN3WTF9HashTableIN3JSC14CallIdentifierESt4pairIS2_PNS1_11ProfileNodeEENS_18PairFirstExtractorIS6_EENS1_18CallIdentifierHashENS_14PairHashTraitsINS_10HashTraitsIS2_EENSB_IS5_EEEESC_E4findIS2_NS_22IdentityHashTranslatorIS2_S6_S9_EEEENS_17HashTableIteratorIS2_S6_S8_S9_SE_SC_EERKT_ 0x0562886c
_ZN3WTF9HashTableIN3JSC14CallIdentifierESt4pairIS2_PNS1_11ProfileNodeEENS_18PairFirstExtractorIS6_EENS1_18CallIdentifierHashENS_14PairHashTraitsINS_10HashTraitsIS2_EENSB_IS5_EEEESC_E15deallocateTableEPS6_i 0x05628bc8
_ZN3WTF9HashTableIN3JSC14CallIdentifierESt4pairIS2_PNS1_11ProfileNodeEENS_18PairFirstExtractorIS6_EENS1_18CallIdentifierHashENS_14PairHashTraitsINS_10HashTraitsIS2_EENSB_IS5_EEEESC_E13allocateTableEi 0x05628cf4
_ZN3WTF9HashTableIN3JSC14CallIdentifierESt4pairIS2_PNS1_11ProfileNodeEENS_18PairFirstExtractorIS6_EENS1_18CallIdentifierHashENS_14PairHashTraitsINS_10HashTraitsIS2_EENSB_IS5_EEEESC_E6rehashEi 0x05628e30
_ZN3WTF9HashTableIN3JSC14CallIdentifierESt4pairIS2_PNS1_11ProfileNodeEENS_18PairFirstExtractorIS6_EENS1_18CallIdentifierHashENS_14PairHashTraitsINS_10HashTraitsIS2_EENSB_IS5_EEEESC_E6expandEv 0x05629518
_ZNK3WTF7HashMapIN3JSC14CallIdentifierEPNS1_11ProfileNodeENS1_18CallIdentifierHashENS_10HashTraitsIS2_EENS6_IS4_EEE3getERKS2_ 0x056295ac
_ZN3WTF7HashMapIN3JSC14CallIdentifierEPNS1_11ProfileNodeENS1_18CallIdentifierHashENS_10HashTraitsIS2_EENS6_IS4_EEE3setERKS2_RKS4_ 0x056298ac
_ZN3WTF6VectorINS_6RefPtrIN3JSC11ProfileNodeEEELj0EE6shrinkEj 0x05629eec
_ZN3WTF6VectorINS_6RefPtrIN3JSC11ProfileNodeEEELj0EE15reserveCapacityEj 0x0562a090
_ZN3WTF6VectorINS_6RefPtrIN3JSC11ProfileNodeEEELj0EE14expandCapacityEj 0x0562a1b4
_ZN3WTF6VectorINS_6RefPtrIN3JSC11ProfileNodeEEELj0EE14shrinkCapacityEj 0x0562a244
_ZN3WTF10RefCountedIN3JSC11ProfileNodeEE5derefEv 0x0562a384
_ZSt20_Unguarded_partitionIPN3WTF6RefPtrIN3JSC11ProfileNodeEEEPFbRKS4_S7_EESt4pairIT_SB_ESB_SB_T0_ 0x0562a4b0
_ZSt5_SortIPN3WTF6RefPtrIN3JSC11ProfileNodeEEEiPFbRKS4_S7_EEvT_SA_T0_T1_ 0x0562bab8
_ZN3WTF6VectorINS_6RefPtrIN3JSC16ProfileGeneratorEEELj0EE15reserveCapacityEj 0x0562d2b0
_ZN3WTF6VectorINS_6RefPtrIN3JSC16ProfileGeneratorEEELj0EE14expandCapacityEj 0x0562d3d4
_ZN3WTF6VectorINS_6RefPtrIN3JSC16ProfileGeneratorEEELj0EE14expandCapacityEjPKS4_ 0x0562d464
_ZN3JSC11TreeProfile11treeProfileEv 0x0562d514
_ZN3JSC11TreeProfileD1Ev 0x0562d518
_ZN3JSC11TreeProfileD0Ev 0x0562d5c8
_ZN3WTF9HashTableIjSt4pairIjP7QThreadENS_18PairFirstExtractorIS4_EENS_7IntHashIjEENS_14PairHashTraitsINS_10HashTraitsIjEENSA_IS3_EEEESB_E4findIjNS_22IdentityHashTranslatorIjS4_S8_EEEENS_17HashTableIteratorIjS4_S6_S8_SD_SB_EERKT_ 0x0562d668
_ZN3WTF13ThreadPrivateD0Ev 0x0562d7b8
_ZN3WTF13ThreadPrivateD1Ev 0x0562d810
_ZN3WTF9HashTableIjSt4pairIjP7QThreadENS_18PairFirstExtractorIS4_EENS_7IntHashIjEENS_14PairHashTraitsINS_10HashTraitsIjEENSA_IS3_EEEESB_E15deallocateTableEPS4_i 0x0562d848
_ZN3WTF9HashTableIjSt4pairIjP7QThreadENS_18PairFirstExtractorIS4_EENS_7IntHashIjEENS_14PairHashTraitsINS_10HashTraitsIjEENSA_IS3_EEEESB_E13allocateTableEi 0x0562d874
_ZN3WTF9HashTableIjSt4pairIjP7QThreadENS_18PairFirstExtractorIS4_EENS_7IntHashIjEENS_14PairHashTraitsINS_10HashTraitsIjEENSA_IS3_EEEESB_E6rehashEi 0x0562d8a4
_ZN3WTF9HashTableIjSt4pairIjP7QThreadENS_18PairFirstExtractorIS4_EENS_7IntHashIjEENS_14PairHashTraitsINS_10HashTraitsIjEENSA_IS3_EEEESB_E6removeEPS4_ 0x0562da7c
_ZN3WTF9HashTableIjSt4pairIjP7QThreadENS_18PairFirstExtractorIS4_EENS_7IntHashIjEENS_14PairHashTraitsINS_10HashTraitsIjEENSA_IS3_EEEESB_E47removeAndInvalidateWithoutEntryConsistencyCheckEPS4_ 0x0562daf8
_ZN3WTF9HashTableIjSt4pairIjP7QThreadENS_18PairFirstExtractorIS4_EENS_7IntHashIjEENS_14PairHashTraitsINS_10HashTraitsIjEENSA_IS3_EEEESB_E6expandEv 0x0562db24
_ZN3WTF7HashMapIjP7QThreadNS_7IntHashIjEENS_10HashTraitsIjEENS5_IS2_EEE3addERKjRKS2_ 0x0562dbb8
_ZNK3WTF7HashMapIjP7QThreadNS_7IntHashIjEENS_10HashTraitsIjEENS5_IS2_EEE3getERKj 0x0562de60
_ZN3WTF17MainThreadInvokerD0Ev 0x0562df4c
_ZN3WTF17MainThreadInvokerD1Ev 0x0562dfa4
_ZNK3JSC13UnaryPlusNode8opcodeIDEv 0x0562dfdc
_ZNK3JSC10NegateNode8opcodeIDEv 0x0562dfe4
_ZNK3JSC14BitwiseNotNode8opcodeIDEv 0x0562dfec
_ZNK3JSC14LogicalNotNode8opcodeIDEv 0x0562dff4
_ZNK3JSC8MultNode8opcodeIDEv 0x0562dffc
_ZNK3JSC7DivNode8opcodeIDEv 0x0562e004
_ZNK3JSC7ModNode8opcodeIDEv 0x0562e00c
_ZNK3JSC7AddNode8opcodeIDEv 0x0562e014
_ZNK3JSC7SubNode8opcodeIDEv 0x0562e01c
_ZNK3JSC13LeftShiftNode8opcodeIDEv 0x0562e024
_ZNK3JSC14RightShiftNode8opcodeIDEv 0x0562e02c
_ZNK3JSC22UnsignedRightShiftNode8opcodeIDEv 0x0562e034
_ZNK3JSC8LessNode8opcodeIDEv 0x0562e03c
_ZNK3JSC11GreaterNode8opcodeIDEv 0x0562e044
_ZNK3JSC10LessEqNode8opcodeIDEv 0x0562e04c
_ZNK3JSC13GreaterEqNode8opcodeIDEv 0x0562e054
_ZNK3JSC6InNode8opcodeIDEv 0x0562e05c
_ZNK3JSC12NotEqualNode8opcodeIDEv 0x0562e064
_ZNK3JSC18NotStrictEqualNode8opcodeIDEv 0x0562e06c
_ZNK3JSC10BitAndNode8opcodeIDEv 0x0562e074
_ZNK3JSC9BitOrNode8opcodeIDEv 0x0562e07c
_ZNK3JSC10BitXOrNode8opcodeIDEv 0x0562e084
_ZN3JSC13UnaryPlusNode14stripUnaryPlusEv 0x0562e08c
_Z14createNodeInfoIPN3JSC14ExpressionNodeEENS0_8NodeInfoIT_EES4_ji 0x0562e094
_Z14createNodeInfoIPN3JSC12PropertyNodeEENS0_8NodeInfoIT_EES4_ji 0x0562e0a4
_Z14createNodeInfoIPN3JSC13ArgumentsNodeEENS0_8NodeInfoIT_EES4_ji 0x0562e0b4
_Z25createNodeDeclarationInfoIPN3JSC13StatementNodeEENS0_19NodeDeclarationInfoIT_EES4_PNS0_20ParserRefCountedDataIN3WTF6VectorISt4pairINS0_10IdentifierEjELj0EEEEEPNS6_INS8_INS7_6RefPtrINS0_12FuncDeclNodeEEELj0EEEEEji 0x0562e0c4
_Z14createNodeInfoIPN3JSC13ConstDeclNodeEENS0_8NodeInfoIT_EES4_ji 0x0562e0dc
_Z25createNodeDeclarationInfoIPN3JSC13CaseBlockNodeEENS0_19NodeDeclarationInfoIT_EES4_PNS0_20ParserRefCountedDataIN3WTF6VectorISt4pairINS0_10IdentifierEjELj0EEEEEPNS6_INS8_INS7_6RefPtrINS0_12FuncDeclNodeEEELj0EEEEEji 0x0562e0ec
_Z25createNodeDeclarationInfoIPN3JSC14CaseClauseNodeEENS0_19NodeDeclarationInfoIT_EES4_PNS0_20ParserRefCountedDataIN3WTF6VectorISt4pairINS0_10IdentifierEjELj0EEEEEPNS6_INS8_INS7_6RefPtrINS0_12FuncDeclNodeEEELj0EEEEEji 0x0562e104
_Z14createNodeInfoIPN3JSC12FuncExprNodeEENS0_8NodeInfoIT_EES4_ji 0x0562e11c
_ZN3JSC13UnaryPlusNodeD0Ev 0x0562e12c
_ZN3JSC13UnaryPlusNodeD1Ev 0x0562e184
_ZN3JSC10NegateNodeD0Ev 0x0562e1bc
_ZN3JSC10NegateNodeD1Ev 0x0562e214
_ZN3JSC14BitwiseNotNodeD0Ev 0x0562e24c
_ZN3JSC14BitwiseNotNodeD1Ev 0x0562e2a4
_ZN3JSC14LogicalNotNodeD0Ev 0x0562e2dc
_ZN3JSC14LogicalNotNodeD1Ev 0x0562e334
_ZN3JSC8MultNodeD0Ev 0x0562e36c
_ZN3JSC8MultNodeD1Ev 0x0562e3c4
_ZN3JSC7DivNodeD0Ev 0x0562e3fc
_ZN3JSC7DivNodeD1Ev 0x0562e454
_ZN3JSC7ModNodeD0Ev 0x0562e48c
_ZN3JSC7ModNodeD1Ev 0x0562e4e4
_ZN3JSC7AddNodeD0Ev 0x0562e51c
_ZN3JSC7AddNodeD1Ev 0x0562e574
_ZN3JSC7SubNodeD0Ev 0x0562e5ac
_ZN3JSC7SubNodeD1Ev 0x0562e604
_ZN3JSC13LeftShiftNodeD0Ev 0x0562e63c
_ZN3JSC13LeftShiftNodeD1Ev 0x0562e694
_ZN3JSC14RightShiftNodeD0Ev 0x0562e6cc
_ZN3JSC14RightShiftNodeD1Ev 0x0562e724
_ZN3JSC22UnsignedRightShiftNodeD0Ev 0x0562e75c
_ZN3JSC22UnsignedRightShiftNodeD1Ev 0x0562e7b4
_ZN3JSC8LessNodeD0Ev 0x0562e7ec
_ZN3JSC8LessNodeD1Ev 0x0562e844
_ZN3JSC10LessEqNodeD0Ev 0x0562e87c
_ZN3JSC10LessEqNodeD1Ev 0x0562e8d4
_ZN3JSC12NotEqualNodeD0Ev 0x0562e90c
_ZN3JSC12NotEqualNodeD1Ev 0x0562e964
_ZN3JSC18NotStrictEqualNodeD0Ev 0x0562e99c
_ZN3JSC18NotStrictEqualNodeD1Ev 0x0562e9f4
_ZN3JSC10BitAndNodeD0Ev 0x0562ea2c
_ZN3JSC10BitAndNodeD1Ev 0x0562ea84
_ZN3JSC9BitOrNodeD0Ev 0x0562eabc
_ZN3JSC9BitOrNodeD1Ev 0x0562eb14
_ZN3JSC10BitXOrNodeD0Ev 0x0562eb4c
_ZN3JSC10BitXOrNodeD1Ev 0x0562eba4
_ZN3JSC6InNodeD1Ev 0x0562ebdc
_ZN3JSC11GreaterNodeD0Ev 0x0562ec14
_ZN3JSC16VarDeclCommaNodeD0Ev 0x0562ec6c
_ZN3JSC16VarDeclCommaNodeD1Ev 0x0562ecc4
_ZN3JSC14SourceElementsD1Ev 0x0562ecfc
_ZN3WTF6VectorINS_6RefPtrIN3JSC12FuncDeclNodeEEELj0EE14expandCapacityEjPKS4_ 0x0562ed8c
_ZN3WTF6VectorINS_6RefPtrIN3JSC12FuncDeclNodeEEELj0EE6appendIS4_EEvPKT_j 0x0562ee3c
_Z21mergeDeclarationListsIPN3JSC20ParserRefCountedDataIN3WTF6VectorINS2_6RefPtrINS0_12FuncDeclNodeEEELj0EEEEEET_SA_SA_ 0x0562ef3c
_ZN3JSC20ParserRefCountedDataIN3WTF6VectorINS1_6RefPtrINS_12FuncDeclNodeEEELj0EEEED1Ev 0x0562efe8
_ZN3WTF6VectorISt4pairIN3JSC10IdentifierEjELj0EE14expandCapacityEj 0x0562f078
_ZN3WTF6VectorISt4pairIN3JSC10IdentifierEjELj0EE14expandCapacityEjPKS4_ 0x0562f108
_ZN3WTF6VectorISt4pairIN3JSC10IdentifierEjELj0EE6appendIS4_EEvPKT_j 0x0562f1b8
_Z21mergeDeclarationListsIPN3JSC20ParserRefCountedDataIN3WTF6VectorISt4pairINS0_10IdentifierEjELj0EEEEEET_SA_SA_ 0x0562f28c
_ZN3JSC20ParserRefCountedDataIN3WTF6VectorISt4pairINS_10IdentifierEjELj0EEEED0Ev 0x0562f338
_ZN3JSC6InNodeD0Ev 0x0562f3dc
_ZN3JSC14SourceElementsD0Ev 0x0562f434
_ZN3JSC20ParserRefCountedDataIN3WTF6VectorISt4pairINS_10IdentifierEjELj0EEEED1Ev 0x0562f4d8
_ZN3JSC20ParserRefCountedDataIN3WTF6VectorINS1_6RefPtrINS_12FuncDeclNodeEEELj0EEEED0Ev 0x0562f568
_ZN3JSC13GreaterEqNodeD1Ev 0x0562f60c
_ZN3JSC11GreaterNodeD1Ev 0x0562f644
_ZN3JSC13GreaterEqNodeD0Ev 0x0562f67c
_ZN3WTF6VectorIN3JSC19ProtectedJSValuePtrELj0EE6shrinkEj 0x0562f6fc
_ZNK3JSC38StringObjectThatMasqueradesAsUndefined9toBooleanEPNS_9ExecStateE 0x0562fbd4
_ZN3JSC38StringObjectThatMasqueradesAsUndefinedD1Ev 0x0562fbdc
_ZN3JSC38StringObjectThatMasqueradesAsUndefinedD0Ev 0x0562fd04
_ZN3WTF9HashTableIPKN3JSC9ClassInfoESt4pairIS4_PNS1_8JSObjectEENS_18PairFirstExtractorIS8_EENS_7PtrHashIS4_EENS_14PairHashTraitsINS_10HashTraitsIS4_EENSE_IS7_EEEESF_E15deallocateTableEPS8_i 0x056306d0
_ZN3WTF9HashTableIPKN3JSC9ClassInfoESt4pairIS4_NS_6RefPtrINS1_9StructureEEEENS_18PairFirstExtractorIS9_EENS_7PtrHashIS4_EENS_14PairHashTraitsINS_10HashTraitsIS4_EENSF_IS8_EEEESG_E15deallocateTableEPS9_i 0x056306fc
_ZN3JSC14JSGlobalObject18JSGlobalObjectDataD2Ev 0x056307e4
_ZNK3WTF7HashMapIPKN3JSC9ClassInfoEPNS1_8JSObjectENS_7PtrHashIS4_EENS_10HashTraitsIS4_EENS9_IS6_EEE3getERKS4_ 0x056311dc
_ZN3WTF9HashTableIPKN3JSC9ClassInfoESt4pairIS4_PNS1_8JSObjectEENS_18PairFirstExtractorIS8_EENS_7PtrHashIS4_EENS_14PairHashTraitsINS_10HashTraitsIS4_EENSE_IS7_EEEESF_E13allocateTableEi 0x056313bc
_ZN3WTF9HashTableIPKN3JSC9ClassInfoESt4pairIS4_PNS1_8JSObjectEENS_18PairFirstExtractorIS8_EENS_7PtrHashIS4_EENS_14PairHashTraitsINS_10HashTraitsIS4_EENSE_IS7_EEEESF_E6rehashEi 0x0563144c
_ZN3WTF9HashTableIPKN3JSC9ClassInfoESt4pairIS4_PNS1_8JSObjectEENS_18PairFirstExtractorIS8_EENS_7PtrHashIS4_EENS_14PairHashTraitsINS_10HashTraitsIS4_EENSE_IS7_EEEESF_E6expandEv 0x05631624
_ZN3WTF9HashTableIPKN3JSC9ClassInfoESt4pairIS4_PNS1_8JSObjectEENS_18PairFirstExtractorIS8_EENS_7PtrHashIS4_EENS_14PairHashTraitsINS_10HashTraitsIS4_EENSE_IS7_EEEESF_E4findIS4_NS_22IdentityHashTranslatorIS4_S8_SC_EEEENS_17HashTableIteratorIS4_S8_SA_SC_SH_SF_EERKT_ 0x0563194c
_ZN3WTF7HashMapIPKN3JSC9ClassInfoEPNS1_8JSObjectENS_7PtrHashIS4_EENS_10HashTraitsIS4_EENS9_IS6_EEE3setERKS4_RKS6_ 0x05631a9c
_ZN3JSC6jsNullEv 0x05634594
_ZNK3JSC9ExecState10globalDataEv 0x0563459c
_ZN3WTF10PassRefPtrIN3JSC9StructureEED1Ev 0x05634608
_ZN3JSC6JSLockD1Ev 0x05634688
_ZN3WTF6VectorItLj0EE6appendItEEvPKT_j 0x05635c68
_ZN3JSC8jsNumberEPNS_9ExecStateEs 0x05637f04
_ZN3WTF9HashTableIPKN3JSC9HashTableESt4pairIS4_S2_ENS_18PairFirstExtractorIS6_EENS_7PtrHashIS4_EENS_14PairHashTraitsINS_10HashTraitsIS4_EENSC_IS2_EEEESD_E4findIS4_NS_22IdentityHashTranslatorIS4_S6_SA_EEEENS_17HashTableIteratorIS4_S6_S8_SA_SF_SD_EERKT_ 0x0563889c
_ZN3WTF9HashTableIPKN3JSC9ClassInfoESt4pairIS4_NS_6RefPtrINS1_9StructureEEEENS_18PairFirstExtractorIS9_EENS_7PtrHashIS4_EENS_14PairHashTraitsINS_10HashTraitsIS4_EENSF_IS8_EEEESG_E4findIS4_NS_22IdentityHashTranslatorIS4_S9_SD_EEEENS_17HashTableIteratorIS4_S9_SB_SD_SI_SG_EERKT_ 0x056389ec
_ZN3WTF9HashTableIPKN3JSC9ClassInfoESt4pairIS4_NS_6RefPtrINS1_9StructureEEEENS_18PairFirstExtractorIS9_EENS_7PtrHashIS4_EENS_14PairHashTraitsINS_10HashTraitsIS4_EENSF_IS8_EEEESG_E13allocateTableEi 0x05638b3c
_ZN3WTF9HashTableIPKN3JSC9HashTableESt4pairIS4_S2_ENS_18PairFirstExtractorIS6_EENS_7PtrHashIS4_EENS_14PairHashTraitsINS_10HashTraitsIS4_EENSC_IS2_EEEESD_E15deallocateTableEPS6_i 0x0563924c
_ZN3WTF9HashTableIPKN3JSC9HashTableESt4pairIS4_S2_ENS_18PairFirstExtractorIS6_EENS_7PtrHashIS4_EENS_14PairHashTraitsINS_10HashTraitsIS4_EENSC_IS2_EEEESD_E13allocateTableEi 0x05639278
_ZN3WTF9HashTableIPKN3JSC9HashTableESt4pairIS4_S2_ENS_18PairFirstExtractorIS6_EENS_7PtrHashIS4_EENS_14PairHashTraitsINS_10HashTraitsIS4_EENSC_IS2_EEEESD_E6rehashEi 0x0563934c
_ZN3WTF9HashTableIPKN3JSC9HashTableESt4pairIS4_S2_ENS_18PairFirstExtractorIS6_EENS_7PtrHashIS4_EENS_14PairHashTraitsINS_10HashTraitsIS4_EENSC_IS2_EEEESD_E6expandEv 0x05639574
_ZN3WTF7HashMapIPKN3JSC9HashTableES2_NS_7PtrHashIS4_EENS_10HashTraitsIS4_EENS7_IS2_EEE3setERKS4_RS3_ 0x05639608
_ZNK3WTF7HashMapIPKN3JSC9ClassInfoENS_6RefPtrINS1_9StructureEEENS_7PtrHashIS4_EENS_10HashTraitsIS4_EENSA_IS7_EEE3getERKS4_ 0x05639a38
_ZN3WTF9HashTableIPKN3JSC9ClassInfoESt4pairIS4_NS_6RefPtrINS1_9StructureEEEENS_18PairFirstExtractorIS9_EENS_7PtrHashIS4_EENS_14PairHashTraitsINS_10HashTraitsIS4_EENSF_IS8_EEEESG_E6rehashEi 0x0563a5a8
_ZN3WTF9HashTableIPKN3JSC9ClassInfoESt4pairIS4_NS_6RefPtrINS1_9StructureEEEENS_18PairFirstExtractorIS9_EENS_7PtrHashIS4_EENS_14PairHashTraitsINS_10HashTraitsIS4_EENSF_IS8_EEEESG_E6expandEv 0x0563a8e0
_ZN3WTF7HashMapIPKN3JSC9ClassInfoENS_6RefPtrINS1_9StructureEEENS_7PtrHashIS4_EENS_10HashTraitsIS4_EENSA_IS7_EEE3setERKS4_RKS7_ 0x0563a974
_ZN3WTF9HashTableIPvSt4pairIS1_NS_6RefPtrIN3JSC8Bindings10RootObjectEEEENS_18PairFirstExtractorIS8_EENS_7PtrHashIS1_EENS_14PairHashTraitsINS_10HashTraitsIS1_EENSE_IS7_EEEESF_E4findIS1_NS_22IdentityHashTranslatorIS1_S8_SC_EEEENS_17HashTableIteratorIS1_S8_SA_SC_SH_SF_EERKT_ 0x0563c71c
_ZN3WTF9HashTableIPvSt4pairIS1_NS_6RefPtrIN3JSC8Bindings10RootObjectEEEENS_18PairFirstExtractorIS8_EENS_7PtrHashIS1_EENS_14PairHashTraitsINS_10HashTraitsIS1_EENSE_IS7_EEEESF_E13allocateTableEi 0x0563c86c
_ZN3WTF9HashTableIPvSt4pairIS1_NS_6RefPtrIN3JSC8Bindings10RootObjectEEEENS_18PairFirstExtractorIS8_EENS_7PtrHashIS1_EENS_14PairHashTraitsINS_10HashTraitsIS1_EENSE_IS7_EEEESF_E15deallocateTableEPS8_i 0x0563c89c
_ZN3WTF9HashTableIPvSt4pairIS1_NS_6RefPtrIN3JSC8Bindings10RootObjectEEEENS_18PairFirstExtractorIS8_EENS_7PtrHashIS1_EENS_14PairHashTraitsINS_10HashTraitsIS1_EENSE_IS7_EEEESF_E5clearEv 0x0563c984
_ZN3WTF9HashTableIPvSt4pairIS1_NS_6RefPtrIN3JSC8Bindings10RootObjectEEEENS_18PairFirstExtractorIS8_EENS_7PtrHashIS1_EENS_14PairHashTraitsINS_10HashTraitsIS1_EENSE_IS7_EEEESF_E6rehashEi 0x0563c9d8
_ZN3WTF9HashTableIPvSt4pairIS1_NS_6RefPtrIN3JSC8Bindings10RootObjectEEEENS_18PairFirstExtractorIS8_EENS_7PtrHashIS1_EENS_14PairHashTraitsINS_10HashTraitsIS1_EENSE_IS7_EEEESF_E6removeEPS8_ 0x0563cd10
_ZN3WTF9HashTableIPvSt4pairIS1_NS_6RefPtrIN3JSC8Bindings10RootObjectEEEENS_18PairFirstExtractorIS8_EENS_7PtrHashIS1_EENS_14PairHashTraitsINS_10HashTraitsIS1_EENSE_IS7_EEEESF_E47removeAndInvalidateWithoutEntryConsistencyCheckEPS8_ 0x0563ce08
_ZN3WTF9HashTableIPvSt4pairIS1_NS_6RefPtrIN3JSC8Bindings10RootObjectEEEENS_18PairFirstExtractorIS8_EENS_7PtrHashIS1_EENS_14PairHashTraitsINS_10HashTraitsIS1_EENSE_IS7_EEEESF_E6expandEv 0x0563ce34
_ZN3WTF7HashMapIPvNS_6RefPtrIN3JSC8Bindings10RootObjectEEENS_7PtrHashIS1_EENS_10HashTraitsIS1_EENS9_IS6_EEE3setERKS1_RKS6_ 0x0563cec8
_ZN3WTF6VectorIN3JSC19ProtectedJSValuePtrELj0EE15reserveCapacityEj 0x0563d238
_ZN3WTF6VectorIN3JSC19ProtectedJSValuePtrELj0EE14expandCapacityEj 0x0563d3f4
_ZNK3JSC12RuntimeArray9classInfoEv 0x0563d484
_ZN3JSC12RuntimeArrayD1Ev 0x0563d490
_ZN3JSC12RuntimeArrayD0Ev 0x0563d5e0
_ZNK3JSC8Bindings8Instance24getValueOfUndefinedFieldEPNS_9ExecStateERKNS_10IdentifierE 0x0563d75c
_ZN3JSC8Bindings8Instance32supportsSetValueOfUndefinedFieldEv 0x0563d764
_ZN3JSC8Bindings8Instance24setValueOfUndefinedFieldEPNS_9ExecStateERKNS_10IdentifierENS_10JSValuePtrE 0x0563d76c
_ZNK3JSC8Bindings8Instance27supportsInvokeDefaultMethodEv 0x0563d770
_ZNK3JSC8Bindings8Instance17supportsConstructEv 0x0563d778
_ZN3JSC8Bindings8Instance15invokeConstructEPNS_9ExecStateERKNS_7ArgListE 0x0563d780
_ZN3JSC8Bindings8Instance16getPropertyNamesEPNS_9ExecStateERNS_17PropertyNameArrayE 0x0563d788
_ZN3JSC8Bindings8Instance12virtualBeginEv 0x0563d78c
_ZN3JSC8Bindings8Instance10virtualEndEv 0x0563d790
_ZNK3JSC8Bindings8Instance7valueOfEPNS_9ExecStateE 0x0563d794
_ZN3JSC8Bindings8Instance19invokeDefaultMethodEPNS_9ExecStateERKNS_7ArgListE 0x0563d874
_ZN3WTF6VectorIPN3JSC8Bindings6MethodELj0EE6shrinkEj 0x0563d87c
_ZN3WTF6VectorIPN3JSC8Bindings6MethodELj0EEC1ERKS5_ 0x0563d884
_ZN3JSC13RuntimeMethodD1Ev 0x0563d93c
_ZN3JSC13RuntimeMethodD0Ev 0x0563dad8
_ZNK3JSC16RuntimeObjectImp9classInfoEv 0x0563dc9c
_ZN3WTF9HashTableIPN3JSC8Bindings10RootObjectES4_NS_17IdentityExtractorIS4_EENS_7PtrHashIS4_EENS_10HashTraitsIS4_EESA_E4findIS4_NS_22IdentityHashTranslatorIS4_S4_S8_EEEENS_17HashTableIteratorIS4_S4_S6_S8_SA_SA_EERKT_ 0x0563dca8
_ZN3WTF9HashTableIPN3JSC8JSObjectESt4pairIS3_jENS_18PairFirstExtractorIS5_EENS_7PtrHashIS3_EENS_14PairHashTraitsINS_10HashTraitsIS3_EENSB_IjEEEESC_E4findIS3_NS_22IdentityHashTranslatorIS3_S5_S9_EEEENS_17HashTableIteratorIS3_S5_S7_S9_SE_SC_EERKT_ 0x0563ddf8
_ZN3WTF9HashTableIPN3JSC16RuntimeObjectImpES3_NS_17IdentityExtractorIS3_EENS_7PtrHashIS3_EENS_10HashTraitsIS3_EES9_E4findIS3_NS_22IdentityHashTranslatorIS3_S3_S7_EEEENS_17HashTableIteratorIS3_S3_S5_S7_S9_S9_EERKT_ 0x0563df48
_ZN3WTF9HashTableIPN3JSC8JSObjectESt4pairIS3_jENS_18PairFirstExtractorIS5_EENS_7PtrHashIS3_EENS_14PairHashTraitsINS_10HashTraitsIS3_EENSB_IjEEEESC_E13allocateTableEi 0x0563e098
_ZN3WTF9HashTableIPN3JSC16RuntimeObjectImpES3_NS_17IdentityExtractorIS3_EENS_7PtrHashIS3_EENS_10HashTraitsIS3_EES9_E13allocateTableEi 0x0563e0c8
_ZN3WTF9HashTableIPN3JSC8Bindings10RootObjectES4_NS_17IdentityExtractorIS4_EENS_7PtrHashIS4_EENS_10HashTraitsIS4_EESA_E13allocateTableEi 0x0563e0f8
_ZN3WTF9HashTableIPN3JSC16RuntimeObjectImpES3_NS_17IdentityExtractorIS3_EENS_7PtrHashIS3_EENS_10HashTraitsIS3_EES9_E15deallocateTableEPS3_i 0x0563e128
_ZN3WTF9HashTableIPN3JSC16RuntimeObjectImpES3_NS_17IdentityExtractorIS3_EENS_7PtrHashIS3_EENS_10HashTraitsIS3_EES9_E6rehashEi 0x0563e154
_ZN3WTF9HashTableIPN3JSC16RuntimeObjectImpES3_NS_17IdentityExtractorIS3_EENS_7PtrHashIS3_EENS_10HashTraitsIS3_EES9_E6removeEPS3_ 0x0563e31c
_ZN3WTF9HashTableIPN3JSC16RuntimeObjectImpES3_NS_17IdentityExtractorIS3_EENS_7PtrHashIS3_EENS_10HashTraitsIS3_EES9_E47removeAndInvalidateWithoutEntryConsistencyCheckEPS3_ 0x0563e398
_ZN3WTF9HashTableIPN3JSC16RuntimeObjectImpES3_NS_17IdentityExtractorIS3_EENS_7PtrHashIS3_EENS_10HashTraitsIS3_EES9_E6expandEv 0x0563e3c4
_ZN3WTF9HashTableIPN3JSC16RuntimeObjectImpES3_NS_17IdentityExtractorIS3_EENS_7PtrHashIS3_EENS_10HashTraitsIS3_EES9_E5clearEv 0x0563e458
_ZN3WTF9HashTableIPN3JSC8JSObjectESt4pairIS3_jENS_18PairFirstExtractorIS5_EENS_7PtrHashIS3_EENS_14PairHashTraitsINS_10HashTraitsIS3_EENSB_IjEEEESC_E15deallocateTableEPS5_i 0x0563e4ac
_ZN3WTF9HashTableIPN3JSC8JSObjectESt4pairIS3_jENS_18PairFirstExtractorIS5_EENS_7PtrHashIS3_EENS_14PairHashTraitsINS_10HashTraitsIS3_EENSB_IjEEEESC_E6rehashEi 0x0563e4d8
_ZN3WTF9HashTableIPN3JSC8JSObjectESt4pairIS3_jENS_18PairFirstExtractorIS5_EENS_7PtrHashIS3_EENS_14PairHashTraitsINS_10HashTraitsIS3_EENSB_IjEEEESC_E6removeEPS5_ 0x0563e6b0
_ZN3WTF9HashTableIPN3JSC8JSObjectESt4pairIS3_jENS_18PairFirstExtractorIS5_EENS_7PtrHashIS3_EENS_14PairHashTraitsINS_10HashTraitsIS3_EENSB_IjEEEESC_E47removeAndInvalidateWithoutEntryConsistencyCheckEPS5_ 0x0563e72c
_ZN3WTF9HashTableIPN3JSC8JSObjectESt4pairIS3_jENS_18PairFirstExtractorIS5_EENS_7PtrHashIS3_EENS_14PairHashTraitsINS_10HashTraitsIS3_EENSB_IjEEEESC_E6expandEv 0x0563e758
_ZN3WTF9HashTableIPN3JSC8JSObjectESt4pairIS3_jENS_18PairFirstExtractorIS5_EENS_7PtrHashIS3_EENS_14PairHashTraitsINS_10HashTraitsIS3_EENSB_IjEEEESC_E5clearEv 0x0563e7ec
_ZN3WTF9HashTableIPN3JSC8Bindings10RootObjectES4_NS_17IdentityExtractorIS4_EENS_7PtrHashIS4_EENS_10HashTraitsIS4_EESA_E15deallocateTableEPS4_i 0x0563e840
_ZN3WTF9HashTableIPN3JSC8Bindings10RootObjectES4_NS_17IdentityExtractorIS4_EENS_7PtrHashIS4_EENS_10HashTraitsIS4_EESA_E6rehashEi 0x0563e86c
_ZN3WTF9HashTableIPN3JSC8Bindings10RootObjectES4_NS_17IdentityExtractorIS4_EENS_7PtrHashIS4_EENS_10HashTraitsIS4_EESA_E6removeEPS4_ 0x0563ea34
_ZN3WTF9HashTableIPN3JSC8Bindings10RootObjectES4_NS_17IdentityExtractorIS4_EENS_7PtrHashIS4_EENS_10HashTraitsIS4_EESA_E47removeAndInvalidateWithoutEntryConsistencyCheckEPS4_ 0x0563eab0
_ZN3WTF9HashTableIPN3JSC8Bindings10RootObjectES4_NS_17IdentityExtractorIS4_EENS_7PtrHashIS4_EENS_10HashTraitsIS4_EESA_E6expandEv 0x0563eadc
_ZN3WTF7HashSetIPN3JSC16RuntimeObjectImpENS_7PtrHashIS3_EENS_10HashTraitsIS3_EEE3addERKS3_ 0x0563eb70
_ZN3WTF7HashSetIPN3JSC8Bindings10RootObjectENS_7PtrHashIS4_EENS_10HashTraitsIS4_EEE3addERKS4_ 0x0563edf4
_ZN3WTF7HashMapIPN3JSC8JSObjectEjNS_7PtrHashIS3_EENS_10HashTraitsIS3_EENS6_IjEEE3addERKS3_RKj 0x0563f078
_ZNK3WTF9HashTableIPN3JSC8JSObjectESt4pairIS3_jENS_18PairFirstExtractorIS5_EENS_7PtrHashIS3_EENS_14PairHashTraitsINS_10HashTraitsIS3_EENSB_IjEEEESC_E8containsIS3_NS_22IdentityHashTranslatorIS3_S5_S9_EEEEbRKT_ 0x0563f320
_ZNK3WTF7HashMapIPN3JSC8JSObjectEjNS_7PtrHashIS3_EENS_10HashTraitsIS3_EENS6_IjEEE3getERKS3_ 0x0563f414
_ZN3WTF6VectorItLj2048EE6shrinkEj 0x0564a89c
_ZN3WTF9HashTableIiiNS_17IdentityExtractorIiEENS_7IntHashIjEENS_10HashTraitsIiEES6_E4findIiNS_22IdentityHashTranslatorIiiS4_EEEENS_17HashTableIteratorIiiS2_S4_S6_S6_EERKT_ 0x0564ce50
_ZN3WTF9HashTableIiiNS_17IdentityExtractorIiEENS_7IntHashIjEENS_10HashTraitsIiEES6_E15deallocateTableEPii 0x0564cfa0
_ZN3WTF9HashTableIiiNS_17IdentityExtractorIiEENS_7IntHashIjEENS_10HashTraitsIiEES6_E13allocateTableEi 0x0564cff8
_ZN3WTF9HashTableIiiNS_17IdentityExtractorIiEENS_7IntHashIjEENS_10HashTraitsIiEES6_E6rehashEi 0x0564d028
_ZN3WTF9HashTableIiiNS_17IdentityExtractorIiEENS_7IntHashIjEENS_10HashTraitsIiEES6_E6expandEv 0x0564d1f0
_ZN3WTF7HashSetIiNS_7IntHashIjEENS_10HashTraitsIiEEE3addERKi 0x0564d284
_ZNK3WTF9HashTableIiiNS_17IdentityExtractorIiEENS_7IntHashIjEENS_10HashTraitsIiEES6_E8containsIiNS_22IdentityHashTranslatorIiiS4_EEEEbRKT_ 0x0564dbd0
_ZN3WTF6VectorIiLj0EE14expandCapacityEjPKi 0x0564ff3c
_Z9findValuePKcj 0x056505dc
_Z8findPropPKcj 0x05650a58
_ZN3WTF6VectorItLj0EE4growEj 0x05653018
_ZN3WTF6VectorItLj512EE6shrinkEj 0x05654c34
_ZN3WTF6VectorIfLj0EE6shrinkEj 0x05654c3c
_ZN3WTF6VectorIfLj0EE14shrinkCapacityEj 0x05660484
_ZN3WTF6VectorIfLj0EE15reserveCapacityEj 0x056605c4
_ZN3WTF6VectorIfLj0EE14expandCapacityEj 0x056606e8
_ZN3WTF6VectorIfLj0EE14expandCapacityEjPKf 0x05660778
_ZN7QVectorI30QXmlStreamNamespaceDeclarationE6appendERKS0_ 0x0567a258
_ZN3WTF6VectorIbLj0EE6shrinkEj 0x05682548
_ZN3WTF6VectorISt4pairIPtjELj0EE6shrinkEj 0x05682550
_ZN3WTF6VectorISt4pairIPtjELj0EE15reserveCapacityEj 0x05682558
_ZN3WTF6VectorISt4pairIPtjELj0EE14expandCapacityEj 0x0568267c
_ZN3WTF6VectorISt4pairIPtjELj0EE14expandCapacityEjPKS3_ 0x0568270c
_ZN3WTF6VectorItLj1024EE15reserveCapacityEj 0x05683a64
_ZN3WTF6VectorItLj1024EE14expandCapacityEj 0x05683b70
_ZN3WTF6VectorItLj1024EE14expandCapacityEjPKt 0x05683c00
_ZN3WTF6VectorItLj1024EE6insertItEEvjPKT_j 0x05683cb0
_ZN3WTF6VectorItLj1024EE7prependItEEvPKT_j 0x05683d98
_ZN3WTF6VectorItLj1024EE6appendItEEvPKT_j 0x05683dd0
_Z16findDoctypeEntryPKcj 0x05688bcc
_ZN3WTF6VectorIcLj0EE6appendIcEEvPKT_j 0x0568a1cc
_ZN3WTF6VectorIbLj0EE14shrinkCapacityEj 0x0568f0c8
_ZN3WTF6VectorIbLj0EE15reserveCapacityEj 0x0568f1e8
_ZN3WTF6VectorIbLj0EE14expandCapacityEj 0x0568f2cc
_ZN3WTF6VectorIbLj0EE14expandCapacityEjPKb 0x0568f35c
_ZN3WTF6VectorItLj32EE6shrinkEj 0x05691178
_ZN3WTF6VectorItLj16EE6shrinkEj 0x05691180
_ZN3WTF6VectorItLj10EE6shrinkEj 0x05691188
_ZN3WTF6VectorIcLj10EE6shrinkEj 0x05691190
_ZN3WTF6VectorIcLj10EE15reserveCapacityEj 0x05691198
_ZN3WTF6VectorIcLj10EE14expandCapacityEj 0x05691294
_ZN3WTF6VectorItLj16EE15reserveCapacityEj 0x05691324
_ZN3WTF6VectorItLj16EE14expandCapacityEj 0x05691430
_ZN3WTF6VectorItLj16EE14expandCapacityEjPKt 0x056914c0
_ZN3WTF6VectorItLj16EE14shrinkCapacityEj 0x05691570
_ZN3WTF6VectorItLj32EE14shrinkCapacityEj 0x056916f0
_ZN3WTF6VectorItLj10EE15reserveCapacityEj 0x05691870
_ZN3WTF6VectorItLj10EE14expandCapacityEj 0x0569197c
_ZN3WTF6VectorItLj10EE14expandCapacityEjPKt 0x05691a0c
_ZN3WTF6VectorItLj32EE15reserveCapacityEj 0x05691abc
_ZN3WTF6VectorItLj32EE14expandCapacityEj 0x05691bc8
_ZN3WTF6VectorItLj32EE14expandCapacityEjPKt 0x05691c58
_ZN3WTF6VectorIPK13OpaqueJSValueLj0EE6shrinkEj 0x05691dcc
_ZN3WTF6VectorIPK13OpaqueJSValueLj0EE15reserveCapacityEj 0x05692448
_ZN3WTF6VectorIPK13OpaqueJSValueLj0EE14expandCapacityEj 0x0569256c
_ZN3WTF6VectorIPK13OpaqueJSValueLj0EE14expandCapacityEjPKS3_ 0x056925fc
_ZN3WTF6VectorINS_6RefPtrIN3JSC7ProfileEEELj0EE15reserveCapacityEj 0x05692884
_ZN3WTF6VectorINS_6RefPtrIN3JSC7ProfileEEELj0EE14expandCapacityEj 0x056929a8
_ZN3WTF6VectorINS_6RefPtrIN3JSC7ProfileEEELj0EE14expandCapacityEjPKS4_ 0x05692a38
_ZN3WTF6VectorINS_6RefPtrIN3JSC7ProfileEEELj0EE6shrinkEj 0x05693124
_ZN3WTF6VectorINS_6RefPtrIN3JSC7ProfileEEELj0EE14shrinkCapacityEj 0x056931ec
_ZNK3JSC21CollectorHeapIteratorILNS_8HeapTypeE0EEdeEv 0x0569ae0c
_ZNK3WTF7HashMapIiPNS_7HashSetIjNS_7IntHashIjEENS_10HashTraitsIjEEEES3_NS4_IiEENS4_IS7_EEE3getERKi 0x0569ae1c
_ZNK3WTF9HashTableIjjNS_17IdentityExtractorIjEENS_7IntHashIjEENS_10HashTraitsIjEES6_E8containsIjNS_22IdentityHashTranslatorIjjS4_EEEEbRKT_ 0x0569aff4
_ZN3WTF9HashTableIPN3JSC14SourceProviderESt4pairIS3_PNS1_9ExecStateEENS_18PairFirstExtractorIS7_EENS_7PtrHashIS3_EENS_14PairHashTraitsINS_10HashTraitsIS3_EENSD_IS6_EEEESE_E4findIS3_NS_22IdentityHashTranslatorIS3_S7_SB_EEEENS_17HashTableIteratorIS3_S7_S9_SB_SG_SE_EERKT_ 0x0569b238
_ZN3WTF6VectorIN3JSC12ProtectedPtrINS1_10JSFunctionEEELj0EE6shrinkEj 0x0569b3f8
_ZN3WTF9HashTableIPN3JSC14SourceProviderESt4pairIS3_PNS1_9ExecStateEENS_18PairFirstExtractorIS7_EENS_7PtrHashIS3_EENS_14PairHashTraitsINS_10HashTraitsIS3_EENSD_IS6_EEEESE_E15deallocateTableEPS7_i 0x0569b4d0
_ZN3WTF9HashTableIjjNS_17IdentityExtractorIjEENS_7IntHashIjEENS_10HashTraitsIjEES6_E15deallocateTableEPji 0x0569b4fc
_ZN3WTF9HashTableIiSt4pairIiPNS_7HashSetIjNS_7IntHashIjEENS_10HashTraitsIjEEEEENS_18PairFirstExtractorIS9_EES4_NS_14PairHashTraitsINS5_IiEENS5_IS8_EEEESD_E15deallocateTableEPS9_i 0x0569b528
_ZN3WTF9HashTableIiSt4pairIiPNS_7HashSetIjNS_7IntHashIjEENS_10HashTraitsIjEEEEENS_18PairFirstExtractorIS9_EES4_NS_14PairHashTraitsINS5_IiEENS5_IS8_EEEESD_E5clearEv 0x0569b554
_ZN3WTF9HashTableIPN3JSC14SourceProviderESt4pairIS3_PNS1_9ExecStateEENS_18PairFirstExtractorIS7_EENS_7PtrHashIS3_EENS_14PairHashTraitsINS_10HashTraitsIS3_EENSD_IS6_EEEESE_E13allocateTableEi 0x0569b600
_ZN3WTF9HashTableIPN3JSC14SourceProviderESt4pairIS3_PNS1_9ExecStateEENS_18PairFirstExtractorIS7_EENS_7PtrHashIS3_EENS_14PairHashTraitsINS_10HashTraitsIS3_EENSD_IS6_EEEESE_E6rehashEi 0x0569b630
_ZN3WTF9HashTableIPN3JSC14SourceProviderESt4pairIS3_PNS1_9ExecStateEENS_18PairFirstExtractorIS7_EENS_7PtrHashIS3_EENS_14PairHashTraitsINS_10HashTraitsIS3_EENSD_IS6_EEEESE_E6expandEv 0x0569b808
_ZN3WTF7HashMapIPN3JSC14SourceProviderEPNS1_9ExecStateENS_7PtrHashIS3_EENS_10HashTraitsIS3_EENS8_IS5_EEE3addERKS3_RKS5_ 0x0569b89c
_ZN3WTF9HashTableINS_6RefPtrIN3JSC16FunctionBodyNodeEEESt4pairIS4_S4_ENS_18PairFirstExtractorIS6_EENS_7PtrHashIS4_EENS_14PairHashTraitsINS_10HashTraitsIS4_EESD_EESD_E13allocateTableEi 0x0569bb44
_ZN3WTF9HashTableIjjNS_17IdentityExtractorIjEENS_7IntHashIjEENS_10HashTraitsIjEES6_E13allocateTableEi 0x0569bb74
_ZN3WTF9HashTableIjjNS_17IdentityExtractorIjEENS_7IntHashIjEENS_10HashTraitsIjEES6_E6rehashEi 0x0569bba4
_ZN3WTF9HashTableIjjNS_17IdentityExtractorIjEENS_7IntHashIjEENS_10HashTraitsIjEES6_E6removeEPj 0x0569bd6c
_ZN3WTF9HashTableIjjNS_17IdentityExtractorIjEENS_7IntHashIjEENS_10HashTraitsIjEES6_E47removeAndInvalidateWithoutEntryConsistencyCheckEPj 0x0569bde8
_ZN3WTF9HashTableIjjNS_17IdentityExtractorIjEENS_7IntHashIjEENS_10HashTraitsIjEES6_E6expandEv 0x0569be14
_ZN3WTF9HashTableIiSt4pairIiPNS_7HashSetIjNS_7IntHashIjEENS_10HashTraitsIjEEEEENS_18PairFirstExtractorIS9_EES4_NS_14PairHashTraitsINS5_IiEENS5_IS8_EEEESD_E13allocateTableEi 0x0569bea8
_ZN3WTF9HashTableIiSt4pairIiPNS_7HashSetIjNS_7IntHashIjEENS_10HashTraitsIjEEEEENS_18PairFirstExtractorIS9_EES4_NS_14PairHashTraitsINS5_IiEENS5_IS8_EEEESD_E6rehashEi 0x0569bed8
_ZN3WTF9HashTableIiSt4pairIiPNS_7HashSetIjNS_7IntHashIjEENS_10HashTraitsIjEEEEENS_18PairFirstExtractorIS9_EES4_NS_14PairHashTraitsINS5_IiEENS5_IS8_EEEESD_E6removeEPS9_ 0x0569c0b0
_ZN3WTF9HashTableIiSt4pairIiPNS_7HashSetIjNS_7IntHashIjEENS_10HashTraitsIjEEEEENS_18PairFirstExtractorIS9_EES4_NS_14PairHashTraitsINS5_IiEENS5_IS8_EEEESD_E47removeAndInvalidateWithoutEntryConsistencyCheckEPS9_ 0x0569c12c
_ZN3WTF9HashTableIiSt4pairIiPNS_7HashSetIjNS_7IntHashIjEENS_10HashTraitsIjEEEEENS_18PairFirstExtractorIS9_EES4_NS_14PairHashTraitsINS5_IiEENS5_IS8_EEEESD_E6expandEv 0x0569c158
_ZN3WTF20deleteAllPairSecondsIPNS_7HashSetIjNS_7IntHashIjEENS_10HashTraitsIjEEEEKNS_7HashMapIiS7_S3_NS4_IiEENS4_IS7_EEEEEEvRT0_ 0x0569cc0c
_ZN3WTF6VectorIN3JSC12ProtectedPtrINS1_10JSFunctionEEELj0EE15reserveCapacityEj 0x0569ccf4
_ZN3WTF6VectorIN3JSC12ProtectedPtrINS1_10JSFunctionEEELj0EE14expandCapacityEj 0x0569ce9c
_ZN3WTF9HashTableINS_6RefPtrIN3JSC16FunctionBodyNodeEEESt4pairIS4_S4_ENS_18PairFirstExtractorIS6_EENS_7PtrHashIS4_EENS_14PairHashTraitsINS_10HashTraitsIS4_EESD_EESD_E15deallocateTableEPS6_i 0x0569d1b0
_ZN3WTF9HashTableIjjNS_17IdentityExtractorIjEENS_7IntHashIjEENS_10HashTraitsIjEES6_E4findIjNS_22IdentityHashTranslatorIjjS4_EEEENS_17HashTableIteratorIjjS2_S4_S6_S6_EERKT_ 0x0569d2b8
_ZN3WTF7HashSetIjNS_7IntHashIjEENS_10HashTraitsIjEEE3addERKj 0x0569d408
_ZN3WTF9HashTableINS_6RefPtrIN3JSC16FunctionBodyNodeEEESt4pairIS4_S4_ENS_18PairFirstExtractorIS6_EENS_7PtrHashIS4_EENS_14PairHashTraitsINS_10HashTraitsIS4_EESD_EESD_E4findIS4_NS_22IdentityHashTranslatorIS4_S6_SA_EEEENS_17HashTableIteratorIS4_S6_S8_SA_SE_SD_EERKT_ 0x0569d68c
_ZN3WTF9HashTableIiSt4pairIiPNS_7HashSetIjNS_7IntHashIjEENS_10HashTraitsIjEEEEENS_18PairFirstExtractorIS9_EES4_NS_14PairHashTraitsINS5_IiEENS5_IS8_EEEESD_E4findIiNS_22IdentityHashTranslatorIiS9_S4_EEEENS_17HashTableIteratorIiS9_SB_S4_SF_SD_EERKT_ 0x0569d7dc
_ZN3WTF7HashMapIiPNS_7HashSetIjNS_7IntHashIjEENS_10HashTraitsIjEEEES3_NS4_IiEENS4_IS7_EEE3setERKiRKS7_ 0x0569d92c
_ZN3JSC6Parser5parseINS_16FunctionBodyNodeEEEN3WTF10PassRefPtrIT_EEPNS_9ExecStateEPNS_8DebuggerERKNS_10SourceCodeEPiPNS_7UStringE 0x0569dbcc
_ZN3WTF9HashTableINS_6RefPtrIN3JSC16FunctionBodyNodeEEESt4pairIS4_S4_ENS_18PairFirstExtractorIS6_EENS_7PtrHashIS4_EENS_14PairHashTraitsINS_10HashTraitsIS4_EESD_EESD_E6rehashEi 0x0569e2c8
_ZN3WTF9HashTableINS_6RefPtrIN3JSC16FunctionBodyNodeEEESt4pairIS4_S4_ENS_18PairFirstExtractorIS6_EENS_7PtrHashIS4_EENS_14PairHashTraitsINS_10HashTraitsIS4_EESD_EESD_E6expandEv 0x0569e760
_ZN3WTF7HashMapINS_6RefPtrIN3JSC16FunctionBodyNodeEEES4_NS_7PtrHashIS4_EENS_10HashTraitsIS4_EES8_E3addEPS3_RKS4_ 0x0569e7f4
_ZNK3WTF7HashMapIPN3JSC7ProfileEPNS1_8JSObjectENS_7PtrHashIS3_EENS_10HashTraitsIS3_EENS8_IS5_EEE3getERKS3_ 0x0569ece0
_ZN3JSC7Profile25sortFunctionNameAscendingEv 0x0569edcc
_ZN3JSC7Profile26sortFunctionNameDescendingEv 0x0569ee1c
_ZN3JSC7Profile18sortCallsAscendingEv 0x0569ee6c
_ZN3JSC7Profile19sortCallsDescendingEv 0x0569eebc
_ZN3JSC7Profile21sortSelfTimeAscendingEv 0x0569ef0c
_ZN3JSC7Profile22sortSelfTimeDescendingEv 0x0569ef5c
_ZN3JSC7Profile22sortTotalTimeAscendingEv 0x0569efac
_ZN3JSC7Profile23sortTotalTimeDescendingEv 0x0569effc
_ZN3JSC11ProfileNode25sortFunctionNameAscendingEv 0x0569f04c
_ZN3JSC11ProfileNode26sortFunctionNameDescendingEv 0x0569f080
_ZN3JSC11ProfileNode18sortCallsAscendingEv 0x0569f0b4
_ZN3JSC11ProfileNode19sortCallsDescendingEv 0x0569f0e8
_ZN3JSC11ProfileNode21sortSelfTimeAscendingEv 0x0569f11c
_ZN3JSC11ProfileNode22sortSelfTimeDescendingEv 0x0569f150
_ZN3JSC11ProfileNode22sortTotalTimeAscendingEv 0x0569f184
_ZN3JSC11ProfileNode23sortTotalTimeDescendingEv 0x0569f1b8
_ZN3WTF9HashTableIPN3JSC7ProfileESt4pairIS3_PNS1_8JSObjectEENS_18PairFirstExtractorIS7_EENS_7PtrHashIS3_EENS_14PairHashTraitsINS_10HashTraitsIS3_EENSD_IS6_EEEESE_E13allocateTableEi 0x0569f1ec
_ZN3WTF9HashTableIPN3JSC7ProfileESt4pairIS3_PNS1_8JSObjectEENS_18PairFirstExtractorIS7_EENS_7PtrHashIS3_EENS_14PairHashTraitsINS_10HashTraitsIS3_EENSD_IS6_EEEESE_E15deallocateTableEPS7_i 0x0569f21c
_ZN3WTF9HashTableIPN3JSC7ProfileESt4pairIS3_PNS1_8JSObjectEENS_18PairFirstExtractorIS7_EENS_7PtrHashIS3_EENS_14PairHashTraitsINS_10HashTraitsIS3_EENSD_IS6_EEEESE_E6rehashEi 0x0569f248
_ZN3WTF9HashTableIPN3JSC7ProfileESt4pairIS3_PNS1_8JSObjectEENS_18PairFirstExtractorIS7_EENS_7PtrHashIS3_EENS_14PairHashTraitsINS_10HashTraitsIS3_EENSD_IS6_EEEESE_E6removeEPS7_ 0x0569f420
_ZN3WTF9HashTableIPN3JSC7ProfileESt4pairIS3_PNS1_8JSObjectEENS_18PairFirstExtractorIS7_EENS_7PtrHashIS3_EENS_14PairHashTraitsINS_10HashTraitsIS3_EENSD_IS6_EEEESE_E47removeAndInvalidateWithoutEntryConsistencyCheckEPS7_ 0x0569f49c
_ZN3WTF9HashTableIPN3JSC7ProfileESt4pairIS3_PNS1_8JSObjectEENS_18PairFirstExtractorIS7_EENS_7PtrHashIS3_EENS_14PairHashTraitsINS_10HashTraitsIS3_EENSD_IS6_EEEESE_E6expandEv 0x0569f4c8
_ZN3JSC11ProfileNode31functionNameAscendingComparatorERKN3WTF6RefPtrIS0_EES5_ 0x0569f55c
_ZN3JSC11ProfileNode32functionNameDescendingComparatorERKN3WTF6RefPtrIS0_EES5_ 0x0569f598
_ZN3JSC11ProfileNode28totalTimeAscendingComparatorERKN3WTF6RefPtrIS0_EES5_ 0x0569f5d4
_ZN3JSC11ProfileNode29totalTimeDescendingComparatorERKN3WTF6RefPtrIS0_EES5_ 0x0569f5f4
_ZN3JSC11ProfileNode27selfTimeAscendingComparatorERKN3WTF6RefPtrIS0_EES5_ 0x0569f614
_ZN3JSC11ProfileNode28selfTimeDescendingComparatorERKN3WTF6RefPtrIS0_EES5_ 0x0569f634
_ZN3JSC11ProfileNode24callsAscendingComparatorERKN3WTF6RefPtrIS0_EES5_ 0x0569f654
_ZN3JSC11ProfileNode25callsDescendingComparatorERKN3WTF6RefPtrIS0_EES5_ 0x0569f674
_ZN3WTF9HashTableIPN3JSC7ProfileESt4pairIS3_PNS1_8JSObjectEENS_18PairFirstExtractorIS7_EENS_7PtrHashIS3_EENS_14PairHashTraitsINS_10HashTraitsIS3_EENSD_IS6_EEEESE_E4findIS3_NS_22IdentityHashTranslatorIS3_S7_SB_EEEENS_17HashTableIteratorIS3_S7_S9_SB_SG_SE_EERKT_ 0x0569f694
_ZN3WTF7HashMapIPN3JSC7ProfileEPNS1_8JSObjectENS_7PtrHashIS3_EENS_10HashTraitsIS3_EENS8_IS5_EEE3setERKS3_RKS5_ 0x0569f7e4
_ZNK3WTF7HashMapIPN3JSC11ProfileNodeEPNS1_8JSObjectENS_7PtrHashIS3_EENS_10HashTraitsIS3_EENS8_IS5_EEE3getERKS3_ 0x0569fa84
_ZN3WTF9HashTableIPN3JSC11ProfileNodeESt4pairIS3_PNS1_8JSObjectEENS_18PairFirstExtractorIS7_EENS_7PtrHashIS3_EENS_14PairHashTraitsINS_10HashTraitsIS3_EENSD_IS6_EEEESE_E13allocateTableEi 0x0569fb70
_ZN3WTF9HashTableIPN3JSC11ProfileNodeESt4pairIS3_PNS1_8JSObjectEENS_18PairFirstExtractorIS7_EENS_7PtrHashIS3_EENS_14PairHashTraitsINS_10HashTraitsIS3_EENSD_IS6_EEEESE_E15deallocateTableEPS7_i 0x0569fba0
_ZN3WTF9HashTableIPN3JSC11ProfileNodeESt4pairIS3_PNS1_8JSObjectEENS_18PairFirstExtractorIS7_EENS_7PtrHashIS3_EENS_14PairHashTraitsINS_10HashTraitsIS3_EENSD_IS6_EEEESE_E6rehashEi 0x0569fbcc
_ZN3WTF9HashTableIPN3JSC11ProfileNodeESt4pairIS3_PNS1_8JSObjectEENS_18PairFirstExtractorIS7_EENS_7PtrHashIS3_EENS_14PairHashTraitsINS_10HashTraitsIS3_EENSD_IS6_EEEESE_E6removeEPS7_ 0x0569fda4
_ZN3WTF9HashTableIPN3JSC11ProfileNodeESt4pairIS3_PNS1_8JSObjectEENS_18PairFirstExtractorIS7_EENS_7PtrHashIS3_EENS_14PairHashTraitsINS_10HashTraitsIS3_EENSD_IS6_EEEESE_E47removeAndInvalidateWithoutEntryConsistencyCheckEPS7_ 0x0569fe20
_ZN3WTF9HashTableIPN3JSC11ProfileNodeESt4pairIS3_PNS1_8JSObjectEENS_18PairFirstExtractorIS7_EENS_7PtrHashIS3_EENS_14PairHashTraitsINS_10HashTraitsIS3_EENSD_IS6_EEEESE_E6expandEv 0x0569fe4c
_ZN3WTF9HashTableIPN3JSC11ProfileNodeESt4pairIS3_PNS1_8JSObjectEENS_18PairFirstExtractorIS7_EENS_7PtrHashIS3_EENS_14PairHashTraitsINS_10HashTraitsIS3_EENSD_IS6_EEEESE_E4findIS3_NS_22IdentityHashTranslatorIS3_S7_SB_EEEENS_17HashTableIteratorIS3_S7_S9_SB_SG_SE_EERKT_ 0x0569fee0
_ZN3WTF7HashMapIPN3JSC11ProfileNodeEPNS1_8JSObjectENS_7PtrHashIS3_EENS_10HashTraitsIS3_EENS8_IS5_EEE3setERKS3_RKS5_ 0x056a0030
_ZN3WTF6VectorIcLj64EE6shrinkEj 0x056afcc0
_ZN3WTF6VectorIcLj0EE4growEj 0x056afcc8
_Z9findColorPKcj 0x056cdf84
_ZN3WTF6VectorINS_7Unicode9DirectionELj8EE6shrinkEj 0x056d11a8
_ZN3WTF6VectorINS_7Unicode9DirectionELj8EE15reserveCapacityEj 0x056d19f0
_ZN3WTF6VectorINS_7Unicode9DirectionELj8EE14expandCapacityEj 0x056d1b20
_ZN3WTF6VectorINS_7Unicode9DirectionELj8EE14expandCapacityEjPKS2_ 0x056d1bb0
_ZN3WTF6VectorINS_7Unicode9DirectionELj8EE14shrinkCapacityEj 0x056d1cf4
_ZN3WTF6VectorIcLj512EE6shrinkEj 0x056d4c58
_ZN3WTF6VectorIcLj4096EE6shrinkEj 0x056d4c60
_ZN3WTF6VectorISt4pairIiiELj0EE6shrinkEj 0x056d4c68
_ZN3WTF6VectorIcLj512EE15reserveCapacityEj 0x056d4c70
_ZN3WTF6VectorIcLj512EE14expandCapacityEj 0x056d4d6c
_ZN3WTF6VectorIcLj512EE14expandCapacityEjPKc 0x056d4dfc
_ZN3WTF6VectorIcLj512EE6resizeEj 0x056d4ea4
_ZN3WTF6VectorISt4pairIiiELj0EE15reserveCapacityEj 0x056d4f20
_ZN3WTF6VectorISt4pairIiiELj0EE14expandCapacityEj 0x056d5044
_ZN3WTF6VectorISt4pairIiiELj0EE14expandCapacityEjPKS2_ 0x056d50d4
_ZN3WTF6VectorItLj512EE15reserveCapacityEj 0x056d5184
_ZN3WTF6VectorItLj512EE14expandCapacityEj 0x056d5290
_ZN3WTF6VectorItLj512EE14expandCapacityEjPKt 0x056d5320
_ZN3WTF6VectorItLj512EE6appendItEEvPKT_j 0x056d53d0
_ZN3WTF6VectorItLj512EE6appendIcEEvPKT_j 0x056d5480
_ZN3WTF6VectorItLj512EE14shrinkCapacityEj 0x056d5538
_ZN3WTF6VectorISt4pairIiiELj0EE14shrinkCapacityEj 0x056d56b8
_ZN3WTF6VectorIcLj0EEC1ERKS1_ 0x056d5dec
_ZN3WTFeqIcLj0EEEbRKNS_6VectorIT_XT0_EEES5_ 0x056d6644
_ZN3WTF6VectorIcLj0EE6appendIhEEvPKT_j 0x056d8d88
_ZN3WTF6VectorIcLj256EE6shrinkEj 0x056d8e38
_ZN3WTF9HashTableIPKcS2_NS_17IdentityExtractorIS2_EENS_7PtrHashIS2_EENS_10HashTraitsIS2_EES8_E4findIS2_NS_22IdentityHashTranslatorIS2_S2_S6_EEEENS_17HashTableIteratorIS2_S2_S4_S6_S8_S8_EERKT_ 0x056d92f4
_ZN3WTF9HashTableIPKcS2_NS_17IdentityExtractorIS2_EENS_7PtrHashIS2_EENS_10HashTraitsIS2_EES8_E13allocateTableEi 0x056d9444
_ZN3WTF9HashTableIPKcS2_NS_17IdentityExtractorIS2_EENS_7PtrHashIS2_EENS_10HashTraitsIS2_EES8_E15deallocateTableEPS2_i 0x056d9474
_ZN3WTF9HashTableIPKcS2_NS_17IdentityExtractorIS2_EENS_7PtrHashIS2_EENS_10HashTraitsIS2_EES8_E6rehashEi 0x056d94a0
_ZN3WTF9HashTableIPKcS2_NS_17IdentityExtractorIS2_EENS_7PtrHashIS2_EENS_10HashTraitsIS2_EES8_E6expandEv 0x056d9668
_ZN3WTF7HashSetIPKcNS_7PtrHashIS2_EENS_10HashTraitsIS2_EEE3addERKS2_ 0x056d96fc
_ZNK3WTF9HashTableIPKcS2_NS_17IdentityExtractorIS2_EENS_7PtrHashIS2_EENS_10HashTraitsIS2_EES8_E8containsIS2_NS_22IdentityHashTranslatorIS2_S2_S6_EEEEbRKT_ 0x056d9980
_ZNK3WTF7HashMapIP9_NPStreamP4_NPPNS_7PtrHashIS2_EENS_10HashTraitsIS2_EENS7_IS4_EEE3getERKS2_ 0x056e053c
_ZN3WTF9HashTableIP9_NPStreamSt4pairIS2_P4_NPPENS_18PairFirstExtractorIS6_EENS_7PtrHashIS2_EENS_14PairHashTraitsINS_10HashTraitsIS2_EENSC_IS5_EEEESD_E15deallocateTableEPS6_i 0x056e06e0
_ZN3WTF6VectorIcLj0EE6resizeEj 0x056e070c
_ZN3WTF9HashTableIP9_NPStreamSt4pairIS2_P4_NPPENS_18PairFirstExtractorIS6_EENS_7PtrHashIS2_EENS_14PairHashTraitsINS_10HashTraitsIS2_EENSC_IS5_EEEESD_E13allocateTableEi 0x056e0788
_ZN3WTF9HashTableIP9_NPStreamSt4pairIS2_P4_NPPENS_18PairFirstExtractorIS6_EENS_7PtrHashIS2_EENS_14PairHashTraitsINS_10HashTraitsIS2_EENSC_IS5_EEEESD_E6rehashEi 0x056e07b8
_ZN3WTF9HashTableIP9_NPStreamSt4pairIS2_P4_NPPENS_18PairFirstExtractorIS6_EENS_7PtrHashIS2_EENS_14PairHashTraitsINS_10HashTraitsIS2_EENSC_IS5_EEEESD_E6removeEPS6_ 0x056e0990
_ZN3WTF9HashTableIP9_NPStreamSt4pairIS2_P4_NPPENS_18PairFirstExtractorIS6_EENS_7PtrHashIS2_EENS_14PairHashTraitsINS_10HashTraitsIS2_EENSC_IS5_EEEESD_E47removeAndInvalidateWithoutEntryConsistencyCheckEPS6_ 0x056e0a0c
_ZN3WTF9HashTableIP9_NPStreamSt4pairIS2_P4_NPPENS_18PairFirstExtractorIS6_EENS_7PtrHashIS2_EENS_14PairHashTraitsINS_10HashTraitsIS2_EENSC_IS5_EEEESD_E6expandEv 0x056e0a38
_ZN3WTF9HashTableIP9_NPStreamSt4pairIS2_P4_NPPENS_18PairFirstExtractorIS6_EENS_7PtrHashIS2_EENS_14PairHashTraitsINS_10HashTraitsIS2_EENSC_IS5_EEEESD_E4findIS2_NS_22IdentityHashTranslatorIS2_S6_SA_EEEENS_17HashTableIteratorIS2_S6_S8_SA_SF_SD_EERKT_ 0x056e0b5c
_ZN3WTF7HashMapIP9_NPStreamP4_NPPNS_7PtrHashIS2_EENS_10HashTraitsIS2_EENS7_IS4_EEE3addERKS2_RKS4_ 0x056e0cac
_ZN3WTF6VectorIbLj4EE6shrinkEj 0x056e0f58
_ZN3WTF6VectorIbLj4EE15reserveCapacityEj 0x056e1060
_ZN3WTF6VectorIbLj4EE14expandCapacityEj 0x056e115c
_ZN3WTF6VectorIbLj4EE14expandCapacityEjPKb 0x056e11ec
_ZN3WTF6VectorIbLj0EE4fillERKbj 0x056ee184
_ZN3WTF6VectorIbLj0EE6resizeEj 0x056ee2a4
_ZN3WTF6VectorIbLj0EEaSERKS1_ 0x056ee320
_ZN3WTF6VectorIiLj0EE4growEj 0x056f4dec
_ZN3WTF9HashTableIiiNS_17IdentityExtractorIiEENS_7IntHashIjEENS_10HashTraitsIiEES6_E5clearEv 0x056fa344
_ZN3JSC8Bindings5Class14fallbackObjectEPNS_9ExecStateEPNS0_8InstanceERKNS_10IdentifierE 0x05707080
_ZNK3WTF7HashMapIPK11QMetaObjectPN3JSC8Bindings7QtClassENS_7PtrHashIS3_EENS_10HashTraitsIS3_EENSA_IS7_EEE3getERKS3_ 0x05707088
_ZN5QHashI10QByteArrayPN3JSC8JSObjectEE13duplicateNodeEPN9QHashData4NodeEPv 0x05707174
_ZN3JSC8Bindings5FieldD0Ev 0x05707198
_ZN3JSC8Bindings5FieldD1Ev 0x057071d0
_ZNK5QHashI7QStringPN3JSC8Bindings7QtFieldEE8findNodeERKS0_Pj 0x057071e0
_ZN3WTF9HashTableIPK11QMetaObjectSt4pairIS3_PN3JSC8Bindings7QtClassEENS_18PairFirstExtractorIS9_EENS_7PtrHashIS3_EENS_14PairHashTraitsINS_10HashTraitsIS3_EENSF_IS8_EEEESG_E13allocateTableEi 0x057073dc
_ZN3WTF9HashTableIPK11QMetaObjectSt4pairIS3_PN3JSC8Bindings7QtClassEENS_18PairFirstExtractorIS9_EENS_7PtrHashIS3_EENS_14PairHashTraitsINS_10HashTraitsIS3_EENSF_IS8_EEEESG_E15deallocateTableEPS9_i 0x0570740c
_ZN3WTF9HashTableIPK11QMetaObjectSt4pairIS3_PN3JSC8Bindings7QtClassEENS_18PairFirstExtractorIS9_EENS_7PtrHashIS3_EENS_14PairHashTraitsINS_10HashTraitsIS3_EENSF_IS8_EEEESG_E6rehashEi 0x05707438
_ZN3WTF9HashTableIPK11QMetaObjectSt4pairIS3_PN3JSC8Bindings7QtClassEENS_18PairFirstExtractorIS9_EENS_7PtrHashIS3_EENS_14PairHashTraitsINS_10HashTraitsIS3_EENSF_IS8_EEEESG_E6expandEv 0x05707610
_ZN3JSC8Bindings5ClassD0Ev 0x057076a4
_ZN3JSC8Bindings5ClassD1Ev 0x057076dc
_ZN5QHashI7QStringPN3JSC8Bindings7QtFieldEE13duplicateNodeEPN9QHashData4NodeEPv 0x057076ec
_ZNK5QHashI10QByteArrayPN3JSC8JSObjectEE8findNodeERKS0_Pj 0x05707710
_ZN5QHashI7QStringPN3JSC8Bindings7QtFieldEE8freeDataEP9QHashData 0x05707954
_ZN5QHashI7QStringPN3JSC8Bindings7QtFieldEE13detach_helperEv 0x05707a78
_ZN5QHashI7QStringPN3JSC8Bindings7QtFieldEE6removeERKS0_ 0x05707b08
_ZN3WTF9HashTableIPK11QMetaObjectSt4pairIS3_PN3JSC8Bindings7QtClassEENS_18PairFirstExtractorIS9_EENS_7PtrHashIS3_EENS_14PairHashTraitsINS_10HashTraitsIS3_EENSF_IS8_EEEESG_E4findIS3_NS_22IdentityHashTranslatorIS3_S9_SD_EEEENS_17HashTableIteratorIS3_S9_SB_SD_SI_SG_EERKT_ 0x05707d90
_ZN3WTF7HashMapIPK11QMetaObjectPN3JSC8Bindings7QtClassENS_7PtrHashIS3_EENS_10HashTraitsIS3_EENSA_IS7_EEE3setERKS3_RKS7_ 0x05707ee0
_ZN5QHashI10QByteArrayPN3JSC8JSObjectEE8freeDataEP9QHashData 0x05708180
_ZN5QHashI10QByteArrayPN3JSC8JSObjectEE13detach_helperEv 0x057082a4
_ZNK3JSC8Bindings10QtInstance18getBindingLanguageEv 0x05708334
_ZNK5QHashIPN3JSC8Bindings10QtInstanceEPNS0_8JSObjectEE8findNodeERKS3_Pj 0x0570833c
_ZNK5QHashIPvPN3JSC8Bindings10QtInstanceEE8findNodeERKS0_Pj 0x057083b0
_ZNK5QHashIN3JSC10JSValuePtrE15QHashDummyValueE8findNodeERKS1_Pj 0x05708424
_ZN5QHashIPN3JSC8Bindings10QtInstanceEPNS0_8JSObjectEE13duplicateNodeEPN9QHashData4NodeEPv 0x057084a0
_ZN3JSC8Bindings18QtRuntimeObjectImp4markEv 0x057084b4
_ZN5QListIN3JSC10JSValuePtrEE4freeEPN9QListData4DataE 0x05708510
_ZN5QListIN3JSC10JSValuePtrEED1Ev 0x057085b0
_ZN5QListIPN3JSC8JSObjectEE4freeEPN9QListData4DataE 0x05708614
_ZN5QListIPN3JSC8JSObjectEED1Ev 0x05708650
_ZN5QListIPN3JSC8Bindings10QtInstanceEE4freeEPN9QListData4DataE 0x057086b4
_ZN5QListIPN3JSC8Bindings10QtInstanceEED1Ev 0x057086f0
_ZN5QListIPN3JSC8Bindings7QtFieldEE4freeEPN9QListData4DataE 0x05708754
_ZN5QListIPN3JSC8Bindings7QtFieldEED1Ev 0x05708790
_ZN3JSC8Bindings7QtFieldD1Ev 0x057087f4
_ZN5QHashIPN3JSC8Bindings10QtInstanceEPNS0_8JSObjectEE8freeDataEP9QHashData 0x05708898
_ZN5QHashIPvPN3JSC8Bindings10QtInstanceEE8freeDataEP9QHashData 0x05708968
_ZN5QHashIN3JSC10JSValuePtrE15QHashDummyValueE8freeDataEP9QHashData 0x05708a38
_ZN5QHashIN3JSC10JSValuePtrE15QHashDummyValueE13detach_helperEv 0x05708b08
_ZN5QHashIPvPN3JSC8Bindings10QtInstanceEE13detach_helperEv 0x05708b98
_ZN5QHashIPN3JSC8Bindings10QtInstanceEPNS0_8JSObjectEE13detach_helperEv 0x05708c28
_ZN5QHashIPvPN3JSC8Bindings10QtInstanceEE6removeERKS0_ 0x05708cb8
_ZN5QListIPN3JSC8JSObjectEE13detach_helperEv 0x05708e88
_ZN5QListIPN3JSC8Bindings10QtInstanceEE13detach_helperEv 0x05708ef0
_ZN5QListIPN3JSC8Bindings7QtFieldEE13detach_helperEv 0x05708f58
_ZN5QListIPN3JSC8JSObjectEE6appendERKS2_ 0x05708fc0
_ZN5QListIPN3JSC8Bindings10QtInstanceEE6appendERKS3_ 0x05709030
_ZNK5QHashIPvPN3JSC8Bindings10QtInstanceEE6valuesERKS0_ 0x057090a0
_ZN5QListIPN3JSC8Bindings7QtFieldEE6appendERKS3_ 0x05709178
_ZNK5QHashIPN3JSC8Bindings10QtInstanceEPNS0_8JSObjectEE3keyERKS5_RKS3_ 0x057091e8
_ZNK5QHashIPN3JSC8Bindings10QtInstanceEPNS0_8JSObjectEE3keyERKS5_ 0x057092e4
_ZNK5QHashI10QByteArrayPN3JSC8JSObjectEE6valuesEv 0x0570931c
_ZNK5QHashI7QStringPN3JSC8Bindings7QtFieldEE6valuesEv 0x0570940c
_ZN5QListIN3JSC10JSValuePtrEE13detach_helperEv 0x057094fc
_ZN5QListIN3JSC10JSValuePtrEE6appendERKS1_ 0x05709610
_ZNK4QSetIN3JSC10JSValuePtrEE6toListEv 0x0570969c
_ZN5QHashIN3JSC10JSValuePtrE15QHashDummyValueE13duplicateNodeEPN9QHashData4NodeEPv 0x0570978c
_ZN5QHashIPvPN3JSC8Bindings10QtInstanceEE13duplicateNodeEPN9QHashData4NodeES0_ 0x05709798
_ZN5QHashIPN3JSC8Bindings10QtInstanceEPNS0_8JSObjectEE6removeERKS3_ 0x057097ac
_ZN3JSC8Bindings7QtFieldD0Ev 0x05709a5c
_ZNK4QMapIP7QObjectPN3JSC8Bindings18QtConnectionObjectEE15mutableFindNodeEPPN8QMapData4NodeERKS1_ 0x05709b28
_ZNK3WTF9HashTableIPN3JSC8JSObjectES3_NS_17IdentityExtractorIS3_EENS_7PtrHashIS3_EENS_10HashTraitsIS3_EES9_E8containsIS3_NS_22IdentityHashTranslatorIS3_S3_S7_EEEEbRKT_ 0x05709bc0
_ZNK3JSC8Bindings7QtArrayIiE9getLengthEv 0x05709cb4
_ZNK3JSC8Bindings7QtArrayIP7QObjectE9getLengthEv 0x05709cbc
_ZNK3JSC8Bindings7QtArrayI7QStringE9getLengthEv 0x05709cc4
_ZNK3JSC8Bindings7QtArrayI8QVariantE9getLengthEv 0x05709ccc
_ZNK3JSC8Bindings7QtArrayIiE10rootObjectEv 0x05709cd4
_ZNK3JSC8Bindings7QtArrayIP7QObjectE10rootObjectEv 0x05709cf4
_ZNK3JSC8Bindings7QtArrayI7QStringE10rootObjectEv 0x05709d14
_ZNK3JSC8Bindings7QtArrayI8QVariantE10rootObjectEv 0x05709d34
_ZN4QMapIP7QObjectPN3JSC8Bindings18QtConnectionObjectEE8freeDataEP8QMapData 0x05709d54
_Z21qMetaTypeDeleteHelperI8QVariantEvPT_ 0x05709d88
_ZN5QListIPN3JSC8Bindings18QtConnectionObjectEE4freeEPN9QListData4DataE 0x05709dd8
_ZN5QListIPN3JSC8Bindings18QtConnectionObjectEED1Ev 0x05709e14
_Z21qMetaTypeDeleteHelperI5QListIiEEvPT_ 0x05709f48
_Z21qMetaTypeDeleteHelperI5QListIP7QObjectEEvPT_ 0x05709f98
_ZN5QListIPN3JSC8Bindings18QtConnectionObjectEE13detach_helperEv 0x0570a11c
_ZN5QListIPN3JSC8Bindings18QtConnectionObjectEE6appendERKS3_ 0x0570a184
_ZNK4QMapIP7QObjectPN3JSC8Bindings18QtConnectionObjectEE6valuesERKS1_ 0x0570a1f4
_Z24qMetaTypeConstructHelperI5QListIiEEPvPKT_ 0x0570a3f4
_Z24qMetaTypeConstructHelperI5QListIP7QObjectEEPvPKT_ 0x0570a534
_Z24qMetaTypeConstructHelperI8QVariantEPvPKT_ 0x0570a738
_ZN15QVarLengthArrayI8QVariantLi10EE7reallocEii 0x0570a7e8
_ZN15QVarLengthArrayI8QVariantLi10EE6appendEPKS0_i 0x0570a958
_Z13qvariant_castI7QRegExpET_RK8QVariant 0x0570acc4
_ZN3JSC8Bindings7QtArrayI8QVariantED0Ev 0x0570ae2c
_ZN3JSC8Bindings7QtArrayI8QVariantED1Ev 0x0570ae9c
_ZN3JSC8Bindings7QtArrayIP7QObjectED0Ev 0x0570aef8
_ZN3JSC8Bindings7QtArrayIP7QObjectED1Ev 0x0570af68
_ZN3JSC8Bindings7QtArrayIiED0Ev 0x0570afc4
_ZN3JSC8Bindings7QtArrayIiED1Ev 0x0570b034
_Z17qRegisterMetaTypeI8QVariantEiPKcPT_ 0x0570b090
_ZN11QMetaTypeIdI8QVariantE14qt_metatype_idEv 0x0570b0cc
_Z17qRegisterMetaTypeI5QListIiEEiPKcPT_ 0x0570b124
_ZN11QMetaTypeIdI5QListIiEE14qt_metatype_idEv 0x0570b160
_Z17qRegisterMetaTypeI5QListIP7QObjectEEiPKcPT_ 0x0570b1b8
_ZN11QMetaTypeIdI5QListIP7QObjectEE14qt_metatype_idEv 0x0570b1f4
_ZN4QMapIP7QObjectPN3JSC8Bindings18QtConnectionObjectEE13detach_helperEv 0x0570b24c
_ZN4QMapIP7QObjectPN3JSC8Bindings18QtConnectionObjectEE5eraseENS6_8iteratorE 0x0570b410
_Z13qvariant_castIiET_RK8QVariant 0x0570b594
_Z13qvariant_castIP7QObjectET_RK8QVariant 0x0570b630
_Z13qvariant_castI9QDateTimeET_RK8QVariant 0x0570b6cc
_Z13qvariant_castI5QTimeET_RK8QVariant 0x0570b834
_Z13qvariant_castI5QDateET_RK8QVariant 0x0570b8ec
_ZN3JSC8Bindings7QtArrayIiEC1E5QListIiEN9QMetaType4TypeEN3WTF10PassRefPtrINS0_10RootObjectEEE 0x0570b9a4
_ZN3JSC8Bindings7QtArrayIP7QObjectEC1E5QListIS3_EN9QMetaType4TypeEN3WTF10PassRefPtrINS0_10RootObjectEEE 0x0570babc
_ZN3JSC8Bindings7QtArrayI8QVariantEC1E5QListIS2_EN9QMetaType4TypeEN3WTF10PassRefPtrINS0_10RootObjectEEE 0x0570bbd4
_Z13qvariant_castI5QListIP7QObjectEET_RK8QVariant 0x0570bcec
_Z13qvariant_castI5QListIiEET_RK8QVariant 0x0570bf00
_Z13qvariant_castI8QVariantET_RKS0_ 0x0570c114
_ZN3JSC8Bindings19QtRuntimeMetaMethodD0Ev 0x0570c2e4
_ZN3JSC8Bindings19QtRuntimeMetaMethodD1Ev 0x0570c33c
_ZN3JSC8Bindings25QtRuntimeConnectionMethodD0Ev 0x0570c374
_ZN3JSC8Bindings25QtRuntimeConnectionMethodD1Ev 0x0570c3cc
_Z13qvariant_castI10QByteArrayET_RK8QVariant 0x0570c404
_ZN7QVectorIN3JSC8Bindings17QtMethodMatchTypeEE4freeEP16QVectorTypedDataIS2_E 0x0570c5b4
_ZN7QVectorIN3JSC8Bindings17QtMethodMatchTypeEE7reallocEii 0x0570c664
_ZN7QVectorIN3JSC8Bindings17QtMethodMatchTypeEE13detach_helperEv 0x0570c918
_ZN7QVectorIN3JSC8Bindings17QtMethodMatchTypeEEaSERKS3_ 0x0570c950
_ZN7QVectorIN3JSC8Bindings17QtMethodMatchDataEE4freeEP16QVectorTypedDataIS2_E 0x0570c9f8
_ZN7QVectorIN3JSC8Bindings17QtMethodMatchDataEE7reallocEii 0x0570cb40
_ZN7QVectorIN3JSC8Bindings17QtMethodMatchDataEE13detach_helperEv 0x0570cf88
_ZN7QVectorIN3JSC8Bindings17QtMethodMatchDataEE6insertEPS2_iRKS2_ 0x0570cfc0
_ZN7QVectorIN3JSC8Bindings17QtMethodMatchDataEE6appendERKS2_ 0x0570d42c
_ZN7QVectorIN3JSC8Bindings17QtMethodMatchTypeEE6appendERKS2_ 0x0570d7b0
_ZN3JSC8Bindings7QtArrayI7QStringEC1E5QListIS2_EN9QMetaType4TypeEN3WTF10PassRefPtrINS0_10RootObjectEEE 0x0570d950
_ZN3JSC8Bindings7QtArrayI7QStringED0Ev 0x0570dacc
_ZN3JSC8Bindings7QtArrayI7QStringED1Ev 0x0570db3c
_Z13qvariant_castI11QStringListET_RK8QVariant 0x0570db98
_Z13qvariant_castI4QMapI7QString8QVariantEET_RKS2_ 0x0570dd6c
_ZNK3JSC8Bindings7QtArrayI8QVariantE7valueAtEPNS_9ExecStateEj 0x0570df98
_ZNK3JSC8Bindings7QtArrayI7QStringE7valueAtEPNS_9ExecStateEj 0x0570e13c
_ZNK3JSC8Bindings7QtArrayIP7QObjectE7valueAtEPNS_9ExecStateEj 0x0570e2d0
_ZNK3JSC8Bindings7QtArrayIiE7valueAtEPNS_9ExecStateEj 0x0570e424
_Z13qvariant_castI7QStringET_RK8QVariant 0x0570e578
_ZNK3JSC8Bindings7QtArrayI8QVariantE10setValueAtEPNS_9ExecStateEjNS_10JSValuePtrE 0x0570e728
_ZNK3JSC8Bindings7QtArrayI7QStringE10setValueAtEPNS_9ExecStateEjNS_10JSValuePtrE 0x0570e84c
_ZNK3JSC8Bindings7QtArrayIP7QObjectE10setValueAtEPNS_9ExecStateEjNS_10JSValuePtrE 0x0570e9c8
_ZNK3JSC8Bindings7QtArrayIiE10setValueAtEPNS_9ExecStateEjNS_10JSValuePtrE 0x0570eab4
_ZNK7QMatrix10isIdentityEv 0x0570eba0
_ZNK5QHashIi7QPixmapE8findNodeERKiPj 0x05710690
_ZN5QHashIi7QPixmapE13duplicateNodeEPN9QHashData4NodeEPv 0x05710a74
_ZN5QHashIi7QPixmapE8freeDataEP9QHashData 0x05710aac
_ZN5QHashIi7QPixmapE13detach_helperEv 0x05710bb0
_ZN5QHashIi7QPixmapE4takeERKi 0x05710df4
_ZN3WTF6VectorIcLj0EEaSERKS1_ 0x057113a8
_ZN5QListI4QUrlED1Ev 0x05711cac
_ZN5QListIN17QWebPluginFactory8MimeTypeEE4freeEPN9QListData4DataE 0x05716ea4
_ZN5QListIN17QWebPluginFactory8MimeTypeEED1Ev 0x05716ff8
_ZN5QListIN17QWebPluginFactory6PluginEE4freeEPN9QListData4DataE 0x0571705c
_ZN5QListIN17QWebPluginFactory6PluginEED1Ev 0x057171b0
_ZNK4QMapIm7QStringE15mutableFindNodeEPPN8QMapData4NodeERKm 0x057174e8
_ZN4QMapIm7QStringE8freeDataEP8QMapData 0x05717a20
_ZN4QMapIm7QStringE13detach_helperEv 0x05717acc
_ZN5QListIP9QWebFrameE13detach_helperEv 0x057180c0
_ZN5QListIP9QWebFrameE6appendERKS1_ 0x05718128
_ZThn8_N8QWebViewD0Ev 0x05718788
_ZThn8_N8QWebViewD1Ev 0x05718790
_ZN5QListI15QWebHistoryItemE4freeEPN9QListData4DataE 0x05718798
_ZN5QListI15QWebHistoryItemE13detach_helperEv 0x05718868
_ZN5QListI15QWebHistoryItemE6appendERKS0_ 0x0571899c
_ZNK5QHashIibE8findNodeERKiPj 0x05718b20
_ZN5QHashIibE13duplicateNodeEPN9QHashData4NodeEPv 0x05718b90
_ZN5QHashIibE8freeDataEP9QHashData 0x05718b9c
_ZN5QHashIibE13detach_helperEv 0x05718c6c
_ZN5QListIP19QWebSettingsPrivateE4freeEPN9QListData4DataE 0x05718e5c
_ZN5QListIP19QWebSettingsPrivateED1Ev 0x05718e98
_ZN5QListIP19QWebSettingsPrivateE13detach_helperEv 0x05718efc
_ZN5QListIP19QWebSettingsPrivateE9removeAllERKS1_ 0x0571915c
_ZN5QListIP19QWebSettingsPrivateE6appendERKS1_ 0x05719230
_ZN5QHashIibE6removeERKi 0x057192a0
_ZN5QHashIi7QPixmapE6removeERKi 0x05719470
_ZN5QHashIi7QStringE6removeERKi 0x05719844
_ZN5QListI12QWebDatabaseE4freeEPN9QListData4DataE 0x05719a98
_ZN5QListI12QWebDatabaseE13detach_helperEv 0x05719b68
_ZN5QListI12QWebDatabaseE6appendERKS0_ 0x05719c9c
_ZN5QListI18QWebSecurityOriginE4freeEPN9QListData4DataE 0x05719d40
_ZN5QListI18QWebSecurityOriginE13detach_helperEv 0x05719e10
_ZN5QListI18QWebSecurityOriginE6appendERKS0_ 0x05719f44
_ZN3WTF6VectorIxLj0EE6shrinkEj 0x0571a174
_ZN3WTF6VectorIdLj0EE6shrinkEj 0x0571a17c
_ZN3WTF6VectorIdLj0EE14shrinkCapacityEj 0x0571a184
_ZN3WTF6VectorIxLj0EE14shrinkCapacityEj 0x0571a2c4
_ZN3WTF6VectorIxLj0EE15reserveCapacityEj 0x0571a404
_ZN3WTF6VectorIxLj0EE14expandCapacityEj 0x0571a528
_ZN3WTF6VectorIxLj0EE14expandCapacityEjPKx 0x0571a5b8
_ZN3WTF6VectorIdLj0EE15reserveCapacityEj 0x0571a668
_ZN3WTF6VectorIdLj0EE14expandCapacityEj 0x0571a78c
_ZN3WTF6VectorIdLj0EE14expandCapacityEjPKd 0x0571a81c
_ZN3WTF6VectorIfLj0EEaSERKS1_ 0x0575757c
_ZN3WTF6VectorISt4pairIjjELj0EE6shrinkEj 0x0577f298
_ZN3WTF6VectorISt4pairIjjELj0EE14shrinkCapacityEj 0x0577f3d8
_ZN3WTF6VectorISt4pairIjjELj0EE15reserveCapacityEj 0x0577f874
_ZN3WTF6VectorISt4pairIjjELj0EE14expandCapacityEj 0x0577f998
_ZN3WTF6VectorISt4pairIjjELj0EE14expandCapacityEjPKS2_ 0x0577fa28
_ZN3WTF9HashTableIddNS_17IdentityExtractorIdEENS_9FloatHashIdEENS_10HashTraitsIdEES6_E15isDeletedBucketERKd 0x057bed18
_ZN3WTF9HashTableIddNS_17IdentityExtractorIdEENS_9FloatHashIdEENS_10HashTraitsIdEES6_E13isEmptyBucketERKd 0x057bed38
_ZN3WTF22IdentityHashTranslatorIddNS_9FloatHashIdEEE5equalERKdS5_ 0x057bed54
_ZN3WTF9HashTableIddNS_17IdentityExtractorIdEENS_9FloatHashIdEENS_10HashTraitsIdEES6_E16initializeBucketERd 0x057bed6c
_ZN3WTF22IdentityHashTranslatorIddNS_9FloatHashIdEEE4hashERKd 0x057bee70
_ZN3WTF9HashTableIddNS_17IdentityExtractorIdEENS_9FloatHashIdEENS_10HashTraitsIdEES6_E4findIdNS_22IdentityHashTranslatorIddS4_EEEENS_17HashTableIteratorIddS2_S4_S6_S6_EERKT_ 0x057bef44
_ZN3WTF5MoverIdLb0EE4moveERdS2_ 0x057bf0c8
_ZN3WTF9HashTableIddNS_17IdentityExtractorIdEENS_9FloatHashIdEENS_10HashTraitsIdEES6_E15deallocateTableEPdi 0x057bf0d4
_ZN3WTF9HashTableIddNS_17IdentityExtractorIdEENS_9FloatHashIdEENS_10HashTraitsIdEES6_E13allocateTableEi 0x057bf100
_ZN3WTF9HashTableIddNS_17IdentityExtractorIdEENS_9FloatHashIdEENS_10HashTraitsIdEES6_E6rehashEi 0x057bf198
_ZN3WTF9HashTableIddNS_17IdentityExtractorIdEENS_9FloatHashIdEENS_10HashTraitsIdEES6_E6expandEv 0x057bf404
_ZN3WTF9HashTableIddNS_17IdentityExtractorIdEENS_9FloatHashIdEENS_10HashTraitsIdEES6_E3addIddNS_22IdentityHashTranslatorIddS4_EEEESt4pairINS_17HashTableIteratorIddS2_S4_S6_S6_EEbERKT_RKT0_ 0x057bf4a8
_ZN3WTF7HashSetIdNS_9FloatHashIdEENS_10HashTraitsIdEEE3addERKd 0x057bf7b8
_ZNK3WTF9HashTableIddNS_17IdentityExtractorIdEENS_9FloatHashIdEENS_10HashTraitsIdEES6_E8containsIdNS_22IdentityHashTranslatorIddS4_EEEEbRKT_ 0x057bfb5c
_ZN3WTF6VectorIfLj0EEC1ERKS1_ 0x057c1c08
_ZN3WTF6VectorIfLj0EEC2ERKS1_ 0x057c688c
_ZN3JSC8jsNumberEPNS_9ExecStateEt 0x057d4840
_ZN3JSC8jsNumberEPNS_9ExecStateEy 0x057e2ee0
_ZN3JSC8jsNumberEPNS_9ExecStateEx 0x0581103c
_ZN3JSC8jsNumberEPNS_9ExecStateEm 0x05813f00
_ZN3JSC8jsNumberEPNS_9ExecStateEl 0x0581d574
_ZNK4QMapIP7QActionjE15mutableFindNodeEPPN8QMapData4NodeERKS1_ 0x058a19a0
_ZN4QMapIP7QActionjE8freeDataEP8QMapData 0x058a1a38
_ZN4QMapIP7QActionjE13detach_helperEv 0x058a1b1c
_fini 0x058a1d6c
_ZTV20C_BCM_BROWSER_SERVER 0x058a5ae8
_ZTV22com_MM_Browser_adaptor 0x058a5cb8
_ZTVN16BRO_Configurator22C_BCM_BRO_ConfiguratorE 0x058a5e38
_ZTVN10BRO_Common19C_BCM_BRO_BaseClassE 0x058a61e8
_ZTVN4DBus21C_BCM_BRO_DBusClientsE 0x058a6200
_ZTVN4DBus21C_BCM_BRO_DBusWrapperE 0x058a6218
_ZTVN7Manager17C_BCM_BRO_ManagerE 0x058a6270
_ZTVN8Executor13C_BCM_BrowserE 0x058a6328
_ZTV19C_BCM_DC_BRW_CLIENT 0x058a6360
_ZTV22C_BCM_Drive_BRW_CLIENT 0x058a63a8
_ZTV21C_BCM_NAVI_BRW_CLIENT 0x058a63e8
_ZTV19C_BCM_NA_BRW_CLIENT 0x058a6600
_ZTV20C_BCM_NVI_BRW_CLIENT 0x058a6648
_ZTV19C_BCM_UP_BRW_CLIENT 0x058a66f0
_ZTVN16BRO_Configurator13SelectRequestE 0x058a6720
_ZTVN16BRO_Configurator13DeleteRequestE 0x058a6740
_ZTVN16BRO_Configurator13UpdateRequestE 0x058a6760
_ZTVN16BRO_Configurator13InsertRequestE 0x058a6780
_ZTVN16BRO_Configurator14GenericRequestE 0x058a67a0
_ZTVN8Executor21C_BCM_CON_Cheat_CodesE 0x058a67c0
_ZTVN12Configurator22C_BCM_CON_ConfiguratorE 0x058a67d0
_ZTTSt19basic_ostringstreamIcSt11char_traitsIcESaIcEE 0x058a67f0
_ZTVSt19basic_ostringstreamIcSt11char_traitsIcESaIcEE 0x058a6800
_ZTCSt19basic_ostringstreamIcSt11char_traitsIcESaIcEE0_So 0x058a6828
_ZTVN6Common25C_BCM_CON_ObserverMessageE 0x058a6850
_ZTVN9Connector19C_BCM_CON_ConnectorE 0x058a6930
_ZTVN7Manager21C_BCM_CON_DbusHandlerE 0x058a6948
_ZTV28C_BCM_CON_DbusHandler_CLIENT 0x058a6958
_ZTV28C_BCM_CON_DbusHandler_SERVER 0x058a69f8
_ZTV27com_MM_Connectivity_adaptor 0x058a6b18
_ZTVN9Connector25C_BCM_CON_DriverWrapperBTE 0x058a6ba8
_ZTVN9Connector29C_BCM_CON_DriverWrapperBT_PANE 0x058a6bd8
_ZTVN9Connector30C_BCM_CON_DriverWrapperUSB_CDCE 0x058a6c08
_ZTVN9Connector23C_BCM_CON_GenericDriverE 0x058a6c38
_ZTVN7Manager17C_BCM_CON_ManagerE 0x058a6c68
_ZTVN6Common12PANProfile_tE 0x058a6d50
_ZTVN6Common13WifiProfile_tE 0x058a6d68
_ZTVN6Common12DunProfile_tE 0x058a6d80
_ZTVN6Common15UsbCDCProfile_tE 0x058a6d98
_ZTVN6Common14Usb3gProfile_tE 0x058a6db0
_ZTVN6Common9Profile_tE 0x058a6dc8
_ZTVN8Executor18C_BCM_ConnectivityE 0x058a6de0
_ZTVN6Common12C_BCM_SenderE 0x058a6e18
_ZTVN12Configurator13SelectRequestE 0x058a6e28
_ZTVN12Configurator13DeleteRequestE 0x058a6e48
_ZTVN12Configurator13UpdateRequestE 0x058a6e68
_ZTVN12Configurator13InsertRequestE 0x058a6e88
_ZTVN12Configurator14GenericRequestE 0x058a6ea8
_ZTV18C_HMI_INT_APP_BASE 0x058a9d90
_ZTV21C_HMI_INT_DisplayData 0x058a9e78
_ZTV12C_HMI_INT_F1 0x058a9eb8
_ZTV15C_HMI_INT_F1_Z0 0x058a9ee0
_ZTV29C_HMI_INET_BrowserMenu_BSC_Z1 0x058a9f20
_ZTV33C_HMI_INET_DUNDatatransfer_BSC_Z1 0x058a9f88
_ZTV39C_HMI_INET_DUNIdentifierEntering_VKB_Z1 0x058a9ff0
_ZTV46C_HMI_INET_DUNIdentifierModificationAPN_VKB_Z1 0x058aa070
_ZTV29C_HMI_INET_DUNSettings_CFM_Z1 0x058aa0f0
_ZTV34C_HMI_INET_FavoriteEntering_VKB_Z1 0x058aa158
_ZTV31C_HMI_INET_FavoritesMenu_M3Z_Z4 0x058aa1e0
_ZTV29C_HMI_INET_HistoryMenu_M3Z_Z4 0x058aa248
_ZTV38C_HMI_INET_POPUP_AddToFavorites_QST_Z1 0x058aa2b0
_ZTV42C_HMI_INET_POPUP_BrowserOptionsMenu_CTX_Z4 0x058aa2f8
_ZTV38C_HMI_INET_POPUP_DUNDNSEntering_VKB_Z1 0x058aa340
_ZTV43C_HMI_INET_POPUP_FavoriteItemRemoval_QST_Z1 0x058aa390
_ZTV40C_HMI_INET_POPUP_FreeTextEntering_VKB_Z1 0x058aa3d8
_ZTV43C_HMI_INET_POPUP_HistoricItemRemoval_QST_Z1 0x058aa428
_ZTV46C_HMI_INET_POPUP_InternetConnectionFail_INF_Z1 0x058aa470
_ZTV46C_HMI_INET_POPUP_InternetConnectionLost_INF_Z1 0x058aa4b8
_ZTV39C_HMI_INET_POPUP_LaunchPhoneCall_QST_Z1 0x058aa500
_ZTV36C_HMI_INET_POPUP_PasswordSave_QST_Z1 0x058aa548
_ZTV39C_HMI_INET_POPUP_SavePhoneNumber_QST_Z1 0x058aa590
_ZTV33C_HMI_INET_POPUP_SaveVcard_QST_Z1 0x058aa5d8
_ZTV46C_HMI_INET_POPUP_StopInternetConnection_INF_Z2 0x058aa620
_ZTV39C_HMI_INET_POPUP_WebNotAvailable_INF_Z1 0x058aa668
_ZTV40C_HMI_INET_POPUP_WebStopPlayingBT_QST_Z3 0x058aa6b0
_ZTV28C_HMI_INET_Secondary_Menu_Z1 0x058aa6f8
_ZTV29C_HMI_INET_URLEntering_VKB_Z1 0x058aa760
_ZTV27C_HMI_INET_UserGuide_BSC_Z1 0x058aa7e8
_ZTV20C_HMI_INT_MENU_STATE 0x058aa850
_ZTV24C_HMI_INT_MENU_STATE_VKB 0x058aa8b8
_ZTV15C_HMI_INT_POPUP 0x058aa938
_ZTV19C_HMI_INT_POPUP_INF 0x058aa950
_ZTV19C_HMI_INT_POPUP_PMS 0x058aa998
_ZTV21C_HMI_INT_POPUP_STATE 0x058aa9e0
_ZTV25C_HMI_INT_POPUP_STATE_VKB 0x058aaa28
_ZTV38C_HMI_INT_POPUP_VIE_INFO_EXPORT_STATUS 0x058aaa70
_ZTV16C_HMI_INT_Screen 0x058aaab8
_ZTV13C_HMI_INT_VKB 0x058aaac8
_ZN22C_Addon_BrowserWrapper16staticMetaObjectE 0x058aac18
_ZN17C_Addon_CookieJar16staticMetaObjectE 0x058abf7c
_ZN7Binding16staticMetaObjectE 0x058ac1d4
_ZN6Device16staticMetaObjectE 0x058ac1e4
_ZN7CarTime16staticMetaObjectE 0x058ac1f4
_ZN5Units16staticMetaObjectE 0x058ac204
_ZN4Trip16staticMetaObjectE 0x058ac214
_ZN3Car16staticMetaObjectE 0x058ac224
_ZN11SourceMedia16staticMetaObjectE 0x058ac234
_ZN11SourceRadio16staticMetaObjectE 0x058ac244
_ZN15CurrentPosition16staticMetaObjectE 0x058ac254
_ZN11Destination16staticMetaObjectE 0x058ac264
_ZN8Waypoint16staticMetaObjectE 0x058ac274
_ZN27C_Addon_JavascriptInterface16staticMetaObjectE 0x058ac284
_ZN22C_Addon_NetworkManager16staticMetaObjectE 0x058ad59c
_ZN15C_Addon_WebPage16staticMetaObjectE 0x058ad718
_ZN15C_Addon_WebView16staticMetaObjectE 0x058ad82c
_ZTV22C_Addon_BrowserWrapper 0x058b0f00
_ZTV17C_Addon_CookieJar 0x058b0f38
_ZTV27C_Addon_JavascriptInterface 0x058b0f78
_ZTV8Waypoint 0x058b0fb0
_ZTV11Destination 0x058b0fe8
_ZTV15CurrentPosition 0x058b1020
_ZTV11SourceRadio 0x058b1058
_ZTV11SourceMedia 0x058b1090
_ZTV3Car 0x058b10c8
_ZTV4Trip 0x058b1100
_ZTV5Units 0x058b1138
_ZTV7CarTime 0x058b1170
_ZTV6Device 0x058b11a8
_ZTV7Binding 0x058b11e0
_ZTV22C_Addon_NetworkManager 0x058b1218
_ZTV15C_Addon_WebPage 0x058b1258
_ZTV15C_Addon_WebView 0x058b12c0
_ZTVN18INET_ADDON_logging3LogE 0x058b13c0
_ZTTSt19basic_istringstreamIcSt11char_traitsIcESaIcEE 0x058b13d0
_ZTVSt19basic_istringstreamIcSt11char_traitsIcESaIcEE 0x058b13e0
_ZTCSt19basic_istringstreamIcSt11char_traitsIcESaIcEE0_Si 0x058b1408
_ZTV20C_GUI_InternetClient 0x058b1430
_ZTV22C_Addon_SpyDataHandler 0x058b1460
jsc_pcre_utf8_table1 0x058b1d34
jsc_pcre_utf8_table2 0x058b1d4c
jsc_pcre_utf8_table3 0x058b1d64
jsc_pcre_utf8_table4 0x058b1d7c
jsc_pcre_default_tables 0x058b1dbc
_ZN3JSC21JSCallbackConstructor4infoE 0x058b7c6c
_ZN3JSC18JSCallbackFunction4infoE 0x058b7c7c
_ZN3JSC16JSCallbackObjectINS_8JSObjectEE4infoE 0x058b7c8c
_ZN3JSC16JSCallbackObjectINS_14JSGlobalObjectEE4infoE 0x058b7c9c
kJSClassDefinitionEmpty 0x058b7cac
_ZN3JSC12JSActivation4infoE 0x058b7cf0
_ZN3JSC9Arguments4infoE 0x058b7d18
_ZN3JSC14ArrayPrototype4infoE 0x058b7d28
_ZN3JSC13BooleanObject4infoE 0x058b7e78
_ZN3JSC12DateInstance4infoE 0x058b7e88
_ZN3JSC13DatePrototype4infoE 0x058b7f94
_ZN3JSC13ErrorInstance4infoE 0x058b846c
_ZN3JSC16InternalFunction4infoE 0x058b847c
_ZN3JSC7JSArray4infoE 0x058b848c
_ZN3JSC11JSByteArray13s_defaultInfoE 0x058b849c
_ZN3JSC10JSFunction4infoE 0x058b84c0
_ZN3JSC10MathObject4infoE 0x058b8bbc
_ZN3JSC22NativeErrorConstructor4infoE 0x058b8cfc
_ZN3JSC17NumberConstructor4infoE 0x058b8e94
_ZN3JSC12NumberObject4infoE 0x058b8f04
_ZN3JSC17RegExpConstructor4infoE 0x058b8f14
_ZN3JSC12RegExpObject4infoE 0x058b9084
_ZN3JSC15RegExpPrototype4infoE 0x058b90f4
_ZN3JSC12StringObject4infoE 0x058b9104
_ZN3JSC15StringPrototype4infoE 0x058b9114
_ZN3WTF17MainThreadInvoker16staticMetaObjectE 0x058b9358
_ZN3JSC12RuntimeArray6s_infoE 0x058be514
_ZN3JSC13RuntimeMethod6s_infoE 0x058be524
_ZN3JSC16RuntimeObjectImp6s_infoE 0x058be534
_ZN3JSC8Bindings15QtRuntimeMethod6s_infoE 0x058d2d38
_ZN3JSC8Bindings18QtConnectionObject16staticMetaObjectE 0x058d2d48
_ZN8QWebPage16staticMetaObjectE 0x058d39c0
_ZN17QWebPluginFactory16staticMetaObjectE 0x058ee794
_ZN9QWebFrame16staticMetaObjectE 0x058ee824
_ZN8QWebView16staticMetaObjectE 0x058eeacc
_ZN20QWebHistoryInterface16staticMetaObjectE 0x058eedd8
_ZTVN3JSC6JSCellE 0x059bc2b0
_ZTSN3JSC6JSCellE 0x059bc324
_ZTIN3JSC6JSCellE 0x059bc334
_ZTIN3JSC7JSValueE 0x059bc340
_ZTSN3JSC7JSValueE 0x059bc358
_ZTIN14WTFNoncopyable11NoncopyableE 0x059bc368
_ZTSN14WTFNoncopyable11NoncopyableE 0x059bc370
_ZTVN3JSC7JSValueE 0x059bc390
_ZTVN3JSC21UStringSourceProviderE 0x059bc3a0
_ZTIN3JSC21UStringSourceProviderE 0x059bc3bc
_ZTSN3JSC21UStringSourceProviderE 0x059bc3c8
_ZTIN3JSC14SourceProviderE 0x059bc3e8
_ZTSN3JSC14SourceProviderE 0x059bc400
_ZTIN3WTF10RefCountedIN3JSC14SourceProviderEEE 0x059bc418
_ZTSN3WTF10RefCountedIN3JSC14SourceProviderEEE 0x059bc424
_ZTIN3WTF14RefCountedBaseE 0x059bc450
_ZTSN3WTF14RefCountedBaseE 0x059bc468
_ZTVN3JSC14SourceProviderE 0x059bc480
_ZTVN3JSC21JSCallbackConstructorE 0x059bc4a0
_ZTSN3JSC21JSCallbackConstructorE 0x059bc554
_ZTIN3JSC21JSCallbackConstructorE 0x059bc574
_ZTVN3JSC18JSCallbackFunctionE 0x059bc580
_ZTSN3JSC18JSCallbackFunctionE 0x059bc634
_ZTIN3JSC18JSCallbackFunctionE 0x059bc650
_ZTVN3JSC16JSCallbackObjectINS_8JSObjectEEE 0x059bc660
_ZTIN3JSC16JSCallbackObjectINS_8JSObjectEEE 0x059bc714
_ZTSN3JSC16JSCallbackObjectINS_8JSObjectEEE 0x059bc720
_ZTVN3JSC14JSGlobalObject18JSGlobalObjectDataE 0x059bc748
_ZTIN3JSC14JSGlobalObject18JSGlobalObjectDataE 0x059bc758
_ZTSN3JSC14JSGlobalObject18JSGlobalObjectDataE 0x059bc770
_ZTIN3JSC16JSVariableObject20JSVariableObjectDataE 0x059bc79c
_ZTSN3JSC16JSVariableObject20JSVariableObjectDataE 0x059bc7a4
_ZTVN3JSC16JSCallbackObjectINS_14JSGlobalObjectEEE 0x059bc7d8
_ZTIN3JSC16JSCallbackObjectINS_14JSGlobalObjectEEE 0x059bc8a4
_ZTSN3JSC16JSCallbackObjectINS_14JSGlobalObjectEEE 0x059bc8b0
_ZTVN3JSC12JSGlobalData10ClientDataE 0x059bca98
_ZTIN3JSC12JSGlobalData10ClientDataE 0x059bcaa8
_ZTSN3JSC12JSGlobalData10ClientDataE 0x059bcab0
_ZTVN3JSC14JSGlobalObjectE 0x059bcad8
_ZTSN3JSC14JSGlobalObjectE 0x059bcba4
_ZTIN3JSC14JSGlobalObjectE 0x059bcbbc
_ZTVN3JSC19JSStaticScopeObjectE 0x059bcbc8
_ZTSN3JSC19JSStaticScopeObjectE 0x059bcc84
_ZTIN3JSC19JSStaticScopeObjectE 0x059bcca0
_ZTVN3JSC16JSVariableObjectE 0x059bccb0
_ZTSN3JSC16JSVariableObjectE 0x059bcd68
_ZTIN3JSC16JSVariableObjectE 0x059bcd84
_ZTVN3JSC12JSActivationE 0x059bcd90
_ZTSN3JSC12JSActivationE 0x059bce48
_ZTIN3JSC12JSActivationE 0x059bce60
_ZTVN3JSC13JSNotAnObjectE 0x059bce70
_ZTSN3JSC13JSNotAnObjectE 0x059bcf24
_ZTIN3JSC13JSNotAnObjectE 0x059bcf3c
_ZTVN3JSC22JSNotAnObjectErrorStubE 0x059bcf48
_ZTIN3JSC22JSNotAnObjectErrorStubE 0x059bcffc
_ZTSN3JSC22JSNotAnObjectErrorStubE 0x059bd008
_ZTVN3JSC25InterruptedExecutionErrorE 0x059bd028
_ZTIN3JSC25InterruptedExecutionErrorE 0x059bd0dc
_ZTSN3JSC25InterruptedExecutionErrorE 0x059bd0e8
_ZTVN3JSC22JSPropertyNameIteratorE 0x059bd110
_ZTSN3JSC22JSPropertyNameIteratorE 0x059bd184
_ZTIN3JSC22JSPropertyNameIteratorE 0x059bd1a4
_ZTVN3JSC9ArgumentsE 0x059bd1b0
_ZTSN3JSC9ArgumentsE 0x059bd268
_ZTIN3JSC9ArgumentsE 0x059bd27c
_ZTVN3JSC16ArrayConstructorE 0x059bd288
_ZTSN3JSC16ArrayConstructorE 0x059bd33c
_ZTIN3JSC16ArrayConstructorE 0x059bd358
_ZTVN3JSC14ArrayPrototypeE 0x059bd368
_ZTSN3JSC14ArrayPrototypeE 0x059bd41c
_ZTIN3JSC14ArrayPrototypeE 0x059bd434
_ZTVN3JSC18BooleanConstructorE 0x059bd440
_ZTSN3JSC18BooleanConstructorE 0x059bd4f4
_ZTIN3JSC18BooleanConstructorE 0x059bd510
_ZTVN3JSC13BooleanObjectE 0x059bd520
_ZTIN3JSC13BooleanObjectE 0x059bd5d4
_ZTSN3JSC13BooleanObjectE 0x059bd5e0
_ZTVN3JSC16BooleanPrototypeE 0x059bd5f8
_ZTIN3JSC16BooleanPrototypeE 0x059bd6ac
_ZTSN3JSC16BooleanPrototypeE 0x059bd6b8
_ZZN3JSC4Heap12heapAllocateILNS_8HeapTypeE1EEEPvjE12maxNumBlocks 0x059bd6d4
_ZZN3JSC4Heap12heapAllocateILNS_8HeapTypeE0EEEPvjE12maxNumBlocks 0x059bd6d8
_ZTVN3JSC15DateConstructorE 0x059bd6e0
_ZTSN3JSC15DateConstructorE 0x059bd794
_ZTIN3JSC15DateConstructorE 0x059bd7ac
_ZTVN3JSC12DateInstanceE 0x059bd7b8
_ZTSN3JSC12DateInstanceE 0x059bd86c
_ZTIN3JSC12DateInstanceE 0x059bd884
_ZTVN3JSC13DatePrototypeE 0x059bd890
_ZTSN3JSC13DatePrototypeE 0x059bd944
_ZTIN3JSC13DatePrototypeE 0x059bd95c
_ZTVN3JSC8DebuggerE 0x059bd968
_ZTSN3JSC8DebuggerE 0x059bd998
_ZTIN3JSC8DebuggerE 0x059bd9a8
_ZTVN3JSC16ErrorConstructorE 0x059bd9b0
_ZTSN3JSC16ErrorConstructorE 0x059bda64
_ZTIN3JSC16ErrorConstructorE 0x059bda80
_ZTVN3JSC13ErrorInstanceE 0x059bda90
_ZTIN3JSC13ErrorInstanceE 0x059bdb44
_ZTSN3JSC13ErrorInstanceE 0x059bdb50
_ZTVN3JSC14ErrorPrototypeE 0x059bdb68
_ZTIN3JSC14ErrorPrototypeE 0x059bdc1c
_ZTSN3JSC14ErrorPrototypeE 0x059bdc28
_ZTVN3JSC19FunctionConstructorE 0x059bdc40
_ZTSN3JSC19FunctionConstructorE 0x059bdcf4
_ZTIN3JSC19FunctionConstructorE 0x059bdd10
_ZTVN3JSC17FunctionPrototypeE 0x059bdd20
_ZTSN3JSC17FunctionPrototypeE 0x059bddd4
_ZTIN3JSC17FunctionPrototypeE 0x059bddf0
_ZTVN3JSC12GetterSetterE 0x059bde00
_ZTSN3JSC12GetterSetterE 0x059bde74
_ZTIN3JSC12GetterSetterE 0x059bde8c
_ZTVN3JSC18GlobalEvalFunctionE 0x059bde98
_ZTSN3JSC18GlobalEvalFunctionE 0x059bdf4c
_ZTIN3JSC18GlobalEvalFunctionE 0x059bdf68
_ZTVN3JSC16InternalFunctionE 0x059bdf78
_ZTSN3JSC16InternalFunctionE 0x059be02c
_ZTIN3JSC16InternalFunctionE 0x059be048
_ZTVN3JSC7JSArrayE 0x059be058
_ZTSN3JSC7JSArrayE 0x059be10c
_ZTIN3JSC7JSArrayE 0x059be11c
_ZTVN3JSC11JSByteArrayE 0x059be128
_ZTSN3JSC11JSByteArrayE 0x059be1dc
_ZTIN3JSC11JSByteArrayE 0x059be1f0
_ZTVN3JSC10JSFunctionE 0x059be200
_ZTSN3JSC10JSFunctionE 0x059be2b4
_ZTIN3JSC10JSFunctionE 0x059be2c8
_ZTVN3JSC12JSNumberCellE 0x059be2d8
_ZTSN3JSC12JSNumberCellE 0x059be34c
_ZTIN3JSC12JSNumberCellE 0x059be364
_ZTVN3JSC8JSObjectE 0x059be370
_ZTSN3JSC8JSObjectE 0x059be424
_ZTIN3JSC8JSObjectE 0x059be434
_ZTVN3JSC8JSStringE 0x059be440
_ZTSN3JSC8JSStringE 0x059be4b4
_ZTIN3JSC8JSStringE 0x059be4c4
_ZTVN3JSC15JSWrapperObjectE 0x059be4d0
_ZTSN3JSC15JSWrapperObjectE 0x059be584
_ZTIN3JSC15JSWrapperObjectE 0x059be59c
_ZTVN3JSC10MathObjectE 0x059be5a8
_ZTSN3JSC10MathObjectE 0x059be65c
_ZTIN3JSC10MathObjectE 0x059be670
_ZTVN3JSC22NativeErrorConstructorE 0x059be680
_ZTSN3JSC22NativeErrorConstructorE 0x059be734
_ZTIN3JSC22NativeErrorConstructorE 0x059be754
_ZTVN3JSC20NativeErrorPrototypeE 0x059be760
_ZTIN3JSC20NativeErrorPrototypeE 0x059be814
_ZTSN3JSC20NativeErrorPrototypeE 0x059be820
_ZTVN3JSC12FuncExprNodeE 0x059be840
_ZTVN3JSC12FuncDeclNodeE 0x059be880
_ZTVN3JSC16FunctionBodyNodeE 0x059be8b0
_ZTVN3JSC8EvalNodeE 0x059be8e0
_ZTVN3JSC11ProgramNodeE 0x059be910
_ZTVN3JSC9ScopeNodeE 0x059be940
_ZTVN3JSC13ParameterNodeE 0x059be970
_ZTVN3JSC7TryNodeE 0x059be988
_ZTVN3JSC9ThrowNodeE 0x059be9b8
_ZTVN3JSC9LabelNodeE 0x059be9e8
_ZTVN3JSC10SwitchNodeE 0x059bea18
_ZTVN3JSC13CaseBlockNodeE 0x059bea48
_ZTVN3JSC14ClauseListNodeE 0x059bea60
_ZTVN3JSC14CaseClauseNodeE 0x059bea78
_ZTVN3JSC8WithNodeE 0x059bea90
_ZTVN3JSC10ReturnNodeE 0x059beac0
_ZTVN3JSC9BreakNodeE 0x059beaf0
_ZTVN3JSC12ContinueNodeE 0x059beb20
_ZTVN3JSC9ForInNodeE 0x059beb50
_ZTVN3JSC7ForNodeE 0x059beb80
_ZTVN3JSC9WhileNodeE 0x059bebb0
_ZTVN3JSC11DoWhileNodeE 0x059bebe0
_ZTVN3JSC10IfElseNodeE 0x059bec10
_ZTVN3JSC6IfNodeE 0x059bec40
_ZTVN3JSC16VarStatementNodeE 0x059bec70
_ZTVN3JSC17ExprStatementNodeE 0x059beca0
_ZTVN3JSC21DebuggerStatementNodeE 0x059becd0
_ZTVN3JSC18EmptyStatementNodeE 0x059bed00
_ZTVN3JSC9BlockNodeE 0x059bed30
_ZTVN3JSC18ConstStatementNodeE 0x059bed60
_ZTVN3JSC13ConstDeclNodeE 0x059bed90
_ZTVN3JSC9CommaNodeE 0x059bedd8
_ZTVN3JSC21ReadModifyBracketNodeE 0x059bee18
_ZTVN3JSC17AssignBracketNodeE 0x059bee58
_ZTVN3JSC15AssignErrorNodeE 0x059bee98
_ZTVN3JSC17ReadModifyDotNodeE 0x059beed8
_ZTVN3JSC13AssignDotNodeE 0x059bef18
_ZTVN3JSC17AssignResolveNodeE 0x059bef58
_ZTVN3JSC21ReadModifyResolveNodeE 0x059bef98
_ZTVN3JSC15ConditionalNodeE 0x059befd8
_ZTVN3JSC13LogicalOpNodeE 0x059bf018
_ZTVN3JSC14InstanceOfNodeE 0x059bf058
_ZTVN3JSC21ThrowableBinaryOpNodeE 0x059bf0a0
_ZTVN3JSC19ReverseBinaryOpNodeE 0x059bf0e8
_ZTVN3JSC15StrictEqualNodeE 0x059bf130
_ZTVN3JSC9EqualNodeE 0x059bf178
_ZTVN3JSC12BinaryOpNodeE 0x059bf1c0
_ZTVN3JSC11UnaryOpNodeE 0x059bf208
_ZTVN3JSC15PrefixErrorNodeE 0x059bf250
_ZTVN3JSC13PrefixDotNodeE 0x059bf290
_ZTVN3JSC17PrefixBracketNodeE 0x059bf2d0
_ZTVN3JSC17PrefixResolveNodeE 0x059bf310
_ZTVN3JSC15TypeOfValueNodeE 0x059bf350
_ZTVN3JSC17TypeOfResolveNodeE 0x059bf390
_ZTVN3JSC8VoidNodeE 0x059bf3d0
_ZTVN3JSC15DeleteValueNodeE 0x059bf410
_ZTVN3JSC13DeleteDotNodeE 0x059bf450
_ZTVN3JSC17DeleteBracketNodeE 0x059bf490
_ZTVN3JSC17DeleteResolveNodeE 0x059bf4d0
_ZTVN3JSC16PostfixErrorNodeE 0x059bf510
_ZTVN3JSC14PostfixDotNodeE 0x059bf550
_ZTVN3JSC18PostfixBracketNodeE 0x059bf590
_ZTVN3JSC18PostfixResolveNodeE 0x059bf5d0
_ZTVN3JSC19FunctionCallDotNodeE 0x059bf610
_ZTVN3JSC23FunctionCallBracketNodeE 0x059bf650
_ZTVN3JSC23FunctionCallResolveNodeE 0x059bf690
_ZTVN3JSC21FunctionCallValueNodeE 0x059bf6d0
_ZTVN3JSC20EvalFunctionCallNodeE 0x059bf710
_ZTVN3JSC11NewExprNodeE 0x059bf750
_ZTVN3JSC13ArgumentsNodeE 0x059bf790
_ZTVN3JSC16ArgumentListNodeE 0x059bf7a8
_ZTVN3JSC15DotAccessorNodeE 0x059bf7c0
_ZTVN3JSC19BracketAccessorNodeE 0x059bf800
_ZTVN3JSC16PropertyListNodeE 0x059bf840
_ZTVN3JSC17ObjectLiteralNodeE 0x059bf858
_ZTVN3JSC12PropertyNodeE 0x059bf898
_ZTVN3JSC9ArrayNodeE 0x059bf8b0
_ZTVN3JSC11ElementNodeE 0x059bf8f0
_ZTVN3JSC11ResolveNodeE 0x059bf908
_ZTVN3JSC8ThisNodeE 0x059bf948
_ZTVN3JSC10RegExpNodeE 0x059bf988
_ZTVN3JSC10StringNodeE 0x059bf9c8
_ZTVN3JSC10NumberNodeE 0x059bfa08
_ZTVN3JSC11BooleanNodeE 0x059bfa48
_ZTVN3JSC8NullNodeE 0x059bfa88
_ZTVN3JSC16ParserRefCountedE 0x059bfac8
_ZTSN3JSC10SwitchNodeE 0x059bfadc
_ZTIN3JSC10SwitchNodeE 0x059bfaf0
_ZTSN3JSC13CaseBlockNodeE 0x059bfafc
_ZTIN3JSC13CaseBlockNodeE 0x059bfb14
_ZTSN3JSC14ClauseListNodeE 0x059bfb20
_ZTIN3JSC14ClauseListNodeE 0x059bfb38
_ZTSN3JSC14CaseClauseNodeE 0x059bfb44
_ZTIN3JSC14CaseClauseNodeE 0x059bfb5c
_ZTSN3JSC12FuncDeclNodeE 0x059bfb68
_ZTIN3JSC12FuncDeclNodeE 0x059bfb80
_ZTSN3JSC12FuncExprNodeE 0x059bfb8c
_ZTIN3JSC12FuncExprNodeE 0x059bfba4
_ZTSN3JSC16FunctionBodyNodeE 0x059bfbb0
_ZTIN3JSC16FunctionBodyNodeE 0x059bfbcc
_ZTSN3JSC8EvalNodeE 0x059bfbd8
_ZTIN3JSC8EvalNodeE 0x059bfbe8
_ZTSN3JSC11ProgramNodeE 0x059bfbf4
_ZTIN3JSC11ProgramNodeE 0x059bfc08
_ZTSN3JSC9ScopeNodeE 0x059bfc14
_ZTIN3JSC9ScopeNodeE 0x059bfc28
_ZTSN3JSC13ParameterNodeE 0x059bfc34
_ZTIN3JSC13ParameterNodeE 0x059bfc4c
_ZTSN3JSC7TryNodeE 0x059bfc58
_ZTIN3JSC7TryNodeE 0x059bfc68
_ZTSN3JSC9ThrowNodeE 0x059bfc74
_ZTIN3JSC9ThrowNodeE 0x059bfc88
_ZTSN3JSC9LabelNodeE 0x059bfca8
_ZTIN3JSC9LabelNodeE 0x059bfcbc
_ZTSN3JSC8WithNodeE 0x059bfcdc
_ZTIN3JSC8WithNodeE 0x059bfcec
_ZTSN3JSC10ReturnNodeE 0x059bfcf8
_ZTIN3JSC10ReturnNodeE 0x059bfd0c
_ZTSN3JSC9BreakNodeE 0x059bfd2c
_ZTIN3JSC9BreakNodeE 0x059bfd40
_ZTSN3JSC12ContinueNodeE 0x059bfd60
_ZTIN3JSC12ContinueNodeE 0x059bfd78
_ZTSN3JSC9ForInNodeE 0x059bfd98
_ZTIN3JSC9ForInNodeE 0x059bfdac
_ZTSN3JSC7ForNodeE 0x059bfdcc
_ZTIN3JSC7ForNodeE 0x059bfddc
_ZTSN3JSC9WhileNodeE 0x059bfde8
_ZTIN3JSC9WhileNodeE 0x059bfdfc
_ZTSN3JSC11DoWhileNodeE 0x059bfe08
_ZTIN3JSC11DoWhileNodeE 0x059bfe1c
_ZTSN3JSC10IfElseNodeE 0x059bfe28
_ZTIN3JSC10IfElseNodeE 0x059bfe3c
_ZTSN3JSC6IfNodeE 0x059bfe48
_ZTIN3JSC6IfNodeE 0x059bfe58
_ZTSN3JSC16VarStatementNodeE 0x059bfe64
_ZTIN3JSC16VarStatementNodeE 0x059bfe80
_ZTSN3JSC17ExprStatementNodeE 0x059bfe8c
_ZTIN3JSC17ExprStatementNodeE 0x059bfea8
_ZTSN3JSC21DebuggerStatementNodeE 0x059bfeb4
_ZTIN3JSC21DebuggerStatementNodeE 0x059bfed4
_ZTSN3JSC18EmptyStatementNodeE 0x059bfee0
_ZTIN3JSC18EmptyStatementNodeE 0x059bfefc
_ZTSN3JSC9BlockNodeE 0x059bff08
_ZTIN3JSC9BlockNodeE 0x059bff1c
_ZTSN3JSC18ConstStatementNodeE 0x059bff28
_ZTIN3JSC18ConstStatementNodeE 0x059bff44
_ZTSN3JSC13ConstDeclNodeE 0x059bff50
_ZTIN3JSC13ConstDeclNodeE 0x059bff68
_ZTSN3JSC9CommaNodeE 0x059bff74
_ZTIN3JSC9CommaNodeE 0x059bff88
_ZTSN3JSC15AssignErrorNodeE 0x059bff94
_ZTIN3JSC15AssignErrorNodeE 0x059bffac
_ZTSN3JSC17ReadModifyDotNodeE 0x059bffcc
_ZTIN3JSC17ReadModifyDotNodeE 0x059bffe8
_ZTSN3JSC13AssignDotNodeE 0x059c0008
_ZTIN3JSC13AssignDotNodeE 0x059c0020
_ZTSN3JSC17AssignBracketNodeE 0x059c0040
_ZTIN3JSC17AssignBracketNodeE 0x059c005c
_ZTSN3JSC21ReadModifyBracketNodeE 0x059c007c
_ZTIN3JSC21ReadModifyBracketNodeE 0x059c009c
_ZTSN3JSC17AssignResolveNodeE 0x059c00bc
_ZTIN3JSC17AssignResolveNodeE 0x059c00d8
_ZTSN3JSC21ReadModifyResolveNodeE 0x059c00f8
_ZTIN3JSC21ReadModifyResolveNodeE 0x059c0118
_ZTSN3JSC15ConditionalNodeE 0x059c0138
_ZTIN3JSC15ConditionalNodeE 0x059c0150
_ZTSN3JSC13LogicalOpNodeE 0x059c015c
_ZTIN3JSC13LogicalOpNodeE 0x059c0174
_ZTSN3JSC15StrictEqualNodeE 0x059c0180
_ZTIN3JSC15StrictEqualNodeE 0x059c0198
_ZTSN3JSC9EqualNodeE 0x059c01a4
_ZTIN3JSC9EqualNodeE 0x059c01b8
_ZTSN3JSC14InstanceOfNodeE 0x059c01c4
_ZTIN3JSC14InstanceOfNodeE 0x059c01dc
_ZTSN3JSC21ThrowableBinaryOpNodeE 0x059c01e8
_ZTIN3JSC21ThrowableBinaryOpNodeE 0x059c0208
_ZTSN3JSC19ReverseBinaryOpNodeE 0x059c0228
_ZTIN3JSC19ReverseBinaryOpNodeE 0x059c0244
_ZTSN3JSC12BinaryOpNodeE 0x059c0250
_ZTIN3JSC12BinaryOpNodeE 0x059c0268
_ZTSN3JSC11UnaryOpNodeE 0x059c0274
_ZTIN3JSC11UnaryOpNodeE 0x059c0288
_ZTSN3JSC15PrefixErrorNodeE 0x059c0294
_ZTIN3JSC15PrefixErrorNodeE 0x059c02ac
_ZTSN3JSC13PrefixDotNodeE 0x059c02cc
_ZTIN3JSC13PrefixDotNodeE 0x059c02e4
_ZTSN3JSC17PrefixBracketNodeE 0x059c0304
_ZTIN3JSC17PrefixBracketNodeE 0x059c0320
_ZTSN3JSC17PrefixResolveNodeE 0x059c0340
_ZTIN3JSC17PrefixResolveNodeE 0x059c035c
_ZTSN3JSC15TypeOfValueNodeE 0x059c0368
_ZTIN3JSC15TypeOfValueNodeE 0x059c0380
_ZTSN3JSC17TypeOfResolveNodeE 0x059c038c
_ZTIN3JSC17TypeOfResolveNodeE 0x059c03a8
_ZTSN3JSC8VoidNodeE 0x059c03b4
_ZTIN3JSC8VoidNodeE 0x059c03c4
_ZTSN3JSC15DeleteValueNodeE 0x059c03d0
_ZTIN3JSC15DeleteValueNodeE 0x059c03e8
_ZTSN3JSC13DeleteDotNodeE 0x059c03f4
_ZTIN3JSC13DeleteDotNodeE 0x059c040c
_ZTSN3JSC17DeleteBracketNodeE 0x059c042c
_ZTIN3JSC17DeleteBracketNodeE 0x059c0448
_ZTSN3JSC17DeleteResolveNodeE 0x059c0468
_ZTIN3JSC17DeleteResolveNodeE 0x059c0484
_ZTSN3JSC16PostfixErrorNodeE 0x059c04a4
_ZTIN3JSC16PostfixErrorNodeE 0x059c04c0
_ZTSN3JSC14PostfixDotNodeE 0x059c04e0
_ZTIN3JSC14PostfixDotNodeE 0x059c04f8
_ZTSN3JSC18PostfixBracketNodeE 0x059c0518
_ZTIN3JSC18PostfixBracketNodeE 0x059c0534
_ZTSN3JSC18PostfixResolveNodeE 0x059c0554
_ZTIN3JSC18PostfixResolveNodeE 0x059c0570
_ZTSN3JSC19FunctionCallDotNodeE 0x059c057c
_ZTIN3JSC19FunctionCallDotNodeE 0x059c0598
_ZTSN3JSC23FunctionCallBracketNodeE 0x059c05b8
_ZTIN3JSC23FunctionCallBracketNodeE 0x059c05d8
_ZTSN3JSC23FunctionCallResolveNodeE 0x059c05f8
_ZTIN3JSC23FunctionCallResolveNodeE 0x059c0618
_ZTSN3JSC21FunctionCallValueNodeE 0x059c0638
_ZTIN3JSC21FunctionCallValueNodeE 0x059c0658
_ZTSN3JSC20EvalFunctionCallNodeE 0x059c0678
_ZTIN3JSC20EvalFunctionCallNodeE 0x059c0698
_ZTSN3JSC11NewExprNodeE 0x059c06b8
_ZTIN3JSC11NewExprNodeE 0x059c06cc
_ZTSN3JSC13ArgumentsNodeE 0x059c06ec
_ZTIN3JSC13ArgumentsNodeE 0x059c0704
_ZTSN3JSC16ArgumentListNodeE 0x059c0710
_ZTIN3JSC16ArgumentListNodeE 0x059c072c
_ZTSN3JSC15DotAccessorNodeE 0x059c0738
_ZTIN3JSC15DotAccessorNodeE 0x059c0750
_ZTSN3JSC19BracketAccessorNodeE 0x059c0770
_ZTIN3JSC19BracketAccessorNodeE 0x059c078c
_ZTSN3JSC17ObjectLiteralNodeE 0x059c07ac
_ZTIN3JSC17ObjectLiteralNodeE 0x059c07c8
_ZTSN3JSC16PropertyListNodeE 0x059c07d4
_ZTIN3JSC16PropertyListNodeE 0x059c07f0
_ZTSN3JSC12PropertyNodeE 0x059c07fc
_ZTIN3JSC12PropertyNodeE 0x059c0814
_ZTSN3JSC9ArrayNodeE 0x059c0820
_ZTIN3JSC9ArrayNodeE 0x059c0834
_ZTSN3JSC11ElementNodeE 0x059c0840
_ZTIN3JSC11ElementNodeE 0x059c0854
_ZTSN3JSC11ResolveNodeE 0x059c0860
_ZTIN3JSC11ResolveNodeE 0x059c0874
_ZTSN3JSC8ThisNodeE 0x059c0880
_ZTIN3JSC8ThisNodeE 0x059c0890
_ZTSN3JSC10RegExpNodeE 0x059c089c
_ZTIN3JSC10RegExpNodeE 0x059c08b0
_ZTSN3JSC10StringNodeE 0x059c08d0
_ZTIN3JSC10StringNodeE 0x059c08e4
_ZTSN3JSC10NumberNodeE 0x059c08f0
_ZTIN3JSC10NumberNodeE 0x059c0904
_ZTSN3JSC11BooleanNodeE 0x059c0910
_ZTIN3JSC11BooleanNodeE 0x059c0924
_ZTSN3JSC8NullNodeE 0x059c0930
_ZTIN3JSC8NullNodeE 0x059c0940
_ZTSN3JSC16ParserRefCountedE 0x059c094c
_ZTIN3JSC16ParserRefCountedE 0x059c0968
_ZTIN3JSC13StatementNodeE 0x059c0980
_ZTIN3JSC14ExpressionNodeE 0x059c098c
_ZTIN3JSC23ThrowableExpressionDataE 0x059c0998
_ZTIN3JSC26ThrowableSubExpressionDataE 0x059c09a0
_ZTIN3JSC34ThrowablePrefixedSubExpressionDataE 0x059c09ac
_ZTIN3JSC18PrePostResolveNodeE 0x059c09b8
_ZTIN3JSC4NodeE 0x059c09d8
_ZTSN3JSC13StatementNodeE 0x059c09e4
_ZTSN3JSC14ExpressionNodeE 0x059c09fc
_ZTSN3JSC23ThrowableExpressionDataE 0x059c0a14
_ZTSN3JSC26ThrowableSubExpressionDataE 0x059c0a34
_ZTSN3JSC34ThrowablePrefixedSubExpressionDataE 0x059c0a58
_ZTSN3JSC18PrePostResolveNodeE 0x059c0a84
_ZTSN3JSC4NodeE 0x059c0aa0
_ZTVN3JSC14ExpressionNodeE 0x059c0ab0
_ZTVN3JSC4NodeE 0x059c0af0
_ZTVN3JSC18PrePostResolveNodeE 0x059c0b08
_ZTVN3JSC13StatementNodeE 0x059c0b48
_ZTVN3JSC17NumberConstructorE 0x059c0b78
_ZTSN3JSC17NumberConstructorE 0x059c0c2c
_ZTIN3JSC17NumberConstructorE 0x059c0c48
_ZTVN3JSC12NumberObjectE 0x059c0c58
_ZTSN3JSC12NumberObjectE 0x059c0d0c
_ZTIN3JSC12NumberObjectE 0x059c0d24
_ZTVN3JSC15NumberPrototypeE 0x059c0d30
_ZTIN3JSC15NumberPrototypeE 0x059c0de4
_ZTSN3JSC15NumberPrototypeE 0x059c0df0
_ZTVN3JSC17ObjectConstructorE 0x059c0e08
_ZTSN3JSC17ObjectConstructorE 0x059c0ebc
_ZTIN3JSC17ObjectConstructorE 0x059c0ed8
_ZTVN3JSC15ObjectPrototypeE 0x059c0ee8
_ZTIN3JSC15ObjectPrototypeE 0x059c0f9c
_ZTSN3JSC15ObjectPrototypeE 0x059c0fa8
_ZTVN3JSC17PrototypeFunctionE 0x059c0fc0
_ZTSN3JSC17PrototypeFunctionE 0x059c1074
_ZTIN3JSC17PrototypeFunctionE 0x059c1090
_ZTVN3JSC17RegExpConstructorE 0x059c10a0
_ZTVN3JSC18RegExpMatchesArrayE 0x059c1158
_ZTSN3JSC18RegExpMatchesArrayE 0x059c120c
_ZTIN3JSC18RegExpMatchesArrayE 0x059c1228
_ZTSN3JSC17RegExpConstructorE 0x059c1234
_ZTIN3JSC17RegExpConstructorE 0x059c1250
_ZTVN3JSC12RegExpObjectE 0x059c1260
_ZTSN3JSC12RegExpObjectE 0x059c1314
_ZTIN3JSC12RegExpObjectE 0x059c132c
_ZTVN3JSC15RegExpPrototypeE 0x059c1338
_ZTIN3JSC15RegExpPrototypeE 0x059c13ec
_ZTSN3JSC15RegExpPrototypeE 0x059c13f8
_ZTVN3JSC17StringConstructorE 0x059c1410
_ZTSN3JSC17StringConstructorE 0x059c14c4
_ZTIN3JSC17StringConstructorE 0x059c14e0
_ZTVN3JSC12StringObjectE 0x059c14f0
_ZTSN3JSC12StringObjectE 0x059c15a4
_ZTIN3JSC12StringObjectE 0x059c15bc
_ZTVN3JSC15StringPrototypeE 0x059c15c8
_ZTSN3JSC15StringPrototypeE 0x059c167c
_ZTIN3JSC15StringPrototypeE 0x059c1694
_ZTVN3JSC12HeavyProfileE 0x059c16a0
_ZTIN3JSC12HeavyProfileE 0x059c16b8
_ZTSN3JSC12HeavyProfileE 0x059c16c4
_ZTVN3JSC7ProfileE 0x059c16e0
_ZTSN3JSC7ProfileE 0x059c16f8
_ZTIN3JSC7ProfileE 0x059c1708
_ZTIN3WTF10RefCountedIN3JSC7ProfileEEE 0x059c1720
_ZTSN3WTF10RefCountedIN3JSC7ProfileEEE 0x059c172c
_ZTVN3JSC11TreeProfileE 0x059c1750
_ZTSN3JSC11TreeProfileE 0x059c1768
_ZTIN3JSC11TreeProfileE 0x059c177c
_ZTVN3WTF13ThreadPrivateE 0x059c1788
_ZTSN3WTF13ThreadPrivateE 0x059c17c4
_ZTIN3WTF13ThreadPrivateE 0x059c17dc
_ZTVN3WTF17MainThreadInvokerE 0x059c17e8
_ZTSN3WTF17MainThreadInvokerE 0x059c1820
_ZTIN3WTF17MainThreadInvokerE 0x059c183c
_ZTVN3JSC13UnaryPlusNodeE 0x059c1848
_ZTIN3JSC13UnaryPlusNodeE 0x059c188c
_ZTSN3JSC13UnaryPlusNodeE 0x059c1898
_ZTVN3JSC10NegateNodeE 0x059c18b0
_ZTIN3JSC10NegateNodeE 0x059c18f4
_ZTSN3JSC10NegateNodeE 0x059c1900
_ZTVN3JSC14BitwiseNotNodeE 0x059c1918
_ZTIN3JSC14BitwiseNotNodeE 0x059c195c
_ZTSN3JSC14BitwiseNotNodeE 0x059c1968
_ZTVN3JSC14LogicalNotNodeE 0x059c1980
_ZTIN3JSC14LogicalNotNodeE 0x059c19c4
_ZTSN3JSC14LogicalNotNodeE 0x059c19d0
_ZTVN3JSC8MultNodeE 0x059c19e8
_ZTIN3JSC8MultNodeE 0x059c1a2c
_ZTSN3JSC8MultNodeE 0x059c1a38
_ZTVN3JSC7DivNodeE 0x059c1a48
_ZTIN3JSC7DivNodeE 0x059c1a8c
_ZTSN3JSC7DivNodeE 0x059c1a98
_ZTVN3JSC7ModNodeE 0x059c1aa8
_ZTIN3JSC7ModNodeE 0x059c1aec
_ZTSN3JSC7ModNodeE 0x059c1af8
_ZTVN3JSC7AddNodeE 0x059c1b08
_ZTIN3JSC7AddNodeE 0x059c1b4c
_ZTSN3JSC7AddNodeE 0x059c1b58
_ZTVN3JSC7SubNodeE 0x059c1b68
_ZTIN3JSC7SubNodeE 0x059c1bac
_ZTSN3JSC7SubNodeE 0x059c1bb8
_ZTVN3JSC13LeftShiftNodeE 0x059c1bc8
_ZTIN3JSC13LeftShiftNodeE 0x059c1c0c
_ZTSN3JSC13LeftShiftNodeE 0x059c1c18
_ZTVN3JSC14RightShiftNodeE 0x059c1c30
_ZTIN3JSC14RightShiftNodeE 0x059c1c74
_ZTSN3JSC14RightShiftNodeE 0x059c1c80
_ZTVN3JSC22UnsignedRightShiftNodeE 0x059c1c98
_ZTIN3JSC22UnsignedRightShiftNodeE 0x059c1cdc
_ZTSN3JSC22UnsignedRightShiftNodeE 0x059c1ce8
_ZTVN3JSC8LessNodeE 0x059c1d08
_ZTIN3JSC8LessNodeE 0x059c1d4c
_ZTSN3JSC8LessNodeE 0x059c1d58
_ZTVN3JSC11GreaterNodeE 0x059c1d68
_ZTIN3JSC11GreaterNodeE 0x059c1dac
_ZTSN3JSC11GreaterNodeE 0x059c1db8
_ZTVN3JSC10LessEqNodeE 0x059c1dd0
_ZTIN3JSC10LessEqNodeE 0x059c1e14
_ZTSN3JSC10LessEqNodeE 0x059c1e20
_ZTVN3JSC13GreaterEqNodeE 0x059c1e38
_ZTIN3JSC13GreaterEqNodeE 0x059c1e7c
_ZTSN3JSC13GreaterEqNodeE 0x059c1e88
_ZTVN3JSC6InNodeE 0x059c1ea0
_ZTIN3JSC6InNodeE 0x059c1ee4
_ZTSN3JSC6InNodeE 0x059c1ef0
_ZTVN3JSC12NotEqualNodeE 0x059c1f00
_ZTIN3JSC12NotEqualNodeE 0x059c1f44
_ZTSN3JSC12NotEqualNodeE 0x059c1f50
_ZTVN3JSC18NotStrictEqualNodeE 0x059c1f68
_ZTIN3JSC18NotStrictEqualNodeE 0x059c1fac
_ZTSN3JSC18NotStrictEqualNodeE 0x059c1fb8
_ZTVN3JSC10BitAndNodeE 0x059c1fd8
_ZTIN3JSC10BitAndNodeE 0x059c201c
_ZTSN3JSC10BitAndNodeE 0x059c2028
_ZTVN3JSC10BitXOrNodeE 0x059c2040
_ZTIN3JSC10BitXOrNodeE 0x059c2084
_ZTSN3JSC10BitXOrNodeE 0x059c2090
_ZTVN3JSC9BitOrNodeE 0x059c20a8
_ZTIN3JSC9BitOrNodeE 0x059c20ec
_ZTSN3JSC9BitOrNodeE 0x059c20f8
_ZTVN3JSC16VarDeclCommaNodeE 0x059c2110
_ZTIN3JSC16VarDeclCommaNodeE 0x059c2150
_ZTSN3JSC16VarDeclCommaNodeE 0x059c215c
_ZTVN3JSC20ParserRefCountedDataIN3WTF6VectorISt4pairINS_10IdentifierEjELj0EEEEE 0x059c2178
_ZTIN3JSC20ParserRefCountedDataIN3WTF6VectorISt4pairINS_10IdentifierEjELj0EEEEE 0x059c218c
_ZTSN3JSC20ParserRefCountedDataIN3WTF6VectorISt4pairINS_10IdentifierEjELj0EEEEE 0x059c2198
_ZTVN3JSC20ParserRefCountedDataIN3WTF6VectorINS1_6RefPtrINS_12FuncDeclNodeEEELj0EEEEE 0x059c21e8
_ZTIN3JSC20ParserRefCountedDataIN3WTF6VectorINS1_6RefPtrINS_12FuncDeclNodeEEELj0EEEEE 0x059c21fc
_ZTSN3JSC20ParserRefCountedDataIN3WTF6VectorINS1_6RefPtrINS_12FuncDeclNodeEEELj0EEEEE 0x059c2208
_ZTVN3JSC14SourceElementsE 0x059c2260
_ZTIN3JSC14SourceElementsE 0x059c2274
_ZTSN3JSC14SourceElementsE 0x059c2280
_ZTVN3JSC38StringObjectThatMasqueradesAsUndefinedE 0x059c2448
_ZTIN3JSC38StringObjectThatMasqueradesAsUndefinedE 0x059c24fc
_ZTSN3JSC38StringObjectThatMasqueradesAsUndefinedE 0x059c2508
_ZTVN3JSC12RuntimeArrayE 0x059c3980
_ZTSN3JSC12RuntimeArrayE 0x059c3a34
_ZTIN3JSC12RuntimeArrayE 0x059c3a4c
_ZTVN3JSC8Bindings8InstanceE 0x059c3a58
_ZTVN3JSC8Bindings5ArrayE 0x059c3ab0
_ZTSN3JSC8Bindings5ArrayE 0x059c3acc
_ZTIN3JSC8Bindings5ArrayE 0x059c3ae4
_ZTSN3JSC8Bindings8InstanceE 0x059c3afc
_ZTIN3JSC8Bindings8InstanceE 0x059c3b18
_ZTIN3WTF10RefCountedIN3JSC8Bindings8InstanceEEE 0x059c3b30
_ZTSN3WTF10RefCountedIN3JSC8Bindings8InstanceEEE 0x059c3b3c
_ZTVN3JSC13RuntimeMethodE 0x059c3b70
_ZTSN3JSC13RuntimeMethodE 0x059c3c24
_ZTIN3JSC13RuntimeMethodE 0x059c3c3c
_ZTVN3JSC16RuntimeObjectImpE 0x059c3c48
_ZTSN3JSC16RuntimeObjectImpE 0x059c3d00
_ZTIN3JSC16RuntimeObjectImpE 0x059c3d1c
_ZZ9findValuePKcjE6lookup 0x059c4c38
_ZZ9findValuePKcjE14wordlist_value 0x059c7598
_ZZ8findPropPKcjE6lookup 0x059c8630
_ZZ8findPropPKcjE13wordlist_prop 0x059c9404
_ZZ16findDoctypeEntryPKcjE8wordlist 0x059d18ec
_ZZ9findColorPKcjE6lookup 0x059e0ebc
_ZZ9findColorPKcjE8wordlist 0x059e16fc
_ZTVN3JSC8Bindings7QtClassE 0x059efb88
_ZTSN3JSC8Bindings7QtClassE 0x059efba8
_ZTIN3JSC8Bindings7QtClassE 0x059efbc0
_ZTIN3JSC8Bindings5ClassE 0x059efbcc
_ZTSN3JSC8Bindings5ClassE 0x059efbe4
_ZTVN3JSC8Bindings5FieldE 0x059efc00
_ZTIN3JSC8Bindings5FieldE 0x059efc1c
_ZTSN3JSC8Bindings5FieldE 0x059efc24
_ZTVN3JSC8Bindings5ClassE 0x059efc40
_ZTVN3JSC8Bindings7QtFieldE 0x059efc60
_ZTVN3JSC8Bindings10QtInstanceE 0x059efc80
_ZTVN3JSC8Bindings18QtRuntimeObjectImpE 0x059efce0
_ZTSN3JSC8Bindings18QtRuntimeObjectImpE 0x059efd98
_ZTIN3JSC8Bindings18QtRuntimeObjectImpE 0x059efdbc
_ZTSN3JSC8Bindings7QtFieldE 0x059efdc8
_ZTIN3JSC8Bindings7QtFieldE 0x059efde0
_ZTSN3JSC8Bindings10QtInstanceE 0x059efdec
_ZTIN3JSC8Bindings10QtInstanceE 0x059efe08
_ZTVN3JSC8Bindings18QtConnectionObjectE 0x059efe18
_ZTVN3JSC8Bindings25QtRuntimeConnectionMethodE 0x059efe50
_ZTVN3JSC8Bindings19QtRuntimeMetaMethodE 0x059eff08
_ZTVN3JSC8Bindings29QtRuntimeConnectionMethodDataE 0x059effc0
_ZTVN3JSC8Bindings23QtRuntimeMetaMethodDataE 0x059effd0
_ZTVN3JSC8Bindings19QtRuntimeMethodDataE 0x059effe0
_ZTVN3JSC8Bindings15QtRuntimeMethodE 0x059efff0
_ZTSN3JSC8Bindings18QtConnectionObjectE 0x059f00a4
_ZTIN3JSC8Bindings18QtConnectionObjectE 0x059f00c8
_ZTSN3JSC8Bindings25QtRuntimeConnectionMethodE 0x059f00d4
_ZTIN3JSC8Bindings25QtRuntimeConnectionMethodE 0x059f0100
_ZTSN3JSC8Bindings19QtRuntimeMetaMethodE 0x059f010c
_ZTIN3JSC8Bindings19QtRuntimeMetaMethodE 0x059f0134
_ZTSN3JSC8Bindings15QtRuntimeMethodE 0x059f0140
_ZTIN3JSC8Bindings15QtRuntimeMethodE 0x059f0164
_ZTSN3JSC8Bindings29QtRuntimeConnectionMethodDataE 0x059f0170
_ZTIN3JSC8Bindings29QtRuntimeConnectionMethodDataE 0x059f01a0
_ZTSN3JSC8Bindings23QtRuntimeMetaMethodDataE 0x059f01ac
_ZTIN3JSC8Bindings23QtRuntimeMetaMethodDataE 0x059f01d8
_ZTSN3JSC8Bindings19QtRuntimeMethodDataE 0x059f01e4
_ZTIN3JSC8Bindings19QtRuntimeMethodDataE 0x059f020c
_ZTVN3JSC8Bindings7QtArrayI8QVariantEE 0x059f0218
_ZTIN3JSC8Bindings7QtArrayI8QVariantEE 0x059f0234
_ZTSN3JSC8Bindings7QtArrayI8QVariantEE 0x059f0240
_ZTVN3JSC8Bindings7QtArrayI7QStringEE 0x059f0268
_ZTIN3JSC8Bindings7QtArrayI7QStringEE 0x059f0284
_ZTSN3JSC8Bindings7QtArrayI7QStringEE 0x059f0290
_ZTVN3JSC8Bindings7QtArrayIP7QObjectEE 0x059f02b8
_ZTIN3JSC8Bindings7QtArrayIP7QObjectEE 0x059f02d4
_ZTSN3JSC8Bindings7QtArrayIP7QObjectEE 0x059f02e0
_ZTVN3JSC8Bindings7QtArrayIiEE 0x059f0308
_ZTIN3JSC8Bindings7QtArrayIiEE 0x059f0324
_ZTSN3JSC8Bindings7QtArrayIiEE 0x059f0330
_ZTV8QWebPage 0x059f1570
_ZTS8QWebPage 0x059f15d8
_ZTI8QWebPage 0x059f15e4
_ZTV17QWebPluginFactory 0x05a4b2e0
_ZTS17QWebPluginFactory 0x05a4b32c
_ZTI17QWebPluginFactory 0x05a4b340
_ZTV9QWebFrame 0x05a4b350
_ZTS9QWebFrame 0x05a4b388
_ZTI9QWebFrame 0x05a4b394
_ZTV8QWebView 0x05a4b3a0
_ZTS8QWebView 0x05a4b4a0
_ZTI8QWebView 0x05a4b4ac
_ZTV20QWebHistoryInterface 0x05a4b4b8
_ZTS20QWebHistoryInterface 0x05a4b4f8
_ZTI20QWebHistoryInterface 0x05a4b510
___wrs_rtp_tls_data_start 0x05a4b51c
__wrs_rtp_tls_data_start 0x05a4b51c
_ZN3JSC10arrayTableE 0x05a82528
_ZN3JSC9dateTableE 0x05a82534
_ZN3JSC33expressionBeginOffsetPropertyNameE 0x05a82540
_ZN3JSC33expressionCaretOffsetPropertyNameE 0x05a82544
_ZN3JSC31expressionEndOffsetPropertyNameE 0x05a82548
_ZN3JSC9mainTableE 0x05a8254c
_ZN3JSC9mathTableE 0x05a82558
_ZN3JSC11numberTableE 0x05a82564
_ZN3JSC22regExpConstructorTableE 0x05a82570
_ZN3JSC11regExpTableE 0x05a8257c
_ZN3JSC11stringTableE 0x05a82588
_ZN3JSC7UString3Rep4nullE 0x05a82594
_ZN3JSC7UString3Rep5emptyE 0x05a825c4
manual_post_ctors 0x05a868b0
manual_post_dtors 0x05a86a5c
___wrs_rtp_tls_vars_start 0x05a86b00
__wrs_rtp_tls_vars_start 0x05a86b00
_ZN8Executor13C_BCM_Browser11m_pInstanceE 0x05a86d44
_ZN8Executor18C_BCM_Connectivity11m_pInstanceE 0x05a86df0
_ZN18C_HMI_INT_APP_BASE10m_instanceE 0x05a86e30
_ZN21C_HMI_INT_DisplayData12m_p_instanceE 0x05a86e34
_ZN12C_HMI_INT_F118m_p_class_instanceE 0x05a86e38
HMI_INT_Browser 0x05a86e40
_ZN15C_HMI_INT_POPUP18m_p_class_instanceE 0x05a86e44
_ZGVZN18INET_ADDON_logging3Log9getHandleEvE8l_handle 0x05a86e60
_ZZN18INET_ADDON_logging3Log9getHandleEvE8l_handle 0x05a86e68
_ZN3JSC3NaNE 0x05a86eb8
_ZN3JSC3InfE 0x05a86ec0
_ZN3JSC8Profiler16s_sharedProfilerE 0x05a86ee0
_ZN3JSC8Profiler32s_sharedEnabledProfilerReferenceE 0x05a86ee4
_ZN3JSC8Bindings25QtRuntimeConnectionMethod11connectionsE 0x05a8842c
_ZN15QWebPagePrivate6drtRunE 0x05a88950
qCleanupResources_WebKit__dest_instance__ 0x05a896d8
_ZZN11QMetaTypeIdI5QListIP7QObjectEE14qt_metatype_idEvE11metatype_id 0x05a89794
_ZZN11QMetaTypeIdI5QListIiEE14qt_metatype_idEvE11metatype_id 0x05a89798
_ZZN11QMetaTypeIdI8QVariantE14qt_metatype_idEvE11metatype_id 0x05a8979c
