CR0_LT 0x00000000
_vx_offset_COPROC_DESC_next 0x00000000
_vx_offset_COPROC_TBL_ENTRY_pCtx 0x00000000
_vx_offset_DL_LIST_head 0x00000000
_vx_offset_DL_NODE_next 0x00000000
_vx_offset_DRV_ENTRY_de_create 0x00000000
_vx_offset_HANDLE_context 0x00000000
_vx_offset_KERNEL_RTP_CMN_ctxCnt 0x00000000
_vx_offset_MEM_PART_STATS_numBytesFree 0x00000000
_vx_offset_MSG_Q_HEAD_list 0x00000000
_vx_offset_OBJ_CLASS_handle 0x00000000
_vx_offset_PAGE_MGR_OBJ_virtPgPoolId 0x00000000
_vx_offset_POSIX_MSG_Q_ATTR_mq_maxmsg 0x00000000
_vx_offset_POSIX_MSG_Q_DES_f_flag 0x00000000
_vx_offset_PSEMAPHORE_objCore 0x00000000
_vx_offset_RBUFF_INFO_TYPE_srcPart 0x00000000
_vx_offset_RBUFF_TYPE_buffDesc 0x00000000
_vx_offset_SEGMENT_segmentNode 0x00000000
_vx_offset_SL_LIST_head 0x00000000
_vx_offset_SL_NODE_next 0x00000000
_vx_offset_SM_SEMAPHORE_verify 0x00000000
_vx_offset_SYSCALL_ENTRY_STATE_args 0x00000000
_vx_offset_TRIGGER_objCore 0x00000000
_vx_offset_UNCOMPCB_node 0x00000000
_vx_offset_WIND_ISR_objCore 0x00000000
_vx_offset_WIND_OBJ_handle 0x00000000
_vx_offset_WIND_SD_objCore 0x00000000
_vx_offset_WIND_TCB_objCore 0x00000000
_vx_offset_syscallEntryBaseOffset 0x00000000
_wrs_kernel_tls_data_size 0x00000000
_wrs_kernel_tls_vars_size 0x00000000
msw 0x00000000
msw 0x00000000
msw 0x00000000
msw 0x00000000
r0 0x00000000
sysAbsSymPhysMemBottom 0x00000000
wrs_kernel_tls_data_size 0x00000000
wrs_kernel_tls_vars_size 0x00000000
CR0_GT 0x00000001
SP 0x00000001
_VX_DATA_ALIGN 0x00000001
f_default 0x00000001
f_default 0x00000001
f_default_atan 0x00000001
f_default_atan2 0x00000001
f_default_exp 0x00000001
f_default_log 0x00000001
f_default_pow 0x00000001
CR0_EQ 0x00000002
RTOC 0x00000002
r3 0x00000003
BO_IF_NOT 0x00000004
CR1_FX 0x00000004
_vx_offset_COPROC_DESC_mask 0x00000004
_vx_offset_COPROC_TBL_ENTRY_pDescriptor 0x00000004
_vx_offset_DRV_ENTRY_de_delete 0x00000004
_vx_offset_HANDLE_magic 0x00000004
_vx_offset_KERNEL_RTP_CMN_vmContextId 0x00000004
_vx_offset_MEM_PART_STATS_numBlocksFree 0x00000004
_vx_offset_MEM_SECTION_HDR_size 0x00000004
_vx_offset_MSG_NODE_msgLength 0x00000004
_vx_offset_PAGE_MGR_OBJ_physPgPoolId 0x00000004
_vx_offset_POSIX_MSG_Q_ATTR_mq_msgsize 0x00000004
_vx_offset_POSIX_MSG_Q_DES_f_data 0x00000004
_vx_offset_RBUFF_INFO_TYPE_options 0x00000004
_vx_offset_REG_SET_sp 0x00000004
_vx_offset_SM_BLOCK_HDR_nWords 0x00000004
_vx_offset_SM_OBJ_objType 0x00000004
_vx_offset_SM_SEMAPHORE_objType 0x00000004
_vx_offset_SYMBOL_name 0x00000004
_vx_offset_WIND_SOCKET_so_type 0x00000004
lsw 0x00000004
lsw 0x00000004
lsw 0x00000004
lsw 0x00000004
r4 0x00000004
CR1_FEX 0x00000005
r5 0x00000005
CR1_VX 0x00000006
_vx_offset_ESFPPC_vecOffset 0x00000006
_vx_offset_WIND_SOCKET_so_options 0x00000006
r6 0x00000006
r7 0x00000007
LR 0x00000008
P0 0x00000008
_vx_offset_COPROC_DESC_ctxSize 0x00000008
_vx_offset_COPROC_TBL_ENTRY_pTask 0x00000008
_vx_offset_DEV_HDR_drvNum 0x00000008
_vx_offset_DRV_ENTRY_de_open 0x00000008
_vx_offset_HANDLE_attributes 0x00000008
_vx_offset_KERNEL_RTP_CMN_pgMgrId 0x00000008
_vx_offset_MEM_PART_STATS_maxBlockSizeFree 0x00000008
_vx_offset_MSG_Q_HEAD_count 0x00000008
_vx_offset_POSIX_MSG_Q_ATTR_mq_flags 0x00000008
_vx_offset_Q_FIFO_G_HEAD_pFifoQ 0x00000008
_vx_offset_RBUFF_INFO_TYPE_buffSize 0x00000008
_vx_offset_SEGMENT_address 0x00000008
_vx_offset_SL_LIST_size 0x00000008
_vx_offset_SM_MSG_NODE_msgLength 0x00000008
_vx_offset_SM_MSG_Q_msgQSem 0x00000008
_vx_offset_SM_OBJ_TCB_localTcb 0x00000008
_vx_offset_SM_PARTITION_freeList 0x00000008
_vx_offset_SM_SEMAPHORE_lock 0x00000008
_vx_offset_SYMBOL_value 0x00000008
_vx_offset_UNCOMPCB_pSelfSocket 0x00000008
_vx_offset_WIND_SOCKET_so_linger 0x00000008
r8 0x00000008
r9 0x00000009
_vx_offset_HANDLE_type 0x0000000a
_vx_offset_WIND_SOCKET_so_state 0x0000000a
r10 0x0000000a
_vx_offset_HANDLE_contextType 0x0000000b
r11 0x0000000b
BO_IF 0x0000000c
_vx_offset_COPROC_DESC_ctxAlign 0x0000000c
_vx_offset_COPROC_TBL_ENTRY_size 0x0000000c
_vx_offset_DEV_HDR_name 0x0000000c
_vx_offset_DRV_ENTRY_de_close 0x0000000c
_vx_offset_ESFPPC_dar 0x0000000c
_vx_offset_HANDLE_objSize 0x0000000c
_vx_offset_HASH_TBL_elements 0x0000000c
_vx_offset_KERNEL_RTP_CMN_sharedDataList 0x0000000c
_vx_offset_MEM_PART_STATS_numBytesAlloc 0x0000000c
_vx_offset_MODLIST_DESC_moduleList 0x0000000c
_vx_offset_MSG_NODE_message 0x0000000c
_vx_offset_MSG_Q_HEAD_pendQ 0x0000000c
_vx_offset_OBJ_CLASS_objSize 0x0000000c
_vx_offset_PAGE_MGR_OBJ_vmContextId 0x0000000c
_vx_offset_POSIX_MSG_Q_ATTR_mq_curmsgs 0x0000000c
_vx_offset_RBUFF_INFO_TYPE_currBuffs 0x0000000c
_vx_offset_SECTION_DESC_sectionNode 0x0000000c
_vx_offset_SEGMENT_size 0x0000000c
_vx_offset_SM_MSG_NODE_message 0x0000000c
_vx_offset_SM_OBJ_MEM_HDR_smTcbPart 0x0000000c
_vx_offset_SM_OBJ_TCB_ownerCpu 0x0000000c
_vx_offset_SM_SEMAPHORE_smPendQ 0x0000000c
_vx_offset_SYMBOL_symRef 0x0000000c
_vx_offset_SYMTAB_nameHashId 0x0000000c
_vx_offset_UNCOMPCB_pPeerSocket 0x0000000c
_vx_offset_WIND_OBJ_ownerList 0x0000000c
_vx_offset_WIND_SOCKET_so_pcb 0x0000000c
r12 0x0000000c
r13 0x0000000d
BO_dCTR_NZERO 0x00000010
P1 0x00000010
_vx_offset_DRV_ENTRY_de_read 0x00000010
_vx_offset_ESFPPC_dsisr 0x00000010
_vx_offset_MEM_PART_STATS_numBlocksAlloc 0x00000010
_vx_offset_OBJ_CLASS_altClassId 0x00000010
_vx_offset_PAGE_MGR_OBJ_mmapList 0x00000010
_vx_offset_RBUFF_INFO_TYPE_threshold 0x00000010
_vx_offset_SEGMENT_type 0x00000010
_vx_offset_SM_FREE_BLOCK_node 0x00000010
_vx_offset_SYMBOL_group 0x00000010
_vx_offset_UNCOMPCB_selfState 0x00000010
_wrs_kernel_tls_data_align 0x00000010
wrs_kernel_tls_data_align 0x00000010
BO_dCTR_ZERO 0x00000012
_vx_offset_SYMBOL_type 0x00000012
_vx_offset_UNCOMPCB_selfName 0x00000012
BO_ALWAYS 0x00000014
_vx_offset_DRV_ENTRY_de_write 0x00000014
_vx_offset_ESFPPC_fpcsr 0x00000014
_vx_offset_KERNEL_RTP_CMN_pWdbInfo 0x00000014
_vx_offset_MEM_PART_STATS_maxBytesAlloc 0x00000014
_vx_offset_MODULE_nameWithPath 0x00000014
_vx_offset_OBJ_CLASS_destroyRtn 0x00000014
_vx_offset_RBUFF_INFO_TYPE_minBuffs 0x00000014
_vx_offset_SECTION_DESC_name 0x00000014
_vx_offset_SEGMENT_flags 0x00000014
_vx_offset_SM_SEMAPHORE_count 0x00000014
_vx_offset_SM_SEMAPHORE_flag 0x00000014
_vx_offset_UNCOMPCB_pLastReg 0x00000014
_vx_offset_WIND_OBJ_ownerNode 0x00000014
P2 0x00000018
_vx_offset_DRV_ENTRY_de_ioctl 0x00000018
_vx_offset_ESFPPC_regSet 0x00000018
_vx_offset_OBJ_CLASS_showRtn 0x00000018
_vx_offset_PAGE_MGR_OBJ_options 0x00000018
_vx_offset_RBUFF_INFO_TYPE_maxBuffs 0x00000018
_vx_offset_SECTION_DESC_address 0x00000018
_vx_offset_UNCOMPCB_pLastExp 0x00000018
_vx_offset_HASH_TBL_pHashTbl 0x0000001c
_vx_offset_OBJ_CLASS_instRtn 0x0000001c
_vx_offset_RBUFF_INFO_TYPE_maxBuffsActual 0x0000001c
_vx_offset_SECTION_DESC_size 0x0000001c
_vx_offset_UNCOMPCB_pRecvPacket 0x0000001c
_vx_offset_WIND_OBJ_classNode 0x0000001c
P3 0x00000020
_vx_offset_DRV_ENTRY_de_inuse 0x00000020
_vx_offset_OBJ_CLASS_createRtn 0x00000020
_vx_offset_RBUFF_INFO_TYPE_emptyBuffs 0x00000020
_vx_offset_SECTION_DESC_type 0x00000020
_vx_offset_SYSCALL_ENTRY_STATE_scn 0x00000020
_vx_offset_UNCOMPCB_hiwatermark 0x00000020
dp_x 0x00000020
dp_x 0x00000020
dp_x 0x00000020
dp_x 0x00000020
msw_x 0x00000020
msw_x 0x00000020
msw_x 0x00000020
msw_x 0x00000020
_vx_offset_UNCOMPCB_dropped 0x00000022
aix_range_error 0x00000022
_vx_offset_OBJ_CLASS_openRtn 0x00000024
_vx_offset_RBUFF_INFO_TYPE_dataContent 0x00000024
_vx_offset_SECTION_DESC_flags 0x00000024
_vx_offset_SM_MSG_Q_msgQ 0x00000024
_vx_offset_WIND_OBJ_ownerId 0x00000024
lsw_x 0x00000024
lsw_x 0x00000024
lsw_x 0x00000024
lsw_x 0x00000024
P4 0x00000028
_vx_offset_COPROC_DESC_pCtxGetRtn 0x00000028
_vx_offset_OBJ_CLASS_objMemAllocRtn 0x00000028
_vx_offset_RBUFF_INFO_TYPE_writesSinceReset 0x00000028
_vx_offset_SM_PARTITION_totalWords 0x00000028
_vx_offset_WIND_OBJ_ownerRtpId 0x00000028
orig_fpscr 0x00000028
orig_fpscr 0x00000028
orig_fpscr 0x00000028
sp_kc 0x00000028
trampoline_size 0x00000028
_vx_offset_OBJ_CLASS_objMemFreeRtn 0x0000002c
_vx_offset_RBUFF_INFO_TYPE_readsSinceReset 0x0000002c
_vx_offset_SECTION_DESC_checksum 0x0000002c
_vx_offset_SM_MSG_Q_freeQSem 0x0000002c
_vx_offset_SYSCALL_ENTRY_STATE_retAddrReg 0x0000002c
_vx_offset_WIND_OBJ_name 0x0000002c
fpscr_word 0x0000002c
fpscr_word 0x0000002c
orig_word 0x0000002c
P5 0x00000030
_vx_offset_OBJ_CLASS_initRtn 0x00000030
_vx_offset_RBUFF_INFO_TYPE_timesExtended 0x00000030
_vx_offset_SM_OBJ_MEM_HDR_smSemPart 0x00000030
_vx_offset_SYSCALL_ENTRY_STATE_pUStack 0x00000030
_vx_offset_WIND_OBJ_pObjClass 0x00000030
_vx_offset_WIND_SOCKET_so_qlen 0x00000030
dp_y 0x00000030
last_fpscr 0x00000030
msw_reduction 0x00000030
msw_y 0x00000030
orig_x 0x00000030
reduction 0x00000030
_vx_offset_OBJ_CLASS_objPartId 0x00000034
_vx_offset_RBUFF_INFO_TYPE_timesXThreshold 0x00000034
_vx_offset_SM_PARTITION_curBlocksAllocated 0x00000034
_vx_offset_WIND_OBJ_objHandleList 0x00000034
_vx_offset_WIND_SOCKET_so_qlimit 0x00000034
last_word 0x00000034
lsw_reduction 0x00000034
lsw_y 0x00000034
P6 0x00000038
_vx_offset_OBJ_CLASS_objClassType 0x00000038
_vx_offset_RBUFF_INFO_TYPE_bytesWritten 0x00000038
_vx_offset_SM_PARTITION_curWordsAllocated 0x00000038
_vx_offset_SYSCALL_ENTRY_STATE_pc 0x00000038
msw_scaled_x 0x00000038
msw_y 0x00000038
orig_y 0x00000038
scaled_x 0x00000038
spare 0x00000038
_vx_offset_OBJ_CLASS_options 0x0000003c
_vx_offset_RBUFF_INFO_TYPE_bytesRead 0x0000003c
_vx_offset_SM_PARTITION_cumBlocksAllocated 0x0000003c
_vx_offset_WIND_OBJ_refCnt 0x0000003c
lsw_y 0x0000003c
_vx_offset_WIND_OBJ_accessCnt 0x0000003e
P7 0x00000040
_vx_offset_FD_ENTRY_pDevHdr 0x00000040
_vx_offset_MSG_Q_msgQ 0x00000040
_vx_offset_OBJ_CLASS_objPrivList 0x00000040
_vx_offset_PARTITION_avlSize 0x00000040
_vx_offset_POSIX_MSG_Q_msgq_cond_read 0x00000040
_vx_offset_PSEMAPHORE_wSemId 0x00000040
_vx_offset_RBUFF_INFO_TYPE_bytesPeak 0x00000040
_vx_offset_SEMAPHORE_semType 0x00000040
_vx_offset_SM_PARTITION_cumWordsAllocated 0x00000040
_vx_offset_TRIGGER_eventId 0x00000040
_vx_offset_WIND_ISR_isrTag 0x00000040
_vx_offset_WIND_RTP_kernelRtpCmn 0x00000040
_vx_offset_WIND_SD_sem 0x00000040
_vx_offset_WIND_TCB_qNode 0x00000040
msw_scaled_y 0x00000040
orig_fpscr 0x00000040
scaled_y 0x00000040
stack_size 0x00000040
stack_size 0x00000040
_vx_offset_SEMAPHORE_options 0x00000041
_vx_offset_TRIGGER_status 0x00000042
_vx_offset_FD_ENTRY_value 0x00000044
_vx_offset_PSEMAPHORE_pSelf 0x00000044
_vx_offset_SEMAPHORE_qHead 0x00000044
_vx_offset_TRIGGER_disable 0x00000044
_vx_offset_WIND_ISR_count 0x00000044
_vx_offset_WIND_SOCKET_so_fd 0x00000044
fpscr_word 0x00000044
P8 0x00000048
_vx_offset_COPROC_DESC_pLastEntry 0x00000048
_vx_offset_OBJ_CLASS_objPubList 0x00000048
_vx_offset_SM_MSG_Q_freeQ 0x00000048
_vx_offset_TRIGGER_contextType 0x00000048
_vx_offset_WDOG_timeout 0x00000048
_vx_offset_WIND_ISR_serviceCount 0x00000048
msw_ylogx 0x00000048
saved_lr 0x00000048
ylogx 0x00000048
_vx_offset_FD_ENTRY_refCnt 0x0000004c
_vx_offset_PARTITION_freeSizeNodeNb 0x0000004c
_vx_offset_TRIGGER_contextId 0x0000004c
lsw_ylogx 0x0000004c
P9 0x00000050
_vx_offset_OBJ_CLASS_pClassSem 0x00000050
_vx_offset_PARTITION_sem 0x00000050
_vx_offset_POSIX_MSG_Q_msgq_cond_data 0x00000050
_vx_offset_SM_MSG_Q_options 0x00000050
_vx_offset_TRIGGER_objId 0x00000050
_vx_offset_WDOG_status 0x00000050
_vx_offset_WIND_ISR_cpuTime 0x00000050
stack_size 0x00000050
stack_size 0x00000050
_vx_offset_WDOG_deferStartCnt 0x00000052
_vx_offset_SEMAPHORE_count 0x00000054
_vx_offset_SM_MSG_Q_maxMsgs 0x00000054
_vx_offset_TRIGGER_chain 0x00000054
_vx_offset_WDOG_wdRoutine 0x00000054
_vx_offset_SEMAPHORE_events 0x00000058
_vx_offset_SM_MSG_Q_maxMsgLength 0x00000058
_vx_offset_SYSCALL_ENTRY_STATE_size 0x00000058
_vx_offset_TRIGGER_conditional 0x00000058
_vx_offset_WDOG_wdParameter 0x00000058
_vx_offset_WIND_ISR_options 0x00000058
_vx_offset_WIND_RTP_rtpNode 0x00000058
_vx_offset_WIND_TCB_timeout 0x00000058
_vx_offset_MSG_Q_freeQ 0x0000005c
_vx_offset_SM_MSG_Q_sendTimeouts 0x0000005c
_vx_offset_TRIGGER_condType 0x0000005c
_vx_offset_WIND_ISR_handlerRtn 0x0000005c
_vx_offset_sizeof_FD_ENTRY 0x0000005c
_vx_offset_SM_MSG_Q_recvTimeouts 0x00000060
_vx_offset_TRIGGER_condEx1 0x00000060
_vx_offset_WIND_ISR_arg 0x00000060
_vx_offset_WIND_RTP_semId 0x00000060
_vx_offset_WIND_TCB_pExcStackBase 0x00000060
_vx_offset_TRIGGER_condOp 0x00000064
_vx_offset_WIND_RTP_status 0x00000064
_vx_offset_WIND_TCB_pExcStackEnd 0x00000064
_vx_offset_TRIGGER_condEx2 0x00000068
_vx_offset_WIND_RTP_pPathName 0x00000068
_vx_offset_TRIGGER_actionType 0x0000006c
_vx_offset_WIND_RTP_pArgv 0x0000006c
_vx_offset_WIND_TCB_excCnt 0x0000006c
_vx_offset_TRIGGER_actionFunc 0x00000070
_vx_offset_WIND_RTP_pEnv 0x00000070
_vx_offset_WIND_TCB_status 0x00000070
_vx_offset_SM_OBJ_MEM_HDR_smNamePart 0x00000074
_vx_offset_TRIGGER_actionArg 0x00000074
_vx_offset_WIND_RTP_options 0x00000074
_vx_offset_WIND_TCB_priority 0x00000074
_vx_offset_MSG_Q_options 0x00000078
_vx_offset_TRIGGER_actionDef 0x00000078
_vx_offset_WIND_RTP_entrAddr 0x00000078
_vx_offset_WIND_TCB_priNormal 0x00000078
_vx_offset_MSG_Q_maxMsgs 0x0000007c
_vx_offset_TRIGGER_hitCnt 0x0000007c
_vx_offset_WIND_RTP_initTaskId 0x0000007c
_vx_offset_MSG_Q_maxMsgLength 0x00000080
_vx_offset_REG_SET_msr 0x00000080
_vx_offset_TRIGGER_initialState 0x00000080
_vx_offset_WIND_TCB_priMutexCnt 0x00000080
_vx_offset_MSG_Q_sendTimeouts 0x00000084
_vx_offset_TRIGGER_pDataCollector 0x00000084
_vx_offset_WIND_RTP_symTabId 0x00000084
_vx_offset_WIND_TCB_priInheritCnt 0x00000084
_vx_offset_MSG_Q_recvTimeouts 0x00000088
_vx_offset_WIND_RTP_binaryInfo 0x00000088
_vx_offset_WIND_TCB_priDrop 0x00000088
_vx_offset_MSG_Q_events 0x0000008c
_vx_offset_REG_SET_pc 0x0000008c
_vx_offset_WIND_TCB_pPriMutex 0x0000008c
_vx_offset_REG_SET_cr 0x00000090
_vx_offset_WIND_TCB_rtpId 0x00000094
_vx_offset_WIND_TCB_options 0x00000098
_vx_offset_WIND_TCB_pUTcb 0x0000009c
_vx_offset_RBUFF_TYPE_buffRead 0x000000a0
_vx_offset_RBUFF_TYPE_buffWrite 0x000000a4
_vx_offset_REG_SET_size 0x000000a4
_vx_offset_RBUFF_TYPE_dataRead 0x000000a8
_vx_offset_WIND_SD_options 0x000000a8
_vx_offset_WIND_TCB_pPendQ 0x000000a8
_vx_offset_RBUFF_TYPE_dataWrite 0x000000ac
_vx_offset_WIND_SD_attr 0x000000ac
_vx_offset_WIND_TCB_safeCnt 0x000000ac
_vx_offset_WIND_SD_size 0x000000b0
_vx_offset_WIND_RTP_taskCnt 0x000000b4
_vx_offset_WIND_SD_clientCount 0x000000b4
_vx_offset_PARTITION_totalWords 0x000000b8
_vx_offset_SM_OBJ_MEM_HDR_smMsgQPart 0x000000b8
_vx_offset_WIND_SD_physAdrs 0x000000b8
_vx_offset_PARTITION_options 0x000000bc
_vx_offset_PARTITION_sectionHdrLst 0x000000c0
_vx_offset_WIND_SD_virtAdrs 0x000000c0
_vx_offset_WIND_TCB_entry 0x000000c0
_vx_offset_WIND_TCB_pStackBase 0x000000c4
_vx_offset_WIND_TCB_pStackEnd 0x000000c8
_vx_offset_WIND_RTP_fdTable 0x000000cc
_vx_offset_WIND_TCB_pEdrInfo 0x000000cc
_vx_offset_WIND_RTP_fdTableSize 0x000000d0
_vx_offset_WIND_TCB_errorStatus 0x000000d0
_vx_offset_WIND_RTP_defPath 0x000000d4
_vx_offset_WIND_RTP_defPathLen 0x000000d8
_vx_offset_PARTITION_curBlocksFreed 0x000000dc
_vx_offset_WIND_RTP_taskExitRtn 0x000000dc
_vx_offset_PARTITION_curWordsFreed 0x000000e0
_vx_offset_WIND_RTP_sigReturnRtn 0x000000e0
_vx_offset_WIND_TCB_taskTicks 0x000000e0
_vx_offset_PARTITION_curBlocksAllocated 0x000000e4
_vx_offset_PARTITION_curWordsAllocated 0x000000e8
_vx_offset_WIND_RTP_signalInfo 0x000000e8
_vx_offset_PARTITION_cumBlocksAllocated 0x000000f0
_vx_offset_WIND_TCB_pCoprocTbl 0x000000f0
_vx_offset_PARTITION_cumWordsAllocated 0x000000f8
_vx_offset_SM_OBJ_MEM_HDR_smPartPart 0x000000fc
_vx_offset_PARTITION_maxWordsAllocated 0x00000100
_vx_offset_PARTITION_curBlocksAllocatedInternal 0x00000104
_vx_offset_PARTITION_curWordsAllocatedInternal 0x00000108
_vx_offset_POSIX_MSG_Q_msgq_attr 0x00000114
_vx_offset_WIND_TCB_pExcRegSet 0x00000120
_vx_offset_WIND_TCB_events 0x00000124
_vx_offset_SM_OBJ_MEM_HDR_smSysPart 0x00000140
_vx_offset_WIND_TCB_cpuTimeInfo 0x00000160
_vx_offset_WIND_TCB_pPwrMgmtPState 0x00000170
_vx_offset_WIND_TCB_pSchedInfo 0x00000174
_vx_offset_WIND_TCB_windSmpInfo 0x0000017c
_vx_offset_SM_OBJ_MEM_HDR_nameDtb 0x00000184
_vx_offset_SM_OBJ_MEM_HDR_objCpuTbl 0x000001b0
_vx_offset_SM_OBJ_MEM_HDR_maxSems 0x000001b4
_vx_offset_WIND_TCB_excInfo 0x000001b4
_vx_offset_SM_OBJ_MEM_HDR_maxMsgQueues 0x000001b8
_vx_offset_SM_OBJ_MEM_HDR_maxTasks 0x000001bc
_vx_offset_SM_OBJ_MEM_HDR_maxMemParts 0x000001c0
_vx_offset_SM_OBJ_MEM_HDR_maxNames 0x000001c4
_vx_offset_SM_OBJ_MEM_HDR_curNumSemB 0x000001c8
_vx_offset_SM_OBJ_MEM_HDR_curNumSemC 0x000001cc
_vx_offset_SM_OBJ_MEM_HDR_curNumMsgQ 0x000001d0
_vx_offset_SM_OBJ_MEM_HDR_curNumTask 0x000001d4
_vx_offset_SM_OBJ_MEM_HDR_curNumPart 0x000001d8
_vx_offset_SM_OBJ_MEM_HDR_curNumName 0x000001dc
_vx_offset_WIND_TCB_regs 0x000001e0
_vx_offset_WIND_TCB_pTlsDesc 0x0000028c
_vx_offset_MODULE_flags 0x00000518
_vx_offset_MODULE_sectionList 0x0000051c
_vx_offset_MODULE_segmentList 0x00000524
_vx_offset_MODULE_format 0x0000052c
_vx_offset_MODULE_group 0x00000530
_vx_offset_MODULE_ctors 0x00000534
_vx_offset_MODULE_dtors 0x00000538
_vx_offset_MODULE_commTotalSize 0x0000053c
_vx_offset_MODULE_swapNeeded 0x00000540
_vx_offset_MODULE_undefSymCount 0x00000544
_vx_offset_WIND_RTP_pSigQFreeHead 0x00000920
_vx_offset_WIND_RTP_sigwaitQ 0x00000924
_vx_offset_WIND_RTP_parentRtpId 0x00000934
_vx_offset_WIND_RTP_lockTaskId 0x00000d54
_vx_offset_WIND_RTP_cpuTimeInfo 0x00000d70
_vx_offset_WIND_RTP_pSchedInfo 0x00000d80
_VX_START_TEXT 0x00200000
_wrs_kernel_text_start 0x00200000
usrEntry 0x00200000
wrs_kernel_text_start 0x00200000
_sysInit 0x00200038
ifpdrValue 0x0020012c
sysALoop 0x0020026c
sysMsrGet 0x002002c8
sysInByte 0x002002d0
sysInWord 0x002002d8
sysInLong 0x002002e0
sysOutByte 0x002002e8
sysOutWord 0x002002f4
sysOutLong 0x00200300
sysPciInByte 0x0020030c
sysPciInWord 0x00200314
sysPciInLong 0x0020031c
sysPciOutByte 0x00200324
sysPciOutWord 0x0020032c
sysPciOutLong 0x00200334
vxHid2Get 0x00200340
vxHid2Set 0x00200348
vxSvrGet 0x00200350
swapdw 0x00200358
swloop 0x00200368
swapdwsb 0x0020037c
swloopsb 0x0020038c
out_uint32 0x002003a0
viuIOInit 0x002003d0
sysDB600IOCfgSet 0x002004f4
sysNvRamGet 0x00200aac
sysNvRamSet 0x00200adc
sysFlashGet 0x00200b0c
sysFlashDelay 0x00200bc0
sysFlashDataPoll 0x00200c2c
sysSectorErase 0x00200d44
sysFlashErase 0x00200f78
sysFlashWrite 0x002012c8
sysFlashTypeGet 0x00201890
sysFlashSet 0x00201958
TimeBaseUsGet 0x00201cc0
GetDevName 0x00201d6c
SetStartTime 0x00201e0c
SetEndTime 0x00201ea4
GetDevInitTimeTable 0x00201f4c
OpenDrvTimed 0x00202064
sysMacIndex2Dev 0x002020e4
sysMacIndex2Unit 0x0020210c
sysMacOffsetGet 0x00202134
sysNetMacAddrGet 0x002021ec
sysNetMacAddrSet 0x00202220
sysNetMacNVRamAddrGet 0x00202330
sysFecEnetAddrGet 0x0020244c
dmaCallback 0x002024a4
sdDmaStart 0x002025bc
sdhc_start_clock 0x00202b10
sdhc_writel 0x00202ce0
sdhc_readl 0x00202d10
sdhc_stop_clock 0x00202d3c
sdhc_start_cmd 0x00202e18
sdhc_end_cmd 0x00203448
sdhc_irq 0x00204920
sdhc_irq_stop 0x00204b24
sdhc_compute_clk_rate 0x00204b70
sdhc_set_ios 0x00205058
sdhc_init_hw 0x002050c8
sdhc_set_slewrate 0x00205314
sdhc_dumpregs 0x002053b8
sdhc_writereg 0x00205640
sdhc_readreg 0x002057b4
wait_ready 0x00205940
mmc_send_cmd 0x00205b04
mmc_set_blocklen 0x00205c4c
mmc_write_block 0x00205cbc
mmc_read_block 0x002060cc
mmc_read_single_block 0x002065d0
mmc_go_idle 0x00206624
sd_send_op_cond 0x002066c0
sd_switch_force 0x00206924
sd_change_freq 0x00206a24
mmc_set_clock 0x00206cf8
mmc_startup 0x00206d8c
mmc_send_if_cond 0x00207804
mmc_init 0x00207a84
print_mmcinfo 0x00207f8c
partNameHook 0x00208260
sdDevCreate 0x002084e0
sdDevCreateP 0x00208548
sdDevInitP 0x00208a7c
sdCardInit 0x00208d88
sdhcRegenerate 0x00208fb0
sdIoctl 0x00209418
sdBlkRd 0x002094e4
sdBlkWrt 0x002098ac
sdhcInfoSet 0x00209c74
sdhc_postInit 0x0020a1e8
sdhc_init 0x0020a2c0
sdhcMount 0x0020a3e4
sdhcShowMountStatus 0x0020a5f4
sdhcInfoGetBuf 0x0020a7ec
mbrErase 0x0020a814
getCID 0x0020ab00
printCID 0x0020ab94
getSDPresent 0x0020ac48
getSDBlkDevice 0x0020ad14
isSD8GB 0x0020ad38
isSD16GB 0x0020add4
sdhcRemount 0x0020ae70
sdhcUnmount 0x0020b024
sdhcPartCreateSz 0x0020b0d0
sdhcPartCreate 0x0020bb84
sdhcChangePartParams4k 0x0020bf24
sdhcChangePartParams8k 0x0020bf50
sdhcChangePartParams16k 0x0020bf7c
sdhcChangePartParams32k 0x0020bfa8
sdhcChangePartParamsAuto 0x0020bfd4
sdhcPartFormat 0x0020c000
sdhcPartCheck 0x0020c238
sdhcMBRReset 0x0020c4a4
mmc_read_block_CMD56 0x0020c744
mmc_write_block_CMD56 0x0020caf8
GetMIDRegister 0x0020ce70
ToshibaFillCommand 0x0020cf30
ToshibaGetResult 0x0020d0ac
ToshibaRunCMD56 0x0020d314
ToshibaPowerFailureSetting 0x0020d5f8
ToshibaRefreshSetting 0x0020d69c
ToshibaRefreshExec 0x0020d740
ToshibaBBlocksStatus 0x0020d7a4
ToshibaErrorBitDisplay 0x0020d808
ToshibaEraseDisplay 0x0020d870
ToshibaConfirmedSettingDisplay 0x0020d8d4
sdhcToshibaInit 0x0020d938
nextStrPosSet 0x0020da64
sdhcToshibaInfoAdd 0x0020db3c
sysMemDescInit 0x0020dfa0
sysDbDescrGet 0x0020dfd4
sysModel 0x0020e034
sysBspRev 0x0020e0b8
sysHwInit 0x0020e0e0
sysHwInit2 0x0020e2a4
sysPhysMemTop 0x0020e350
sysMemTop 0x0020e378
sysToMonitor 0x0020e3d0
sysProcNumGet 0x0020e448
sysProcNumSet 0x0020e46c
sysGetCsbClock 0x0020e494
sysGetCoreClock 0x0020e530
sysGetIpsClock 0x0020e59c
sysGetPciClock 0x0020e604
sysGetMbxBusClock 0x0020e66c
sysGetMbxGpxClock 0x0020e6a8
sysGetLpcClock 0x0020e710
sysGetNfcClock 0x0020e778
sysGetDiuClock 0x0020e7e0
sysGetSDHCClock 0x0020e844
sysSocClkEnable 0x0020e8a8
sysUsDelay 0x0020eaf8
sysMsDelay 0x0020ebe0
sysDelay 0x0020ec20
bspSerialChanGet 0x0020ec54
sysAxeInit 0x0020ec7c
sysAxeEncode 0x0020ed30
sysAxeDecode 0x0020ee2c
sysRamHighAdrsGet 0x0020ef3c
sysRamLowAdrsGet 0x0020ef60
sysLocalMemLocalAdrsGet 0x0020ef84
sysOffShoreAdrsGet 0x0020efa8
sysLocalMemAddLocalAdrsGet 0x0020efcc
sysLocalRamSizeGet 0x0020eff0
sysLocalFlashSizeGet 0x0020f018
sysDBNameGet 0x0020f040
sysLocalMemAddSizeGet 0x0020f06c
MemoryLayoutShow 0x0020f090
ProtectMemory 0x0020f458
UnProtectMemory 0x0020f4cc
UnProtectModule 0x0020f540
UnProtectAllModule 0x0020f63c
ProtectVMFlash 0x0020f758
UnProtectVMFlash 0x0020f7c4
sysShowDBIdentifier 0x0020f830
sysShowReset 0x0020f8c8
sysShowClock 0x0020fce0
ReadTimeBase 0x0020fed4
usrAppInit 0x0020ff88
DummyConnectivityDhcpClientHook 0x00210030
ConnectivityDhcpClientHook 0x0021005c
SetConnectivityDhcpClientHook 0x002100d0
usrRtpAppInit 0x00210124
fsl5121eUsbEndianProbe 0x00210140
fsl5121eUsbInit 0x00210240
fslUsbDrDeviceHwInit 0x0021031c
fslUsbDrHostHwInit 0x0021034c
fslUsbDrHostModeSet 0x0021037c
absSymbols_Bounds 0x00210460
usrDsiPoolConfig 0x00210484
usrDsiSocket 0x00210584
usrUnInit 0x00210618
usrUnCompInit 0x0021064c
edrStubInit 0x00210680
edrErrorInjectStub 0x002107c0
edrKernelFatalPolicyHandler 0x00210830
edrRtpFatalPolicyHandler 0x00210b54
edrInitFatalPolicyHandler 0x00210b74
edrInterruptFatalPolicyHandler 0x00210ccc
edrPolicyHandlerHookAdd 0x00210e0c
edrErrorPolicyHookRemove 0x00210e6c
edrPolicyHandlerHookGet 0x00210eb8
vxbDrvVerCheck 0x00210edc
usrI2CMasterInit 0x00210f4c
ipcom_register_shell_commands 0x002110b0
ipcom_configure 0x002111e4
ipcom_init_config_vars 0x00211268
ipcom_configure_reserved_cpus 0x002112e4
ipcom_forwarder_get_fwcache_util_level_limit 0x0021130c
ipcom_forwarder_get_ports_for_interface 0x00211330
ipcom_forwarder_get_nonfw_stats 0x00211358
ipcom_forwarder_get_tx_queue 0x00211384
ipcom_forwarder_get_tx_queue_cf 0x002113ac
ipcom_forwarder_reset_statistics_cf 0x002113d4
ipcom_forwarder_transmit_pkt_cf 0x002113f4
ipcom_forwarder_create_cf 0x00211420
ipcom_forwarder_startup_delay 0x00211444
ipcom_reserve_fw_cpu 0x00211460
ipcom_allocate_fw_cache 0x00211484
ipcom_forwarder_config_fw_max 0x002114b8
ipcom_forwarder_config_cache_size 0x002114dc
ipcom_forwarder_fw_per_port 0x00211500
ipcom_vxworks_rtp_del_hook_add 0x00211524
iptelnets_configure 0x00211548
ipcrypto_configure 0x0021158c
ipdhcpc_configure 0x002115d0
ipdhcpc_option_callback 0x00211644
ipdhcpc_option_default_callback 0x002116c0
ipdhcpc_reply_callback 0x002116f4
ipdnsc_configure 0x00211750
ipfirewall_configure 0x002117d4
ipnet_register_shell_commands 0x00211874
ipnet_configure 0x002119e8
ipppp_configure 0x00211a70
ipppp_example_action_work 0x00211af0
ipppp_work 0x00211b44
ipppp_work_init 0x00211bb4
ipppp_work_alloc 0x00211c28
ipppp_work_schedule 0x00211cd4
ipppp_example_action_cb 0x00211d78
ipradius_configure 0x00211dd8
ipssl_configure 0x00211e48
iptcp_configure 0x00211fb0
ftpTransientFatal 0x00211ff4
usrFtpInit 0x00212064
usrGetaddrinfoInit 0x002120c4
usrNetHostTblSetup 0x002120e8
usrBootLineInit 0x00212170
usrBootLineCrack 0x002121c4
usrBootLineParse 0x00212248
usrBootLineGet 0x00212544
usrNetApplUtilInit 0x00212568
usrNetmaskGet 0x00212604
usrNetDevNameGet 0x00212654
usrNetBoot 0x0021293c
ipcomNetTask 0x002129a8
usrNetDaemonInit 0x00212a18
usrNetEndLibInit 0x00212aac
usrCciLoadProvider 0x00212c24
usrCciInit 0x00212e5c
usrDsiInit2 0x00212eec
usrClock 0x00212f28
sysClkInit 0x00212f58
usrAimMmuConfig 0x00212fa4
usrBreakpointSet 0x00212fc8
usrCacheEnable 0x00213140
coprocsDiscover 0x00213184
coprocDescriptorsInit 0x002131e0
usrCplusLibInit 0x002132e4
dosFsInit 0x0021331c
stringToArray 0x002133bc
usrDosfsInit 0x002135a8
edrPmArena 0x0021366c
edrPmRegion 0x002136ac
usrEdrInit 0x002136f4
usrFlashFXComponentInitBackground 0x00213890
usrFlashFXComponentInitTest 0x00213a98
usrFlashFXComponentInitSigDone 0x00213bc8
usrKernelInit 0x00213c14
usrKernelIntStkProtect 0x00213d58
memEdrInit 0x00213e28
memEdrInit2 0x00213e78
usrMmuInit 0x00213f30
usrNfsInit 0x00214130
usrNfs2CacheInit 0x0021438c
usrNfs3CacheInit 0x002143cc
usrPmInit 0x0021440c
pmDefaultArena 0x0021443c
usrRomfsConfig 0x00214538
itos 0x002145f8
usrSerialInit 0x002146d0
usrShell 0x00214818
usrShellConfigure 0x002148a4
usrStandaloneInit 0x00214928
sysStart 0x002149f4
usrSysSymTblInit 0x00214a60
usrSysctlInit 0x00214ad8
usrTextProtect 0x00214b24
usrTipInit 0x00214bb8
usrUsb2EndInit 0x00214c38
usrUsb2HelperInit 0x00214c9c
usrUsb2MscLookupQuirkyInfo 0x00214ce0
usrUsb2MscFilesystemInterfaceGet 0x00214ed8
usrUsb2MscFilesystemInterfaceSet 0x00214f6c
usrUsb2MscDirectAccessEnabled 0x00214fe4
usrUsb2MscDirectAccessEnabledSet 0x00215010
usrUsb2MscComplianceEnabled 0x00215058
usrUsb2MscComplianceEnabledSet 0x00215084
usrUsb2MscMediumHotplugCheckEabled 0x002150cc
usrUsb2MscMediumHotplugCheckEabledSet 0x002150f8
usrUsb2MscStatusCheckEnabled 0x00215140
usrUsb2MscStatusCheckEnabledSet 0x0021516c
usrUsb2MscWriteProtectionCheckEnabled 0x002151b4
usrUsb2MscWriteProtectionCheckEnabledSet 0x002151e0
usrUsb2MscMediumHotplugCheckIntervalGet 0x00215228
usrUsb2MscMediumHotplugCheckIntervalSet 0x00215254
usrUsb2MscResetTimeoutGet 0x00215290
usrUsb2MscResetTimeoutSet 0x002152bc
usrUsb2MscCommandTimeoutGet 0x002152ec
usrUsb2MscCommandTimeoutSet 0x00215318
usrUsb2MscStatusTimeoutGet 0x00215348
usrUsb2MscStatusTimeoutSet 0x00215374
usrUsb2MscMaxBlocksPerTransferGet 0x002153a4
usrUsb2MscMaxBlocksPerTransferSet 0x002153d0
usrUsb2MscServiceTaskPriorityGet 0x00215400
usrUsb2MscServiceTaskPrioritySet 0x0021542c
usrUsb2MscServiceTaskOptionsGet 0x0021545c
usrUsb2MscServiceTaskOptionsSet 0x00215488
usrUsb2MscServiceTaskStackSizeGet 0x002154b8
usrUsb2MscServiceTaskStackSizeSet 0x002154e4
usrUsb2MscNameInstall 0x00215514
usrUsb2MscNameUninstall 0x00215774
usrUsb2MscReserveDevice 0x0021589c
usrUsb2MscDevNumGet 0x00215954
usrUsb2MscUnreserveDevice 0x002159e4
usrUsb2MscDrvNameGet 0x00215a90
usrUsb2MscServiceTaskNameGet 0x00215ad8
usrUsb2MscComplianceTestLogFileOpen 0x00215b24
usrUsb2MscComplianceTestLogFileClose 0x00215c64
usrUsb2MscComplianceTestLogFileBaseNameSet 0x00215cb4
usrUsb2MscDefaultMediumChangeCallback 0x00215d08
usrUsb2MscInit 0x00215e94
usrUsb2MscUninit 0x00215f0c
usrUsb2MscDumpQuirkyDevices 0x00215f6c
userUsb2MscPrintBuffer 0x002160c0
usrUsb2MscTest 0x00216244
usrUsb2MscDosFsAttachReNotify 0x00216500
usrUsb2MscDosFsAttachNotify 0x00216648
usrUsb2MscAttachNotify 0x0021671c
usrUsb2MscDetachNotify 0x002167e4
usrUsb2MscFsCallbackArgsSet 0x00216940
usrUsb2Serial3GInit 0x00216a08
usrUsbDataServicesInit 0x00216a58
usbdTranslationInit 0x00216c08
usrUsbHubInit 0x00216cd0
usbInit 0x00216d50
usbExit 0x00216df4
usb2WindViewLog 0x00216ebc
usbLogMsg 0x00216fc8
usbHubPollingIntervalGet 0x00217030
usbHubPollingIntervalSet 0x00217054
sysUsbLinksysWusb54EndLoad 0x0021707c
usbLoadLinksysWusb54 0x002171c4
usbLinksysWusb54EndStart 0x002172a0
usbLinksysWusb54AttachCallback 0x002174bc
linksyswusb54AttachCallbackInternal 0x00217554
usrUsbLinksysWusb54EndInit 0x002179b0
usrUsbLinksysWusb54EndDown 0x00217a9c
sysDot11IntConnect 0x00217b98
sysDot11IntDisconnect 0x00217c0c
sysDot11IntEnable 0x00217c80
sysDot11IntDisable 0x00217cec
sysDot11CacheInvalidate 0x00217d58
sysDot11CacheFlush 0x00217dc0
sysDot11WbufFlush 0x00217e28
sysDot11DmaMemFree 0x00217e88
sysDot11BusToVirt 0x00217ea8
sysDot11VirtToBus 0x00217f0c
usbLinksysWusb54Dot11BspInfoInit 0x00217f70
dbgUsbLinksysWusb54EndScan 0x002182ec
dbgUsbLinksysWusb54EndSsidSet 0x00218584
dbgUsbLinksysWusb54EndCallbackFct 0x00218648
dbgUsbLinksysWusb54EndCallbackInstall 0x002187d8
dbgUsbLinksysWusb54MacGet 0x0021888c
dbgUsbLinksysWusb54Deauth 0x002189d0
usrVxbTimerSysInit 0x00218ae4
sysClkConnect 0x00218b48
sysClkDisable 0x00218b90
sysClkEnable 0x00218bc0
sysClkRateGet 0x00218bf0
sysClkRateSet 0x00218c28
sysAuxClkConnect 0x00218c68
sysAuxClkDisable 0x00218cb0
sysAuxClkEnable 0x00218ce0
sysAuxClkRateGet 0x00218d10
sysAuxClkRateSet 0x00218d48
sysTimestampConnect 0x00218d88
sysTimestampDisable 0x00218dd0
sysTimestampEnable 0x00218e08
sysTimestampPeriod 0x00218e40
sysTimestampFreq 0x00218e78
sysTimestamp 0x00218eb0
sysTimestampLock 0x00218ee8
usrWdbBanner 0x00218f20
usrWdbBp 0x002190a0
wdbConfig 0x002190f4
wdbTgtHasCoprocessor 0x002191a0
wdbRtInfoGet 0x00219290
wdbRtConnectInfoGet 0x002194d4
vxReboot 0x0021953c
vxExcHookWrapper 0x00219570
vxExcHookAdd 0x00219aa4
wdbRtIfInit 0x00219aec
wdbCommIfInit 0x00219c84
wdbDeferredStartCallback 0x00219d64
usrWdbGopherInit 0x00219dc4
windviewConfig 0x00219e04
wvOn 0x00219f0c
wvOff 0x0021a230
wvRBuffErrorHandler 0x0021a33c
wdbCommDevInit 0x0021a3cc
usrInit 0x0021a460
usrNetAppInit 0x0021a4fc
usrNetHostInit 0x0021a568
usrNetRemoteInit 0x0021a5a4
usrNetworkInit 0x0021a5d8
usrLoaderInit 0x0021a688
usrWindviewInit 0x0021a6c8
usrShowInit 0x0021a74c
usrSymTblInit 0x0021a7bc
usrShellCmdInit 0x0021a7f0
usrShellInit 0x0021a840
usrToolsInit 0x0021a8a0
usrKernelCoreInit 0x0021a920
usrKernelExtraInit 0x0021a980
usrIosCoreInit 0x0021a9f4
usrIosExtraInit 0x0021aa6c
usrMMComponentsInit 0x0021ab6c
usrRoot 0x0021abb4
usrWdbInit 0x0021acf4
usrDsiInit 0x0021ad9c
hardWareInterFaceBusInit 0x0021add8
hardWareInterFaceInit 0x0021ae3c
vxbDevInit 0x0021ae9c
vxbDevConnect 0x0021aee0
usrFlashFXComponentInit 0x0021af18
usrFlashFXComponentLibInit 0x0021b1b4
usrFlashFXComponentStart 0x0021b218
restoreHub 0x0021b428
ConfigGpio 0x0021b490
ConfigGpioUsb2 0x0021ba7c
ConfigGpioSDCard 0x0021bb10
ConfigOVCGpio 0x0021bbb0
gpioIoctl 0x0021bcbc
Vbatlowtsk 0x0021d1a8
Gpiotsk 0x0021d2c0
Setuserinputfunc 0x0021d458
Unsetuserinputfunc 0x0021d640
GpioHwInit 0x0021d874
IntVbatLow 0x0021dcf0
RDS1Intr 0x0021dd60
IntTmc 0x0021ddd0
IntGpioWkup 0x0021de58
wrpwramp 0x0021e060
rdpwamdiagno 0x0021e1f0
defvbattlowfunc 0x0021e3a4
defvbattkofunc 0x0021e434
defemergencyfunc 0x0021e458
defradiords1func 0x0021e47c
defradiords2func 0x0021e4a0
defclipaudiopwrfunc 0x0021e4c4
defirqtmc 0x0021e4e8
defusbovcfunc 0x0021e50c
enableFlashWrite 0x0021e598
disableFlashWrite 0x0021e5b4
UsbOvcWdg 0x0021e5d0
UsbOvcWdgRst 0x0021e6c0
EnableLVDS 0x0021e760
DisableLVDS 0x0021e934
ReadLvdsStatus 0x0021eb18
PscSioInitFifo 0x0021ed08
A2dpAlarmSet 0x0021f00c
SetPwrAmpCmd_postponed 0x0021f070
Psc_SpiOpen 0x0021f0b4
Psc_SpiClose 0x0021f0e4
Psc_SpiRemove 0x0021f150
Psc_SpiRead 0x0021f244
Psc_SpiWrite 0x0021fd10
Psc_SpiIoctl 0x00220624
Psc_SpiDevInit 0x00220c54
dmaDescSetup 0x00220ebc
Psc_SpiDrv 0x00220efc
Psc_SpiDevCreate 0x00221094
Psc_SpiClockInit 0x00221144
Psc_SpiFifoInit 0x002212d0
Psc_SpiBaudSet 0x002213b4
Psc_SpiOptsSet 0x00221464
Psc_SpiDisable 0x00221604
Psc_SpiResERR 0x002216b0
Psc_SpiHwInit 0x00221728
Psc_SpiSetDma 0x00221d9c
StopBusMonitor 0x00221e98
WriteSpiLinear 0x00221ef4
ReadSpiLinear 0x00221f68
Psc_SpiDisResRX 0x00221fdc
Psc_SpiDisResTX 0x00222010
Psc_SpiReset 0x00222044
Psc_FifoReset 0x00222078
memFileOpen 0x00222100
memFileClose 0x0022221c
memFileRead 0x002222b8
memFileWrite 0x002223ec
memFileIoctl 0x002226c8
memFileDrv 0x00222a50
memFileDevCreate 0x00222af4
GetMemoryFileDeviceName 0x00222bb8
TestTgtSvrConnection 0x00222be0
OpenTgtSvr 0x00222c60
AsyncOpenTgtsvr 0x00222de0
InitAsyncTgtSvr 0x00222e50
EndAsyncTgtSvr 0x00222f44
GetHWDESCRStartAddr 0x00222fd0
GetLoaderStartAddr 0x00222ff8
GetLoaderStartAddrOffset 0x0022301c
GetAddrBootromFlags 0x00223044
GetBootromStartAddr 0x00223068
GetBootromOffset 0x0022308c
I2C_config_postponed 0x002230b0
I2CDrv 0x002230e8
I2CDelete 0x002231ac
I2CDevCreate 0x00223238
I2CDevInit 0x00223468
I2COpen 0x002234d4
I2CClose 0x0022352c
I2CDrvRead 0x00223554
I2CDrvWrite 0x002235dc
I2CDrvIoctl 0x00223664
print_I2C_cmd_pkt 0x00223774
print_I2C_dev 0x00223878
I2CMain 0x00223a60
reinstall_I2C 0x00223bf0
i2cWrite 0x00223c7c
i2cRead 0x00223ed8
wait5us 0x00224138
i2cAccessSemTake 0x00224180
i2cAccessSemGive 0x002241c8
i2cMasterFlagsClr 0x00224208
i2cMasterFlagsSet 0x00224248
i2cMasterFlagsGet 0x00224284
i2cMasterDevName 0x002242b0
i2cSlaveAddrSet 0x002242dc
i2cSlaveAddrGet 0x0022430c
i2cMasterFindByName 0x00224338
i2cSlaveFindByName 0x00224450
i2cLibInit 0x00224568
i2cMasterDevLoad 0x00224608
i2cSlaveDevLoad 0x00224840
i2cMasterObjInit 0x00224a88
i2cSlaveObjInit 0x00224ba0
i2cMasterObjFlagSet 0x00224ce8
m5121I2CReset 0x00224d2c
i2cWaitWhileBusy 0x00224f64
m5121I2CRead 0x00225250
m5121I2CWrite 0x00225730
I2C2Intr 0x00225b28
I2C1Intr 0x00226a5c
waitforus 0x00227990
m5121I2CInitParse 0x002279b4
m5121I2CDrvLoad 0x00227ae8
timeWaitms 0x00227dcc
searchConfigIndex 0x00227e04
InitDmaBuffers 0x00227e94
StopBM 0x00227ef0
memcpyNew 0x0022807c
WriteLinear 0x00228168
WriteCircular 0x002281bc
Writebufmultiple 0x00228304
ReadLinear 0x0022848c
Readbufmultiple 0x0022856c
ReadCircular 0x002285c0
I2SSetdma 0x00228708
psc_fifoc_txslice_init 0x002297e8
psc_fifoc_rxslice_init 0x00229894
I2SSetMute 0x00229940
writeI2SDma 0x00229978
dmaDescSetup 0x0022b558
PSCReset 0x0022b598
readI2SDma 0x0022b5d8
DebugI2sIpod 0x0022c24c
i2sOpen 0x0022c368
i2sClose 0x0022c398
i2sWrite 0x0022c4a4
i2sRead 0x0022c5d0
i2sIoctl 0x0022c6ec
i2sDrv 0x0022d91c
i2sDevCreate 0x0022d9c0
Usri2sInit 0x0022dd4c
dumpi2sparam 0x0022dfbc
i2sdb 0x0022e110
ossdb2 0x0022e678
ossts 0x0022e91c
changeFreq 0x0022ebc0
i2sdbr 0x0022eccc
readMic 0x0022ef94
testIsout 0x0022f20c
psc_enable_irq_from_dma2 0x0022f394
I2S_PSC_init 0x0022f3d0
I2S_init 0x0022f45c
TestMicEcho 0x0022f4e8
I2swrpioint 0x0022f600
I2StimeoutISR 0x0022f7ac
m5200I2SwdStart 0x0022f7d8
readI2SPio 0x0022f850
writeI2SPio 0x0022fa84
resetPSC 0x0022faac
enablePSC 0x0022fb0c
disablePSC 0x0022fb3c
GetI2sFrequency 0x0022fb7c
initPSC 0x0022fc54
Psc_I2SHwInit 0x0023053c
SetFreq 0x00230598
GetFreq 0x002305c8
Set441KhzHigh 0x002305f4
Set441KhzLow 0x00230624
Set48KhzHigh 0x00230654
Set48KhzLow 0x00230684
StartI2sLog 0x002306b4
StopI2sLog 0x0023070c
RegisterCallbackBeforeFreqChange 0x00230748
RegisterCallbackAfterFreqChange 0x0023077c
ManageCallbackBeforeFreqChange 0x002307b0
ManageCallbackAfterFreqChange 0x0023081c
ossVersion 0x00230888
ossOpen 0x002308c4
ossClose 0x00230d68
ossRead 0x00231298
ossWrite 0x002312c8
ossIoctl 0x002321a4
ossDrv 0x00234c68
ossDevCreate 0x00234ce0
ossStart 0x00235608
cbBefore 0x002358ac
cbAfter 0x002358f8
AttachCbs 0x00235944
TriggerCbs 0x00235a0c
page_to_phys 0x00235abc
__free_pages 0x00235b28
__va 0x00235b90
mem_map_reserve 0x00235bfc
alloc_pages 0x00235c60
atan2f 0x00235cd0
sqrtf 0x00235d24
ceilf 0x00235d6c
fmodf 0x00235db4
sinf 0x00235e08
cosf 0x00235e50
fabsf 0x00235e98
powf 0x00235ee0
floorf 0x00235f34
dmaCallback 0x00235f7c
altDmaMemCopyLong 0x00235fcc
dmaCopyLong 0x00236040
qtDmaMemCopyLong 0x002362cc
altSysUsDelay 0x00236340
profilingStart 0x002363ac
profilingEnd 0x0023642c
profDump 0x002365dc
profErase 0x00236748
FastChargeAvailable 0x00236800
usbIpodCheckVendorIdProductId 0x002368f8
ipodNumConf 0x00236ba8
ipodChangeConf 0x00236c50
ipodInfo 0x00236eb8
usbIpodConfigFinder 0x00237974
findSioChan 0x002381e8
notifyAttach 0x002382a4
destroySioChan 0x00238378
createSioChan 0x00238820
initIPODIrp 0x00238a68
configureSioChan2 0x00238f70
configureSioChan 0x002393d8
hidRep 0x0023b574
usbDescrParseLocal 0x0023b6d8
usbIpodAttachCallback 0x0023c130
destroyAttachRequest 0x0023c79c
doShutdown 0x0023c818
usbIpodDevInit 0x0023c93c
usbIpodTxStartup 0x0023cb20
usbIpodIoctl 0x0023cb48
usbIpodCallbackInstall 0x0023cb78
nextInChar 0x0023cca0
usbIpodPollOutput 0x0023cd44
usbIpodPollInput 0x0023cd74
usbIpodIrpCallback 0x0023ce38
setIpodReport 0x0023d304
SendIapReport 0x0023d4f4
usbHidReportGet 0x0023d9dc
setLedReport 0x0023dae8
usrUsbIpodOpen 0x0023dc04
usrUsbIpodRead 0x0023dc38
usrUsbIpodWrite 0x0023deac
usrUsbIpodClose 0x0023e080
usrUsbIpodIoctl 0x0023e0a8
usrUsbIpodDevFind 0x0023e0d8
usrUsbIpodDevDelete 0x0023e10c
usbIpodSioChanLock 0x0023e13c
usbIpodSioChanUnlock 0x0023e188
usbIpodDynamicAttachRegister 0x0023e2c0
usbIpodDevShutdown 0x0023e49c
usbIpodDynamicAttachUnRegister 0x0023e548
usbIsochIpodDevCreate 0x0023e664
usbIsochIpodDevDelete 0x0023e794
usbIsochIpodDevFind 0x0023e890
usbIsochIpodDrvAttachCallback 0x0023e998
usbIsochIpodDrvUnInit 0x0023eaf4
usbIsochIpodOpen 0x0023ec20
usbIsochIpodClose 0x0023ed1c
usbIsochIpodIoctl 0x0023ee20
usbIsochIpodRead 0x0023eef8
usbIsochIpodWrite 0x0023efd4
usrIsochIpodInit 0x0023f040
usbIpodDevCreate 0x0023f12c
usbIpodDevDelete 0x0023f378
usbIpodDevFind 0x0023f5b0
usbIpodDrvAttachCallback 0x0023f6c4
usbIpodDrvUnInit 0x0023f904
usbIpodOpen 0x0023fa04
usbIpodClose 0x0023fb40
usbIpodIoctl 0x0023fc3c
usbIpodRead 0x0023fce8
usbIpodWrite 0x0023fdb0
usrUsbIpodInit 0x0023fe80
profilingStart 0x002400d4
profilingEnd 0x00240138
profGroupDump 0x002402cc
profilingDump 0x00240474
fileRW 0x00240504
dirName 0x002406c0
fileName 0x0024078c
fsTest 0x002408ac
dirNameWildcard 0x00240f74
nameIsDir 0x00240ff0
dirListPattern 0x002410a8
recursiveXDelete 0x002412c8
usrFsPathQuery 0x0024160c
usrPathSplit 0x002416b0
lxdelete 0x0024184c
mapPrintAllMap 0x0024199c
imapSearchMapAddr 0x00241d5c
imapSearchMapFile 0x00241e5c
mmanLibInit 0x00242020
mmanFdLibInit 0x0024232c
mmap 0x00242364
mmap64 0x002423d8
munmap 0x00243054
dmaCallback 0x00244514
dmaNFCBCopy 0x00244564
dmaCopyFromNFC 0x002446dc
dmaCopyToNFC 0x00244778
Initialize 0x00244814
Reflect 0x00244990
PartialCRC 0x00244a40
FileCRC 0x00244ae0
StreamCRC 0x00244ce0
StreamCRC_Ram 0x00244ec8
CalcCRC 0x002450b4
TakeMutexNANDAccess 0x00245130
GiveMutexNANDAccess 0x00245204
ShowMutexNANDAccess 0x00245294
ReadNandPage 0x00245310
TestNandRaw 0x00245510
WriteNandPage 0x00245670
bbtBadBlockCountBetween 0x00245794
SkipBadBlock 0x002458e0
WriteNand_FileOffset 0x00245ae8
WriteNand_File 0x002460a0
ReadNand_File 0x00246144
WriteNand_Addr_Safe 0x002465bc
WriteNand_Addr 0x00246974
WriteNandNoErase_Addr 0x002469fc
ReadNand_Addr_Safe 0x00246a84
ReadNand_Addr 0x00246eac
EraseNandBlk 0x00246f28
getUBootVersion 0x00246fe8
UBootVersionShow 0x0024727c
countBadBlocks 0x002472c4
ShowBbt 0x0024732c
GetBbtTable 0x0024756c
TestBbt 0x0024780c
ShowUniqueId 0x00247968
ReadNand_area 0x00247ab8
viuReset 0x00247e94
viuReadBufGetNext 0x00247f58
viuStop 0x00248374
viuInt_Stop 0x00248618
viuInt 0x00248678
viuStart 0x0024981c
driverRequest 0x0024a05c
diuFbGet 0x0024a124
AnalogVideoON 0x0024a1fc
AnalogVideoOFF 0x0024a388
ViuDiagnosticStart 0x0024a3c0
SAF7115_Restart_DummyFunc 0x0024a530
Set_SAF7115_Restart_Func 0x0024a588
ADV7180_Restart_DummyFunc 0x0024a610
Set_ADV7180_Restart_Func 0x0024a664
newDataWrapper 0x0024a6ec
findDataWrapper 0x0024a7bc
releaseDataWrapper 0x0024a8e0
attachWrapper 0x0024a92c
detachWrapper 0x0024a9a4
usbBulkDynamicAttachRegister 0x0024aa1c
usbBulkDynamicAttachUnregister 0x0024ab0c
setUserUsbFunc 0x0024abc4
usrUsbBulkShow 0x0024abf0
UsbWifiGetMacAdress 0x0024ac50
UsbWifiDisconnect 0x0024ade4
UsbWifiGetSSID 0x0024af28
UsbWifiScanNetTas 0x0024b020
UsbWifiLoadLinksys 0x0024b0e0
UsbWifiConnect 0x0024b150
UsbWifiScanNetworks 0x0024b6b4
support 0x0024bc14
UsbWifiGetParameters 0x0024bd58
UsbWifiGetQualityParameter 0x0024c360
UsbWifiGetSecurity 0x0024c490
UsbWifiSetSecurity 0x0024c710
UsbWifiSetParameters 0x0024c994
UsbWifiScanAndCleanNetworkList 0x0024cd3c
dbgUsbLinksysWusb54SSIDSet 0x0024ddcc
usbGsmRoamingEnable 0x0024deb0
usbGsmRoamingDisable 0x0024df44
mtChecksum 0x0024dfd8
tarWrtBlks 0x0024e058
tarCreateHdr 0x0024e28c
tarGzArchDo 0x0024e460
tarGzArchive 0x0024eb54
_ZN10EarlyAlert12GetLogBufferERPhRj 0x0024ede8
_ZN10EarlyAlert10GetLogFileEv 0x0024ee2c
_ZN10EarlyAlert12AddDataInSpyEPKcj 0x0024eea4
_ZN10EarlyAlert10LogSpyDataEPciiiiii 0x0024ef8c
_ZN10EarlyAlert27EarlyAlert_ErrorMsgQReceiveEv 0x0024f0b0
_ZN10EarlyAlert18IsInputDataChangedERN16C_BCM_FP_LIB_COM26t_bcm_fp_libcom_syst_stateER27t_bcm_fp_libcom_onoff_stateR31t_bcm_fp_libcom_cde_ptr_message 0x0024f108
_ZN10EarlyAlert17DisplayPtrMessageEPcR31t_bcm_fp_libcom_cde_ptr_message 0x0024f324
_ZN10EarlyAlert18DisplayAlertStatusEv 0x0024f438
_ZN10EarlyAlert13DisplayConfigEv 0x0024f484
_ZN10EarlyAlertC1Ev 0x0024f4f8
_ZN10EarlyAlertC2Ev 0x0024f668
_ZN10EarlyAlert14GetOnOffStatusER27t_bcm_fp_libcom_onoff_state 0x0024f7d8
_ZN10EarlyAlert13GetDiagConfigER27t_bcm_fp_libcom_diag_config 0x0024f854
_ZN10EarlyAlert10ReadConfigEv 0x0024f8d0
_ZN10EarlyAlert13GetAlertFrameER31t_bcm_fp_libcom_cde_ptr_message 0x0024fa10
_ZN10EarlyAlert10ShowStatusEv 0x0024fa8c
_ZN10EarlyAlert12GetInputDataERN16C_BCM_FP_LIB_COM26t_bcm_fp_libcom_syst_stateER27t_bcm_fp_libcom_onoff_stateR31t_bcm_fp_libcom_cde_ptr_message 0x0024fcc8
_ZN10EarlyAlert20WrapPeriodicWatchdogEPS_ 0x0024fe90
_ZN10EarlyAlert6UnlockEv 0x0024ffb8
_ZN10EarlyAlert4LockEv 0x00250020
_ZN10EarlyAlert29IsTransitionFromBSToClassicBSEv 0x0025008c
_ZN10EarlyAlert29IsTransitionFromClassicBSToBSEv 0x00250148
_ZN10EarlyAlert19IsTransitionOnToOffEv 0x00250204
_ZN10EarlyAlert30IsTransitionFromClassicBSToOffEv 0x00250298
_ZN10EarlyAlert23IsTransitionFromBSToOffEv 0x00250320
_ZN10EarlyAlert19IsTransitionOffToOnEv 0x002503a8
_ZN10EarlyAlert30IsTransitionFromOffToClassicBSEv 0x0025043c
_ZN10EarlyAlert23IsTransitionFromOffToBSEv 0x0025052c
_ZN10EarlyAlert10IsNewAlertEv 0x00250624
_ZN10EarlyAlert17IsToggledNouvMessEv 0x002506b4
_ZN10EarlyAlert23ClassicBootScreenActionEv 0x0025073c
_ZN10EarlyAlert18BootScreenActionOnEv 0x002507b4
_ZN10EarlyAlert19BootScreenActionOffEv 0x00250880
_ZN10EarlyAlert11ChangeStateE19t_early_alert_state 0x002508f8
_ZN10EarlyAlert14TreatInputdataEv 0x002509e8
_ZN10EarlyAlert14IsAlertAllowedEv 0x00250b44
_ZN10EarlyAlert12PeriodicTaskEv 0x00250bbc
_ZN10EarlyAlert19PeriodicTaskWrapperEPS_ 0x00250fcc
_ZN10EarlyAlert19GetEarlyAlertStatusER20t_early_alert_status 0x00251010
_ZN10EarlyAlert13FlushQmessageEv 0x002510d0
_ZN10EarlyAlert5CloseEv 0x002511e8
_ZN10EarlyAlert4InitEv 0x00251338
_ZN10EarlyAlert8InstanceEv 0x00251594
_Z20EarlyAlertShowStatusv 0x00251628
GetEarlyAlertStatus 0x00251664
EarlyAlert_Close 0x002516cc
EarlyAlert_Init 0x00251708
_ZN10EarlyAlertD0Ev 0x00251744
_ZN10EarlyAlertD1Ev 0x0025179c
_ZN10EarlyAlertD2Ev 0x002517f4
WriteNANDBigQuick 0x0025184c
VerifyNANDBigQuick 0x00251a94
FillStructExtraData 0x00251bc4
GetDbsAreaExtraDataStatus 0x00251ce0
writeParam 0x00251dfc
readParam 0x0025209c
ShowStoredDbsExtraData 0x002522b8
FillStructHeaderHarmony 0x00252484
WriteNANDHarmony 0x002526e8
WriteNANDHarmonyExtended 0x00252bb4
GetHarmonyHeader 0x002530cc
GetHarmonyVersion 0x002531c0
GetHarmonyGenerationVersion 0x00253258
GetHarmonyName 0x002532f0
GetHarmonyUniversalNumber 0x00253388
GetHarmonyOffset 0x00253428
GetHarmonyNumber 0x002534c8
GetHarmonyAreaStatus 0x00253568
EraseNandHarmony 0x002536ec
ShowNandHarmony 0x002538d0
ShowNandHarmonies 0x00253978
FillStructHeaderLogo 0x002539a8
GetHeaderLogo 0x00253a78
WriteNANDLogo 0x00253b50
VerifyNANDLogo 0x00253e84
GetNANDCRC32Logo 0x00253fe0
GetLogoAreaStatus 0x0025404c
CheckCRCHeaderLogoAreaStatus 0x002541c0
ReadNand_Logo 0x002542b8
GetLogoSizes 0x00254314
LoadInRamLogoAndAlertsFile 0x002543f8
CheckSizeLogoAndAlertsFile 0x002545d4
VerifyNANDLogoAndAlerts 0x002546d4
CheckCRCLogoAndAlertsFile 0x00254804
FlashLogoAndAlertsFile 0x00254a24
GetLogoAndAlertsStatus 0x00254ea4
WriteNANDLogoAndAlerts 0x0025505c
GetLogoAndAlertsSizes 0x002551c0
ReadNANDAlert 0x00255378
LogoAndAlertsHeaderShow 0x00255638
LogoAndAlertsShowStatus 0x0025592c
FlashNandBbtTestRawDataPage 0x0025599c
FlashNandBbtTestMapping 0x00255b74
FlashNandBbtTestFull 0x002563e0
prepareCommand 0x002564e8
InitADV7180Dev 0x002565f8
initADVForAdv 0x00256b50
StatusADV7180Dev 0x00256ba0
WriteADV7180Dev 0x00256be8
ReadADV7180Dev 0x00256de4
initDisk 0x00256fec
vstart 0x0025704c
vstopFile 0x0025718c
vstop 0x002572f8
TapDriverInitActivate 0x0025736c
TapDriverInstall 0x002573fc
TapDeviceCreate 0x002574a0
TapOpen 0x00257640
TapClose 0x0025771c
TapRead 0x002577d0
TapWrite 0x00257a2c
TapIoctl 0x00257c38
BSP_SSM_Stop_DummyFunc 0x00257e38
Set_BSP_SSM_Stop_EventFunc 0x00257e88
tUsb2FsAppNotifierTask 0x00257f10
usb2FsNotifierInit 0x00258098
usb2FsNotifyPost 0x002581f8
BootRomInterruptBootTask 0x00258288
usb2FsMountReady 0x002583b0
audioIfRequest 0x002584b4
findAudioDescrByUnit 0x002585c8
findAudioDescrSkip 0x00258710
findAudioDescr 0x002588a4
buildAudioMap 0x00258920
parseInterface 0x00258b3c
buildFormatList 0x00258f0c
parseAudioConfig 0x00259024
configureSeqDev 0x002590d4
destroyAudioStream 0x002593c0
setIsochIPODIrp 0x002596ec
initIsochIPODIrp 0x00259bac
resetAudioRead 0x00259d04
selectBandWidth 0x00259f7c
openAudioStream 0x0025a840
closeAudioStream 0x0025a898
usbIsochIpodIrpCallback 0x0025a8f0
usbIsochIpodSeqRd 0x0025b4e8
usbIsochIpodSeqWrt 0x0025b95c
SetFreqOut 0x0025b990
usbIsochIpodIoctl 0x0025baf4
usbIsochIpodSeqWrtFileMarks 0x0025bf44
usbIsochIpodRewind 0x0025bf74
usbIsochIpodReserve 0x0025bf9c
usbIsochIpodRelease 0x0025c028
usbIsochIpodReadBlkLim 0x0025c0b4
usbIsochIpodLoad 0x0025c118
usbIsochIpodSpace 0x0025c144
usbIsochIpodErase 0x0025c174
destroyAttachRequest 0x0025c19c
destroySeqDev 0x0025c1e0
createSeqDev 0x0025c44c
findSeqDev 0x0025c78c
notifyAttach 0x0025c814
InitIpodStrategy 0x0025c908
debugStrategy 0x0025c9c0
usbIsochIpodConfigFinder 0x0025ca38
usbIsochIpodAttachCallback 0x0025ce90
doShutdown 0x0025d054
usbIsochIpodDevInit 0x0025d144
usbIsochIpodDevShutdown 0x0025d2dc
usbIsochIpodDynamicAttachRegister 0x0025d388
usbIsochIpodDynamicAttachUnRegister 0x0025d4ec
usbIsochIpodSeqDevLock 0x0025d5d4
usbIsochIpodSeqDevUnlock 0x0025d654
usbIsochIpodSeqDevShow 0x0025d734
saf7115_attach 0x0025d8fc
saf7115_writeregs 0x0025da00
StatusSAF7115Dev 0x0025dab0
StVBIDataVDDev 0x0025daf8
RdVBIDataVDDev 0x0025db40
ReadSAF7115Dev 0x0025db88
WriteSAF7115Dev 0x0025ddbc
SetUpSAF7115Dev 0x0025dfe4
InitSAF7115Dev 0x0025e140
saf7115PowerOn 0x0025e1d8
saf7115PowerOn_TASKB 0x0025e218
saf7115PowerOFF 0x0025e258
SetUpVDDevTASKB 0x0025e298
GetNandHarmonyAddress 0x0025e364
GetNandHarmonyNbBlocks 0x0025e41c
GetNandBigHarmonyCount 0x0025e4d4
CheckBigHarmonyInfFile 0x0025e594
GetBigHarmonyPagesToSkip 0x0025e7e8
GetBigHarmonyPageAndSize 0x0025e8ec
CheckBigHarmonySizeFit 0x0025ead4
WriteBigHarmony 0x0025ed18
EraseAllHarmonies 0x0025f05c
ReadBigHarmonyPreHeader 0x0025f18c
ReadBigHarmonyHeaderInternal 0x0025f318
ReadBigHarmonyHeaderFreeInternal 0x0025f508
ReadBigHarmonyBigHeader 0x0025f58c
ReadBigHarmonyHeader 0x0025f678
ReadBigHarmony 0x0025f7d8
printString 0x0025f9bc
ShowOneBigHarmony 0x0025faa0
ShowBigHarmony 0x0025fcbc
ShowBigHarmonies 0x002601f8
CheckBigHarmony 0x002602d8
CheckBigHarmonies 0x00260484
Diag_Close 0x0026055c
_Z8DIAGmainv 0x00260570
Diag_Write 0x002606c4
Diag_Read 0x00260744
Diag_Open 0x002607b8
Diag_Remove 0x0026082c
Diag_Create 0x002608f4
Diag_Driver 0x002609dc
Eol_Close 0x00260a9c
_Z7EOLmainv 0x00260ab0
Eol_Write 0x00260c04
Eol_Read 0x00260c84
Eol_Open 0x00260cf8
Eol_Remove 0x00260d6c
Eol_Create 0x00260e34
Eol_Driver 0x00260f1c
Fp_Close 0x00260fc8
Fp_Ioctl 0x00260fdc
_Z6FPmainv 0x00260fe4
Fp_Write 0x00261138
Fp_Read 0x002611b8
Fp_Open 0x0026122c
Fp_Remove 0x002612a0
Fp_Create 0x00261368
Fp_Driver 0x00261450
Kbd_Close 0x00261500
_Z7KBDmainv 0x00261514
Kbd_Write 0x00261668
Kbd_Read 0x002616e8
Kbd_Open 0x0026175c
Kbd_Remove 0x002617d0
Kbd_Create 0x00261898
Kbd_Driver 0x00261980
Libcom_Close 0x00261a2c
_Z10LIBCOMmainv 0x00261a40
Libcom_Write 0x00261b94
Libcom_Read 0x00261c5c
Libcom_Open 0x00261cd0
Libcom_Remove 0x00261d44
Libcom_Create 0x00261e20
Libcom_Driver 0x00261f08
Net_Close 0x00261fb4
_Z7NETmainv 0x00261fc8
Net_Write 0x0026211c
Net_Read 0x0026219c
Net_Open 0x00262210
Net_Remove 0x00262284
Net_Create 0x0026234c
Net_Driver 0x00262434
Upg_Close 0x002624e0
_Z7UPGmainv 0x002624f4
Upg_Write 0x00262648
Upg_Read 0x002626c8
Upg_Open 0x0026273c
Upg_Remove 0x002627b0
Upg_Create 0x0026288c
Upg_Driver 0x00262974
_ZN28C_BCM_FP_LIBCOM_PRESENTATION10ShowStatusEv 0x00262a20
_ZN28C_BCM_FP_LIBCOM_PRESENTATION20WrapPeriodicWatchdogEPS_ 0x00262a70
_ZN28C_BCM_FP_LIBCOM_PRESENTATION8SwitchOnEv 0x00262ae4
_ZN28C_BCM_FP_LIBCOM_PRESENTATION13GetAlertFrameER31t_bcm_fp_libcom_cde_ptr_message 0x00262d3c
_ZN28C_BCM_FP_LIBCOM_PRESENTATION14GetOnOffStatusER27t_bcm_fp_libcom_onoff_state 0x00262e34
_ZN28C_BCM_FP_LIBCOM_PRESENTATION9GetZADataEP23t_bcm_fp_libcom_ZA_data 0x00262f18
_ZN28C_BCM_FP_LIBCOM_PRESENTATION10UpdateDataEP22BCM_FP_DEV_LIBCOM_DATA 0x00262fbc
_ZN28C_BCM_FP_LIBCOM_PRESENTATION8ReadTaskEv 0x00263234
_ZN28C_BCM_FP_LIBCOM_PRESENTATION5WriteEhhPKh 0x00263584
_ZN28C_BCM_FP_LIBCOM_PRESENTATION16SetResetBlackfinEt 0x00263828
_ZN28C_BCM_FP_LIBCOM_PRESENTATION13GetDiagConfigER27t_bcm_fp_libcom_diag_config 0x00263940
_ZN28C_BCM_FP_LIBCOM_PRESENTATION13GetEolHwIdentER26C_FP_LIB_COM_DATA_HW_IDENT 0x00263aa0
_ZN28C_BCM_FP_LIBCOM_PRESENTATION12PeriodicTaskEv 0x00263c0c
_ZN28C_BCM_FP_LIBCOM_PRESENTATION5CleanEv 0x00264044
_ZN28C_BCM_FP_LIBCOM_PRESENTATION5CloseEv 0x002640a8
_ZN28C_BCM_FP_LIBCOM_PRESENTATION4InitEv 0x002641b8
_ZN28C_BCM_FP_LIBCOM_PRESENTATIOND0Ev 0x00264750
_ZN28C_BCM_FP_LIBCOM_PRESENTATIOND1Ev 0x002647b8
_ZN28C_BCM_FP_LIBCOM_PRESENTATIOND2Ev 0x00264800
_ZN28C_BCM_FP_LIBCOM_PRESENTATIONC1Ev 0x00264848
_ZN28C_BCM_FP_LIBCOM_PRESENTATION8InstanceEv 0x002649c8
_ZN28C_BCM_FP_LIBCOM_PRESENTATION16WrapPeriodicTaskEv 0x00264a58
_ZN28C_BCM_FP_LIBCOM_PRESENTATION12WrapReadTaskEv 0x00264a94
_ZN28C_BCM_FP_LIBCOM_PRESENTATIONC2Ev 0x00264ad0
_ZN16C_BCM_FP_LIB_COM13FlashStopDataERNS_29t_bcm_fp_lib_com_flash_statusE 0x00264c50
_Z19MyTestFlashStopDatav 0x00264cb8
_ZN16C_BCM_FP_LIB_COM9FlashDataERNS_27t_bcm_fp_lib_com_flash_dataERNS_29t_bcm_fp_lib_com_flash_statusE 0x00264d3c
_Z23MyTestFlashDataChecksumv 0x00264e0c
_Z21MyTestFlashDataLoaderv 0x00264f14
_Z15MyTestFlashDatav 0x00265038
_ZN16C_BCM_FP_LIB_COM14FlashStartDataEv 0x00265170
_Z20MyTestFlashStartDatav 0x002651b4
_ZN16C_BCM_FP_LIB_COM11EraseLoaderERNS_29t_bcm_fp_lib_com_flash_statusE 0x00265214
_Z17MyTestEraseLoaderv 0x00265274
_ZN16C_BCM_FP_LIB_COM10EraseAppliERNS_29t_bcm_fp_lib_com_flash_statusE 0x002652f8
_Z16MyTestEraseAppliv 0x00265358
_ZN16C_BCM_FP_LIB_COM13SetLoaderModeEv 0x002653dc
_Z19MyTestSetLoaderModev 0x00265420
_ZN16C_BCM_FP_LIB_COM15GetUpgBlReleaseER28C_FP_LIB_COM_DATA_BL_RELEASE 0x00265480
_Z21MyTestGetUpgBlReleasev 0x002654c4
_ZN16C_BCM_FP_LIB_COM15GetEolBlReleaseER28C_FP_LIB_COM_DATA_BL_RELEASE 0x00265568
_Z21MyTestGetEolBlReleasev 0x002655ac
_ZN16C_BCM_FP_LIB_COM15GetEolSwReleaseER28C_FP_LIB_COM_DATA_SW_RELEASE 0x00265650
_Z21MyTestGetEolSwReleasev 0x00265694
_ZN16C_BCM_FP_LIB_COM14GetSystemStateERNS_26t_bcm_fp_libcom_syst_stateE 0x00265738
_Z20MyTestGetSystemStatev 0x002657e8
_ZN16C_BCM_FP_LIB_COM11ExitEolModeEv 0x0026584c
_Z17MyTestExitEolModev 0x002658b0
_ZN16C_BCM_FP_LIB_COM12EnterEolModeEv 0x00265910
_Z18MyTestEnterEolModev 0x00265974
_ZN16C_BCM_FP_LIB_COM9GetZADataEP23t_bcm_fp_libcom_ZA_data 0x002659d4
_ZN16C_BCM_FP_LIB_COM14GetUpgConfDataEP29t_bcm_fp_libcom_upg_conf_data 0x00265a18
_ZN16C_BCM_FP_LIB_COM17GetSystemConfDataEP32t_bcm_fp_libcom_system_conf_data 0x00265a5c
_ZN16C_BCM_FP_LIB_COM14SetUpgConfDataEP29t_bcm_fp_libcom_upg_conf_data 0x00265aa0
_ZN16C_BCM_FP_LIB_COM17SetSystemConfDataEP32t_bcm_fp_libcom_system_conf_data 0x00265af4
_ZN16C_BCM_FP_LIB_COM20SetManufacturingDataEPh 0x00265b48
_ZN16C_BCM_FP_LIB_COM9SetZADataEP29t_bcm_fp_libcom_write_ZA_data 0x00265b9c
_ZN16C_BCM_FP_LIB_COM11GetZAStatusEPb 0x00265bf0
_ZN16C_BCM_FP_LIB_COM20GetManufacturingDataEPh 0x00265c44
_ZN16C_BCM_FP_LIB_COM9GetZADataEP29t_bcm_fp_libcom_write_ZA_data 0x00265c88
_ZN16C_BCM_FP_LIB_COM13GetAlertFrameER31t_bcm_fp_libcom_cde_ptr_message 0x00265ccc
_Z19MyTestGetAlertFramev 0x00265d10
_ZN16C_BCM_FP_LIB_COM13GetDiagConfigER27t_bcm_fp_libcom_diag_config 0x00265e4c
_Z19MyTestGetDiagConfigv 0x00265e90
_ZN16C_BCM_FP_LIB_COM14GetOnOffStatusER27t_bcm_fp_libcom_onoff_state 0x00265f2c
_Z20MyTestGetOnOffStatusv 0x00265fc8
_ZN16C_BCM_FP_LIB_COM16SetResetBlackfinEt 0x0026618c
_Z22MyTestSetResetBlackfint 0x00266220
_ZN16C_BCM_FP_LIB_COM13GetEolHwIdentER26C_FP_LIB_COM_DATA_HW_IDENT 0x00266284
_Z19MyTestGetEolHwIdentv 0x002662c8
_ZN16C_BCM_FP_LIB_COM10ShowStatusEv 0x002663b4
_ZN16C_BCM_FP_LIB_COM5CloseEv 0x00266594
_Z15TestCloseLibComv 0x002666b4
_ZN16C_BCM_FP_LIB_COM4InitEv 0x00266740
_ZN16C_BCM_FP_LIB_COMD0Ev 0x0026690c
_ZN16C_BCM_FP_LIB_COMD1Ev 0x00266974
_ZN16C_BCM_FP_LIB_COMD2Ev 0x002669bc
_ZN16C_BCM_FP_LIB_COMC1Ev 0x00266a04
_ZN16C_BCM_FP_LIB_COM8InstanceEv 0x00266ab0
_Z20TestInitializeLibComv 0x00266b40
_ZN16C_BCM_FP_LIB_COM25BCM_FP_LIB_COM_ShowStatusEv 0x00266b90
_ZN16C_BCM_FP_LIB_COMC2Ev 0x00266be0
_ZN26C_FP_LIB_COM_DATA_HW_IDENTC2Ev 0x00266c8c
_ZN26C_FP_LIB_COM_DATA_HW_IDENTC1Ev 0x00266ca4
_ZN28C_FP_LIB_COM_DATA_BL_RELEASE12SetBlReleaseEhhh 0x00266cbc
_ZN28C_FP_LIB_COM_DATA_BL_RELEASEC1Ev 0x00266d0c
_ZN28C_FP_LIB_COM_DATA_BL_RELEASEC2Ev 0x00266d44
_ZN28C_FP_LIB_COM_DATA_SW_RELEASE12SetSwReleaseEhhh 0x00266d7c
_ZN28C_FP_LIB_COM_DATA_SW_RELEASEC1Ev 0x00266dcc
_ZN28C_FP_LIB_COM_DATA_SW_RELEASEC2Ev 0x00266e04
_ZN25C_BCM_FP_LIB_PROTOCOL_SPI16SetFpDeviceUsingEb 0x00266e3c
_ZN25C_BCM_FP_LIB_PROTOCOL_SPI17SetEolDeviceUsingEb 0x00266e48
_ZN25C_BCM_FP_LIB_PROTOCOL_SPI17SetKbdDeviceUsingEb 0x00266e54
_ZN25C_BCM_FP_LIB_PROTOCOL_SPI18SetDiagDeviceUsingEb 0x00266e60
_ZN25C_BCM_FP_LIB_PROTOCOL_SPI17SetNetDeviceUsingEb 0x00266e6c
_ZN25C_BCM_FP_LIB_PROTOCOL_SPI17SetUpgDeviceUsingEb 0x00266e78
_ZN25C_BCM_FP_LIB_PROTOCOL_SPI20SetLibcomDeviceUsingEb 0x00266e84
_ZN25C_BCM_FP_LIB_PROTOCOL_SPI10KillFPCommEv 0x00266e90
_ZN25C_BCM_FP_LIB_PROTOCOL_SPI19FPSpiIsRxEmptyFrameEPh 0x00266ea0
_ZN25C_BCM_FP_LIB_PROTOCOL_SPI21FPSpiCalculNbrSegmentEh 0x00266ec0
_ZN25C_BCM_FP_LIB_PROTOCOL_SPI18FPSpiUpdateTxQueueE30t_bcm_fp_lib_spi_ctrl_ack_nack 0x00266f04
_ZN25C_BCM_FP_LIB_PROTOCOL_SPI10ShowStatusEv 0x00266f9c
_ZN25C_BCM_FP_LIB_PROTOCOL_SPI25FPSpiClearRxWaitingBufferEv 0x00267048
_ZN25C_BCM_FP_LIB_PROTOCOL_SPI19FPSpiBuildSyncFrameEv 0x0026708c
_ZN25C_BCM_FP_LIB_PROTOCOL_SPI16FPSpiPushRxQueueEPhh 0x002670c8
_ZN25C_BCM_FP_LIB_PROTOCOL_SPI20CloseLibcomInterfaceEv 0x0026718c
_ZN25C_BCM_FP_LIB_PROTOCOL_SPI18FPSpiResetTxBufferEv 0x002672b8
_ZN25C_BCM_FP_LIB_PROTOCOL_SPIC1Ev 0x002672f0
_ZN25C_BCM_FP_LIB_PROTOCOL_SPIC2Ev 0x002674b8
_ZN25C_BCM_FP_LIB_PROTOCOL_SPI19FPSpiCalculFrameCRCEPhh 0x00267680
_ZN25C_BCM_FP_LIB_PROTOCOL_SPI11FPSpiSetMsgEhhPKhh 0x002676b4
_ZN25C_BCM_FP_LIB_PROTOCOL_SPI5WriteEPK21TYPE_LIB_KEY_MSG_DATAh 0x00267a48
_ZN25C_BCM_FP_LIB_PROTOCOL_SPI24FPSpiPrepareNextNewFrameEb 0x00267aa4
_ZN25C_BCM_FP_LIB_PROTOCOL_SPI14FPSpiSyncTreatEv 0x00267d64
_ZN25C_BCM_FP_LIB_PROTOCOL_SPI13FPSpiCheckCRCEPhh 0x00267e78
_ZN25C_BCM_FP_LIB_PROTOCOL_SPI23FPSpiIsMsgDecapsulateOKEPh 0x00267f34
_ZN25C_BCM_FP_LIB_PROTOCOL_SPI18FPSpiSendToApplMsgEv 0x00267fa0
_ZN25C_BCM_FP_LIB_PROTOCOL_SPI26FPSpiIsCtrlReceivedCorrectEv 0x002684f8
_ZN25C_BCM_FP_LIB_PROTOCOL_SPI25FPSpiIsMsgReceivedCorrectEv 0x002685b0
_ZN25C_BCM_FP_LIB_PROTOCOL_SPI17FPSpiControlTreatEv 0x00268668
_ZN25C_BCM_FP_LIB_PROTOCOL_SPI17FPSpiMessageTreatEv 0x00268870
_ZN25C_BCM_FP_LIB_PROTOCOL_SPI17FPSpiProtocolTaskEv 0x00268af0
_ZN25C_BCM_FP_LIB_PROTOCOL_SPI21FPSpiWrapProtocolTaskEPS_ 0x00268dd0
_ZN25C_BCM_FP_LIB_PROTOCOL_SPI13ReadNetDeviceEP21TYPE_LIB_KEY_MSG_DATA 0x00268e04
_ZN25C_BCM_FP_LIB_PROTOCOL_SPI14ReadDiagDeviceEP21TYPE_LIB_KEY_MSG_DATA 0x00268ef0
_ZN25C_BCM_FP_LIB_PROTOCOL_SPI13ReadKbdDeviceEP21TYPE_LIB_KEY_MSG_DATA 0x00268fdc
_ZN25C_BCM_FP_LIB_PROTOCOL_SPI13ReadEolDeviceEP21TYPE_LIB_KEY_MSG_DATA 0x002690c8
_ZN25C_BCM_FP_LIB_PROTOCOL_SPI12ReadFpDeviceEP21TYPE_LIB_KEY_MSG_DATA 0x002691b4
_ZN25C_BCM_FP_LIB_PROTOCOL_SPI4ReadEP5msg_qP21TYPE_LIB_KEY_MSG_DATA 0x002692a0
_ZN25C_BCM_FP_LIB_PROTOCOL_SPI16ReadLibcomDeviceEP21TYPE_LIB_KEY_MSG_DATA 0x00269388
_ZN25C_BCM_FP_LIB_PROTOCOL_SPI13ReadUpgDeviceEP21TYPE_LIB_KEY_MSG_DATA 0x002694b0
_ZN25C_BCM_FP_LIB_PROTOCOL_SPI5CloseEv 0x002695d8
_ZN25C_BCM_FP_LIB_PROTOCOL_SPI4InitEv 0x0026978c
_ZN25C_BCM_FP_LIB_PROTOCOL_SPID0Ev 0x00269fdc
_ZN25C_BCM_FP_LIB_PROTOCOL_SPID1Ev 0x0026a040
_ZN25C_BCM_FP_LIB_PROTOCOL_SPID2Ev 0x0026a084
_ZN25C_BCM_FP_LIB_PROTOCOL_SPI8InstanceEv 0x0026a0c8
_ZN16C_BCM_FP_LIB_SEMC2Ev 0x0026a158
_ZN16C_BCM_FP_LIB_SEMC1Ev 0x0026a174
_ZN16C_BCM_FP_LIB_SEM10ShowStatusEv 0x0026a190
_ZNK16C_BCM_FP_LIB_SEM19StopSynchronousWaitEh 0x0026a258
_ZNK16C_BCM_FP_LIB_SEM20StartSynchronousWaitEht 0x0026a2b4
_ZN16C_BCM_FP_LIB_SEM5CleanEv 0x0026a354
_ZN16C_BCM_FP_LIB_SEM4InitEh 0x0026a428
_ZN16C_BCM_FP_LIB_SEMD0Ev 0x0026a52c
_ZN16C_BCM_FP_LIB_SEMD1Ev 0x0026a584
_ZN16C_BCM_FP_LIB_SEMD2Ev 0x0026a5bc
_ZN23C_BCM_FP_LIB_SERIAL_SPY15IncrNbResynchroEv 0x0026a5f4
_ZN23C_BCM_FP_LIB_SERIAL_SPY14GetNbResynchroEv 0x0026a60c
_ZN23C_BCM_FP_LIB_SERIAL_SPY15IncrNbFrameLostEv 0x0026a614
_ZN23C_BCM_FP_LIB_SERIAL_SPY14GetNbFrameLostEv 0x0026a62c
_ZN23C_BCM_FP_LIB_SERIAL_SPY16IncrNackReceivedEv 0x0026a634
_ZN23C_BCM_FP_LIB_SERIAL_SPY15GetNackReceivedEv 0x0026a64c
_ZN23C_BCM_FP_LIB_SERIAL_SPY19IncrNbFrameReceivedEv 0x0026a654
_ZN23C_BCM_FP_LIB_SERIAL_SPY18GetNbFrameReceivedEv 0x0026a66c
_ZN23C_BCM_FP_LIB_SERIAL_SPY17IncrNbMsgReceivedEh 0x0026a674
_ZN23C_BCM_FP_LIB_SERIAL_SPY16GetNbMsgReceivedEv 0x0026a69c
_ZN23C_BCM_FP_LIB_SERIAL_SPY15GetRegDataIndexEv 0x0026a6a4
_ZN23C_BCM_FP_LIB_SERIAL_SPY16GetRegBeginIndexEv 0x0026a6ac
_ZN23C_BCM_FP_LIB_SERIAL_SPY15GetRegFillIndexEv 0x0026a6b4
_ZN23C_BCM_FP_LIB_SERIAL_SPY7GetDataEv 0x0026a6bc
_ZN23C_BCM_FP_LIB_SERIAL_SPY8GetSemIdEv 0x0026a6c4
_ZN23C_BCM_FP_LIB_SERIAL_SPY11GetSpyStateEv 0x0026a6d0
_ZN23C_BCM_FP_LIB_SERIAL_SPY8SetSpyOnEb 0x0026a6dc
_ZN23C_BCM_FP_LIB_SERIAL_SPY12IncrNackSentEv 0x0026a6e8
_ZN23C_BCM_FP_LIB_SERIAL_SPY11GetNackSentEv 0x0026a700
_ZN23C_BCM_FP_LIB_SERIAL_SPY15IncrNbFrameSentEv 0x0026a708
_ZN23C_BCM_FP_LIB_SERIAL_SPY14GetNbFrameSentEv 0x0026a720
_ZN23C_BCM_FP_LIB_SERIAL_SPY13IncrNbMsgSentEh 0x0026a728
_ZN23C_BCM_FP_LIB_SERIAL_SPY12GetNbMsgSentEv 0x0026a750
_ZN23C_BCM_FP_LIB_SERIAL_SPY17GetNextBeginIndexEj 0x0026a758
_ZN23C_BCM_FP_LIB_SERIAL_SPY9FPSpyStopEv 0x0026a810
_ZN23C_BCM_FP_LIB_SERIAL_SPY7SemGiveEv 0x0026a820
_ZN23C_BCM_FP_LIB_SERIAL_SPY7SemTakeEv 0x0026a860
_ZN23C_BCM_FP_LIB_SERIAL_SPY16LogSpyDataToFileEbPhh 0x0026a8a4
_ZN23C_BCM_FP_LIB_SERIAL_SPY10LogSpyDataEbPKh 0x0026aa24
_ZN23C_BCM_FP_LIB_SERIAL_SPY5ResetEv 0x0026ac3c
_ZN23C_BCM_FP_LIB_SERIAL_SPYC1Ev 0x0026acd8
_ZN23C_BCM_FP_LIB_SERIAL_SPYC2Ev 0x0026ad7c
_ZN23C_BCM_FP_LIB_SERIAL_SPY4InitEv 0x0026ae20
_ZN23C_BCM_FP_LIB_SERIAL_SPY8InstanceEv 0x0026ae6c
_ZN23C_BCM_FP_LIB_SERIAL_SPY10FPSpyStartEv 0x0026aef8
_ZN23C_BCM_FP_LIB_SERIAL_SPY11FPSpyInFileEv 0x0026af40
_ZN23C_BCM_FP_LIB_SERIAL_SPY9FPSpyStatEv 0x0026b09c
_ZN23C_BCM_FP_LIB_SERIAL_SPYD0Ev 0x0026b1ec
_ZN23C_BCM_FP_LIB_SERIAL_SPYD1Ev 0x0026b254
_ZN23C_BCM_FP_LIB_SERIAL_SPYD2Ev 0x0026b2a4
_ZN25C_BCM_FP_UPG_PRESENTATION20WrapPeriodicWatchdogEPS_ 0x0026b2f4
_ZN25C_BCM_FP_UPG_PRESENTATION8SwitchOnEv 0x0026b368
_ZN25C_BCM_FP_UPG_PRESENTATION20GetManufacturingDataEPh 0x0026b5c0
_ZN25C_BCM_FP_UPG_PRESENTATION9GetZADataEP29t_bcm_fp_libcom_write_ZA_data 0x0026b680
_ZN25C_BCM_FP_UPG_PRESENTATION10UpdateDataEP19BCM_FP_DEV_UPG_DATA 0x0026b7a0
_ZN25C_BCM_FP_UPG_PRESENTATION5WriteEhhPKh 0x0026bc2c
_ZN25C_BCM_FP_UPG_PRESENTATION13GetUpgBlIdentER28C_FP_LIB_COM_DATA_BL_RELEASE 0x0026bee4
_ZN25C_BCM_FP_UPG_PRESENTATION13GetEolBlIdentER28C_FP_LIB_COM_DATA_BL_RELEASE 0x0026c04c
_ZN25C_BCM_FP_UPG_PRESENTATION13GetEolSwIdentER28C_FP_LIB_COM_DATA_SW_RELEASE 0x0026c1b0
_ZN25C_BCM_FP_UPG_PRESENTATION13SetLoaderModeEv 0x0026c314
_ZN25C_BCM_FP_UPG_PRESENTATION13FlashStopDataER25t_bcm_fp_upg_flash_status 0x0026c42c
_ZN25C_BCM_FP_UPG_PRESENTATION14FlashStartDataEv 0x0026c5d4
_ZN25C_BCM_FP_UPG_PRESENTATION9FlashDataER23t_bcm_fp_upg_flash_dataR25t_bcm_fp_upg_flash_status 0x0026c6f4
_ZN25C_BCM_FP_UPG_PRESENTATION11ExitEolModeEv 0x0026c8e0
_ZN25C_BCM_FP_UPG_PRESENTATION11EraseLoaderER25t_bcm_fp_upg_flash_status 0x0026ca00
_ZN25C_BCM_FP_UPG_PRESENTATION10EraseAppliER25t_bcm_fp_upg_flash_status 0x0026cba0
_ZN25C_BCM_FP_UPG_PRESENTATION12EnterEolModeEv 0x0026cd40
_ZN25C_BCM_FP_UPG_PRESENTATION14GetUpgConfDataEP29t_bcm_fp_libcom_upg_conf_data 0x0026cdf4
_ZN25C_BCM_FP_UPG_PRESENTATION14SetUpgConfDataEP29t_bcm_fp_libcom_upg_conf_data 0x0026cefc
_ZN25C_BCM_FP_UPG_PRESENTATION17GetSystemConfDataEP32t_bcm_fp_libcom_system_conf_data 0x0026cfb8
_ZN25C_BCM_FP_UPG_PRESENTATION17SetSystemConfDataEP32t_bcm_fp_libcom_system_conf_data 0x0026d0dc
_ZN25C_BCM_FP_UPG_PRESENTATION20SetManufacturingDataEPh 0x0026d194
_ZN25C_BCM_FP_UPG_PRESENTATION9SetZADataEP29t_bcm_fp_libcom_write_ZA_data 0x0026d2ac
_ZN25C_BCM_FP_UPG_PRESENTATION11GetZAStatusEPb 0x0026d368
_ZN25C_BCM_FP_UPG_PRESENTATION12PeriodicTaskEv 0x0026d420
_ZN25C_BCM_FP_UPG_PRESENTATION8ReadTaskEv 0x0026d8a4
_ZN25C_BCM_FP_UPG_PRESENTATION5CleanEv 0x0026dc24
_ZN25C_BCM_FP_UPG_PRESENTATION5CloseEv 0x0026dc6c
_ZN25C_BCM_FP_UPG_PRESENTATION4InitEv 0x0026dc9c
_ZN25C_BCM_FP_UPG_PRESENTATIOND0Ev 0x0026e09c
_ZN25C_BCM_FP_UPG_PRESENTATIOND1Ev 0x0026e104
_ZN25C_BCM_FP_UPG_PRESENTATIOND2Ev 0x0026e14c
_ZN25C_BCM_FP_UPG_PRESENTATIONC1Ev 0x0026e194
_ZN25C_BCM_FP_UPG_PRESENTATION8InstanceEv 0x0026e338
_ZN25C_BCM_FP_UPG_PRESENTATION16WrapPeriodicTaskEv 0x0026e3c8
_ZN25C_BCM_FP_UPG_PRESENTATION12WrapReadTaskEv 0x0026e404
_ZN25C_BCM_FP_UPG_PRESENTATIONC2Ev 0x0026e440
_ZN12C_FP_LIB_SPIC2Ev 0x0026e5e4
_ZN12C_FP_LIB_SPIC1Ev 0x0026e5fc
_ZN12C_FP_LIB_SPI5WriteEPKhj 0x0026e614
_ZN12C_FP_LIB_SPI4ReadEPhj 0x0026e644
_ZN12C_FP_LIB_SPI5CloseEv 0x0026e674
_ZN12C_FP_LIB_SPI4InitEPKcjjj 0x0026e6a8
_ZN12C_FP_LIB_SPID0Ev 0x0026e838
_ZN12C_FP_LIB_SPID1Ev 0x0026e8b0
_ZN12C_FP_LIB_SPID2Ev 0x0026e914
_ZN12C_FP_LIB_SPI8InstanceEv 0x0026e978
memcpy 0x0026ea08
bzero 0x0026ea70
adler32 0x0026eac0
cksum 0x0026ec28
zcalloc 0x0026eda8
zcfree 0x0026edec
falloc 0x0026ee50
inflate_trees_free 0x0026ee70
huft_build 0x0026eeec
inflate_trees_fixed 0x0026f3d4
inflate_trees_dynamic 0x0026f590
inflate_trees_bits 0x0026f6c4
inflate_flush 0x0026f754
inflate_fast 0x0026f8bc
inflate_codes_new 0x0026fbac
inflate_codes 0x0026fc10
inflate_codes_free 0x00270244
inflate_blocks_reset 0x00270280
inflate_blocks_new 0x00270350
inflate_blocks 0x002703fc
inflate_blocks_free 0x00270cd8
inflateReset 0x00270d3c
inflateEnd 0x00270da8
inflateInit 0x00270e28
zinflate 0x00270f28
inflate 0x00271450
SetPanicFunc 0x00271744
memPartDbgCheck 0x0027174c
memPartBlockErrorDbgCheck 0x00271ae4
memPartDestroy 0x00271b80
memPartDelete 0x00271c88
memPartInsertFree 0x00271c90
memPartDeleteFree 0x00271d54
memPartBlkAlignedAlloc 0x00271df8
sizeNodesAlloc 0x00271ffc
memPartAddToPoolInternal 0x002720fc
memPartInit 0x002722fc
memPartCreate 0x002723e4
memPartLibInit 0x00272494
memPartBlockIsValid 0x002725b4
memPartCreateHookSet 0x0027264c
memBlockSizeGet 0x00272684
memPartVerifiedLock 0x0027269c
memPartAddToPool 0x00272700
memAddToPool 0x002727b0
memPartEdrErrorInject 0x00272844
memPartFreeInternal 0x00272974
free 0x00272bd8
memPartFree 0x00272c38
cfree 0x00272cc0
memPartAlignedAllocInternal 0x00272d58
malloc 0x00272f34
realloc 0x00272f9c
memPartAlignedAlloc 0x002730dc
memPartAlloc 0x00273178
calloc 0x0027321c
_pthreadLibInit 0x002734f0
_pthreadCreate 0x00273574
_pthreadSetCancelType 0x0027390c
deleteHook 0x002739c8
_pthreadSemOwnerGet 0x00273a0c
_pthreadSemStateGet 0x00273a54
semPxLibInit 0x00273b44
sem_init 0x00273b9c
semPxCreateRtn 0x00273c80
semPxDestroyRtn 0x00273d30
_sem_destroy 0x00273e28
sem_destroy 0x00273f64
sem_open 0x00273fa8
sem_close 0x00274134
sem_unlink 0x002741cc
_sem_wait 0x00274254
sem_wait 0x002742a8
_sem_trywait 0x0027438c
sem_trywait 0x002743d4
_sem_timedwait 0x0027447c
sem_timedwait 0x00274630
_sem_post 0x00274724
sem_post 0x00274768
_sem_getvalue 0x00274838
sem_getvalue 0x00274894
ftruncate 0x00274938
RnpCheckInputs 0x00274a00
RnpGenerateActivationCode 0x00274a1c
RnpOneWayBlock 0x00274a80
VerifyActiveKey 0x00274bdc
TableOp 0x00274ed8
ParseHexDword 0x00274f1c
RS_MDS_Encode 0x00274fd4
BuildMDS 0x0027506c
ReverseRoundSubkeys 0x00275268
Xor256 0x002752bc
reKey 0x002755d8
cipherInit 0x002762a4
blockEncrypt 0x00276358
blockDecrypt 0x00277614
makeKey 0x00278944
memcpy 0x00278a38
bzero 0x00278aa0
adler32 0x00278af0
cksum 0x00278c58
zcalloc 0x00278de8
zcfree 0x00278e44
falloc 0x00278eb8
inflate_trees_free 0x00278ed8
huft_build 0x00278f54
inflate_trees_fixed 0x0027943c
inflate_trees_dynamic 0x00279614
inflate_trees_bits 0x00279748
inflate_flush 0x002797d8
inflate_fast 0x00279940
inflate_codes_new 0x00279c30
inflate_codes 0x00279c94
inflate_codes_free 0x0027a2c8
inflate_blocks_reset 0x0027a304
inflate_blocks_new 0x0027a3d4
inflate_blocks 0x0027a480
inflate_blocks_free 0x0027ad5c
inflateReset 0x0027adc0
inflateEnd 0x0027ae2c
inflateInit 0x0027aeac
zinflate 0x0027afac
inflate_n 0x0027b4d4
z_adler32 0x0027b9d4
adler32_combine 0x0027bd78
z_compressBound 0x0027be44
z_compress2 0x0027be60
z_compress 0x0027bf48
z_get_crc_table 0x0027bf50
z_crc32 0x0027bf5c
gf2_matrix_times 0x0027c65c
gf2_matrix_square 0x0027c6a8
crc32_combine 0x0027c704
deflateSetHeader 0x0027c824
z_deflatePrime 0x0027c85c
deflateTune 0x0027c8a0
putShortMSB 0x0027c8dc
z_deflateEnd 0x0027c904
longest_match 0x0027ca68
longest_match_fast 0x0027cce0
z_deflateCopy 0x0027ce00
flush_pending 0x0027cff4
fill_window 0x0027d0bc
z_deflateSetDictionary 0x0027d314
z_deflate 0x0027d47c
z_deflateParams 0x0027df58
deflate_slow 0x0027e088
deflate_fast 0x0027e67c
deflate_stored 0x0027eb48
z_deflateBound 0x0027ed24
z_deflateReset 0x0027ed9c
z_deflateInit2_ 0x0027ef20
z_deflateInit_ 0x0027f244
gzungetc 0x0027f260
gzeof 0x0027f2d0
gzdirect 0x0027f318
gzclearerr 0x0027f344
gzerror 0x0027f394
do_flush 0x0027f504
putLong 0x0027f664
destroy 0x0027f6c0
gzclose 0x0027f7d0
gzwrite 0x0027f854
gzputs 0x0027f970
gzputc 0x0027f9b8
gzrewind 0x0027f9f4
gzflush 0x0027faa8
gzprintf 0x0027fb1c
get_byte 0x0027fc18
getLong 0x0027fd0c
check_header 0x0027fd9c
gzread 0x0027fffc
gzseek 0x00280390
gztell 0x002805c4
gzgets 0x002805d0
gzgetc 0x00280690
gzsetparams 0x002806c8
gz_open 0x00280770
gzdopen 0x00280aa4
gzopen 0x00280b1c
inflateBackInit_ 0x00280b24
z_inflateBackEnd 0x00280c44
z_inflateBack 0x00280ca8
inflate_fast 0x00281d00
z_inflateReset 0x002822cc
inflatePrime 0x00282354
z_inflateInit2_ 0x002823b8
z_inflateInit_ 0x00282504
z_inflateEnd 0x00282514
inflateGetHeader 0x0028259c
syncsearch 0x002825dc
z_inflateSync 0x00282668
z_inflateSyncPoint 0x002827c4
z_inflateCopy 0x00282804
updatewindow 0x0028299c
z_inflateSetDictionary 0x00282b90
z_inflate 0x00282cdc
inflate_table 0x00284738
error 0x00284d0c
gz_uncompress 0x00284d60
file_uncompress 0x00284e5c
gz_compress 0x00284fd0
file_compress 0x002850f4
main 0x0028520c
init_block 0x002854f8
_tr_init 0x00285578
pqdownheap 0x002855d0
scan_tree 0x0028572c
send_tree 0x00285870
_tr_tally 0x00285e1c
compress_block 0x00285f14
build_tree 0x002863b8
bi_flush 0x00286970
_tr_align 0x002869f4
bi_windup 0x00286c88
_tr_stored_block 0x00286d08
_tr_flush_block 0x00286e54
z_uncompress 0x00287464
zlibVersion 0x00287558
zlibCompileFlags 0x00287564
z_zError 0x0028756c
zcfree 0x00287584
zcalloc 0x002875a8
_Z7InitCrcR9Crc16Type 0x002875cc
_Z10ComputeCrcPKhiR9Crc16Type 0x002875dc
_Z20ComputeCrcFrontPanelPKhi 0x00287634
_Z15update_crc_sicktcc 0x002876a8
_Z13update_crc_16tc 0x002876d0
_Z17update_crc_kermittc 0x00287770
_Z14update_crc_dnptc 0x00287810
_Z13update_crc_32mc 0x002878b0
_Z16update_crc_ccitttc 0x00287938
_ZN15C_DBBootManager18SetDBBootFlagErrorEbjj 0x002879d0
_ZN15C_DBBootManager18SetDBBootFlagErrorERK23DBBootBootROMDataStruct 0x002879d8
_ZN15C_DBBootManager21SetDefaultBootROMDataER12DBBootStruct 0x002879e0
_ZN15C_DBBootManager22ComputeAlignSizeDBBootEj 0x002879fc
_ZN15C_DBBootManager24GetDBBootAccessErrorTypeERj 0x00287a14
_ZN15C_DBBootManager13FindDBBootTagERj 0x00287a88
_ZN15C_DBBootManager26SetDefaultConfigSystemDataER12DBBootStruct 0x00287c8c
_ZN15C_DBBootManager25SetDefaultAppliConfigDataER12DBBootStruct 0x00287cf0
_ZN15C_DBBootManager25SetDefaultPartitionStatusER12DBBootStruct 0x00287d20
_ZN15C_DBBootManager21SetDefaultUpgradeDataER12DBBootStruct 0x00287d50
_ZN15C_DBBootManager19CreateDBBootDefaultER12DBBootStruct 0x00287eac
_ZN15C_DBBootManager12UpdateDBBootEPhR12DBBootStructj 0x00287f64
_ZN15C_DBBootManager19ReadAnyKindOfDBBootEjR12DBBootStructb 0x002883b8
_ZN15C_DBBootManager18GetDBBootRecursiveEP12DBBootStructiRS0_bRj 0x0028865c
_ZN15C_DBBootManager20GetDBBootFreeAddressERj 0x00288bfc
_ZN15C_DBBootManager19WriteCompleteDBBootERK12DBBootStructj 0x00288e8c
_ZN15C_DBBootManager23CreateDBBootFreeAddressERj 0x0028917c
_ZN15C_DBBootManager25SetDBBootConfigSystemFlagEcj 0x00289458
_ZN15C_DBBootManager25SetDBBootConfigSystemFlagEPKc 0x00289638
_ZN15C_DBBootManager28SetDBBootConfigSystemVersionEPKh 0x0028982c
_ZN15C_DBBootManager21SetDBBootConfigSystemERK24DBBootConfigSystemStruct 0x00289a20
_ZN15C_DBBootManager24SetDBBootAppliConfigDataEj 0x00289c14
_ZN15C_DBBootManager24SetDBBootPartitionStatusERK27DBBootPartitionStatusStruct 0x00289dfc
_ZN15C_DBBootManager18SetDBBootToDefaultEv 0x00289ff0
_ZN15C_DBBootManager9SetDBBootERK12DBBootStruct 0x0028a15c
_ZN15C_DBBootManager20SetDBBootUpgradeDataERK23DBBootUpgradeDataStruct 0x0028a260
_ZN15C_DBBootManager25GetDBBootConfigSystemFlagEPc 0x0028a454
_ZN15C_DBBootManager28GetDBBootConfigSystemVersionEPh 0x0028a58c
_ZN15C_DBBootManager21GetDBBootConfigSystemER24DBBootConfigSystemStruct 0x0028a6c4
_ZN15C_DBBootManager24GetDBBootAppliConfigDataERj 0x0028a7fc
_ZN15C_DBBootManager24GetDBBootPartitionStatusER27DBBootPartitionStatusStruct 0x0028a92c
_ZN15C_DBBootManager9GetDBBootER12DBBootStructib 0x0028aa64
_ZN15C_DBBootManager24GetDBBootLastUpgradeDataER23DBBootUpgradeDataStruct 0x0028ab8c
_ZN15C_DBBootManager22GetDBBootLastFlagErrorER23DBBootBootROMDataStruct 0x0028acc4
_ZN15C_DBBootManager22CreateConfigSystemFileEPKcRK24DBBootConfigSystemStruct 0x0028adfc
_ZN15C_DBBootManager25GetDBBootConfigSystemFlagERcj 0x0028b0a4
_ZN15C_DBBootManager25VerifyConfigSystemDefaultEPKc 0x0028b358
_ZN15C_DBBootManagerD0Ev 0x0028b838
_ZN15C_DBBootManagerD1Ev 0x0028b890
_ZN15C_DBBootManagerD2Ev 0x0028b8d8
_ZN15C_DBBootManagerC1Ev 0x0028b920
_ZN15C_DBBootManager8InstanceEv 0x0028b980
_ZN15C_DBBootManagerC2Ev 0x0028b9fc
_ZN17C_DBSystemManager21CreateDBSystemDefaultER14DBSystemStructb 0x0028ba5c
_ZN17C_DBSystemManager26GetDBSystemAccessErrorTypeERj 0x0028bcac
_ZN17C_DBSystemManager21WriteCompleteDBSystemEPjj 0x0028bd20
_ZN17C_DBSystemManager20SetDBSystemToDefaultEPhS0_Pt 0x0028bf64
_ZN17C_DBSystemManager11SetDBSystemERK14DBSystemStruct 0x0028c41c
_ZN17C_DBSystemManager14UpdateDBSystemEPhR14DBSystemStruct 0x0028c710
_ZN17C_DBSystemManager21ReadAnyKindOfDBSystemEPjR14DBSystemStruct 0x0028c80c
_ZN17C_DBSystemManager22SetDBSystemBootROMDataEjj 0x0028cb40
_ZN17C_DBSystemManager16SetDVDAttemptNumEh 0x0028cea0
_ZN17C_DBSystemManager16SetDVDRegionCodeEh 0x0028d090
_ZN17C_DBSystemManager21SetDisplayOrientationEhh 0x0028d2c8
_ZN17C_DBSystemManager13SetDisplayPwdEPKt 0x0028d574
_ZN17C_DBSystemManager14SetDisplayConfEPKh 0x0028d7f0
_ZN17C_DBSystemManager18SetSBSystemCodeVINEPKh 0x0028da6c
_ZN17C_DBSystemManager22VerifyCompleteDBSystemERK14DBSystemStructbb 0x0028dce8
_ZN17C_DBSystemManager25SetDBSystemBootLoaderFlagEb 0x0028e100
_ZN17C_DBSystemManager26GetDBSystemFirstDBBootAddrERj 0x0028e308
_ZN17C_DBSystemManager11GetDBSystemER14DBSystemStruct 0x0028e4ec
_ZN17C_DBSystemManager16GetDVDAttemptNumERh 0x0028e67c
_ZN17C_DBSystemManager16GetDVDRegionCodeERh 0x0028e82c
_ZN17C_DBSystemManager22GetDBSystemBootROMDataERjS0_Rt 0x0028e9dc
_ZN17C_DBSystemManager18GetDBSystemVersionEPc 0x0028ebec
_ZN17C_DBSystemManager21GetDisplayOrientationEhRh 0x0028ee38
_ZN17C_DBSystemManager13GetDisplayPwdEPt 0x0028f100
_ZN17C_DBSystemManager14GetDisplayConfEPh 0x0028f314
_ZN17C_DBSystemManager18GetDBSystemCodeVINEPh 0x0028f528
_ZN17C_DBSystemManager14VerifyDBSystemEv 0x0028f73c
_ZN17C_DBSystemManagerD0Ev 0x0028f8b0
_ZN17C_DBSystemManagerD1Ev 0x0028f908
_ZN17C_DBSystemManagerD2Ev 0x0028f950
_ZN17C_DBSystemManagerC1Ev 0x0028f998
_ZN17C_DBSystemManager8InstanceEv 0x0028f9ec
_ZN17C_DBSystemManagerC2Ev 0x0028fa68
_Z23DumpADBBootConfigSystemRK12DBBootStruct 0x0028fabc
_Z11DumpADBBootRK12DBBootStruct 0x0028fb7c
_Z27InterCreateConfigSystemFilePKcRK24DBBootConfigSystemStruct 0x002900e0
_Z30InterVerifyConfigSystemDefaultPKc 0x0029012c
_Z30InterSetDBBootConfigSystemFlagcj 0x00290170
_Z30InterSetDBBootConfigSystemFlagPKc 0x002901bc
_Z33InterSetDBBootConfigSystemVersionPKh 0x00290200
_Z26InterSetDBBootConfigSystemR24DBBootConfigSystemStruct 0x00290244
_Z29InterSetDBBootAppliConfigDataj 0x00290288
_Z29InterSetDBBootPartitionStatusRK27DBBootPartitionStatusStruct 0x002902cc
_Z26InterSetDisplayOrientationhh 0x00290310
_Z18InterSetDisplayPwdPKt 0x0029035c
_Z19InterSetDisplayConfPKh 0x002903a0
_Z23InterSetDBBootToDefaultv 0x002903e4
_Z14InterSetDBBootRK12DBBootStruct 0x00290420
_Z25InterSetDBBootUpgradeDataRK23DBBootUpgradeDataStruct 0x00290464
_Z23InterSetDBBootFlagErrorRK23DBBootBootROMDataStruct 0x002904a8
_Z23InterSetDBBootFlagErrorbjj 0x002904ec
_Z7BootRomv 0x00290540
_Z30InterGetDBBootConfigSystemFlagRcj 0x00290550
_Z30InterGetDBBootConfigSystemFlagPc 0x0029059c
_Z33InterGetDBBootConfigSystemVersionPh 0x002905e0
_Z26InterGetDBBootConfigSystemR24DBBootConfigSystemStruct 0x00290624
_Z29InterGetDBBootAppliConfigDataRj 0x00290668
_Z29InterGetDBBootAccessErrorTypeRj 0x002906ac
_Z29InterGetDBBootPartitionStatusR27DBBootPartitionStatusStruct 0x002906f0
_Z26InterGetDisplayOrientationhRh 0x00290734
_Z18InterGetDisplayPwdPt 0x00290780
_Z19InterGetDisplayConfPh 0x002907c4
_Z14InterGetDBBootR12DBBootStructib 0x00290808
_Z10DumpDBBootv 0x0029085c
_Z22DumpDBBootConfigSystemv 0x002908a4
_Z29InterGetDBBootLastUpgradeDataR23DBBootUpgradeDataStruct 0x002908ec
_Z27InterGetDBBootLastFlagErrorR23DBBootBootROMDataStruct 0x00290930
_Z25InterSetDBSystemToDefaultPhS_Pt 0x00290974
_Z16InterSetDBSystemRK14DBSystemStruct 0x002909c8
_Z21InterSetDVDAttemptNumh 0x00290a0c
_Z21InterSetDVDRegionCodeh 0x00290a50
_Z27InterSetDBSystemBootROMDatajj 0x00290a94
_Z23InterSetSBSystemCodeVINPKh 0x00290ae0
_Z30InterSetDBSystemBootLoaderFlagb 0x00290b24
_Z10BootLoaderv 0x00290b68
_Z31InterGetDBSystemAccessErrorTypeRj 0x00290b70
_Z31InterGetDBSystemFirstDBBootAddrRj 0x00290bb4
_Z16InterGetDBSystemR14DBSystemStruct 0x00290bf8
_Z12DumpDBSystemv 0x00290c3c
_Z21InterGetDVDAttemptNumRh 0x00291004
_Z21InterGetDVDRegionCodeRh 0x00291048
_Z27InterGetDBSystemBootROMDataRjS_Rt 0x0029108c
_Z23InterGetDBSystemVersionPc 0x002910e0
_Z23InterGetDBSystemCodeVINPh 0x00291124
_Z19InterVerifyDBSystemv 0x00291168
_Z18InterInitDBManagerv 0x002911a4
_Z21DBStorage_SetReadOnlyv 0x00291224
_Z23DBStorage_ResetReadOnlyv 0x0029122c
_Z36DBStorage_GetBootromStartRealAddressv 0x00291234
_Z33DBStorage_GetDbSystemStartAddressv 0x00291240
_Z31DBStorage_GetDbSystemEndAddressv 0x00291248
_Z25DBStorage_GetDbSystemSizev 0x00291250
_Z15DBStorage_WritePjS_j 0x00291284
_Z15DBStorage_Resetv 0x00291320
_Z14DBStorage_ReadPjS_j 0x0029139c
_Z16DBStorage_Uninitv 0x00291438
_Z14DBStorage_Initv 0x0029147c
_Z28DiscReaderGetFirmwareSizeMaxv 0x0029153c
_Z27DiscReaderGetFirmwareStringPc 0x00291544
_Z15ConfigArrayInitPP13ConfigElement 0x00291574
_Z18ConfigArrayDisplayPKP13ConfigElement 0x00291588
_Z22ShowConfigSystemStatusv 0x002915f0
_Z30GetConfigSystemSoftwareVersionPhRi 0x00291858
_Z14ConfigArrayGetPKP13ConfigElementPKcPS4_ 0x00291a38
_Z24GetHardwareConfigurationPKcPS0_ 0x00291b84
_Z24GetSoftwareConfigurationPKcPS0_ 0x00291d2c
_Z17ConfigArraySearchPKP13ConfigElementPKcPc 0x00291ed4
_Z23GetHardwareConfigSystemPKcPc 0x00292018
_Z23GetSoftwareConfigSystemPKcPc 0x002921c0
_Z18ConfigArrayDestroyPP13ConfigElement 0x00292368
_Z21CheckFileConfigSystemR12ConfigSystem 0x002923e0
_Z14ConfigArrayAddPP13ConfigElementPKcS3_ 0x00292700
_Z18CreateConfigSystemR12ConfigSystem 0x00292880
_Z17StartConfigSystemv 0x00292eb0
_Z11IsELFFormatRK10Elf32_Ehdr 0x002934c8
_Z13ReadELFHeaderiP10Elf32_Ehdr 0x00293508
_Z19FindEntryPointValueiP6modulePm 0x002935b0
sizeLoadInfo 0x00293630
ConvASCIIToHexa 0x00293638
ConvASCIIToDec 0x0029368c
ReadFileCRC 0x002936a4
_Z13GetFieldValuePKcP7__sFILEPc 0x00293810
GetInfValue 0x00293a20
GetFileVersion 0x00293d98
ComputeCRCBinaryFile 0x00293da8
ComputeCRCFile 0x00294188
CheckCRCInf 0x00294560
GetInfLoadInfo 0x00294904
CheckCRCFileInMem 0x00294ce0
CheckCRCFile 0x00294de8
_Z21LoadIsOffshoreAddressPKc 0x002950bc
_Z15GetOffShoreAddrv 0x002950ec
_Z20GetOffShoreAddrStartv 0x002950f8
_Z18GetOffShoreAddrEndv 0x00295104
_Z16IncrOffShoreAddrj 0x00295110
_Z13OffShorePrintP6module 0x00295138
_Z19OffShoreDetailsShowv 0x002952a8
_Z12OffShoreShowi 0x002953dc
_Z21LoadDestroyMemoryFileiPKc 0x00295524
_Z20LoadCreateMemoryFilePKcPiPPc 0x0029556c
_Z11LoadIsCrcOKiRK9Crc16Type 0x002958d8
_Z18LoadRegisterModulePciiPP6module 0x002959fc
_Z13LoadFindEntryiP6modulePbPm 0x00295b00
_Z17LoadInterfaceInitv 0x00295ba4
_Z18LoadAndInflateFilePKciiPbPmRK9Crc16Type 0x00295be0
_Z8LoadFilePKciPbPmRK9Crc16Type 0x00295fdc
_Z16KernelWriteFlashPjS_j 0x00296164
_Z15KernelReadFlashPjS_j 0x002961b8
_Z20GetFlashStartAddress13TYPE_FLASH_IDPj 0x0029620c
_Z15KernelInitFlashv 0x00296260
_Z13ChkPartDevicePKcb 0x002962b4
_Z7ResetFPv 0x0029654c
_Z8SetPoweri 0x00296554
_Z15EmergencyRebootv 0x0029655c
_Z17GetHddTemperatureRi 0x00296598
_Z24WriteProtectHddPartitionPKc 0x002965a0
_Z21UnprotectHddPartitionPKc 0x002965a8
_Z15GetHddUsageTimev 0x002965b0
_Z10fwriteDataPKvjjP7__sFILE 0x002965b8
_Z9writeDataiPcj 0x002965d8
_ZN8FpLibCom6LibCom8GetMBId1Ev 0x002965f8
_ZN8FpLibCom6LibCom8GetMBId2Ev 0x00296600
_ZN8FpLibCom6LibCom8GetDBId1Ev 0x00296608
_ZN8FpLibCom6LibCom6GetMTBEv 0x00296610
_ZN8FpLibCom6LibCom16SetResetBlackfinEv 0x00296618
_ZN8FpLibCom6LibCom10GetHWIdentEv 0x00296670
_ZN8FpLibCom6LibComD0Ev 0x00296750
_ZN8FpLibCom6LibComD1Ev 0x00296788
_ZN8FpLibCom6LibComD2Ev 0x002967a4
_ZN8FpLibCom6LibComC1Ev 0x002967c0
_ZN8FpLibCom6LibCom8InstanceEv 0x002967f0
SetResetBlackfin 0x0029686c
_Z10GetHWIdentv 0x002968c4
_Z6GetMTBv 0x00296920
_Z8GetDBId1v 0x00296944
_Z8GetMBId2v 0x00296968
_Z8GetMBId1v 0x0029698c
_ZN8FpLibCom6LibComC2Ev 0x002969b0
_ZN21nsLIB_COM_BoardConfig21C_LIB_COM_BoardConfig8InstanceEv 0x002969e0
_ZN21nsLIB_COM_BoardConfig21C_LIB_COM_BoardConfigC2Ev 0x002969ec
_ZN21nsLIB_COM_BoardConfig21C_LIB_COM_BoardConfigC1Ev 0x00296a78
_ZN21nsLIB_COM_BoardConfig21C_LIB_COM_BoardConfig7DestroyEv 0x00296b04
_ZN21nsLIB_COM_BoardConfig21C_LIB_COM_BoardConfig13GetMatchingIdEm 0x00296b08
_ZN21nsLIB_COM_BoardConfig21C_LIB_COM_BoardConfig13ReadDisplayIdEv 0x00296be0
_ZN21nsLIB_COM_BoardConfig21C_LIB_COM_BoardConfig17VerifyBoardConfigEv 0x00296be8
_ZN21nsLIB_COM_BoardConfig21C_LIB_COM_BoardConfig4ShowEv 0x00296cc4
_ZN21nsLIB_COM_BoardConfig21C_LIB_COM_BoardConfig11GetFamilyIdEv 0x00296f20
_ZN21nsLIB_COM_BoardConfig21C_LIB_COM_BoardConfig11GetHardDispEv 0x00296f74
_ZN21nsLIB_COM_BoardConfig21C_LIB_COM_BoardConfig20HardCanManageFPLinesEv 0x00296ff4
_ZN21nsLIB_COM_BoardConfig21C_LIB_COM_BoardConfig11ReadBoardIdEv 0x00297070
_ZN21nsLIB_COM_BoardConfig21C_LIB_COM_BoardConfig14GetHardReleaseEv 0x002970e4
_ZN21nsLIB_COM_BoardConfig21C_LIB_COM_BoardConfigD0Ev 0x00297164
_ZN21nsLIB_COM_BoardConfig21C_LIB_COM_BoardConfigD1Ev 0x0029719c
_ZN21nsLIB_COM_BoardConfig21C_LIB_COM_BoardConfigD2Ev 0x002971b8
_Z31LIB_COM_BoardConfigUnInitializev 0x002971d4
_Z23LIB_COM_BoardConfigShowv 0x00297224
_Z15BoardConfigShowv 0x00297264
_Z29LIB_COM_BoardConfigInitializev 0x00297268
_Z19LIB_COM_GetFamilyIdv 0x00297390
_Z19LIB_COM_GetHardDispv 0x002973f4
_Z28LIB_COM_HardCanManageFPLinesv 0x00297458
LIB_COM_BoardConfigGetHardRelease 0x002974bc
_Z14GetHardReleasev 0x00297530
_Z14LIB_COM_DevDelPc 0x00297534
LIB_COM_VerifyBoardConfig 0x00297590
_Z20PermanentDevice_Initv 0x0029777c
_Z32PermanentDevice_GetPartitionNameiP21t_PermanentDeviceName 0x00297790
_Z29PermanentDevice_GetDeviceNameiP21t_PermanentDeviceName 0x00297c44
_Z20PermanentDevice_Showv 0x00298124
_Z17GetGraphicLibraryv 0x00298250
_Z12getBRVersionv 0x0029825c
BootRomFormatTffs 0x002982bc
MountAndCheckTffs 0x00298310
_Z15isDevicePresentPKc 0x00298364
_Z16ShellRedirectionv 0x002983b4
_Z12CloseDABTestv 0x00298464
BRVersionShow 0x002984c4
CheckMemoryCoherency 0x002984f8
SetMemoryPanicFunction 0x00298518
_Z12BootRomMkDirPKc 0x00298538
BootRomRestoreTffsAndReboot 0x00298640
_Z10BootRomWdgv 0x0029910c
_Z11BootRomStopbi 0x0029916c
_Z16LoadAndLaunchSSMPKc 0x00299270
_Z12LoadAndStartPKcS0_ 0x00299550
BootRomStart 0x002996c8
_Z12StartDABTestv 0x00299758
_Z15WriteDABCommandv 0x00299994
_Z14ReadDABCommandv 0x00299a80
IsFpInLoaderMode 0x00299ba0
BootLoadBlackfin 0x00299bd0
_Z6exeSymPcS_ 0x0029a0d4
_Z24CheckFFXAndLaunchUpgradev 0x0029a15c
BootRomInterruptBoot 0x0029a53c
_Z16BootRomLaunchSSMv 0x0029ac64
_Z14BootRomStartupv 0x0029ad6c
_Z12mountSdAsUsbv 0x0029aed4
moduleSizeGet 0x0029af78
_ZNK10__cxxabiv117__class_type_info11__do_upcastEPKS0_PPv 0x0029afa8
_ZNK10__cxxabiv117__class_type_info20__do_find_public_srcEiPKvPKS0_S2_ 0x0029b020
_ZN10__cxxabiv117__class_type_infoD0Ev 0x0029b040
_ZN10__cxxabiv117__class_type_infoD1Ev 0x0029b080
_ZN10__cxxabiv117__class_type_infoD2Ev 0x0029b0ac
_ZNK10__cxxabiv117__class_type_info10__do_catchEPKSt9type_infoPPvj 0x0029b0d8
_ZNK10__cxxabiv117__class_type_info11__do_upcastEPKS0_PKvRNS0_15__upcast_resultE 0x0029b150
_ZNK10__cxxabiv117__class_type_info12__do_dyncastEiNS0_10__sub_kindEPKS0_PKvS3_S5_RNS0_16__dyncast_resultE 0x0029b180
_ZdaPv 0x0029b1c8
_ZdlPv 0x0029b1e8
_Z12read_uleb128PKhPj 0x0029b210
_Z12read_sleb128PKhPi 0x0029b240
_Z16get_adjusted_ptrPKSt9type_infoS1_PPv 0x0029b28c
_Z28read_encoded_value_with_basehjPKhPj 0x0029b334
_Z21base_of_encoded_valuehP15_Unwind_Context 0x0029b4b4
_Z17parse_lsda_headerP15_Unwind_ContextPKhP16lsda_header_info 0x0029b54c
_Z15get_ttype_entryP16lsda_header_infoj 0x0029b694
_Z20check_exception_specP16lsda_header_infoPKSt9type_infoPvi 0x0029b748
__cxa_call_unexpected 0x0029b804
__gxx_personality_v0 0x0029b8f4
_ZSt13set_terminatePFvvE 0x0029bd70
_ZSt14set_unexpectedPFvvE 0x0029bd84
_ZN10__cxxabiv111__terminateEPFvvE 0x0029bd98
_ZSt9terminatev 0x0029bdcc
_ZN10__cxxabiv112__unexpectedEPFvvE 0x0029bde4
_ZSt10unexpectedv 0x0029bdfc
__cxa_rethrow 0x0029be14
__cxa_throw 0x0029be98
_Z23__gxx_exception_cleanup19_Unwind_Reason_CodeP17_Unwind_Exception 0x0029bf08
_ZNSt9exception18_Set_raise_handlerEPFvRKS_E 0x0029bf64
_ZNKSt9exception4whatEv 0x0029bf78
_ZNKSt10bad_typeid4whatEv 0x0029bf84
_ZNSt9exceptionD0Ev 0x0029bf90
_ZNSt9exceptionD1Ev 0x0029bfbc
_ZNSt9exceptionD2Ev 0x0029bfcc
_ZNSt13bad_exceptionD0Ev 0x0029bfdc
_ZNSt13bad_exceptionD1Ev 0x0029c01c
_ZNSt13bad_exceptionD2Ev 0x0029c02c
_ZNSt9type_infoD0Ev 0x0029c03c
_ZNSt9type_infoD1Ev 0x0029c068
_ZNSt9type_infoD2Ev 0x0029c078
_ZnajRKSt9nothrow_t 0x0029c088
_Znwj 0x0029c0a8
_ZnwjRKSt9nothrow_t 0x0029c128
_ZSt9_Nomemoryv 0x0029c200
__tcf_0 0x0029c278
_Z41__static_initialization_and_destruction_0ii 0x0029c2ac
_GLOBAL__I__ZSt7nothrow 0x0029c2b0
_ZNK10__cxxabiv120__si_class_type_info11__do_upcastEPKNS_17__class_type_infoEPKvRNS1_15__upcast_resultE 0x0029c2c0
_ZN10__cxxabiv120__si_class_type_infoD0Ev 0x0029c33c
_ZN10__cxxabiv120__si_class_type_infoD1Ev 0x0029c37c
_ZN10__cxxabiv120__si_class_type_infoD2Ev 0x0029c3a8
_ZNK10__cxxabiv120__si_class_type_info20__do_find_public_srcEiPKvPKNS_17__class_type_infoES2_ 0x0029c3d4
_ZNK10__cxxabiv120__si_class_type_info12__do_dyncastEiNS_17__class_type_info10__sub_kindEPKS1_PKvS4_S6_RNS1_16__dyncast_resultE 0x0029c438
_ZNKSt9type_info14__is_pointer_pEv 0x0029c530
_ZNKSt9type_info15__is_function_pEv 0x0029c538
_ZNKSt9type_info10__do_catchEPKS_PPvj 0x0029c540
_ZNKSt9type_info11__do_upcastEPKN10__cxxabiv117__class_type_infoEPPv 0x0029c558
__gplusplus_intrinsicsInit 0x0029c560
__gnu_cplusplus_std_libraryInit 0x0029c56c
_ZN10__cxxabiv117__array_type_infoD0Ev 0x0029c578
_ZN10__cxxabiv117__array_type_infoD1Ev 0x0029c5b8
_ZN10__cxxabiv117__array_type_infoD2Ev 0x0029c5e4
_ZdaPvRKSt9nothrow_t 0x0029c610
_ZdaPvS_ 0x0029c630
_ZdlPvRKSt9nothrow_t 0x0029c634
_ZdlPvS_ 0x0029c654
__dynamic_cast 0x0029c658
_Z20emergency_mutex_initv 0x0029c7bc
__cxa_allocate_exception 0x0029c7e8
__cxa_free_exception 0x0029c8f8
__cxa_bad_typeid 0x0029c9a8
__cxa_bad_cast 0x0029c9dc
__cxa_get_exception_ptr 0x0029ca10
_ZSt18uncaught_exceptionv 0x0029ca18
__cxa_end_catch 0x0029ca44
__cxa_begin_catch 0x0029cafc
__cxa_call_terminate 0x0029cbbc
_Z15eh_globals_dtorPv 0x0029cc0c
_Z41__static_initialization_and_destruction_0ii 0x0029cc6c
_GLOBAL__D___cxa_get_globals_fast 0x0029cd20
_GLOBAL__I___cxa_get_globals_fast 0x0029cd30
__cxa_get_globals 0x0029cd40
__cxa_get_globals_fast 0x0029cde0
__cxa_current_exception_type 0x0029ce40
_ZN10__cxxabiv116__enum_type_infoD0Ev 0x0029ce78
_ZN10__cxxabiv116__enum_type_infoD1Ev 0x0029ceb8
_ZN10__cxxabiv116__enum_type_infoD2Ev 0x0029cee4
_ZNK10__cxxabiv120__function_type_info15__is_function_pEv 0x0029cf10
_ZN10__cxxabiv120__function_type_infoD0Ev 0x0029cf18
_ZN10__cxxabiv120__function_type_infoD1Ev 0x0029cf58
_ZN10__cxxabiv120__function_type_infoD2Ev 0x0029cf84
_ZN10__cxxabiv123__fundamental_type_infoD0Ev 0x0029cfb0
_ZN10__cxxabiv123__fundamental_type_infoD1Ev 0x0029cff0
_ZN10__cxxabiv123__fundamental_type_infoD2Ev 0x0029d01c
_ZN9__gnu_cxx14recursive_initD0Ev 0x0029d048
_ZN9__gnu_cxx14recursive_initD1Ev 0x0029d098
_ZN9__gnu_cxx14recursive_initD2Ev 0x0029d0d4
_ZN106_GLOBAL__N__scratch_nathan_vxworks_4_1_dwarf_src_gcc_4_1_libstdc___v3_libsupc___guard_cc_00000000_BCBE915812static_mutex6unlockEv 0x0029d110
__cxa_guard_release 0x0029d138
_ZN106_GLOBAL__N__scratch_nathan_vxworks_4_1_dwarf_src_gcc_4_1_libstdc___v3_libsupc___guard_cc_00000000_BCBE915812static_mutex4lockEv 0x0029d154
_ZN106_GLOBAL__N__scratch_nathan_vxworks_4_1_dwarf_src_gcc_4_1_libstdc___v3_libsupc___guard_cc_00000000_BCBE915812static_mutex4initEv 0x0029d194
__cxa_guard_abort 0x0029d1c0
__cxa_guard_acquire 0x0029d1d0
_ZSt15set_new_handlerPFvvE 0x0029d288
_Znaj 0x0029d2e8
_ZNK10__cxxabiv117__pbase_type_info10__do_catchEPKSt9type_infoPPvj 0x0029d318
_ZN10__cxxabiv117__pbase_type_infoD0Ev 0x0029d3c4
_ZN10__cxxabiv117__pbase_type_infoD1Ev 0x0029d404
_ZN10__cxxabiv117__pbase_type_infoD2Ev 0x0029d430
_ZNK10__cxxabiv129__pointer_to_member_type_info15__pointer_catchEPKNS_17__pbase_type_infoEPPvj 0x0029d45c
_ZN10__cxxabiv129__pointer_to_member_type_infoD0Ev 0x0029d4bc
_ZN10__cxxabiv129__pointer_to_member_type_infoD1Ev 0x0029d4fc
_ZN10__cxxabiv129__pointer_to_member_type_infoD2Ev 0x0029d528
_ZNK10__cxxabiv119__pointer_type_info14__is_pointer_pEv 0x0029d554
_ZNK10__cxxabiv119__pointer_type_info15__pointer_catchEPKNS_17__pbase_type_infoEPPvj 0x0029d55c
_ZN10__cxxabiv119__pointer_type_infoD0Ev 0x0029d5e8
_ZN10__cxxabiv119__pointer_type_infoD1Ev 0x0029d628
_ZN10__cxxabiv119__pointer_type_infoD2Ev 0x0029d654
__cxa_pure_virtual 0x0029d680
_ZSt14_Debug_messagePKcS0_ 0x0029d690
_ZSt6_ThrowRKSt9exception 0x0029d754
__cxa_vec_cleanup 0x0029d794
_ZN10__cxxabiv1104_GLOBAL__N__scratch_nathan_vxworks_4_1_dwarf_src_gcc_4_1_libstdc___v3_libsupc___vec_cc_00000000_9F96B6DC17uncatch_exceptionC1Ev 0x0029d820
__cxa_vec_dtor 0x0029d87c
__cxa_vec_delete2 0x0029d95c
__cxa_vec_delete 0x0029da10
__cxa_vec_ctor 0x0029da1c
__cxa_vec_new2 0x0029db1c
__cxa_vec_new 0x0029dc28
_ZN10__cxxabiv1104_GLOBAL__N__scratch_nathan_vxworks_4_1_dwarf_src_gcc_4_1_libstdc___v3_libsupc___vec_cc_00000000_9F96B6DC17uncatch_exceptionC2Ev 0x0029dc3c
__cxa_vec_new3 0x0029dc98
__cxa_vec_delete3 0x0029ddb4
__cxa_vec_cctor 0x0029de88
_ZN10__cxxabiv121__vmi_class_type_infoD0Ev 0x0029df9c
_ZN10__cxxabiv121__vmi_class_type_infoD1Ev 0x0029dfdc
_ZN10__cxxabiv121__vmi_class_type_infoD2Ev 0x0029e008
_ZNK10__cxxabiv121__vmi_class_type_info20__do_find_public_srcEiPKvPKNS_17__class_type_infoES2_ 0x0029e034
_ZNK10__cxxabiv121__vmi_class_type_info11__do_upcastEPKNS_17__class_type_infoEPKvRNS1_15__upcast_resultE 0x0029e19c
_ZNK10__cxxabiv121__vmi_class_type_info12__do_dyncastEiNS_17__class_type_info10__sub_kindEPKS1_PKvS4_S6_RNS1_16__dyncast_resultE 0x0029e460
_ZSt7_FiopenPKcNSt5_IosbIiE9_OpenmodeEi 0x0029e92c
_ZSt5rsfunRSt8ios_baseNSt5_IosbIiE9_FmtflagsE 0x0029ead4
_ZSt5spfunRSt8ios_basei 0x0029eae4
_ZSt5swfunRSt8ios_basei 0x0029eaec
_ZSt13resetiosflagsNSt5_IosbIiE9_FmtflagsE 0x0029eaf4
_ZSt12setprecisioni 0x0029eb14
_ZSt7setbasei 0x0029eb34
_ZSt4setwi 0x0029eb54
_ZSt5sbfunRSt8ios_basei 0x0029eb74
_ZSt5sifunRSt8ios_baseNSt5_IosbIiE9_FmtflagsE 0x0029ebb0
_ZSt11setiosflagsNSt5_IosbIiE9_FmtflagsE 0x0029ebc8
_ZNSt8ios_base8_CallfnsENS_5eventE 0x0029ebe8
_ZNSt8ios_base5_TidyEv 0x0029ec54
_ZNSt8ios_base17register_callbackEPFvNS_5eventERS_iEi 0x0029ecdc
_ZNSt8ios_base7_AddstdEv 0x0029ed38
_ZNSt8ios_base5imbueERKSt6locale 0x0029edd0
_ZNSt8ios_baseD0Ev 0x0029ef88
_ZNSt8ios_baseD1Ev 0x0029f08c
_ZNSt8ios_baseD2Ev 0x0029f180
_ZNSt8ios_base5clearENSt5_IosbIiE8_IostateEb 0x0029f274
_ZNSt8ios_base8_FindarrEi 0x0029f970
_ZNSt8ios_base5_InitEv 0x0029fad0
_ZNSt8ios_base7copyfmtERKS_ 0x0029fb44
_Z41__static_initialization_and_destruction_1ii 0x0029fd20
_ZNSt8ios_base4InitD1Ev 0x0029fd78
_ZNSt8ios_base4InitD2Ev 0x0029fef4
_ZNSt8ios_base4InitC1Ev 0x002a0070
_ZNSt8ios_base4InitC2Ev 0x002a0544
_Z41__static_initialization_and_destruction_0ii 0x002a0a18
_GLOBAL__D__ZNSt8ios_base4Init9_Init_cntE 0x002a12e0
_GLOBAL__I__ZNSt8ios_base4Init9_Init_cntE 0x002a1320
_Z41__static_initialization_and_destruction_0ii 0x002a1360
_GLOBAL__I__ZNSt6localeC2ERKS_S1_i 0x002a1474
_ZNSt6locale7_Locimp7_AddfacEPNS_5facetEj 0x002a1484
_ZNSt6locale6globalERKS_ 0x002a1618
_ZNSt8_Locinfo8_AddcatsEiPKc 0x002a17bc
_ZNSt8_LocinfoC1EiPKc 0x002a1bc0
_ZNSt8_LocinfoC2EiPKc 0x002a1db4
_ZNSt6locale7_Locimp8_MakelocERKSt8_LocinfoiPS0_PKS_ 0x002a212c
_ZNSt6localeC1EPKci 0x002a26f0
_ZNSt6locale7_LocimpC1ERKS0_ 0x002a2a9c
_ZNSt6locale7_AddfacEPNS_5facetEjj 0x002a2d78
_ZNSt6localeC1ERKS_PKci 0x002a2fdc
_ZNSt6localeC2ERKS_PKci 0x002a35c0
_ZNSt6localeC1ERKS_S1_i 0x002a3a88
_ZNSt6localeC2ERKS_S1_i 0x002a3c00
_ZNSt6localeC2EPKci 0x002a3d78
_ZNSt6locale7_LocimpC2ERKS0_ 0x002a4124
_Getgloballocale 0x002a4400
_ZNKSt6locale9_GetfacetEj 0x002a440c
_Z41__static_initialization_and_destruction_0ii 0x002a449c
_GLOBAL__D__Fac_tidy 0x002a4574
_GLOBAL__I__Fac_tidy 0x002a4584
_ZNSt6locale5facet9_RegisterEv 0x002a4594
_Setgloballocale 0x002a4628
_Deletegloballocale 0x002a467c
tidy_global 0x002a471c
_Fac_tidy 0x002a4770
_ZNSt8_LocinfoD1Ev 0x002a4860
_ZNSt8_LocinfoD2Ev 0x002a4968
_ZNSt6locale7_LocimpD2Ev 0x002a4a70
_ZNSt6locale7_LocimpD0Ev 0x002a4bfc
_ZNSt6locale7_LocimpD1Ev 0x002a4d90
_ZNSt6locale7_LocimpC2Eb 0x002a4f1c
_ZNKSt6localeeqERKS_ 0x002a529c
_ZNSt6locale7_LocimpC1Eb 0x002a5620
_ZNSt6locale5_InitEv 0x002a57c0
_ZNSt6locale5emptyEv 0x002a59ac
_ZNSt6locale7classicEv 0x002a5a10
_ZNSt6localeC1Ev 0x002a5a38
_ZNSt6localeC2Ev 0x002a5aa4
_ZNSt8_LocinfoC1EPKc 0x002a5b10
_ZNSt8_LocinfoC2EPKc 0x002a61a4
_ZNKSt12_String_base5_XlenEv 0x002a667c
_ZNKSt12_String_base5_XranEv 0x002a6a28
_ZNSt12strstreambuf5_TidyEv 0x002a6dd4
_ZNSt12strstreambuf5_InitEiPcS0_i 0x002a6ea8
_ZNSt12strstreambuf9underflowEv 0x002a7070
_ZNSt12strstreambuf6freezeEb 0x002a7100
_ZNSt12strstreambuf7seekposESt4fposIiENSt5_IosbIiE9_OpenmodeE 0x002a717c
_ZNSt12strstreambuf9pbackfailEi 0x002a72f0
_ZNSt12strstreambuf7seekoffElNSt5_IosbIiE8_SeekdirENS1_9_OpenmodeE 0x002a7388
_ZNSt12strstreambuf8overflowEi 0x002a7590
_ZNSt12strstreambufD2Ev 0x002a788c
_ZNSt12strstreambufD0Ev 0x002a7a1c
_ZNSt12strstreambufD1Ev 0x002a7bb4
_ZNSt10ostrstreamD2Ev 0x002a7d44
_ZNSt10ostrstreamC2EPciNSt5_IosbIiE9_OpenmodeE 0x002a7dc0
_ZNSt10ostrstreamD1Ev 0x002a7f68
_ZNSt10ostrstreamD0Ev 0x002a8020
_ZNSt10istrstreamD2Ev 0x002a80e0
_ZNSt10ostrstreamC1EPciNSt5_IosbIiE9_OpenmodeE 0x002a815c
_ZNSt10istrstreamD1Ev 0x002a833c
_ZNSt10istrstreamD0Ev 0x002a83f4
_ZNSt9strstreamC1EPciNSt5_IosbIiE9_OpenmodeE 0x002a84b4
_ZNSt9strstreamD1Ev 0x002a8724
_ZNSt9strstreamD2Ev 0x002a8834
_ZNSt9strstreamD0Ev 0x002a8910
_ZNSt9strstreamC2EPciNSt5_IosbIiE9_OpenmodeE 0x002a8a28
_Atexit 0x002a8c7c
_Dtest 0x002a8c9c
_Z41__static_initialization_and_destruction_0ii 0x002a8d28
_GLOBAL__I__ZNSt6locale7_Locimp9_MakexlocERKSt8_LocinfoiPS0_PKS_ 0x002a8f3c
_ZNSt6locale7_Locimp9_MakexlocERKSt8_LocinfoiPS0_PKS_ 0x002a8f4c
_Getctyptab 0x002a9740
_Mtxunlock 0x002a98e0
_Mtxlock 0x002a9904
_Mtxdst 0x002a992c
_Mtxinit 0x002a9950
_ZNSt6_Mutex7_UnlockEv 0x002a9984
_ZNSt6_Mutex5_LockEv 0x002a99a8
_ZNSt6_MutexD1Ev 0x002a99cc
_ZNSt6_MutexD2Ev 0x002a9a04
_ZNSt6_MutexC1Ev 0x002a9a3c
_ZNSt6_MutexC2Ev 0x002a9a74
_Stod 0x002a9aac
_Stold 0x002a9b24
_Stof 0x002a9b28
_Stoll 0x002a9b4c
_Stoull 0x002a9d00
_Unlocksyslock 0x002aa000
_Locksyslock 0x002aa040
initlocks 0x002aa0a0
clearlocks 0x002aa104
bcopy 0x002aa15c
bcrL1 0x002aa19c
bcrL2 0x002aa1a8
bcrL3 0x002aa1b8
bcrLCopy 0x002aa1c0
bcrLGO 0x002aa1c4
bcrBCopy 0x002aa1d8
bcrBGO 0x002aa1dc
bcrH1 0x002aa1ec
bcrH2 0x002aa200
bcrHCopy 0x002aa208
bcrHGO 0x002aa20c
bcfwd 0x002aa22c
bcfL1 0x002aa24c
bcfL2 0x002aa254
bcfL3 0x002aa274
bcfLCopy 0x002aa27c
bcfLGO 0x002aa288
bcfBCopy 0x002aa2a4
bcfBGO 0x002aa2b0
bcfH1 0x002aa2c0
bcfH2 0x002aa2dc
bcfHCopy 0x002aa2e4
bcfHGO 0x002aa2f0
bcopyBytes 0x002aa310
bcopyWords 0x002aa330
bcopyLongs 0x002aa358
bfill 0x002aa380
bffL1 0x002aa390
bffLFill 0x002aa3a8
bffLGO 0x002aa3cc
bffBFill 0x002aa3d8
bfillBytes 0x002aa3d8
bffBGO 0x002aa3e8
swab 0x002aa3f4
swloop 0x002aa408
excIntNestLogInit 0x002aa41c
vecOffRelocMatch 0x002aa420
vecOffRelocMatchRev 0x002aa468
excHandlerMap 0x002aa4a4
excVecGet 0x002aa4e4
excVecBaseSet 0x002aa55c
excVecBaseGet 0x002aa57c
excIntHandle 0x002aa584
excDecrHandle 0x002aa5f0
excGetInfoFromESF 0x002aa5f4
excExcHandle 0x002aa6d8
excPageUnProtect 0x002aab70
excPageProtect 0x002aac3c
excVecSetInternal 0x002aacbc
excVecSet 0x002aadf8
excConnect 0x002aadfc
excIntConnect 0x002aae00
excVecConnectCommon 0x002aae78
excVecInit 0x002ab160
excShowInit 0x002ab38c
eprint 0x002ab3ac
excFpCheck 0x002ab414
excInfoShow 0x002ab4f4
excPanicShow 0x002ab7c0
fppSave 0x002abd80
fppRestore 0x002abe28
fppEnable 0x002abecc
fppDisable 0x002abee0
fppCtxCreate 0x002abee4
fppCtxDelete 0x002abf30
fppProbe 0x002abf38
fppCtxShow 0x002abf40
fppRegListShow 0x002ac070
intArchConnect 0x002ac244
intArchDisconnect 0x002ac284
intVecSet 0x002ac2c4
intVecGet 0x002ac2fc
intVecBaseSet 0x002ac33c
intVecBaseGet 0x002ac3f4
intLevelSet 0x002ac434
intEnable 0x002ac474
intDisable 0x002ac4e8
intLockLevelSet 0x002ac55c
intLockLevelGet 0x002ac560
intRegsLock 0x002ac568
intRegsUnlock 0x002ac57c
intVecTableWriteProtect 0x002ac594
intEnt 0x002ac6c0
intSaveCritical 0x002ac710
intEntNoContextChange 0x002ac7ec
intEntEnable 0x002ac82c
noActionIntEnt 0x002ac8bc
intOvflHandle 0x002ac8e0
intSkipStackSwitch 0x002ac940
intStkOvfl 0x002ac96c
intExcOsm 0x002ac974
actionIntEnt 0x002ac9c0
shortVec 0x002ac9d4
intExit 0x002aca20
noActionIntExit 0x002aca3c
intRte 0x002acad8
intExitIdle 0x002acb10
intExitIdleSkipExcStackLoad 0x002acb38
saveIntContext 0x002acb60
alreadyOnExcStack 0x002acc54
skipSaveIntContext 0x002acc68
actionIntExit 0x002acc80
wQNotEmpty 0x002acc94
intCpuLock 0x002accc0
intLock 0x002accc0
intCpuUnlock 0x002accd0
intUnlock 0x002accd0
isrArchDecCreate 0x002acce4
isrArchDecDispatcher 0x002acd30
objVerify 0x002acd74
objVerifyMagicRead 0x002acd74
objVerifyMagicCompare 0x002acd78
objVerifyTypeRead 0x002acd84
objVerifyTypeCompare 0x002acd8c
objVerifyError 0x002acd9c
ppcBrCompute 0x002acdc8
ppcBrExtract 0x002ace38
spinLockIsrNdTake 0x002ace60
spinlockIsrNdTake 0x002ace60
spinLockIsrNdGive 0x002ace70
spinlockIsrNdGive 0x002ace70
vxTaskEntry 0x002ace84
taskArgsSet 0x002acf28
taskRtnValueSet 0x002acf88
taskArgsGet 0x002acf90
taskMsrSet 0x002acfac
taskUserMmuCtxSet 0x002acff0
taskRegsInit 0x002ad060
sigsetjmp 0x002ad248
setjmp 0x002ad278
_sigCtxSave 0x002ad2a8
_sigCtxLoad 0x002ad2ec
vxTas 0x002ad300
vxTasEnd 0x002ad328
vxSdaSet 0x002ad330
vxSdaInit 0x002ad34c
vxMsrGet 0x002ad360
vxMsrSet 0x002ad368
vxDarGet 0x002ad374
vxDarSet 0x002ad37c
vxDsisrGet 0x002ad384
vxDsisrSet 0x002ad38c
vxSrr0Get 0x002ad394
vxSrr0Set 0x002ad39c
vxSrr1Get 0x002ad3a4
vxSrr1Set 0x002ad3ac
vxFirstBit 0x002ad3b4
vxFirstRBit 0x002ad3bc
findBit 0x002ad3d0
findBit2 0x002ad3d4
vxPvrGet 0x002ad3e8
vxEieio 0x002ad3f0
vxHid0Set 0x002ad3f8
vxHid0Get 0x002ad400
vxHid1Set 0x002ad408
vxHid1Get 0x002ad410
vxFpscrSet 0x002ad418
vxFpscrGet 0x002ad440
vxTimeBaseSet 0x002ad460
vxTimeBaseGet 0x002ad474
vxDecSet 0x002ad494
vxDecGet 0x002ad49c
vxDecReload 0x002ad4a4
reloadLoop 0x002ad4b0
vxImmrIsbGet 0x002ad4c4
vxImmrDevGet 0x002ad4d0
windExit 0x002ad500
checkWorkQ 0x002ad528
workQueueEmpty 0x002ad548
noSchedExit 0x002ad578
afterEvtWindExit 0x002ad584
saveTaskContext 0x002ad5ac
windExitSkipExcStackLoad 0x002ad648
evtWindExit 0x002ad658
noInst1Inheritance 0x002ad678
Inst1Inheritance 0x002ad67c
checkWorkQ_ISR 0x002ad694
noSchedExit_ISR 0x002ad694
workQueueEmpty_ISR 0x002ad6b4
afterEvtWindExit_ISR 0x002ad6c0
evtWindExit_ISR 0x002ad6e0
noInst1Inheritance_ISR 0x002ad700
Inst1Inheritance_ISR 0x002ad704
windLoadContext 0x002ad720
windPpcLoadRegSet 0x002ad748
windPpcLoadVolatileRegSet 0x002ad7f4
windLoadContextAlreadyLocked 0x002ad840
noSetCPT 0x002ad85c
windLoadContextNoContextChange 0x002ad930
windIntStackSet 0x002ad9bc
excOsm 0x002ad9e0
excOsmStoreEsf 0x002ada58
excOsmFlushEsf 0x002ada68
excOsmEsfDone 0x002ada74
excOsmNotIntStk 0x002adabc
excOsmTestTaskGuardSize 0x002adaf4
excOsmUnProt 0x002adb04
excOsmBoot 0x002adb48
excOsmVmSsOK 0x002adb54
excOsmExitNotLocked 0x002adbb8
excOsmInit 0x002adbe0
excOsmFill 0x002adc10
ppcIntCtlrRegister 0x002adc2c
ppcIntCtlrInstInit 0x002adc38
ppcIntCtlrInit 0x002adc98
ppcIntCtlrInstInit2 0x002adcd0
ppcIntCtlrInstConnect 0x002adcd4
ppcIntCtlrConnect 0x002adcd8
ppcIntCtlrDisconnect 0x002add54
ppcIntCtlrEnable 0x002add5c
ppcIntCtlrDisable 0x002addf0
ppcIntCtlrAck 0x002addf8
vxbPpcIntCtlrISR_INTR 0x002ade00
vxbPpcIntCtlrISR_SYSTIMER 0x002ade40
mmuCacheFlushLoadAdrsGet 0x002ade80
mmuPpcLibInit 0x002adf0c
mmuPgTblCurrentSet 0x002ae364
mmuPpcCurrentSet 0x002ae37c
mmuPgTblLvl1DescAddrGet 0x002ae410
mmuPgTblLvl2DescAddrGet 0x002ae440
mmuPgTblStateGet 0x002ae4b0
mmuPpcStateGet 0x002ae51c
mmuPgTblTranslate 0x002ae524
mmuPpcTranslate 0x002ae5b4
mmuPgTblPhysTranslate 0x002ae5bc
mmuPpcPhysTranslate 0x002ae678
mmuPgTblLvl1DescUpdate 0x002ae690
mmuPgTblLvl2DescUpdate 0x002ae6b4
mmuPgTblUnMap 0x002ae6d8
mmuPpcUnMap 0x002ae7d0
mmuPgTblStateSet 0x002ae7d8
mmuPpcStateSet 0x002ae930
mmuPgTblLvl1DescInit 0x002ae98c
mmuPgTblPageMap 0x002aea44
mmuPpcPageMap 0x002aeb38
mmuPpcGlobalPageMap 0x002aec2c
mmuPgTblLvl2DescFree 0x002aec48
mmuPgTblDelete 0x002aecd4
mmuPpcTransTblDelete 0x002aedb4
mmuPgTblInit 0x002aee24
mmuPgTblCreate 0x002aeeb4
mmuPpcTransTblInit 0x002aef28
mmuPpcTransTblCreate 0x002af03c
mmuPpcPageSizeGet 0x002af0a0
mmuPpcPageBlockSizeGet 0x002af0a8
mmuPpcInvalidateRegion 0x002af0b0
mmuPpcBufferWrite 0x002af1a0
mmuPgTblUnion 0x002af3c4
mmuPpcTransTblUnion 0x002af448
mmuPgTblMask 0x002af57c
mmuPpcTransTblMask 0x002af634
mmuPgTblAttachInit 0x002af79c
mmuPpcTransTblUnionInit 0x002af840
mmuPpcBatInitMPC7x5 0x002af900
mmuPpcBatInit750fx 0x002af940
mmuPpcBATInfoGet 0x002af97c
writeProtectPgTbl 0x002af9f4
mmuPpcEnable 0x002afa98
atan 0x002afcf0
atan_starts_here 0x002afcf4
case_e 0x002afd30
cases_abcdf 0x002afd98
case_d 0x002afda0
atan_case_d_minus 0x002afe4c
cases_abcf 0x002afe70
case_c 0x002afe7c
cases_abf 0x002afea8
case_f 0x002afeac
cases_ab 0x002afeb8
case_b 0x002afebc
atan_pi2_sign_now_ok 0x002afecc
case_a 0x002afed8
atan2 0x002aff1c
atan2_starts_here 0x002aff20
atan2_x_ge_y 0x002aff60
atan2_recycle_x_ge_y 0x002aff68
atan2_inv_x_representable 0x002aff8c
atan2_x_ge_y_one_term 0x002affa8
atan2_when_minus 0x002affd0
atan2_x_ge_y_direct 0x002affe0
atan2_x_ge_y_resolve 0x002afffc
atan2_cases_56 0x002b0004
atan2_case_5 0x002b000c
atan2_case_5_flip 0x002b00c8
atan2_case_6 0x002b00d8
atan2_cases_67 0x002b00f0
atan2_case_6_flip 0x002b01a8
atan2_cases_12 0x002b01b8
atan2_case_1 0x002b01bc
atan2_case_2 0x002b022c
atan2_case_2_flip 0x002b02bc
atan2_x_ge_y_eq_0 0x002b02cc
atan2_return_pi_sign_y 0x002b02d4
atan2_return_it 0x002b02e4
atan2_return_y 0x002b02e4
atan2_y_gt_x 0x002b02f0
atan2_recycle_y_gt_x 0x002b02f4
atan2_inv_y_representable 0x002b0318
atan2_y_gt_x_one_term 0x002b0334
atan2_y_minus 0x002b0358
atan2_y_gt_x_resolve 0x002b0368
atan2_cases_78 0x002b0370
atan2_case_8 0x002b0378
atan2_case_8_flip 0x002b0448
atan2_case_7 0x002b0458
atan2_cases_34 0x002b0474
atan2_case_34_flip 0x002b0504
atan2_return_pi_2_sign_y 0x002b0514
atan2_return_as_is 0x002b0524
atan2_y_is_denorm 0x002b0530
atan2_inv_y_overflows 0x002b0550
atan2_unordered 0x002b0578
atan2_x_is_infinite 0x002b05ac
atan2_return_zero_sign_y 0x002b05bc
atan2_zero_sign_ok 0x002b05c8
atan2_two_infinities 0x002b05d4
atan2_return_pi_4_sign_y 0x002b05d8
atan2_return_pi_4 0x002b05e4
atan2_return_pi_34_sign_y 0x002b05f0
atan2_return_3pi_4 0x002b05fc
atan2_x_is_denorm 0x002b0608
atan2_inv_x_overflows 0x002b0628
atan2_x_ge_y_prob_uflow 0x002b0650
pow 0x002b0658
pow_restart 0x002b0668
pow_normal 0x002b076c
pow_special 0x002b0798
pow_confluence 0x002b07c0
pow_x_is_ok 0x002b07d8
pow_sign_now_ok 0x002b084c
pow_result_ok 0x002b086c
pow_possible_over_under 0x002b0884
pow_aix_return_zero 0x002b08b4
pow_aix_underflow 0x002b08c0
pow_aix_overflow 0x002b08dc
pow_x_denorm_zero 0x002b08f0
pow_x_zero 0x002b0914
pow_y_nan_inf 0x002b0964
pow_y_qnan 0x002b0978
pow_y_snan 0x002b0980
pow_lower_word_y 0x002b0994
pow_exact_zero_inf 0x002b09a8
pow_aix_domain_returns 0x002b09c0
pow_exact_one 0x002b09f4
pow_return_exact 0x002b09f8
pow_dvz 0x002b0a08
pow_x_negative 0x002b0a20
pow_lower_word 0x002b0a50
pow_x_negative_error 0x002b0a64
pow_y_outside_range 0x002b0a6c
pow_inexact_one 0x002b0a94
pow_inexact_one_ok 0x002b0a9c
pow_y_not_zero_denorm 0x002b0ab4
pow_y_is_infinity 0x002b0ac8
pow_domain_error 0x002b0aec
pow_x_less 0x002b0af8
pow_major_over_under 0x002b0b04
pow_major_overflow 0x002b0b1c
pow_aix_range_returns 0x002b0b20
pow_very_large_negative_y 0x002b0b54
pow_major_underflow 0x002b0b58
pow_ylogx_outside_range 0x002b0b60
pow_ylogx_ovf_ok 0x002b0b8c
pow_ylogx_small 0x002b0b90
pow_ylogx_small_ok 0x002b0ba0
pow_ylogx_unf 0x002b0ba4
pow_ylogx_unf_ok 0x002b0bb0
pow_x_inf_nan 0x002b0bb4
pow_x_is_qnan 0x002b0be8
pow_return_x_qnan 0x002b0bfc
pow_x_infinity 0x002b0c00
pow_infinityinfinity 0x002b0c18
pow_return_zero 0x002b0c28
pow_infinitynumeric 0x002b0c30
pow_lower_word_zero 0x002b0c6c
pow_exact_inf_zero 0x002b0c80
pow_give_a_zero 0x002b0c98
exp 0x002b0cb0
exp_result_ok 0x002b0d78
exp_possible_over_under 0x002b0d90
exp_aix_denorm 0x002b0db8
exp_aix_overflow 0x002b0ddc
exp_aix_range_returns 0x002b0de0
exp_no_computation 0x002b0e14
exp_zero_or_small 0x002b0e30
exp_small 0x002b0e3c
exp_zero 0x002b0e4c
exp_exact 0x002b0e50
exp_inf_large_nan 0x002b0e5c
exp_ovf 0x002b0e64
exp_unf 0x002b0e6c
exp_inf_nan 0x002b0e74
exp_inf 0x002b0e80
exp_nan 0x002b0e8c
exp_qnan 0x002b0e94
exp_snan 0x002b0e98
exp_aix_domain_returns 0x002b0ea8
log 0x002b0edc
log_restart 0x002b0eec
log_normal 0x002b0fd4
log_special 0x002b0fe8
log_x_denorm_zero 0x002b0ff8
log_x_zero 0x002b101c
log_aix_domain_returns 0x002b1020
log_x_negative 0x002b1054
log_x_inf_nan 0x002b105c
log_x_is_qnan 0x002b1084
log_x_infinity 0x002b1088
log10 0x002b109c
log10_restart 0x002b10ac
log10_normal 0x002b119c
log10_special 0x002b11b8
log10_x_denorm_zero 0x002b11d0
log10_x_zero 0x002b11f4
log10_aix_domain_returns 0x002b11f8
log10_x_negative 0x002b122c
log10_x_inf_nan 0x002b1234
log10_x_is_qnan 0x002b125c
log10_x_infinity 0x002b1260
sqrt 0x002b1274
repeat 0x002b1284
return_single 0x002b1374
arg_negative 0x002b1390
negative_zero 0x002b139c
domain_error 0x002b13a8
invalid_return 0x002b13b4
nan_domain_error 0x002b13e4
max_exp 0x002b13ec
infinity 0x002b13fc
its_a_nan 0x002b1410
its_a_qnan 0x002b1454
zero_exp 0x002b1460
denorm 0x002b1474
sin 0x002b1484
sin.b 0x002b1488
common 0x002b1494
reduce 0x002b14d4
reduce_done 0x002b14e8
actual_cos 0x002b1514
actual_cos_ok 0x002b1550
actual_sin 0x002b155c
actual_sin_ok 0x002b158c
other_cases 0x002b1598
zero_cos 0x002b15b8
zero_sin 0x002b15bc
multiple_nan_inf 0x002b15c8
reduce_loop 0x002b15fc
return_invalid 0x002b1618
cos 0x002b164c
cos.b 0x002b1650
FE_MOT_RESVD.cos 0x002b1660
absSymbols_Common 0x002b1660
excEnt 0x002b1668
tidValid 0x002b168c
useExcStack 0x002b16b0
excStackOverflowCheck 0x002b16cc
excNotOnIntStk 0x002b16e4
excOvflChk 0x002b16f0
alreadyOnProperStack 0x002b1700
saveRegs 0x002b1710
alreadyLocked 0x002b1774
excEntNoContextChange 0x002b1844
wasLocked 0x002b185c
fpNotEnabled 0x002b18b0
mmuOK 0x002b18d0
notLocked 0x002b1944
flushDone 0x002b19e0
excEntEnable 0x002b1a1c
shortVec 0x002b1a4c
excCrtExit 0x002b1af8
excExit 0x002b1af8
excEPSet 0x002b1b10
excEPClear 0x002b1b28
excMsrSet 0x002b1b2c
mmuPpcTlbie 0x002b1b34
mmuPpcBatInit 0x002b1b44
mmuPpcSrSet 0x002b1be8
mmuPpcSrGet 0x002b1bfc
mmuPpcSdr1Set 0x002b1c08
mmuPpcSdr1Get 0x002b1c18
mmuPpcExtraBatInit 0x002b1c20
mmuPpcTlbInvalidateAll 0x002b1cc4
vvxpbi1 0x002b1cd4
mmuPpcExtraBatEnableMPC7x5 0x002b1ce8
mmuPpcPgTblLvlDescUpdate 0x002b1d00
LockedD 0x002b1d2c
lockDoneD 0x002b1d30
mmuPpcInstMissHandlerLongJump 0x002b1d3c
mmuPpcInstMissHandler 0x002b1d40
doIAEp 0x002b1d9c
doIAE 0x002b1dac
iae1 0x002b1db8
mmuPpcDataLoadMissHandlerLongJump 0x002b1dd0
mmuPpcDataLoadMissHandler 0x002b1dd4
dtlbLogClr1 0x002b1e00
dtlbLogSet1 0x002b1e08
dtlbLogSave1 0x002b1e0c
mmuPpcDataStoreMissHandlerLongJump 0x002b1e64
mmuPpcDataStoreMissHandler 0x002b1e68
dtlbLogClr2 0x002b1e94
dtlbLogSet2 0x002b1e9c
dtlbLogSave2 0x002b1ea0
ceq2 0x002b1ee8
cEq0ChkProt 0x002b1efc
chk0 0x002b1f10
chk1 0x002b1f30
chk2 0x002b1f44
doDAE 0x002b1f50
doDAEp 0x002b1f60
dae1 0x002b1f6c
dae2 0x002b1f88
cEq0ChkProtTbl 0x002b1fa0
chk0Tbl 0x002b1fb4
chk1Tbl 0x002b1fd4
chk2Tbl 0x002b1fe8
mmuPpcAEnable 0x002b1ff0
enaDat 0x002b200c
enaErr 0x002b2020
mmuPpcADisable 0x002b2024
disDat 0x002b2040
disErr 0x002b2054
mmuPpcBcopy 0x002b2058
bcopyLoop 0x002b2070
wdbSysBpLibInit 0x002b2094
wdbBpAddHookAdd 0x002b2204
wdbSysBpEnableAll 0x002b2224
wdbSysBpDisableAll 0x002b2304
wdbSysBpEventGet 0x002b23a0
wdbSysBpCallBack 0x002b2420
wdbE 0x002b2494
wdbBpModeCheck 0x002b2514
wdbHwBpAdd 0x002b254c
wdbBpAdd 0x002b27d4
wdbStop 0x002b29cc
wdbCont 0x002b2a88
wdbStep 0x002b2b94
wdbSysBpHandle 0x002b2cb0
wdbBreakpoint 0x002b2d00
wdbTrace 0x002b2e50
wdbSysBpDelete 0x002b2ef4
wdbBpDelete 0x002b2f80
dbgInit 0x002b3098
dbgHelp 0x002b3174
dbgBpEpCoreRtn 0x002b31b4
bd 0x002b33d0
bdall 0x002b34f0
dbgStackTrace 0x002b35bc
dbgTaskTraceCoreRtn 0x002b3760
tt 0x002b37ac
dbgBpByIdRemove 0x002b37f4
dbgBpAddrPrint 0x002b3848
dbgBpListPrint 0x002b3974
bpEpCommonRtn 0x002b3ca0
b 0x002b3da8
e 0x002b3e24
bh 0x002b3edc
dbgTargetNotify 0x002b3f5c
dbgBpDeleteCallback 0x002b4010
dbgPrintAdrs 0x002b4064
dbgList 0x002b4130
dbgCallPrint 0x002b42ec
dbgCheckBreakable 0x002b45bc
dbgBrkTaskGet 0x002b4668
dbgDsmAddrDefaultSet 0x002b4754
dbgTlSnglStep 0x002b47d0
dbgTlBreak 0x002b49fc
dbgBrkContinue 0x002b4b18
so 0x002b4d18
s 0x002b4d7c
cret 0x002b4df8
c 0x002b4e5c
dbgE 0x002b4ed8
dbgDisassemble 0x002b4f54
l 0x002b50a4
dbgDynPrintfBpHandler 0x002b50b4
dbgDynPrintfCommonRtn 0x002b5304
hdprintf 0x002b5738
dprintf 0x002b5878
wdbTaskBpLibInit 0x002b6424
wdbTaskBpEnable 0x002b65b4
wdbTaskBpEnableHook 0x002b65cc
wdbTaskBpPost 0x002b65e0
wdbBreakpointEventGet 0x002b6760
wdbBreakpointEventDeq 0x002b68e4
wdbTaskStep 0x002b6904
wdbTaskStop 0x002b69a4
wdbTaskCont 0x002b6a48
wdbTaskBpAdd 0x002b6aec
wdbTaskBpByIdRemove 0x002b6be0
vxdbgListInsert 0x002b6c34
vxdbgListDelete 0x002b6c7c
vxdbgClntRegister 0x002b6cc4
vxdbgHookAdd 0x002b6df8
vxdbgStop 0x002b6eb0
vxdbgCont 0x002b6f24
vxdbgSafeMemRead 0x002b6f98
vxdbgSafeMemWrite 0x002b70f4
vxdbgSafeMemMove 0x002b7258
vxdbgSafeMemScan 0x002b72f8
vxdbgHookInvoke 0x002b73b4
vxdbgTaskHooksInstall 0x002b7538
vxdbgStep 0x002b75dc
vxdbgMemCtxSwitch 0x002b764c
vxdbgBpEnable 0x002b7738
vxdbgBpEnableHook 0x002b7998
vxdbgBrkIgnoreDefault 0x002b79ac
vxdbgBpDoIgnore 0x002b7a04
vxdbgBpDoneIgnore 0x002b7a30
vxdbgBpTrace 0x002b7a84
vxdbgBpGet 0x002b7bc0
vxdbgBpFind 0x002b7c54
vxdbgBpAllDisable 0x002b7ce8
vxdbgTaskSwitch 0x002b7d68
vxdbgEnable 0x002b7e50
vxdbgHwBpInstall 0x002b7ecc
vxdbgBpRemove 0x002b7fc4
vxdbgBpDelete 0x002b8094
vxdbgBpBreakpoint 0x002b822c
vxdbgBpAdd 0x002b8570
vxdbgTaskLibInit 0x002b8adc
vxdbgTaskCont 0x002b8ae8
vxdbgTaskStop 0x002b8bb8
vxdbgTaskStep 0x002b8c30
vxdbgTaskDeleteHook 0x002b8df4
vxdbgBpAddrCheck 0x002b8e58
wdbDbgTrace 0x002b91e4
wdbDbgBreakpoint 0x002b925c
vxdbgBpMsgQCreate 0x002b92ec
vxdbgBpMsgGet 0x002b93f8
vxdbgBpMsgQHdlrIsRunning 0x002b9464
vxdbgBpMsgPost 0x002b94b4
vxdbgBpMsgDrop 0x002b9560
vxdbgBpPrintJob 0x002b9564
vxdbgMemAccess 0x002b97d8
vxdbgMemRead 0x002b99a8
vxdbgMemWrite 0x002b99c0
vxdbgMemMove 0x002b99d8
vxdbgMemScan 0x002b9a44
cplusLibInit 0x002b9ab0
_ZN18RBStringIterator_TC2ERK10RBString_T 0x002b9adc
_ZN18RBStringIterator_TC1ERK10RBString_T 0x002b9aec
_ZN18RBStringIterator_T8nextCharEv 0x002b9afc
_ZN10RBString_TC2Ev 0x002b9b30
_ZN10RBString_TC1Ev 0x002b9b4c
_ZN10RBString_T5clearEv 0x002b9b68
_ZNK10RBString_TeqERS_ 0x002b9b84
_ZN10RBString_T14extractCStringEPci 0x002b9c78
_ZN10RBString_T6appendERS_ 0x002b9d2c
_ZN10RBString_T6appendEPKci 0x002b9df4
_ZN10RBString_T6appendEc 0x002b9e70
_ZN10RBString_T7prependEc 0x002b9ecc
_ZN10RBString_TaSERS_ 0x002b9f24
_ZN10RBString_T7prependEPKci 0x002b9f94
_ZN10RBString_TC1ERS_ 0x002ba014
_ZN10RBString_T7prependERS_ 0x002ba078
_ZN10RBString_TC2ERS_ 0x002ba0d0
_ZN10RBString_TC1EPKc 0x002ba134
_ZN10RBString_TC2EPKc 0x002ba1b8
cplusCallCtors 0x002ba23c
cplusCtorsLink 0x002ba284
cplusCallDtors 0x002ba2c0
cplusDtorsLink 0x002ba328
cplusDemanglerInit 0x002ba334
_cplusDemangle 0x002ba35c
cplusDemanglerSet 0x002ba390
symbolStartOf 0x002ba398
cplusDemangle 0x002ba39c
cplusDemangleToBuffer 0x002ba3fc
startsWith 0x002ba4a4
cplusMangledSymCheck 0x002ba4fc
cplusMatchMangledListGet 0x002ba594
symNodeAdd 0x002ba600
cplusUserAsk 0x002ba680
cplusMangledSymGet 0x002ba7e0
cplusMatchMangled 0x002ba918
cplusDemangle2 0x002ba944
findMatches 0x002ba9d4
cplusDemanglerStyleInit 0x002baac0
cplusDemanglerStyleSet 0x002baacc
demanglerNameFromStyle 0x002baad4
realDemangleToBufferEx 0x002bab1c
demangleToBufferEx 0x002bad5c
demangleToBuffer 0x002bafa4
demangleResultFree 0x002bb104
demangle 0x002bb12c
demanglerStyleFromName 0x002bb258
__pure_virtual_called 0x002bb30c
__pure_virtual 0x002bb368
cplusLibMinInit 0x002bb36c
cplusArraysInit 0x002bb3b4
_Z14cplusTerminatev 0x002bb3b8
_Z19cplusCallNewHandlerv 0x002bb418
_Z21cplusNewHandlerExistsv 0x002bb454
is_IA64_encoded_identifier 0x002bb494
clear_control_block 0x002bb4bc
write_id_ch 0x002bb4ec
write_id_str 0x002bb564
bad_mangled_name 0x002bb5c8
start_of_id_is 0x002bb5f8
advance_past 0x002bb628
advance_past_underscore 0x002bb684
get_length 0x002bb694
cfront_get_number 0x002bb790
get_single_digit_number 0x002bb840
get_length_with_optional_underscore 0x002bb8b4
is_immediate_type_qualifier 0x002bb964
clear_template_param_block 0x002bb984
demangle_operator 0x002bb9ac
note_specialization 0x002bc1ac
get_char 0x002bc1e8
demangle_type_qualifiers 0x002bc20c
cfront_skip_extern_C_indication 0x002bc318
clear_func_block 0x002bc330
IA64_get_number 0x002bc348
record_substitutable_entity 0x002bc408
get_cv_qualifiers 0x002bc468
output_cv_qualifiers 0x002bc4d4
IA64_skip_extern_C_indication 0x002bc5d8
get_operator_name 0x002bc5f0
demangle_source_name 0x002bcafc
get_hex_digit 0x002bccd0
demangle_call_offset 0x002bcd24
demangle_template_param 0x002bcebc
write_template_parameter_name 0x002bcf7c
demangle_expression 0x002bd0b0
IA64_demangle_type_first_part 0x002bd530
demangle_substitution 0x002bda0c
IA64_demangle_type_second_part 0x002bde40
IA64_demangle_type 0x002be128
demangle_float_literal 0x002be194
demangle_unqualified_name 0x002be400
demangle_unscoped_name 0x002be534
demangle_bare_function_type 0x002be5ec
demangle_encoding 0x002be754
IA64_decode_identifier_ex 0x002be9fc
demangle_literal 0x002bebb4
demangle_template_args 0x002bed48
demangle_nested_name_components 0x002bee48
IA64_demangle_name 0x002bf12c
demangle_constant 0x002bf3e8
demangle_template_arguments 0x002bf9dc
demangle_template_parameter_name 0x002bfc9c
demangle_simple_type_name 0x002bfdf4
full_demangle_type_name 0x002bfe1c
cfront_demangle_type_first_part 0x002bffa0
cfront_demangle_type 0x002c0664
demangle_function_parameters 0x002c06c8
cfront_demangle_type_second_part 0x002c0998
demangle_vtbl_class_name 0x002c0c18
cfront_demangle_name 0x002c0c8c
full_demangle_identifier 0x002c12d8
decode_identifier_styled 0x002c174c
cfront_decode_identifier 0x002c1ec8
decode_identifier_ex 0x002c1eec
decode_identifier 0x002c1fdc
__cxa_demangle 0x002c2020
demangle_function_local_indication 0x002c2264
demangle_name_with_preceding_length 0x002c23b4
aimFppLibInit 0x002c25e8
fppTaskRegsSet 0x002c25ec
fppTaskRegsGet 0x002c25f8
aimMmuBaseLibInit 0x002c2604
aimMmuCurrentSet 0x002c2674
aimMmuPageSizeGet 0x002c26a8
aimMmuAttrTranslate 0x002c26b4
aimMmuBlockSizeGet 0x002c26e0
aimMmuTransTblToRegionTbl 0x002c26ec
aimMmuUnityXlate 0x002c2700
countBits 0x002c2704
aimMmuLibInit 0x002c272c
aimMmuPteSet 0x002c2bc4
checkKernelAddress 0x002c2ce4
mmuRegionTblMask 0x002c2d78
aimMmuVirtToPtePtr 0x002c2d84
protectedPageWrite 0x002c2e08
aimMmuTransTblCreate 0x002c2f00
aimMmuUnoptimizePage 0x002c305c
aimMmuStateSet 0x002c31a8
aimMmuPageCacheInhibit 0x002c3564
aimMmuPageUnProtect 0x002c357c
aimMmuPageProtect 0x002c35e8
aimMmuPageTableAlloc 0x002c3654
aimMmuMapOptimize 0x002c375c
aimMmuUnlock 0x002c3bf4
aimMmuLock 0x002c3d80
aimMmuLockRegionsImport 0x002c4204
aimMmuBufferWrite 0x002c42c0
aimMmuPageUnMap 0x002c44f4
aimMmuStateGet 0x002c46a8
aimMmuTranslate 0x002c4738
aimMmuTransTblMask 0x002c4804
aimMmuTransTblUnion 0x002c4954
aimMmuTransTblUnionInit 0x002c4a2c
aimMmuPhysTranslate 0x002c4ae0
aimMmuPageMapRaw 0x002c4c3c
aimMmuPageMap 0x002c4e04
aimMmuGlobalPageMap 0x002c4e1c
aimMmuProtectPageTable 0x002c4e3c
aimMmuEnable 0x002c4f24
aimMmuTransTblDelete 0x002c4f98
vxCpuIndexGet 0x002c5388
wdbDbgArchInit 0x002c5390
wdbDbgTraceModeSet 0x002c53fc
wdbDbgTraceModeClear 0x002c5434
wdbDbgSoftBpHandle 0x002c546c
wdbDbgHwAddrCheck 0x002c54f4
wdbDbgHwBpSet 0x002c5580
wdbDbgHwBpFind 0x002c56f0
wdbDbgRegsGet 0x002c57d4
wdbDbgHwBpHandle 0x002c5840
wdbDbgRegsSet 0x002c5894
wdbDbgRegsClear 0x002c58e8
wdbDbgSysCallCheck 0x002c593c
_dbgArchInit 0x002c5964
_dbgInstSizeGet 0x002c5974
_dbgRetAdrsGet 0x002c597c
_dbgFuncCallCheck 0x002c5a78
_dbgInfoPCGet 0x002c5ad0
_dbgTaskPCSet 0x002c5ad8
_dbgTaskPCGet 0x002c5b2c
_dbgBrkDisplayHard 0x002c5b54
dsmFind 0x002c5c98
nPrtAddress 0x002c5d20
dsmSuffixPrint 0x002c5d40
decodeSpecial 0x002c5e80
prtArgs 0x002c5ec4
dsmPrint 0x002c6978
dsmInst 0x002c6a94
dsmFindByInst 0x002c6b28
dsmFindByName 0x002c6b90
wdbDbgTraceStub 0x002c7374
wdbDbgIabrGet 0x002c73a4
wdbDbgIabrSet 0x002c73ac
wdbDbgIabr2Get 0x002c73b8
wdbDbgIabr2Set 0x002c73c0
wdbDbgIbcrGet 0x002c73cc
wdbDbgIbcrSet 0x002c73d4
wdbDbgDabrGet 0x002c73e0
wdbDbgDabrSet 0x002c73e8
wdbDbgDabr2Get 0x002c73f4
wdbDbgDabr2Set 0x002c73fc
wdbDbgDbcrGet 0x002c7408
wdbDbgDbcrSet 0x002c7410
wdbDbgDarGet 0x002c741c
wdbDbgDataAccessStub 0x002c7424
wdbDbgHwBpStub 0x002c743c
__assert 0x002c7444
isalnum 0x002c747c
isalpha 0x002c7490
iscntrl 0x002c74a4
isdigit 0x002c74b8
isgraph 0x002c74cc
islower 0x002c74e0
isprint 0x002c74f4
ispunct 0x002c7508
isspace 0x002c751c
isupper 0x002c7530
isxdigit 0x002c7544
tolower 0x002c7558
toupper 0x002c7568
localeconv 0x002c7578
setlocale 0x002c7588
_setjmpSetup 0x002c75f0
longjmp 0x002c7694
clearerr 0x002c772c
fclose 0x002c7758
fdopen 0x002c785c
feof 0x002c78e0
ferror 0x002c7918
__sflush 0x002c7950
fflush 0x002c7a10
fgetc 0x002c7a80
fgetpos 0x002c7af0
fgets 0x002c7b50
fileno 0x002c7c78
__sflags 0x002c7ca4
fopen 0x002c7db0
fputc 0x002c7e54
fputs 0x002c7f10
fread 0x002c7f88
freopen 0x002c8084
fseek 0x002c8258
fsetpos 0x002c860c
ftell 0x002c8618
__sfvwrite 0x002c86d8
fwrite 0x002c8a2c
getc 0x002c8ab8
getchar 0x002c8b44
gets 0x002c8bf0
getw 0x002c8cc4
__smakebuf 0x002c8d0c
perror 0x002c8e40
putc 0x002c8ec8
putchar 0x002c8f84
putw 0x002c90b4
puts 0x002c9100
lflush 0x002c9188
__srefill 0x002c91a4
rewind 0x002c9318
__srget 0x002c9390
setbuf 0x002c93e8
setbuffer 0x002c9430
setlinebuf 0x002c947c
setvbuf 0x002c94d0
__sread 0x002c95fc
__swrite 0x002c965c
__sseek 0x002c96c4
__sclose 0x002c9718
stdioInit 0x002c9770
stdioFpCreate 0x002c9798
stdioFpDestroy 0x002c9838
stdioStdfpCleanup 0x002c9894
stdioInitStd 0x002c98e0
__stderr 0x002c99d0
__stdout 0x002c9a0c
__stdin 0x002c9a48
stdioFp 0x002c9a84
stdioShowInit 0x002c9ad8
stdioShow 0x002c9b08
tmpnam 0x002c9de0
tmpfile 0x002c9e74
__submore 0x002c9e7c
ungetc 0x002c9f38
__swbuf 0x002ca0bc
__swsetup 0x002ca1a8
vfprintf 0x002ca298
putbuf 0x002ca420
fprintf 0x002ca4e0
fscanf 0x002ca594
scanf 0x002ca698
abort 0x002ca770
abs 0x002ca798
atexit 0x002ca7a8
atof 0x002ca7b0
atoi 0x002ca7d4
atol 0x002ca7e0
bsearch 0x002ca7ec
div_r 0x002ca860
div 0x002ca89c
labs 0x002ca8cc
ldiv_r 0x002ca8dc
ldiv 0x002ca918
mblen 0x002ca948
mbtowc 0x002ca9ac
wctomb 0x002caa14
mbstowcs 0x002caa4c
wcstombs 0x002caab4
insertion_sort 0x002caae0
quick_sort 0x002cab9c
qsort 0x002caf94
rand 0x002cafcc
srand 0x002cafec
strtol 0x002caff8
strtoul 0x002cb194
system 0x002cb324
strtod 0x002cb32c
memchr 0x002cb5cc
memcmp 0x002cb600
memcpy 0x002cb648
memmove 0x002cb684
memset 0x002cb6c0
strcat 0x002cb6fc
strchr 0x002cb740
strcmp 0x002cb77c
getxfrm 0x002cb7b0
strcoll 0x002cb844
strcpy 0x002cb930
strcspn 0x002cb95c
strerrorIf 0x002cb99c
strerror_r 0x002cba50
strerror 0x002cbacc
strlen 0x002cbb14
strncat 0x002cbb3c
strncmp 0x002cbb94
strncpy 0x002cbbe0
strpbrk 0x002cbc34
strrchr 0x002cbc74
strspn 0x002cbca4
strstr 0x002cbce4
strtok 0x002cbd54
strtok_r 0x002cbd5c
__strxfrm 0x002cbde8
strxfrm 0x002cbf00
strlcpy 0x002cbfd0
strdup 0x002cc048
strcasecmp 0x002cc0ac
strncasecmp 0x002cc0f8
asctime_r 0x002cc140
asctime 0x002cc178
clock 0x002cc1d4
ctime_r 0x002cc1dc
ctime 0x002cc224
__daysSinceEpoch 0x002cc258
__julday 0x002cc2c0
__getTime 0x002cc334
gmtime_r 0x002cc498
gmtime 0x002cc4a0
localtime_r 0x002cc4dc
localtime 0x002cc56c
__tmNormalize 0x002cc5a4
__tmValidate 0x002cc5f8
mktime 0x002cc73c
__weekOfYear 0x002cc830
__intToStr 0x002cc85c
__getDay 0x002cc8a0
__getMonth 0x002cc904
__getDstInfo 0x002cc96c
__getZoneInfo 0x002ccc24
__getLocale 0x002ccd38
__generateTime 0x002ccdf8
strftime_r 0x002cd188
strftime 0x002cd2c8
time 0x002cd2e0
difftime 0x002cd338
ccip_NextProviderSlot 0x002cd478
ccip_IsProviderLoaded 0x002cd500
ccip_copy_algorithm 0x002cd584
cciSetNativeAlgorithm 0x002cd628
cciProviderLoad 0x002cd66c
cciProviderInherit 0x002cd85c
ccip_initInstance 0x002cd950
cciLibInit 0x002cd9a8
cciProviderUnload 0x002cdadc
cciLibUnInit 0x002cdb58
cciShareStats 0x002cdc80
cciStats 0x002cdcc4
cciTaskPrioritySet 0x002cdf4c
cciPoolCreateReg 0x002ce1f8
cciPoolDestroy 0x002ce2d8
cciPoolAlloc 0x002ce354
cciPoolRelease 0x002ce450
cciProviderCreate 0x002ce50c
ccip_FreeAlgorithms 0x002ce5d4
cciProviderDestroy 0x002ce624
cciProviderAlgorithmSet 0x002ce6bc
cciProviderName 0x002ce748
cciProviderIntegerTableSet 0x002ce760
ccip_pvr_set_param 0x002cecb0
ccip_pvr_get_param 0x002cecd4
ccip_pvr_generate_hash 0x002ced00
ccip_pvr_check_signature 0x002cedc4
cciPKIAlgorithm 0x002cf0a0
cciPKIKeyCreate 0x002cf0a8
cciPKIKeyDestroy 0x002cf1ec
cciPKIKeyCompSet 0x002cf29c
cciPKIKeyCompGet 0x002cf354
ccip_initialize 0x002cf414
ccip_share_alloc 0x002cf5d8
ccip_share_realloc 0x002cf670
ccip_share_free 0x002cf6d0
ccip_Malloc 0x002cf734
cciAlloc 0x002cf770
cciRealloc 0x002cf810
cciFree 0x002cf890
cciMemFunctions 0x002cf918
cciSharedMemFunctions 0x002cf94c
cciSharedRegionSet 0x002cf95c
ccip_show_buffer 0x002cfa88
cciIsAlgorithmSet 0x002cfc0c
cciIsNative 0x002cfc8c
ccip_time_ms 0x002cfd14
ccip_time_sec 0x002cfd58
ccip_wait 0x002cfd84
ccip_wait_ms 0x002cfdb4
cciShowVersion 0x002cfdbc
cci_noSdUnmapDelete 0x002cfe34
cci_noSdOpen 0x002cfe80
cci_FakeVirtToPhys 0x002cfefc
rijndaelKeySetupEnc 0x002cff00
rijndaelKeySetupDec 0x002d02e8
rijndaelEncrypt 0x002d051c
rijndaelDecrypt 0x002d0950
ccip_cipherCBCBits 0x002d0d84
ccip_aes_encrypt 0x002d0e90
ccip_aes_decrypt 0x002d12b8
ccip_default_aes_session 0x002d18f0
ccip_aes_setup_schedule 0x002d1a98
ccip_aes_encrypt_block 0x002d1aa4
CCI_CIPHER_AES_native 0x002d1acc
ccip_aeskw_wrap 0x002d1bd0
ccip_aeskw_unwrap 0x002d1da8
ccip_default_aeskeywrap_session 0x002d1f74
CCI_CIPHER_AESKW_native 0x002d2064
ccip_default_hmac_aesxcbc_init 0x002d2100
ccip_default_hmac_aesxcbc_update 0x002d21dc
ccip_default_hmac_aesxcbc_final 0x002d2328
ccip_default_AESXCBC_open_session 0x002d2408
ccip_default_AESXCBC_close_session 0x002d2440
ccip_default_AESXCBC_init_session 0x002d2484
ccip_default_AESXCBC_update_session 0x002d24e8
ccip_default_AESXCBC_final_session 0x002d254c
CCI_HMAC_AES_XCBC_native 0x002d25a8
des_encrypt 0x002d2674
des_cfb64_encrypt 0x002d3bcc
des_encrypt2 0x002d3df0
des_encrypt3 0x002d51cc
des_ede3_cfb64_encrypt 0x002d534c
des_decrypt3 0x002d5584
des_ncbc_encrypt 0x002d5708
des_ede3_cbc_encrypt 0x002d5bcc
des_ecb3_encrypt 0x002d60a8
des_ecb_encrypt 0x002d618c
des_ede3_ofb64_encrypt 0x002d6268
des_ofb64_encrypt 0x002d6418
check_parity 0x002d65c4
des_is_weak_key 0x002d65fc
des_set_key 0x002d6654
DES_cfb_encrypt 0x002d691c
ccip_des_block 0x002d6f8c
ccip_tripledes_block 0x002d7170
ccip_boundaryCheck 0x002d72c0
ccip_default_des_session 0x002d7320
CCI_CIPHER_DES_native 0x002d7588
CCI_CIPHER_DESX_native 0x002d7634
CCI_CIPHER_2DES_native 0x002d76e0
CCI_CIPHER_3DES_native 0x002d778c
ccip_default_rc4_init 0x002d7838
ccip_default_rc4_encrypt 0x002d78c4
ccip_default_rc4_close_session 0x002d794c
ccip_default_rc4_session 0x002d7990
CCI_CIPHER_RC4_native 0x002d7a54
ccip_default_rc4tkip_encrypt 0x002d7ad4
ccip_default_rc4tkip_session 0x002d7bf4
CCI_CIPHER_RC4TKIP_native 0x002d7cb4
ccip_default_NULL_session 0x002d7d20
CCI_CIPHER_NULL_native 0x002d7db8
ccip_default_CRC32_init_session 0x002d7e24
ccip_default_CRC32_update_session 0x002d7e80
ccip_default_CRC32_final_session 0x002d7f20
CCI_HASH_CRC32_native 0x002d7f5c
MD2Transform 0x002d8028
ccip_default_MD2_init 0x002d8138
ccip_default_MD2_update 0x002d817c
ccip_default_MD2_final 0x002d8240
ccip_default_HashMD2_init_session 0x002d82b8
ccip_default_HashMD2_update_session 0x002d82e0
ccip_default_HashMD2_final_session 0x002d8344
CCI_HASH_MD2_native 0x002d8370
ccip_default_MD4_init 0x002d84d8
Encode 0x002d8518
Decode 0x002d8568
MD4_memcpy 0x002d85c0
MD4_memset 0x002d85e4
MD4Transform 0x002d8600
ccip_default_MD4_update 0x002d8d4c
ccip_default_MD4_final 0x002d8e30
ccip_default_HashMD4_init_session 0x002d8ed8
ccip_default_HashMD4_update_session 0x002d8f00
ccip_default_HashMD4_final_session 0x002d8f64
CCI_HASH_MD4_native 0x002d8f90
ccip_default_MD5_init 0x002d905c
ccip_default_MD5_update 0x002d9060
ccip_default_MD5_final 0x002d9064
ccip_default_HashMD5_init_session 0x002d9074
ccip_default_HashMD5_update_session 0x002d909c
ccip_default_HashMD5_final_session 0x002d9100
CCI_HASH_MD5_native 0x002d9130
MDinit 0x002d91fc
compress 0x002d9230
ccip_default_RMD128_init 0x002da64c
ccip_default_RMD128_update 0x002da684
ccip_default_RMD128_final 0x002da760
ccip_default_RMD128_block 0x002da878
ccip_default_HashRIPEMD128_init_session 0x002da8c0
ccip_default_HashRIPEMD128_update_session 0x002da8e8
ccip_default_HashRIPEMD128_final_session 0x002da94c
CCI_HASH_RIPEMD128_native 0x002da978
ccip_default_RMD160_init 0x002daa44
ccip_default_RMD160_update 0x002daa48
ccip_default_RMD160_final 0x002daa4c
ccip_default_RMD160_block 0x002daa5c
ccip_default_HashRIPEMD160_init_session 0x002daaa4
ccip_default_HashRIPEMD160_update_session 0x002daacc
ccip_default_HashRIPEMD160_final_session 0x002dab30
CCI_HASH_RIPEMD160_native 0x002dab60
ccip_default_SHA1_init 0x002dac2c
ccip_default_SHA1_update 0x002dac64
ccip_default_SHA1_final 0x002dac68
ccip_default_HashSHA1_init_session 0x002dac78
ccip_default_HashSHA1_update_session 0x002daca0
ccip_default_HashSHA1_final_session 0x002dad04
CCI_HASH_SHA1_native 0x002dad34
ccip_default_SHA224_init 0x002dae00
ccip_default_SHA224_update 0x002dae94
ccip_default_SHA224_final 0x002dae98
ccip_default_HashSHA224_init_session 0x002daea0
ccip_default_HashSHA224_update_session 0x002daec8
ccip_default_HashSHA224_final_session 0x002daf2c
CCI_HASH_SHA224_native 0x002daf5c
ccip_default_SHA256_init 0x002db028
SHA256Transform 0x002db0bc
ccip_default_shasmall_Final 0x002db304
ccip_default_SHA256_final 0x002db400
ccip_default_SHA256_update 0x002db408
ccip_default_HashSHA256_init_session 0x002db570
ccip_default_HashSHA256_update_session 0x002db598
ccip_default_HashSHA256_final_session 0x002db5fc
CCI_HASH_SHA256_native 0x002db62c
ccip_default_SHA384_init 0x002db6f8
ccip_default_SHA384_update 0x002db7cc
ccip_default_SHA384_final 0x002db7d0
ccip_default_HashSHA384_init_session 0x002db7d8
ccip_default_HashSHA384_update_session 0x002db800
ccip_default_HashSHA384_final_session 0x002db864
CCI_HASH_SHA384_native 0x002db894
sha_compress 0x002db960
ccip_default_SHA512_init 0x002dbdc0
ccip_default_SHA512_update 0x002dbe94
ccip_default_shabig_Final 0x002dbf1c
ccip_default_SHA512_final 0x002dc0b0
ccip_default_HashSHA512_init_session 0x002dc0b8
ccip_default_HashSHA512_update_session 0x002dc0e0
ccip_default_HashSHA512_final_session 0x002dc144
CCI_HASH_SHA512_native 0x002dc174
ccip_default_hmacMD4_open_session 0x002dc240
ccip_default_hmacMD4_close_session 0x002dc298
CCI_HMAC_MD4_native 0x002dc2c8
ccip_default_hmacMD5_open_session 0x002dc394
ccip_default_hmacMD5_close_session 0x002dc3ec
CCI_HMAC_MD5_native 0x002dc41c
ccip_default_hmacRIP128_open_session 0x002dc4e8
ccip_default_hmacRIP128_close_session 0x002dc540
CCI_HMAC_RIPEMD128_native 0x002dc570
ccip_default_hmacRIP160_open_session 0x002dc63c
ccip_default_hmacRIP160_close_session 0x002dc694
CCI_HMAC_RIPEMD160_native 0x002dc6c4
ccip_default_hmacSHA1_open_session 0x002dc790
ccip_default_hmacSHA1_close_session 0x002dc7e8
CCI_HMAC_SHA1_native 0x002dc818
ccip_default_hmacSHA224_open_session 0x002dc8e4
ccip_default_hmacSHA224_close_session 0x002dc93c
CCI_HMAC_SHA224_native 0x002dc96c
ccip_default_hmacSHA256_open_session 0x002dca38
ccip_default_hmacSHA256_close_session 0x002dca90
CCI_HMAC_SHA256_native 0x002dcac0
ccip_default_hmacSHA384_open_session 0x002dcb8c
ccip_default_hmacSHA384_close_session 0x002dcbe4
CCI_HMAC_SHA384_native 0x002dcc14
ccip_default_hmacSHA512_open_session 0x002dcce0
ccip_default_hmacSHA512_close_session 0x002dcd38
CCI_HMAC_SHA512_native 0x002dcd68
ccip_NumCreate 0x002dce34
ccip_NumDestroy 0x002dce38
ccip_NumTstBit 0x002dce5c
ccip_NumSetBit 0x002dce60
ccip_NumClrBit 0x002dce84
ccip_NumMaskBits 0x002dcea8
ccip_NumCmpWord 0x002dcecc
ccip_NumSetWord 0x002dcf18
ccip_NumCreateDec 0x002dcf1c
ccip_NumCreateHex 0x002dcf5c
ccip_NumCreateBin 0x002dcf9c
ccip_NumDecStr 0x002dcfa4
ccip_NumHexStr 0x002dcfa8
ccip_NumNumBits 0x002dcfac
ccip_NumMultiply 0x002dcfb0
ccip_NumDivide 0x002dd004
ccip_NumGCD 0x002dd060
ccip_NumAdd 0x002dd0b4
ccip_NumSub 0x002dd0b8
ccip_NumCopy 0x002dd0bc
ccip_NumExp 0x002dd0c0
ccip_NumMod 0x002dd114
ccip_NumModExp 0x002dd188
ccip_NumModInverse 0x002dd1e4
ccip_NumShiftLeft 0x002dd238
ccip_NumShiftRight 0x002dd23c
ccip_NumCompare 0x002dd240
ccip_NumIsPos 0x002dd244
ccip_NumIsNeg 0x002dd254
ccip_NumPos 0x002dd264
ccip_NumNeg 0x002dd270
ccip_NumBinary 0x002dd27c
ccip_NumRandom 0x002dd2c0
ccip_NumPrime 0x002dd324
ccip_NumIsPrime 0x002dd338
CCI_INTEGER_native 0x002dd39c
ccip_get_hash_ctx_size 0x002dd584
cciCtxHashCopy 0x002dd64c
ccip_default_generic_open_session 0x002dd700
ccip_default_generic_close_session 0x002dd738
ccip_default_provider 0x002dd77c
randomTime 0x002dd7d0
glue_seed_prng 0x002dd7fc
prng_iterate 0x002dd860
prng_seed 0x002dd9e0
prng_random8 0x002ddb14
prng_random 0x002ddb5c
ccip_default_prng_seed 0x002ddba4
prng_init 0x002ddc08
ccip_default_prng_integers 0x002ddc88
ccip_default_prng_num 0x002ddce0
ccip_default_prng_session 0x002ddd20
ccip_default_prng_seed_session 0x002dddbc
CCI_RNG_GENERIC_native 0x002dde44
CCI_RNG_SEED_native 0x002ddeb0
ccip_rsa_show_keys 0x002ddf1c
ccip_rsa_set_component_pri 0x002de118
ccip_rsa_get_component_pri 0x002de200
ccip_rsa_set_component_pub 0x002de2e4
ccip_rsa_get_component_pub 0x002de348
ccip_MaskGenFunct 0x002de3b8
setupProcessSpecs 0x002de4b4
ccip_Encode_OAEP 0x002de5ac
ccip_Decode_OAEP 0x002de7bc
ccip_HashNULLS 0x002de9e0
ccip_GenerateRandomNumWithoutNULLS 0x002dea10
ccip_Encode_PKCS1 0x002dea5c
ccip_Decode_PKCS1 0x002deb1c
ccip_Encode_SSLV23 0x002debdc
ccip_Decode_SSLV23 0x002dec90
ccip_ProduceDigest 0x002ded78
ccip_Sign_PKCS1 0x002df090
ccip_CalculateRSAOutputSize 0x002df190
ccip_CalculateRSAInputSize 0x002df270
ccip_EncodeRSABlock 0x002df33c
ccip_DecodeRSABlock 0x002df408
ccip_chinese_remainder_theorem 0x002df4d8
ccip_BlindingAlloc 0x002df5c8
ccip_BlindingFree 0x002df6b0
ccip_RSAEncrypt 0x002df6f4
ccip_RSADecrypt 0x002df9c4
ccip_rsa_sign 0x002dfe2c
ccip_rsa_verify 0x002e0024
ccip_rsa_create_privatekey 0x002e0170
ccip_rsa_destroy_privatekey 0x002e025c
ccip_rsa_create_publickey 0x002e02e0
ccip_rsa_destroy_publickey 0x002e0344
_calculatePrimes 0x002e0388
_calculatePublicExponent 0x002e047c
ccip_rsa_generate 0x002e05d4
mp_table_setup 0x002e06d8
ccip_DefaultRSAHandler_GenKeys 0x002e0828
ccip_DefaultRSAHandler_Sign 0x002e0890
ccip_DefaultRSAHandler_Verify 0x002e09b8
ccip_DefaultRSAHandler_Encrypt 0x002e0adc
ccip_DefaultRSAHandler_Decrypt 0x002e0c24
ccip_DefaultRSAHandler_CreateKey 0x002e0d6c
ccip_DefaultRSAHandler_DestroyKey 0x002e0df4
ccip_DefaultRSAHandler_SetKeyComp 0x002e0e64
ccip_DefaultRSAHandler_GetKeyComp 0x002e0f34
ccip_DefaultRSAHandler_Set_Blinding 0x002e1004
ccip_DefaultRSAHandler_Get_Blinding 0x002e1088
ccip_DefaultRSAHandler_KeySize 0x002e1110
ccip_default_rsa_handler 0x002e11b4
CCI_PUBLICKEY_RSA_native 0x002e12ec
ccip_default_singlepass_open_session 0x002e1418
ccip_default_singlepass_close_session 0x002e1574
ccip_default_singlepass_session 0x002e162c
CCI_IPSEC_SINGLEPASS_native 0x002e1c58
ccip_default_cast_session 0x002e1cec
CCI_CIPHER_CAST_native 0x002e1f60
ccip_default_blowfish_session 0x002e2078
CCI_CIPHER_BLOWFISH_native 0x002e22ec
cciAlgorithmCreate 0x002e2404
ccip_algorithm_set_attr 0x002e24a0
cciAlgorithmHandlerSet 0x002e250c
cciAlgorithmDestroy 0x002e2574
cciCtxInit 0x002e25b4
cciCtxClear 0x002e272c
cciCtxCreate 0x002e2778
ccip_ctx_get_attr 0x002e2808
cciCtxDestroy 0x002e2834
cciCtxDigestLenGet 0x002e2884
cciCtxIvLenGet 0x002e28d8
ccip_submit_request 0x002e2914
ccip_ctx_update 0x002e29d8
cciCtxPoolRelease 0x002e2ad0
cciCtxPoolAlloc 0x002e2b14
ccip_cciTask_insert 0x002e2b9c
ccip_process_request 0x002e2c1c
cciCtxExecute 0x002e2c5c
cciRand 0x002e2c6c
cciRandSeed 0x002e2cf8
cciCtxCompress 0x002e2d78
ccip_ctx_digest_get 0x002e2dfc
cciCtxCipher 0x002e2e84
cciCtxPKIDecrypt 0x002e2f00
cciCtxPKIEncrypt 0x002e2fc8
cciCtxPKIVerify 0x002e3090
cciCtxPKISign 0x002e3158
cciCtxPKIKeyGen 0x002e3220
cciCtxAsyncStatus 0x002e3310
cciTask 0x002e33d4
cciInteger 0x002e35a8
cciIntegerDec 0x002e3618
cciIntegerHex 0x002e367c
cciIntegerBin 0x002e36e0
cciIntegerFree 0x002e374c
cciSetWord 0x002e37d0
cciTestBit 0x002e3828
cciSetBit 0x002e3884
cciClearBit 0x002e38e0
cciMaskBits 0x002e393c
cciCmpWord 0x002e3998
cciDecStr 0x002e39f4
cciHexStr 0x002e3a68
cciNumBits 0x002e3adc
cciMul 0x002e3b3c
cciDiv 0x002e3b9c
cciGcd 0x002e3c00
cciAdd 0x002e3c60
cciSub 0x002e3cc0
cciCopy 0x002e3d20
cciIntegerDup 0x002e3d8c
cciMulWord 0x002e3dd4
cciAddWord 0x002e3e2c
cciSubWord 0x002e3e84
cciSetHex 0x002e3edc
cciSetDec 0x002e3f28
cciExp 0x002e3f74
cciExpWord 0x002e3fd4
cciMod 0x002e402c
cciModWord 0x002e408c
cciModExp 0x002e40e4
cciModExpObsolete 0x002e4148
cciModInverse 0x002e418c
cciCmp 0x002e41ec
cciCmpHex 0x002e4250
cciCmpDec 0x002e42a8
cciLShift 0x002e4300
cciRShift 0x002e4364
cciIsPos 0x002e43c8
cciIsNeg 0x002e4428
cciPos 0x002e4488
cciNeg 0x002e44e4
cciExportBin 0x002e4540
cciImportBin 0x002e45a0
cciRandomInt 0x002e45ec
cciPrime 0x002e4648
cciIsPrime 0x002e46a4
cciBinToHex 0x002e4704
cciHexToBin 0x002e47c4
ccip_kernel_map_shared_memory 0x002e48d4
ccip_kernel_process_rtp_msg 0x002e4da8
cciHmacInit 0x002e55c8
cciHmacBlock 0x002e5624
cciCmacInit 0x002e5704
cciCmacFinal 0x002e5778
cciCmacBlock 0x002e5830
cciHashBlock 0x002e5920
cciCipher 0x002e59e0
cciPKIGenerateKeys 0x002e5ae8
cciPKISignMessage 0x002e5be8
cciPKIVerifyMessage 0x002e5c90
cciPKISignDigest 0x002e5d38
cciPKIVerifyDigest 0x002e5dd8
cciPKIEncrypt 0x002e5e78
cciPKIDecrypt 0x002e5f4c
cciPKIBlindingSet 0x002e6020
cciPKIBlindingGet 0x002e60dc
cciPKISize 0x002e6198
ccip_CreateHmacContext 0x002e62ac
ccip_ReleaseHmacContext 0x002e634c
ccip_default_hmac_reset 0x002e63b0
ccip_default_hmac_init 0x002e6474
ccip_default_hmac_update 0x002e6508
ccip_default_hmac_final 0x002e653c
ccip_default_hmac_init_session 0x002e65d8
ccip_default_hmac_update_session 0x002e663c
ccip_default_hmac_final_session 0x002e66a0
_restfpr_14_l 0x002e66d0
_restfpr_15_l 0x002e66d4
_restfpr_16_l 0x002e66d8
_restfpr_17_l 0x002e66dc
_restfpr_18_l 0x002e66e0
_restfpr_19_l 0x002e66e4
_restfpr_20_l 0x002e66e8
_restfpr_21_l 0x002e66ec
_restfpr_22_l 0x002e66f0
_restfpr_23_l 0x002e66f4
_restfpr_24_l 0x002e66f8
_restfpr_25_l 0x002e66fc
_restfpr_26_l 0x002e6700
_restfpr_27_l 0x002e6704
_restfpr_28_l 0x002e6708
_restfpr_29_l 0x002e6728
_restfpr_30_l 0x002e672c
_restfpr_31_l 0x002e6730
_savefpr_14_l 0x002e6748
_savefpr_15_l 0x002e674c
_savefpr_16_l 0x002e6750
_savefpr_17_l 0x002e6754
_savefpr_18_l 0x002e6758
_savefpr_19_l 0x002e675c
_savefpr_20_l 0x002e6760
_savefpr_21_l 0x002e6764
_savefpr_22_l 0x002e6768
_savefpr_23_l 0x002e676c
_savefpr_24_l 0x002e6770
_savefpr_25_l 0x002e6774
_savefpr_26_l 0x002e6778
_savefpr_27_l 0x002e677c
_savefpr_28_l 0x002e6780
_savefpr_29_l 0x002e6784
_savefpr_30_l 0x002e6788
_savefpr_31_l 0x002e678c
_restgpr_14 0x002e679c
_restgpr_15 0x002e67a0
_restgpr_16 0x002e67a4
_restgpr_17 0x002e67a8
_restgpr_18 0x002e67ac
_restgpr_19 0x002e67b0
_restgpr_20 0x002e67b4
_restgpr_21 0x002e67b8
_restgpr_22 0x002e67bc
_restgpr_23 0x002e67c0
_restgpr_24 0x002e67c4
_restgpr_25 0x002e67c8
_restgpr_26 0x002e67cc
_restgpr_27 0x002e67d0
_restgpr_28 0x002e67d4
_restgpr_29 0x002e67d8
_restgpr_30 0x002e67dc
_restgpr_31 0x002e67e0
_savegpr_14 0x002e67ec
_savegpr_15 0x002e67f0
_savegpr_16 0x002e67f4
_savegpr_17 0x002e67f8
_savegpr_18 0x002e67fc
_savegpr_19 0x002e6800
_savegpr_20 0x002e6804
_savegpr_21 0x002e6808
_savegpr_22 0x002e680c
_savegpr_23 0x002e6810
_savegpr_24 0x002e6814
_savegpr_25 0x002e6818
_savegpr_26 0x002e681c
_savegpr_27 0x002e6820
_savegpr_28 0x002e6824
_savegpr_29 0x002e6828
_savegpr_30 0x002e682c
_savegpr_31 0x002e6830
_restgpr_14_l 0x002e683c
_restgpr_15_l 0x002e6840
_restgpr_16_l 0x002e6844
_restgpr_17_l 0x002e6848
_restgpr_18_l 0x002e684c
_restgpr_19_l 0x002e6850
_restgpr_20_l 0x002e6854
_restgpr_21_l 0x002e6858
_restgpr_22_l 0x002e685c
_restgpr_23_l 0x002e6860
_restgpr_24_l 0x002e6864
_restgpr_25_l 0x002e6868
_restgpr_26_l 0x002e686c
_restgpr_27_l 0x002e6870
_restgpr_28_l 0x002e6894
_restgpr_29_l 0x002e6898
_restgpr_30_l 0x002e689c
_restgpr_31_l 0x002e68a0
_savegpr_14_l 0x002e68b8
_savegpr_15_l 0x002e68bc
_savegpr_16_l 0x002e68c0
_savegpr_17_l 0x002e68c4
_savegpr_18_l 0x002e68c8
_savegpr_19_l 0x002e68cc
_savegpr_20_l 0x002e68d0
_savegpr_21_l 0x002e68d4
_savegpr_22_l 0x002e68d8
_savegpr_23_l 0x002e68dc
_savegpr_24_l 0x002e68e0
_savegpr_25_l 0x002e68e4
_savegpr_26_l 0x002e68e8
_savegpr_27_l 0x002e68ec
_savegpr_28_l 0x002e68f0
_savegpr_29_l 0x002e68f4
_savegpr_30_l 0x002e68f8
_savegpr_31_l 0x002e68fc
__common_intrinsicsInit 0x002e6908
div64 0x002e6914
__div64 0x002e6b30
__udiv64 0x002e6bf0
rem64 0x002e6c44
__rem64 0x002e6de8
__urem64 0x002e6ea4
__va_arg 0x002e6ef8
ddInit 0x002e7064
ddInsert 0x002e7150
ddFinishRemoval 0x002e71e4
ddRemove 0x002e7244
ddMap 0x002e72ec
ddUnmap 0x002e7390
devInit 0x002e744c
devAttach 0x002e7484
devDetach 0x002e74fc
devMap 0x002e7554
devMapUnsafe 0x002e75ac
devUnmap 0x002e75d4
devUnmapUnsafe 0x002e7628
devName 0x002e7654
endLibInit 0x002e76b8
endRcvRtnCall 0x002e76d0
muxReceive 0x002e7714
endPoolInternalCreate 0x002e788c
endPoolJumboCreate 0x002e7950
endPoolCreate 0x002e7958
endPoolDestroy 0x002e7960
endEtherHdrInit 0x002e7988
end8023AddressForm 0x002e79bc
endEtherAddressForm 0x002e7b1c
endEtherPacketDataGet 0x002e7c44
endEtherPacketAddrGet 0x002e7d5c
PANendParse 0x002e7e2c
PANendInitRxBuff 0x002e7eec
PANendStart 0x002e8114
PANendUnload 0x002e8298
PANendResetDevice 0x002e82d8
PANendStop 0x002e8324
PANendShow 0x002e83ec
PANendProcessReceive 0x002e85bc
PANendCopyTxFrame 0x002e8608
PANendInitQueue 0x002e8720
PANendLoad 0x002e8754
PANendQueueEmpty 0x002e89fc
PANendDequeue 0x002e8a38
PANendTxNextFrame 0x002e8a9c
PANendTransmitEvent 0x002e8b34
PANendSenderTask 0x002e8b78
PANendEventHandler 0x002e8c78
PANendEnqueue 0x002e8cec
PANendStartOutput 0x002e8db0
PANendSend 0x002e8e78
PANendReceiveEvent 0x002e8f08
PANendReceiverTask 0x002e90c0
PANendPollRcv 0x002e9260
PANendPollSend 0x002e9308
PANendMCastGet 0x002e93a0
updateCrc 0x002e93e8
PANendCalculateHashIndex 0x002e94bc
PANendAddrFilterSet 0x002e9580
PANendPurgeQs 0x002e9634
PANendConfig 0x002e96f0
PANendPollStop 0x002e975c
PANendPollStart 0x002e97a8
PANendMCastDel 0x002e97f4
PANendMCastAdd 0x002e9840
PANendIoctl 0x002e988c
PanEndSetMACAddress 0x002e9b20
m512xDmaByteSize2RegAttr 0x002ea26c
m512xDmaRegAttr2ByteSize 0x002ea2d0
m512xDmaRegister 0x002ea334
m512xDmaInstInit 0x002ea340
m512xDmaInstInit2 0x002ea3ac
m512xDmaInstConnect 0x002ea418
m512xDmaRWInt 0x002ea41c
m512xDmaRWIntFIFO 0x002ea4dc
m512xDmaRWStart 0x002ea62c
m512xDmaRWStartReq 0x002ea678
m512xDmaRWPoll 0x002ea6d4
m512xDmaRead 0x002ea7b0
m512xDmaSyncRead 0x002ea7b8
m512xDmaWrite 0x002ea7c0
m512xDmaReadIntFIFO 0x002ea7c8
m512xDmaWriteIntFIFO 0x002ea804
m512xDmaReadIntFIFO_SPI 0x002ea83c
m512xDmaWriteIntFIFO_SPI 0x002ea874
m512xDmaSyncWrite 0x002ea8b0
m512xDmaCancel 0x002ea8b8
m512xDmaPause 0x002ea904
m512xDmaResume 0x002ea90c
m512xDmaStatus 0x002ea914
m512xDmaResourceGet 0x002ea91c
m512xDmaResourceRelease 0x002eaac8
m512xDmaInstUnlink 0x002eab40
m512xDmaInt 0x002eaba0
fslAxeRegister 0x002eac9c
fslAxeInstInit 0x002eaca8
fslAxeInstInit2 0x002eadd8
fslAxeInstConnect 0x002eaea0
fslAxeMemPoolInit 0x002eaea4
fslAxeServerTask 0x002eaf1c
fslAxeSampleRun 0x002eaf4c
AxeGetBaseAddr 0x002eafb4
fslAxeIsrTask 0x002eafc4
fslAxeIsr 0x002eb02c
AxeMalloc 0x002eb0cc
fslAxeLoadImage 0x002eb148
AxeFree 0x002eb1e8
fslAxeServerInit 0x002eb238
AxeCPrint 0x002eb310
AxeCScan 0x002eb338
AxeMapVirtToPhys 0x002eb360
AxeMapPhysToVirt 0x002eb39c
AxeGetDriverMutex 0x002eb3d8
AxeMutexInit 0x002eb3e4
AxeMutexLock 0x002eb3ec
AxeMutexUnlock 0x002eb3f8
AxeMutexDestroy 0x002eb400
AxeGetRxMsgCond 0x002eb408
AxeCondInit 0x002eb410
AxeCondTimedWait 0x002eb418
AxeCondBroadcast 0x002eb448
AxeCondDestroy 0x002eb474
AxeGetCurrentTimeMilliseconds 0x002eb47c
AxeStoreCacheRange 0x002eb4c0
AxeInvalidateCacheRange 0x002eb4c4
AxeGetDriverOpt 0x002eb4c8
AxeGetRxQueueHead 0x002eb500
AxeGetTxQueueHead 0x002eb50c
AxePartIdGet 0x002eb518
AxeSramPartIdGet 0x002eb524
intCtlrStrayISR 0x002eb5a4
intCtlrChainISR 0x002eb5f8
intCtlrTableCreate 0x002eb650
intCtlrTableOutputSet 0x002eb750
intCtlrTablePrioSet 0x002eb774
intCtlrTableFill 0x002eb798
intCtlrTableUserSet 0x002eb7e8
intCtlrTableArgGet 0x002eb880
intCtlrTableIsrGet 0x002eb8c4
intCtlrTableFlagsSet 0x002eb908
intCtlrTableFlagsGet 0x002eb95c
isrRerouteNotify 0x002eb9a0
intCtlrISRDisable 0x002eb9a8
intCtlrISREnable 0x002ebaa4
intCtlrISRRemove 0x002ebb8c
intCtlrISRAdd 0x002ebd6c
intCtlrPinFind 0x002ebf20
intCtlrHwConfGet 0x002ec060
defaultISR 0x002ec298
vxbQuiccIntCtlrRegister 0x002ec2bc
quiccIntCtlrInstConnect 0x002ec2d4
vxbSysQuiccInit 0x002ec2d8
quiccIntCtlrInstInit 0x002ec340
vxbSysQuiccIntrInit 0x002ec44c
quiccIntCtlrInstInit2 0x002ec518
vxbSysQuiccIntConnect 0x002ec544
quiccAnd32 0x002ec590
quiccOr32 0x002ec5d4
vxbSysQuiccIntEnable 0x002ec618
vxbSysQuiccIntDisable 0x002ec6a0
quiccInumToIvec 0x002ec72c
quiccIvecToInum 0x002ec730
quiccIntrDeMux 0x002ec734
vxbQuiccIntCtlrDevIsrConnect 0x002ec8a4
vxbQuiccIntCtlrDevIsrDisconnect 0x002ec910
vxbQuiccIntCtlrDevIsrEnable 0x002ec918
vxbQuiccIntCtlrDevIsrDisable 0x002ec988
m512xFifocRegister 0x002eca58
m512xFifocInstInit 0x002eca64
m512xFifocInstInit2 0x002ecad0
m512xFifocIntCtlrConnect 0x002ecb28
m512xFifocIntCtlrDisconnect 0x002ecb98
m512xFifocIntCtlrEnable 0x002ecc00
m512xFifocIntCtlrDisable 0x002ecc68
m512xFifocIntCtlrIsr 0x002eccd0
m512xFifocAllocFifo 0x002ecd6c
miiBusRegister 0x002ece38
miiBusListAdd 0x002ece80
miiBusListDel 0x002ecec8
miiBusDevInstInit 0x002ecf60
miiBusDevInstConnect 0x002ecf64
miiBusDevProbe 0x002ecff4
miiBusDevInstUnlink 0x002ed0ac
miiBusPhyResourceGet 0x002ed160
miiBusBusMatch 0x002ed260
miiBusDevMatch 0x002ed370
miiBusHwConfIfMatch 0x002ed49c
miiBusDirectIfMatch 0x002ed5b8
miiBusNameMatch 0x002ed628
miiBusGet 0x002ed690
miiBusCreate 0x002ed730
miiBusDelete 0x002ed8e0
miiBusRead 0x002ed954
miiBusDevInstInit2 0x002ed9d4
miiBusWrite 0x002edb44
miiBusMediaUpdate 0x002edbb8
miiBusModeGet 0x002edc28
miiBusIdleErrorCheck 0x002edcb8
miiBusMonitor 0x002edde4
miiBusMonitorTask 0x002edf70
miiBusMediaListGet 0x002edfac
miiBusMediaAdd 0x002edfe0
miiBusMediaDel 0x002ee0c0
miiBusMediaDefaultSet 0x002ee1d0
miiBusModeSet 0x002ee224
genPhyRegister 0x002ee318
genPhyDevInstInit 0x002ee324
genPhyDevInstConnect 0x002ee328
genPhyInstUnlink 0x002ee32c
genPhyProbe 0x002ee448
genPhyInit 0x002ee450
genPhyDevInstInit2 0x002ee520
genPhyModeSet 0x002ee634
genPhyModeGet 0x002ee7e0
m5xxxPscSioRegister 0x002ee9f0
m5xxxPscSioInstInit2 0x002ee9fc
m5xxxPscSioInstConnect 0x002eea00
m5xxxPscSioChanGet 0x002eea04
m5xxxPscSioChannelConnect 0x002eea28
m5xxxPscSioChanConnect 0x002eeaac
m5xxxPscSioDummyCallback 0x002eeb30
m5xxxPscSioAcrSetClr 0x002eeb38
m5xxxPscSioImrSetClr 0x002eeb74
m5xxxPscSioBaudSet 0x002eebb0
m5xxxPscSioOptsSet 0x002eec68
m5xxxPscSioModeSet 0x002eee48
m5xxxPscSioInitFifo 0x002eef48
m5xxxPscSioInitChannel 0x002ef070
m5xxxPscSioDevInit 0x002ef1c0
m5xxxPscSioInstInit 0x002ef1e0
m5xxxPscSioIntWr 0x002ef31c
m5xxxPscSioIntRd 0x002ef394
m5xxxPscSioInt 0x002ef404
m5xxxPscSioIntWrFifo 0x002ef498
m5xxxPscSioIntFifo 0x002ef510
m5xxxPscSioIoctl 0x002ef710
m5xxxPscSioTxStartup 0x002ef804
m5xxxPscSioCallbackInstall 0x002ef87c
m5xxxPscSioPollInput 0x002ef8b8
m5xxxPscSioPollOutput 0x002ef964
ppcDecTimerDrvRegister 0x002efa54
ppcDecTimerInstInit 0x002efa60
ppcDecTimerInstInit2 0x002efc48
ppcDecTimerInstConnect 0x002efc98
ppcDecTimerAllocate 0x002efc9c
ppcDecTimerRolloverGet 0x002efd00
ppcDecTimerCountGet 0x002efd28
ppcDecTimerISRSet 0x002efd88
ppcDecTimerDisable 0x002efdc0
ppcDecTimerRelease 0x002efde0
ppcDecTimerEnable 0x002efe74
ppcDecTimerFuncGet 0x002efed0
vxbPpcDecTimerIsr 0x002eff14
ppcDecTimerIsr 0x002eff84
m5xxxGPTimerRegister 0x002effc0
m5xxxGPTimerInstInit 0x002effcc
m5xxxGPTimerInstInit2 0x002f0154
m5xxxGPTimerInstConnect 0x002f0174
m5xxxGPTimerAllocate 0x002f0178
m5xxxGPTimerRelease 0x002f01dc
m5xxxGPTimerDisable 0x002f022c
m5xxxGPTimerEnable 0x002f02cc
m5xxxGPTimerISRSet 0x002f0384
m5xxxGPTimerFuncGet 0x002f03a4
m5xxxGPTimerIsr 0x002f03e8
vxbDmaLibInit 0x002f0488
vxbDmaDedicationCheck 0x002f048c
vxbDmaChanAlloc 0x002f04f0
vxbDmaChanFree 0x002f0608
vxbDmaDataCopyUtil 0x002f0670
vxbDmaDataCopyAndWait 0x002f0750
vxbDmaDataCopy 0x002f0808
vxbLegacyIntInit 0x002f08e0
vxbLegacyIntConnect 0x002f09a8
vxbLegacyIntDisconnect 0x002f09d0
vxbLegacyIntEnable 0x002f09f8
vxbLegacyIntDisable 0x002f0a20
_vxbInstRetrieve 0x002f0a50
vxbInstByNameFind 0x002f0ab0
vxbInstParamSet 0x002f0af4
vxbParamInstTableCreate 0x002f0bdc
vxbParamBspCheck 0x002f0d5c
vxbInstParamByNameGet 0x002f0df8
vxbInstParamByIndexGet 0x002f0eb8
vxbSysClkLibInit 0x002f0f48
vxbSysClkEval 0x002f0ff8
vxbSysClkFind 0x002f1114
sysClkHandleGet 0x002f11c4
vxbSysClkConnect 0x002f11cc
vxbSysClkDisable 0x002f1260
vxbSysClkEnable 0x002f1308
vxbSysClkRateGet 0x002f143c
vxbSysClkRateSet 0x002f1490
vxbAuxClkLibInit 0x002f1528
vxbAuxClkEval 0x002f15d0
vxbAuxClkFind 0x002f16d8
sysAuxClkHandleGet 0x002f1848
vxbAuxClkConnect 0x002f1850
vxbAuxClkDisable 0x002f18cc
vxbAuxClkEnable 0x002f1940
vxbAuxClkRateGet 0x002f19c0
vxbAuxClkRateSet 0x002f1a14
vxbSwUsDelay 0x002f1aec
vxbMsDelay 0x002f1b28
vxbDelay 0x002f1b80
vxbUsDelay 0x002f1bc4
vxbSwMsDelay 0x002f1c20
vxbTimestampLibInit 0x002f1c80
vxbTimestampEval 0x002f1d48
vxbTimestampFind 0x002f1ea8
sysTimestampHandleGet 0x002f2018
vxbTimestampConnect 0x002f2020
vxbTimestampDisable 0x002f20a0
vxbTimestampPeriod 0x002f213c
vxbTimestampEnable 0x002f21c8
vxbTimestampFreq 0x002f225c
vxbTimestamp 0x002f22b0
vxbTimestampLock 0x002f2320
vxbTimerFeaturesGet 0x002f23e8
vxbTimerAlloc 0x002f2430
vxbTimerRelease 0x002f2564
vxbTimerFind 0x002f25a4
vxbDelayLibInit 0x002f26e4
vxbDelayCommon 0x002f2810
vxbDelayTimerEval 0x002f2a18
vxbDelayTimerFind 0x002f2b08
printErrorMessageHere 0x002f2c38
hwMemLibInit 0x002f2c70
hwMemPoolSplit 0x002f2c74
hwMemPoolCreate 0x002f2db8
hwMemAlloc 0x002f2eb4
hwMemFree 0x002f2ff8
hcfDeviceGet 0x002f31fc
devResourceGet 0x002f3290
devResourceIntrGet 0x002f3338
sioNextChannelNumberAssign 0x002f355c
sysSerialChanGet 0x002f35d4
sysSerialChanConnect 0x002f3640
sysSerialConnectAll 0x002f36b0
in_be32 0x002f36ec
out_be32 0x002f36f4
printf_ptr 0x002f36fc
printf_reg 0x002f3770
diuDrawBmp 0x002f37ac
diuBlitSplash 0x002f3d58
diuBlitAlert 0x002f3eb4
diuClearScreen 0x002f418c
diuDisable 0x002f41fc
diuEnable 0x002f425c
diuFree 0x002f42c0
diuGetRefreshRate 0x002f431c
diuGetVideoMode 0x002f43bc
diuMalloc 0x002f444c
diuRealloc 0x002f44ac
diuReset 0x002f452c
diuSetCursor 0x002f4708
diuSetGammaTable 0x002f4790
diuSetPalette 0x002f482c
diuSetPixelClock 0x002f4870
diuSetVideoModeEx 0x002f4904
diuSetVideoMode 0x002f4d20
diuShow 0x002f4ee8
vxbDiuDriverCtrl 0x002f5568
driverRequest 0x002f595c
DisplayAlertLogo 0x002f59e4
vxbDiuIntHandler 0x002f5a60
vxbDiuInstanceInit 0x002f5bf8
vxbDiuInstanceInit2 0x002f5e18
vxbDiuInstanceUnlink 0x002f6028
vxbDiuInstanceConnect 0x002f60f8
vxbDiuRegister2 0x002f60fc
vxbDiuRegister 0x002f6148
vxbDiuShow 0x002f614c
diuAddPanelActivate 0x002f64d8
diuAddPanelRemove 0x002f64f0
diuDefPanelFBRtnSet 0x002f6508
diuDefPanelPxlFmtSet 0x002f6518
diuDefPanelPxlFmtGet 0x002f6544
vxbRegMap 0x002f76c0
plbRegister 0x002f77a0
plbInit1 0x002f78dc
plbInit2 0x002f7a28
plbConnect 0x002f7a38
plbDevMatch 0x002f7a48
plbIntrSet 0x002f7a8c
plbIntrGet 0x002f7b74
vxbLibInit 0x002f7c0c
vxbInit 0x002f7c18
vxbInstInsert 0x002f7c48
vxbInstRemove 0x002f7c6c
vxbDevInit2Helper 0x002f7cb0
vxbLibError 0x002f7d38
vxbDevOnlyMethodGet 0x002f7d90
vxbDevParent 0x002f7ddc
vxbDevPath 0x002f7e08
vxbDevMethodGet 0x002f7e5c
vxbDevIterate 0x002f7ee4
vxbDrvRescan 0x002f7f98
vxbDevConnectInternal 0x002f7fcc
vxbDeviceMethodRun 0x002f8024
vxbDevMethodRun 0x002f8078
noDev 0x002f80b4
vxbBusTypeString 0x002f80bc
vxbIntCtlrMatch 0x002f818c
vxbDevControl 0x002f8284
vxbIntConnect 0x002f82f4
vxbIntDisconnect 0x002f8384
vxbIntAcknowledge 0x002f847c
vxbIntEnable 0x002f8574
vxbIntDisable 0x002f8650
vxbIntVectorGet 0x002f8748
vxbInstUnitSet 0x002f87fc
vxbInstUnitGet 0x002f8808
vxbUnitCheck 0x002f8818
vxbNextUnitGet 0x002f8890
vxbSpinLockStub 0x002f88fc
vxbLockInit 0x002f8900
vxbLockGive 0x002f8980
vxbLockTake 0x002f8a24
vxbDevConnectHelper 0x002f8acc
vxbDevInitRun 0x002f8b60
vxbNewDriver 0x002f8c58
vxbDeviceAnnounce 0x002f8d94
vxbDevRegister 0x002f8f6c
vxbBusPresentVerify 0x002f902c
vxbDriverUnregister 0x002f9094
vxbBusTypeRegister 0x002f9180
vxbBusTypeUnregister 0x002f91fc
vxbDevFromBusRemove 0x002f928c
vxbSubDevAction 0x002f93d0
vxbResourceSearch 0x002f94e4
vxbResourceFind 0x002f959c
vxbDevStructAlloc 0x002f95e4
vxbBusAnnounce 0x002f9694
vxbDevInitInternal 0x002f9864
vxbLockDelete 0x002f98dc
vxbDevStructFree 0x002f990c
vxbSubordinateBusRemove 0x002f9984
vxbDevRemovalAnnounce 0x002f9a98
vxbDeviceDriverRelease 0x002f9b34
vxbDrvDisconnect 0x002f9c24
endTxSemTake 0x002f9d44
endTxSemGive 0x002f9d4c
endFlagsClr 0x002f9d54
endFlagsSet 0x002f9d64
endFlagsGet 0x002f9d74
endMultiLstCnt 0x002f9d7c
endMultiLstFirst 0x002f9d84
endMultiLstNext 0x002f9d8c
endDevName 0x002f9d90
endObjectUnload 0x002f9d98
endM2Free 0x002f9e0c
endM2Ioctl 0x002f9e5c
_endM2Packet_1213 0x002f9ef0
_endM2Packet_2233 0x002fa030
endMibIfInit 0x002fa14c
mib2Init 0x002fa1f0
mib2ErrorAdd 0x002fa24c
endObjInit 0x002fa2a8
endObjFlagSet 0x002fa354
endM2Init 0x002fa368
endPollStatsPoll 0x002fa418
endPollStatsJobQueue 0x002fa468
endPollStatsInit 0x002fa4d8
endEtherCrc32BeGet 0x002fa5a4
endEtherCrc32LeGet 0x002fa608
AxeDequeueMessage 0x002fa658
AxeEnqueueMessage 0x002fa720
AxeAllocateMessage 0x002fa790
AXESendMessage 0x002fa828
AXESendMessageToHost 0x002fa8a0
axeGetMessage 0x002fa924
AXEReceiveMessage 0x002faa60
AXEReceiveMessageReply 0x002faad0
AxeSendMessageWait 0x002fab34
AXEGetResetState 0x002fabf8
AXESetResetState 0x002fac4c
AXEKickStart 0x002faca4
AXECacheClear 0x002fad84
axeAllocateTaskSegment 0x002fadd8
AxeAllocateTaskSegments 0x002faf44
AxeReallocateTaskSegment 0x002fafa8
axeSendCreateTask 0x002fb018
axeSendProcessKill 0x002fb0b8
axeLoadImage 0x002fb158
AXEServerLoadTask 0x002fb2e8
AXEServerUnloadTask 0x002fb370
AxeIPCInit 0x002fb3c4
AXEInit 0x002fb46c
axeCountQueueMessages 0x002fb4f8
AXEGetMessageStatus 0x002fb518
AXERxFIFOHandler 0x002fb56c
AXETxFIFOHandler 0x002fb5ec
axeProcessMalloc 0x002fb690
axeProcessFree 0x002fb734
axeProcessCPrint 0x002fb79c
axeProcessCScan 0x002fb7d8
axeProcessServerLoad 0x002fb818
axeProcessServerUnload 0x002fb85c
axeProcessUndeliverable 0x002fb894
AXEProcessServerMessage 0x002fb8a4
testPrint 0x002fb9c0
readBinFile 0x002fba9c
testLoadTask 0x002fbb78
testStartTask 0x002fbbf0
testSuspendTask 0x002fbc6c
testProcessStatus 0x002fbce8
testUnloadTask 0x002fbe58
usage 0x002fbeb8
parse_cmdline_args 0x002fc0c8
allocMsg 0x002fc2dc
sendCodecStartMsgFromHost 0x002fc30c
sendCodecStopMsgFromHost 0x002fc378
processCodecGetDataMsg_rwd 0x002fc3d0
processCodecGetDataMsg_ffwd 0x002fc4d8
processCodecGetDataMsg 0x002fc5a8
getHostTaskParams 0x002fc6dc
hostMemFree 0x002fc71c
read_wav_header 0x002fc724
write_wav_header 0x002fca58
processCodecSendDataMsg 0x002fcd84
fixup_wav_header 0x002fcef4
closeCodecTasks 0x002fcfb4
EndTest 0x002fd054
hostMemAlloc 0x002fd0c0
initHostTaskParams 0x002fd128
ReceiveAnswer 0x002fd364
freeMsg 0x002fd404
initMsgAlloc 0x002fd458
HostTask 0x002fd4d0
axec_codec 0x002fd8e8
plbBusIntConnect 0x002fe2dc
plbBusIntDisconnect 0x002fe348
plbBusIntVectorGet 0x002fe3b4
plbBusIntEnable 0x002fe3f8
plbBusIntDisable 0x002fe450
plbDevControl 0x002fe4a8
axe_copy_to_isram 0x002fe544
AXELoadTask 0x002fe58c
AXEUnloadTask 0x002fe638
AXEStartTask 0x002fe6f0
AXESuspendTask 0x002fe798
allocate 0x002fe840
byte_get_big_endian 0x002fe894
byte_put_big_endian 0x002fe928
get_data 0x002fe99c
jump_branch_globalsym_check 0x002fea10
jump_branch_localsym_check 0x002fec50
perform_postrelocation_operations 0x002feedc
do_relocation 0x002ff124
relocate_section 0x002ff3fc
resolve_symbols 0x002ff97c
load_segments 0x00300528
process_file_header 0x00300a3c
AXELoader 0x00300cac
AxeCreateTaskContext 0x003027bc
AxeInitTCB 0x00302874
axeFreeAllocList 0x00302960
AxeFreeTaskContext 0x003029d0
AxeAddTaskContext 0x00302b04
AxeRemoveTaskContext 0x00302b9c
AxeGetTaskContext 0x00302c44
AxeAddAllocRecord 0x00302cd0
AxeReallocRecord 0x00302db0
AxeFreeAllocRecord 0x00302f14
dsiPoolInit 0x0030306c
dsiSysPoolShow 0x00303394
dsiDataPoolShow 0x0030339c
dsiSockLibInit 0x003033a4
dsiDomainAdd 0x003033b0
dsiPfFindType 0x00303404
dsiBind 0x00303468
dsiListen 0x0030359c
dsiConnect 0x003036c0
dsiUioMove 0x00303900
dsiTx 0x003039e4
dsiSend 0x00303f20
dsiSockWrite 0x00303fb0
dsiGetsockname 0x00304038
dsiGetpeername 0x00304114
dsiZbufSockRtn 0x00304204
dsiSoCleanup 0x0030420c
dsiSoAccept 0x0030426c
dsiSoDisconnect 0x00304448
dsiSoOptCopyin 0x00304590
dsiSoOptCopyout 0x003045e0
dsiSoGetOpt 0x00304630
dsiGetsockopt 0x0030475c
dsiSbSelQueue 0x00304868
dsiSbSelDequeue 0x003048bc
dsiSbWait 0x0030490c
dsiSbNoWait 0x00304a0c
dsiSbLock 0x00304ad8
dsiSbWakeup 0x00304b58
dsiSoCantRcvMore 0x00304d38
dsiSoCantSendMore 0x00304d6c
dsiSoIsDisconnected 0x00304da0
dsiSoIsConnected 0x00304e0c
dsiSbWakeupOne 0x00304e7c
dsiSbReserve 0x00305034
dsiSoSetOpt 0x0030506c
dsiSetsockopt 0x00305208
dsiSbDrop 0x0030529c
dsiSbFlush 0x00305484
dsiSoReserve 0x00305674
dsiSoRflush 0x00305734
dsiShutdown 0x00305828
dsiSoFree 0x0030599c
dsiSoAbort 0x00305b28
dsiSoClose 0x00305c10
dsiAccept 0x00305e10
dsiSockClose 0x00306030
dsiSoAlloc 0x00306094
dsiSoNewConn3 0x00306164
dsiSoCreate 0x003062b8
dsiSocket 0x00306514
dsiSbDropRecord 0x00306594
dsiRx 0x00306618
dsiSockRead 0x00306bf8
dsiRecv 0x00306c80
dsiSoSelect 0x00306cf8
dsiSoUnselect 0x00306ea8
dsiSoIoctl 0x00306fb8
dsiControlNotSupp 0x00307148
dsiRcvoobNotSupp 0x00307150
dsiSenseNull 0x00307158
dsiLockInit 0x003072b8
dsiLock 0x00307328
dsiUnlock 0x00307384
dsiTsleep 0x003073a8
unInit 0x00307448
unCompInit 0x003074f8
uncomp_firstAvailableNameGet 0x003075f4
uncomp_nameDecode 0x00307688
uncomp_acceptSocketFind 0x0030778c
uncomp_dupsockaddr 0x00307818
uncomp_stateGet 0x00307900
uncomp_accept 0x00307a14
uncomp_attach 0x00307a88
uncomp_bind 0x00307b54
uncomp_connect2 0x00307c3c
uncomp_connect 0x00307ca4
uncomp_disconnect 0x00307dac
uncomp_detach 0x00307e24
uncomp_abort 0x00307ec8
uncomp_listen 0x00307f08
uncomp_peeraddr 0x00307f84
uncomp_rcvd 0x00308008
uncomp_send 0x00308094
uncomp_shutdown 0x00308578
uncomp_sockaddr 0x00308600
uncomp_ctloutput 0x00308658
erfCategoryAllocate 0x003086a8
erfTypeAllocate 0x00308744
erfCategoriesAvailable 0x003087fc
erfTypesAvailable 0x00308810
erfHandlerDbAdd 0x00308840
erfHandlerRegister 0x00308868
erfHandlerDbRemove 0x0030892c
erfHandlerUnregister 0x003089b0
erfHandlerDbRemoveByPtr 0x00308a6c
erfHandlerDbFind 0x00308ae0
erfQueueInit 0x00308afc
erfCategoryQueueCreate 0x00308c5c
erfLibInit 0x00308d38
erfQueueAdd 0x00308f7c
erfExcEventRaise 0x0030906c
erfEventRaise 0x00309110
erfQueueGet 0x00309298
erfServiceTask 0x0030935c
frexp 0x003093c0
ldexp 0x003094d0
modf 0x00309580
asin 0x00309648
acos 0x00309708
ceil 0x00309790
cosh 0x00309834
scalb 0x00309a80
exp__E 0x00309eac
floor 0x00309fa0
fmod 0x0030a02c
sinh 0x0030a17c
scalb 0x0030a3d8
tan 0x0030a804
drem 0x0030aca4
scalb 0x0030b778
tanh 0x0030bba4
fabs 0x0030bd34
fpTypeGet 0x0030bdb8
fioBaseLibInit 0x0030bf1c
sprintf 0x0030bf2c
fioFormatV 0x0030bfdc
snprintf 0x0030d1bc
printExc 0x0030d28c
printErr 0x0030d514
oprintf 0x0030d5b0
printf 0x0030d664
fioBufPut 0x0030d6fc
fioSnBufPut 0x0030d74c
fioBufPrint 0x0030d7b8
fioFltInstall 0x0030d864
floatInit 0x0030d870
roundCvt 0x0030d88c
exponentCvt 0x0030d9b8
cvt 0x0030da68
floatFormat 0x0030e0a0
floatScan 0x0030e17c
fioLibInit 0x0030e490
voprintf 0x0030e4a0
fdprintf 0x0030e4ec
vprintf 0x0030e590
vfdprintf 0x0030e5bc
vsprintf 0x0030e5f4
vsnprintf 0x0030e63c
fioRead 0x0030e6a0
fioRdString 0x0030e710
getbuf 0x0030e7b0
scanString 0x0030e7d8
scanChar 0x0030e884
scanCharSet 0x0030e90c
scanNum 0x0030eac8
scanField 0x0030ecc8
fioScanV 0x0030f378
sscanf 0x0030f6a8
expm1 0x0030f750
scalb 0x0030fcc8
__floatundidf 0x003100f4
__udivdi3 0x00310134
__gthread_getspecific 0x003105b0
tls_init 0x0031061c
tls_destructor 0x00310648
__gthread_once 0x003106bc
_GLOBAL__D_0___gthread_once 0x00310744
__gthread_setspecific 0x00310748
__gthread_key_delete 0x00310880
tls_delete_hook 0x00310958
__gthread_key_create 0x00310aa4
read_uleb128 0x00310bc8
read_sleb128 0x00310bf8
_Unwind_GetCFA 0x00310c44
_Unwind_GetIP 0x00310c4c
_Unwind_GetIPInfo 0x00310c54
_Unwind_SetIP 0x00310c6c
_Unwind_GetLanguageSpecificData 0x00310c74
_Unwind_GetRegionStart 0x00310c7c
_Unwind_GetDataRelBase 0x00310c84
_Unwind_GetTextRelBase 0x00310c8c
_Unwind_DeleteException 0x00310c94
_Unwind_SetGR 0x00310ccc
_Unwind_GetGR 0x00310d48
read_encoded_value_with_base 0x00310db0
base_of_encoded_value 0x00310f30
init_dwarf_reg_size_table 0x00310fd4
_Unwind_FindEnclosingFunction 0x003111b4
execute_cfa_program 0x003111ec
uw_frame_state_for 0x00311870
__frame_state_for 0x00311c5c
execute_stack_op 0x00311d6c
uw_update_context_1 0x003123e8
uw_init_context_1 0x003127a0
uw_install_context_1 0x00312a7c
uw_update_context 0x00312c3c
_Unwind_Backtrace 0x00312cc8
_Unwind_RaiseException_Phase2 0x00312e98
_Unwind_RaiseException 0x00312f68
_Unwind_ForcedUnwind_Phase2 0x003131ec
_Unwind_Resume_or_Rethrow 0x003132f8
_Unwind_Resume 0x003134f0
_Unwind_ForcedUnwind 0x003136ec
read_uleb128 0x003138e8
read_sleb128 0x00313918
fde_unencoded_compare 0x00313964
frame_downheap 0x00313988
frame_heapsort 0x00313ac0
init_object_mutex_once 0x00313b90
init_object_mutex 0x00313bc0
base_from_object 0x00313bec
read_encoded_value_with_base 0x00313c68
fde_single_encoding_compare 0x00313de8
get_cie_encoding 0x00313e94
size_of_encoded_value 0x00313fa4
linear_search_fdes 0x0031401c
add_fdes 0x003141c0
classify_object_over_fdes 0x00314338
__deregister_frame_info_bases 0x003144d0
__deregister_frame_info 0x00314614
__deregister_frame 0x00314618
__register_frame_info_table_bases 0x00314648
__register_frame_info_table 0x003146c4
__register_frame_table 0x003146d0
__register_frame_info_bases 0x00314708
__register_frame_info 0x003147b0
__register_frame 0x003147bc
search_object 0x00314814
_Unwind_Find_FDE 0x00314ed4
fde_mixed_encoding_compare 0x003150bc
__gthread_get_tsd_data 0x0031518c
__gthread_set_tsd_data 0x00315194
__gthread_enter_tls_dtor_context 0x0031519c
__gthread_leave_tls_dtor_context 0x003151a0
__gthread_enter_tsd_dtor_context 0x003151a4
__gthread_leave_tsd_dtor_context 0x003151a8
__gthread_set_tls_data 0x003151ac
__gthread_get_tls_data 0x003151dc
__gcc_intrinsicsInit 0x00315204
__muldi3 0x00315210
__negdi2 0x00315234
__lshrdi3 0x0031524c
__ashldi3 0x00315294
__ashrdi3 0x003152dc
__cmpdi2 0x00315328
__ucmpdi2 0x00315354
__clear_cache 0x00315380
__enable_execute_stack 0x00315384
__absvsi2 0x00315388
__absvdi2 0x003153b8
__addvsi3 0x00315400
__addvdi3 0x00315454
__subvsi3 0x003154d4
__subvdi3 0x00315528
__mulvsi3 0x003155a8
__mulvdi3 0x003155f0
__negvsi2 0x00315848
__negvdi2 0x0031588c
__ffssi2 0x003158f0
__ffsdi2 0x00315914
__clzsi2 0x00315954
__clzdi2 0x0031595c
__ctzsi2 0x00315980
__ctzdi2 0x00315994
__popcountsi2 0x003159c4
__popcountdi2 0x00315a00
__paritysi2 0x00315a6c
__paritydi2 0x00315a98
__powisf2 0x00315ac8
__powidf2 0x00315b64
__mulsc3 0x00315c00
__muldc3 0x00316058
__divsc3 0x003165d0
__divdc3 0x003168a0
__fixunssfsi 0x00316cbc
__fixunsdfsi 0x00316d08
__fixsfdi 0x00316d50
__fixunssfdi 0x00316da0
__floatdisf 0x00316ea4
__floatundisf 0x00316f50
__fixdfdi 0x00316fbc
__fixunsdfdi 0x0031700c
__floatdidf 0x00317110
__gcc_bcmp 0x00317164
__divdi3 0x003171b4
__moddi3 0x00317630
__umoddi3 0x00317b00
__udiv_w_sdiv 0x00317f88
__udivmoddi4 0x00317f90
__pack_f 0x003184c8
__unpack_f 0x00318658
_fpadd_parts 0x00318728
__subsf3 0x00318938
__addsf3 0x003189ac
__mulsf3 0x00318a14
__divsf3 0x00318c20
__fpcmp_parts_f 0x00318dd8
__cmpsf2 0x00318eb4
__eqsf2 0x00318f14
__nesf2 0x00318f98
__gtsf2 0x0031901c
__gesf2 0x003190a0
__ltsf2 0x00319124
__lesf2 0x003191a8
__unordsf2 0x0031922c
__floatsisf 0x00319288
__fixsfsi 0x00319324
__negsf2 0x003193c0
__make_fp 0x00319410
__extendsfdf2 0x00319444
__floatunsisf 0x00319494
__pack_d 0x00319554
__unpack_d 0x00319848
_fpadd_parts 0x00319968
__subdf3 0x00319d84
__adddf3 0x00319df8
__muldf3 0x00319e60
__divdf3 0x0031a210
__fpcmp_parts_d 0x0031a488
__cmpdf2 0x0031a598
__eqdf2 0x0031a5f8
__nedf2 0x0031a67c
__gtdf2 0x0031a700
__gedf2 0x0031a784
__ltdf2 0x0031a808
__ledf2 0x0031a88c
__unorddf2 0x0031a910
__floatsidf 0x0031a96c
__fixdfsi 0x0031aa48
__negdf2 0x0031ab10
__make_dp 0x0031ab60
__truncdfsf2 0x0031ab98
__floatunsidf 0x0031ac00
trampoline_initial 0x0031ad94
__trampoline_setup 0x0031adbc
__gnat_default_lock 0x0031ae20
__gnat_default_unlock 0x0031ae24
__gnat_install_locks 0x0031ae28
__gthread_active_p 0x0031ae3c
__gthread_mutex_lock 0x0031ae44
__gthread_mutex_unlock 0x0031ae74
read_uleb128 0x0031aea4
read_encoded_value_with_base 0x0031aed4
base_of_encoded_value 0x0031b08c
__gcc_personality_v0 0x0031b124
__emutls_register_common 0x0031b3c0
__emutls_get_address 0x0031b404
emutls_init 0x0031b5fc
emutls_destroy 0x0031b648
ipdnsc_ptr_name 0x0031b6c8
ipdnsc_encode_name 0x0031b804
ipdnsc_decode_name 0x0031b894
ipdnsc_create_query 0x0031b9d4
ipdnsc_send_wait 0x0031ba74
ipdnsc_parse_response 0x0031bd3c
ipdnsc_do_query 0x0031c024
ipdnsc_cache_remove 0x0031c23c
ipdnsc_cache_find_oldest 0x0031c2d0
ipdnsc_cache_find_expired 0x0031c304
ipdnsc_cache_clean 0x0031c358
ipdnsc_cache_add 0x0031c3f8
ipdnsc_cache_find_addr 0x0031c4cc
ipdnsc_cache_find_name 0x0031c56c
ipdnsc_cache_known_hosts 0x0031c650
ipdnsc_default 0x0031c774
ipdnsc_resolve_name 0x0031c8c8
ipdnsc_resolve_addr 0x0031cb08
ipdnsc_cache_flush 0x0031cc54
ipdnsc_create 0x0031ccb4
ipdnsc_start 0x0031cce8
ipdnsc_version 0x0031cdb0
ipdnsc_hostent_alias_count 0x0031ced4
ipdnsc_hostent_addr_count 0x0031cf00
ipdnsc_hostent_insert_name 0x0031cf2c
ipdnsc_hostent_insert_alias 0x0031cfc4
ipdnsc_hostent_insert_addr 0x0031d0bc
ipdnsc_hostent_create 0x0031d194
ipdnsc_hostent_free 0x0031d260
ipdnsc_hostent_copy 0x0031d348
ipdnsc_hostent_merge 0x0031d420
ipdnsc_hostent_convert 0x0031d5ec
ipdnsc_freehostent 0x0031d718
ipdnsc_getipnodebyname 0x0031d71c
ipdnsc_getipnodebyaddr 0x0031da40
ipdhcpc_init 0x0031daf4
ipdhcpc_exit 0x0031dd18
ipdhcpc_number 0x0031ddf4
ipdhcpc_wakeup 0x0031de44
ipdhcpc_sec_to_msec 0x0031deb8
ipdhcpc_output 0x0031ded8
ipdhcpc_koption_get 0x0031e6c0
ipdhcpc_bootp_input 0x0031e750
ipdhcpc_route_mod 0x0031e824
ipdhcpc_timer_cancel 0x0031e8c8
ipdhcpc_timer_set 0x0031e9d0
ipdhcpc_output_request 0x0031ea74
ipdhcpc_offer_input 0x0031ebcc
ipdhcpc_state_init 0x0031ed4c
ipdhcpc_state_reboot 0x0031edb0
ipdhcpc_state_init_reboot 0x0031edc4
ipdhcpc_state_restart 0x0031ee6c
ipdhcpc_ifclose_all 0x0031ef10
ipdhcpc_validate_packet 0x0031ef9c
ipdhcpc_route_init_addrs 0x0031f0e4
ipdhcpc_if_has_addr 0x0031f12c
ipdhcpc_ifunlease_locked 0x0031f2b0
ipdhcpc_tmo_cb 0x0031f410
ipdhcpc_nak_input 0x0031f75c
ipdhcpc_ifopen 0x0031f858
ipdhcpc_if_isopen 0x0031fd14
ipdhcpc_handle_free 0x0031fd98
ipdhcpc_ifclose 0x0031fe74
ipdhcpc_handle_free_pending 0x0031ff7c
ipdhcpc_ifrequest 0x00320000
ipdhcpc_ifunlease 0x00320140
ipdhcpc_option_sprintf 0x0032021c
ipdhcpc_option_find 0x0032095c
ipdhcpc_option_get_first 0x00320980
ipdhcpc_option_get_next 0x00320984
ipdhcpc_iflease 0x003209bc
ipdhcpc_reply_cb 0x00321348
ipdhcpc_ack_input 0x00321480
ipdhcpc_reply_input 0x00321874
ipdhcpc_option_add 0x00321c1c
ipdhcpc_handle_malloc 0x00321d44
ipdhcpc_if_eventcb 0x00322468
ipdhcpc_daemon 0x003227dc
ipdhcpc_run 0x00322c4c
ipdhcpc_proc 0x00322d4c
ipdhcpc_create 0x00322e70
ipdhcpc_start 0x00322e78
ipdhcpc_version 0x00322ec0
ipcom_char_append 0x00324b88
ipcom_inet_ntop 0x00324bcc
ipcom_inet_pton 0x00324cb4
ipcom_list_init 0x00324e48
ipcom_list_first 0x00324e60
ipcom_list_last 0x00324e7c
ipcom_list_next 0x00324e98
ipcom_list_prev 0x00324eb8
ipcom_list_insert_first 0x00324ed8
ipcom_list_insert_last 0x00324f04
ipcom_list_insert_before 0x00324f30
ipcom_list_insert_after 0x00324f60
ipcom_list_remove 0x00324f90
ipcom_list_unlink_head 0x00324fc4
ipcom_once 0x00325014
ipcom_sysvar_hash_key 0x003250f8
ipcom_sysvar_hash_obj 0x00325130
ipcom_sysvar_hash_cmp 0x00325138
ipcom_sysvar_pqueue_cmp 0x00325164
ipcom_sysvar_pqueue_insert_cb 0x00325174
ipcom_sysvar_free 0x00325190
ipcom_sysvar_tree_get 0x003251c8
ipcom_sysvar_tree_done 0x00325284
ipcom_sysvar_init 0x0032529c
ipcom_sysvar_release 0x003252dc
ipcom_sysvar_getvr 0x00325330
ipcom_sysvar_set_tree 0x00325414
ipcom_sysvar_setvr 0x0032553c
ipcom_sysvar_get 0x003255d8
ipcom_sysvar_get0 0x003255e4
ipcom_sysvar_get_descriptive_int0 0x003255f0
ipcom_sysvar_get_as_int0 0x00325684
ipcom_sysvar_set 0x003256b0
ipcom_sysvar_set0 0x003256b8
ipcom_sysvar_for_each 0x003256c0
ipcom_sysvar_unset 0x00325818
ipcom_sysvar_unset_cb 0x003258f4
ipcom_sysvar_setv 0x00325918
ipcom_sysvar_get_as_int 0x0032599c
ipcom_sysvar_ext_setv 0x003259f0
ipcom_tickd 0x00325c28
ipcom_tmo_init 0x00325d90
ipcom_tmo_request 0x00325e24
ipcom_tmo_cancel 0x00325ec0
ipcom_tmo_reset 0x00325f54
ipcom_tmo_get 0x00325fa8
ipcom_ipd_socket_clear 0x0032604c
ipcom_ipd_socket 0x00326084
ipcom_ipd_isstarted 0x003261cc
ipcom_ipd_init 0x00326324
ipcom_ipd_exit 0x0032651c
ipcom_ipd_input_process 0x003265a0
ipcom_ipd_input 0x00326628
ipcom_ipd_start 0x00326680
ipcom_ipd_read 0x00326824
ipcom_ipd_sendmsg 0x00326874
ipcom_ipd_datamsg 0x00326ac0
ipcom_ipd_send 0x00326d08
ipcom_ipd_kill 0x00326d3c
ipcom_ipd_reconfigure 0x00326d44
ipcom_shellcmd_init 0x00326d94
ipcom_shell_find_cmd 0x00326dc0
ipcom_shell_add_cmd 0x00326e28
ipcom_shell_remove_cmd 0x00326f44
ipcom_adjustlog 0x00326f8c
ipcom_syslogd_log 0x00326fdc
ipcom_openlog 0x003270fc
ipcom_checklog 0x0032720c
ipcom_syslogd 0x00327314
ipcom_closelog 0x00327574
ipcom_setlogmask_on 0x00327578
ipcom_getlogmask_on 0x003275dc
ipcom_setlogfile 0x00327648
ipcom_setlogudp 0x003276f4
ipcom_vsyslog 0x003276fc
ipcom_syslog 0x0032781c
ipcom_syslogd_init 0x003278ac
ipcom_telnetd_spawn 0x00327a18
ipcom_telnet_write 0x00327b70
ipcom_telnet_respond_option 0x00327cb4
ipcom_telnet_input_option 0x00327de8
ipcom_telnet_negotiate 0x00327eec
ipcom_telnet_read 0x00327f3c
ipcom_telnet_getline 0x0032810c
ipcom_telnet_login 0x003281fc
ipcom_telnetd 0x00328354
ipcom_telnet_transfer_from_shell_to_client 0x003286b8
ipcom_telnetspawn 0x0032875c
iptelnets_start 0x00328c14
iptelnets_version 0x00328c54
ipcom_cmd_link_ntop 0x003292bc
ipcom_cmd_addr_to_str 0x003293a4
ipcom_cmd_sockaddr_to_str 0x00329444
ipcom_cmd_if_flags_to_str 0x00329544
ipcom_cmd_if_caps_to_str 0x00329750
ipcom_cmd_key_to_str 0x0032985c
ipcom_cmd_str_to_key2 0x003298f0
ipcom_cmd_str_to_key 0x00329964
ipcom_cmd_mkdir 0x00329ae4
ipcom_cmd_cd 0x00329b70
ipcom_cmd_cat 0x00329bfc
ipcom_cmd_uuencode 0x00329ce8
ipcom_cmd_cp 0x00329e40
ipcom_cmd_pwd 0x00329f80
ipcom_cmd_rm 0x0032a020
ipcom_cmd_rmdir 0x0032a0a8
ipcom_cmd_mv 0x0032a12c
ipcom_cmd_ls 0x0032a1b8
ipcom_cmd_date 0x0032a400
ipcom_cmd_time 0x0032a578
ipcom_cmd_getenv 0x0032a6f0
ipcom_cmd_setenv 0x0032a774
ipcom_cmd_syslog_facility 0x0032ab9c
ipcom_cmd_syslog_priority 0x0032abf0
ipcom_cmd_syslog 0x0032ac44
ipcom_cmd_sysvar_for_each_cb 0x0032b308
ipcom_cmd_sysvar 0x0032b344
ipcom_cmd_tracert_tv_to_msec 0x0032ba68
ipcom_cmd_tracert_icmp4 0x0032baa4
ipcom_cmd_tracert_ntop 0x0032bb54
ipcom_cmd_tracert_send_recv 0x0032bb80
ipcom_cmd_tracert 0x0032be68
ipcom_err_string 0x0032c4b0
ipcom_hash_can_move_obj 0x0032cb84
ipcom_hash_new 0x0032cbd0
ipcom_hash_delete 0x0032cc54
ipcom_hash_resize 0x0032cc98
ipcom_hash_add 0x0032cd58
ipcom_hash_remove 0x0032ce70
ipcom_hash_for_each 0x0032cfe4
ipcom_hash_update 0x0032d088
ipcom_pqueue_upheap 0x0032d180
ipcom_pqueue_downheap 0x0032d228
ipcom_pqueue_new 0x0032d310
ipcom_pqueue_delete 0x0032d37c
ipcom_pqueue_insert 0x0032d3b0
ipcom_pqueue_remove 0x0032d44c
ipcom_pqueue_remove_next 0x0032d500
ipcom_pqueue_get_next 0x0032d508
ipcom_pqueue_for_each 0x0032d528
ipcom_pqueue_size 0x0032d584
ipcom_pqueue_nop_store_index 0x0032d58c
ipcom_getsockaddrbyaddr 0x0032d790
ipcom_getsockaddrbyaddrname 0x0032d9cc
ipcom_getopt_longopt 0x0032dac8
ipcom_getopt_clear_r 0x0032db7c
ipcom_getopt_clear 0x0032dbb4
ipcom_getopt_r 0x0032dbc0
ipcom_getopt 0x0032dff4
ipcom_auth_login_init 0x0032e0cc
ipcom_auth_radius_init 0x0032e114
ipcom_auth_radius_event_callback 0x0032e2f0
ipcom_auth_radius_request 0x0032e3fc
ipcom_authd 0x0032e684
ipcom_auth_chap_login 0x0032e81c
ipcom_auth_login 0x0032e944
ipcom_auth_init 0x0032ec24
ipcom_auth_useradd 0x0032ec8c
ipcom_auth_userdel 0x0032ed84
ipcom_auth_userget 0x0032ee2c
ipcom_auth_userlist 0x0032ef00
ipcom_errno_set 0x0032f02c
ipcom_errno_get 0x0032f060
millisec2tick 0x0032f064
find_open_q 0x0032f0b8
ipcom_ipc_free_inqueue_msgs 0x0032f124
ipcom_sleep 0x0032f178
ipcom_millisleep 0x0032f1a8
ipcom_getpid 0x0032f210
ipcom_is_pid_valid 0x0032f214
ipcom_block_create 0x0032f23c
ipcom_block_delete 0x0032f288
ipcom_block_wait 0x0032f2d4
ipcom_block_post 0x0032f400
ipcom_mutex_create 0x0032f404
ipcom_mutex_delete 0x0032f44c
ipcom_sem_create 0x0032f498
ipcom_sem_delete 0x0032f4e0
delete_open_q 0x0032f52c
ipcom_sem_getvalue 0x0032f600
ipcom_vxworks_proc_free 0x0032f628
ipcom_proc_exit 0x0032f6a0
ipcom_proc_find 0x0032f6f8
ipcom_proc_attr_init 0x0032f72c
ipcom_proc_self 0x0032f74c
ipcom_proc_init 0x0032f7cc
ipcom_proc_yield 0x0032f7d0
ipcom_vxworks_task_del_hook 0x0032f808
ipcom_proc_getprio 0x0032f848
ipcom_proc_setprio 0x0032f8a0
ipcom_get_cpuid 0x0032f8ec
ipcom_num_configured_cpus 0x0032f8f0
ipcom_num_online_cpus 0x0032f8f4
ipcom_cpu_is_online 0x0032f948
ipcom_cpu_reserved_alloc 0x0032f988
ipcom_cpu_reserved_free 0x0032f990
ipcom_proc_cpu_affinity_set 0x0032f998
ipcom_proc_cpu_affinity_clr 0x0032fa3c
ipcom_proc_acreate 0x0032fa80
ipcom_proc_create 0x0032fc00
ipcom_proc_cpu_affinity_get 0x0032fc54
ipcom_proc_cpu_affinity_set_all 0x0032fcf4
ipcom_mb 0x0032fdcc
ipcom_rmb 0x0032fdd0
ipcom_wmb 0x0032fdd4
ipcom_ipc_install 0x0032fdd8
ipcom_ipc_uninstall 0x0032fe80
ipcom_ipc_open 0x0032ff18
ipcom_ipc_close 0x003300b8
ipcom_ipc_isopen 0x003300d0
ipcom_ipc_malloc 0x003300ec
ipcom_ipc_free 0x00330148
ipcom_ipc_size 0x00330170
ipcom_ipc_send 0x00330188
ipcom_ipc_receive 0x0033024c
ipcom_microtime 0x003303fc
ipcom_gettimeofday 0x00330448
ipcom_settimeofday 0x003304b8
ipcom_asctime_r_vxworks 0x00330510
ipcom_ctime_r_vxworks 0x00330560
ipcom_check_fs_devs 0x003305b0
ipcom_drv_eth_free_out_native_pkt 0x003307a4
ipnet_drv_eth_sync_with_end_flags 0x003307b8
ipcom_drv_eth_bind 0x003308a8
ipcom_drv_eth_unbind 0x00330930
ipcom_vxworks_pkt_pool_hdr_ctor 0x003309b0
ipcom_drv_eth_detach 0x003309dc
ipcom_drv_eth_shutdown_end2 0x00330ad8
ipcom_drv_eth_error_end2 0x00330b84
ipcom_register_dev_name_mapping 0x00330ca8
ipcom_unregister_dev_name_mapping 0x00330d70
ipcom_drv_eth_exit 0x00330de4
ipcom_drv_eth_ioctl 0x00330f1c
ipcom_drv_wlan_ioctl 0x00331430
ipcom_get_ip_if_name 0x0033150c
ipcom_drv_eth_init 0x00331568
ipcom_drv_eth_bind_to_dev 0x00331a38
ipcom_drv_eth_bind_to_devs 0x00331ad4
ipcom_drv_eth_create 0x00331ce8
ipcom_drv_eth_ip_attach 0x00331d4c
ipcom_random_tmo_handler 0x00332294
ipcom_random_bingo_lotto 0x003322a4
ipcom_random_get 0x003322c0
ipcom_egd 0x00332348
ipcom_egd_random 0x00332414
ipcom_random 0x0033248c
ipcom_srandom 0x003324b8
ipcom_random_init 0x00332508
ipcom_rand 0x00332588
ipcom_srand 0x003325cc
ipcom_random_seed_state 0x003325d0
ipcom_in_checksum_update 0x00332620
ipcom_in_checksum_finish 0x00332728
ipcom_in_checksum 0x0033274c
ipcom_in_checksum_memcpy 0x0033278c
ipcom_strerror_int 0x003327b8
ipcom_strerror_int_vxworks 0x00332c04
ipcom_strerror_r 0x00332cb0
ipcom_strerror 0x00332d48
ipcom_getenv 0x0033333c
ipcom_setenv 0x00333340
ipcom_unsetenv 0x0033339c
ipcom_clearenv 0x003333f0
ipcom_getenv_as_int 0x003333f8
ipcom_setenv_as_int 0x00333438
ipcom_gethostip 0x003334a8
ipcom_gethost_static 0x003335cc
ipcom_gethostbynamelocal 0x003336ac
ipcom_gethostbyname 0x00333720
ipcom_gethostbyname_r 0x00333828
ipcom_gethostbyaddrlocal 0x0033393c
ipcom_gethostbyaddr 0x003339b8
ipcom_gethostbyaddr_r 0x00333a74
ipcom_getnameinfo 0x00333b40
ipcom_getaddrinfo 0x00333b44
ipcom_freeaddrinfo 0x00333b48
ipcom_getaddrinfo_alloc 0x00333b4c
ipcom_getnameinfo2 0x00333bc8
ipcom_freeaddrinfo2 0x00333eb8
ipcom_getaddrinfo2 0x00333f20
ipcom_find_service_byname 0x00334748
ipcom_find_service_byport 0x00334800
ipcom_getservbyname 0x00334878
ipcom_getservbyport 0x003348f0
ipcom_sethostname 0x00334a08
ipcom_strcasecmp 0x00334a90
ipcom_strncasecmp 0x00334b14
ipcom_proc_vr_get 0x00334b98
ipcom_proc_vr_set 0x00334ba8
ipcom_stdout 0x00334bc0
ipcom_stderr 0x00334be4
ipcom_stdin 0x00334c08
ipcom_wait_queue_init 0x00334c2c
ipcom_wait_queue_is_empty 0x00334c30
ipcom_wait_queue_add_current_proc 0x00334c40
ipcom_wait_queue_wakeup_one_proc 0x00334cf8
ipcom_wait_queue_wakeup_all_procs 0x00334d38
ipcom_fileclose 0x00334d78
ipcom_fileread 0x00334d7c
ipcom_fileopen 0x00334d80
ipcom_fstat 0x00334d84
ipcom_stat 0x00334e14
ipcom_fopen 0x00334ea4
ipcom_fclose 0x00334ea8
ipcom_fwrite 0x00334eac
ipcom_fread 0x00334eb0
ipcom_opendir 0x00334eb4
ipcom_readdir 0x00334eb8
ipcom_closedir 0x00334f1c
ipcom_fileno 0x00334f20
ipcom_unlink 0x00334f4c
ipcom_ferror 0x00334f50
ipcom_feof 0x00334f88
ipcom_fseek 0x00334fc0
ipcom_ftell 0x00334fc4
ipcom_lseek 0x00334fc8
ipcom_rename 0x00334fcc
ipcom_fdopen 0x00334fd0
ipcom_getcwd 0x00334fd4
ipcom_mkdir 0x00334fd8
ipcom_rmdir 0x00335018
ipcom_chdir 0x003350fc
ipcom_fflush 0x00335144
ipcom_filewrite 0x00335148
ipcom_rewind 0x0033514c
ipcom_shell_fread 0x00335158
ipcom_shell_fwrite 0x0033515c
ipcom_pshell_spawn_proxy 0x00335160
ipcom_pshell_proxy_data 0x0033525c
ipcom_pshell_create_pty 0x00335358
ipcom_pshell_stdio_proxy 0x00335528
ipcom_vxworks_shell_logout_cb 0x00335794
ipcom_vxshell_login_task 0x0033579c
ipcom_start_extshell 0x00335834
ipcom_stdio_set_echo 0x00335ad8
ipcom_psock_ipoptname_to_optname 0x00335f24
ipcom_socket_usr 0x00335fd8
ipcom_socketclose_usr 0x00335fdc
ipcom_shutdown_usr 0x00335ffc
ipcom_bind_usr 0x0033601c
ipcom_connect_usr 0x0033603c
ipcom_listen_usr 0x00336040
ipcom_accept_usr 0x00336044
ipcom_setsockopt_usr 0x00336064
ipcom_getsockopt_usr 0x00336094
ipcom_getsockname_usr 0x003360c4
ipcom_getpeername_usr 0x003360c8
ipcom_socketwritev_usr 0x003360cc
ipcom_send_usr 0x003360d0
ipcom_socketwrite_usr 0x003360d4
ipcom_sendto_usr 0x003360dc
ipcom_socketread_usr 0x003360e0
ipcom_recv_usr 0x003360e8
ipcom_recvfrom_usr 0x003360ec
ipcom_recvmsg_usr 0x003360f0
ipcom_sendmsg_usr 0x003360f4
ipcom_socketselect_usr 0x003360f8
ipcom_socketioctl_usr 0x00336118
ipcom_vxshell_add_cmd 0x00336370
ipcom_vxworks_rtp_del_hook 0x00336524
ipcom_initd 0x00336548
ipcom_create 0x003365b8
ipcom_run_cmd 0x0033671c
ipcom_is_stack_task 0x0033682c
ipcom_ima_stack_task 0x00336878
vxfs_ramdisk_init 0x003369cc
ipcrypto_setup_lock_functions 0x00336b28
ipcrypto_lock_callback 0x00336bc8
ipcrypto_rnd_seed 0x00336c34
ipcrypto_cmd_memory 0x00336cac
ipcrypto_cmds_startup 0x00336cb4
ipcrypto_create 0x00336ce8
ipcrypto_start 0x00336d64
ipcrypto_version 0x00336db8
CRYPTO_num_locks 0x00336e3c
CRYPTO_get_locking_callback 0x00336e44
CRYPTO_get_add_lock_callback 0x00336e4c
CRYPTO_set_locking_callback 0x00336e54
CRYPTO_set_add_lock_callback 0x00336e5c
CRYPTO_get_id_callback 0x00336e64
CRYPTO_set_id_callback 0x00336e6c
CRYPTO_thread_id 0x00336e74
int_CRYPTO_set_do_dynlock_callback 0x00336eb4
CRYPTO_lock 0x00336ebc
CRYPTO_add_lock 0x00336f0c
OPENSSL_ia32cap_loc 0x00336f8c
OPENSSL_cpuid_setup 0x00336f94
OPENSSL_showfatal 0x00336f98
OPENSSL_isservice 0x0033703c
OpenSSLDie 0x00337044
OPENSSL_stderr 0x00337080
default_malloc_ex 0x003370bc
default_realloc_ex 0x003370e4
default_malloc_locked_ex 0x0033710c
CRYPTO_set_mem_functions 0x00337134
CRYPTO_set_mem_ex_functions 0x003371a8
CRYPTO_set_locked_mem_functions 0x00337208
CRYPTO_set_locked_mem_ex_functions 0x00337250
CRYPTO_set_mem_debug_functions 0x00337294
CRYPTO_set_mem_info_functions 0x003372c4
CRYPTO_get_mem_functions 0x003372d4
CRYPTO_get_mem_ex_functions 0x00337338
CRYPTO_get_locked_mem_functions 0x0033739c
CRYPTO_get_locked_mem_ex_functions 0x003373d8
CRYPTO_get_mem_debug_functions 0x00337414
CRYPTO_malloc_locked 0x00337468
CRYPTO_free_locked 0x00337528
CRYPTO_malloc 0x0033759c
CRYPTO_realloc 0x0033765c
CRYPTO_realloc_clean 0x00337734
CRYPTO_free 0x0033782c
CRYPTO_remalloc 0x003378a0
CRYPTO_set_mem_debug_options 0x003378e8
CRYPTO_get_mem_debug_options 0x00337920
CRYPTO_push_info_ 0x00337960
CRYPTO_pop_info 0x003379a0
CRYPTO_remove_all_info 0x003379e0
OPENSSL_cleanse 0x00337a68
MD5_Init 0x00337ad4
md5_block_data_order 0x00337b1c
MD5_Final 0x00338a68
MD5_Transform 0x00338bc8
MD5_Update 0x00338bd0
SHA1_Init 0x00338cf4
sha1_block_data_order 0x00338d48
SHA1_Final 0x0033ac00
SHA1_Transform 0x0033ad80
SHA1_Update 0x0033ad88
RIPEMD160_Init 0x0033aeac
ripemd160_block_data_order 0x0033af00
RIPEMD160_Final 0x0033d298
RIPEMD160_Transform 0x0033d418
RIPEMD160_Update 0x0033d420
BF_set_key 0x0033d544
BF_options 0x0033d678
BF_ecb_encrypt 0x0033d684
BF_cfb64_encrypt 0x0033d77c
BF_ofb64_encrypt 0x0033d998
BF_encrypt 0x0033db40
BF_decrypt 0x0033dfa8
BF_cbc_encrypt 0x0033e410
CAST_set_key 0x0033e894
CAST_ecb_encrypt 0x0033f1b8
CAST_cfb64_encrypt 0x0033f2a0
CAST_ofb64_encrypt 0x0033f4bc
CAST_encrypt 0x0033f664
CAST_decrypt 0x0033fb88
CAST_cbc_encrypt 0x003400ac
BN_STACK_init 0x00340530
BN_STACK_finish 0x00340544
BN_STACK_push 0x0034055c
BN_CTX_start 0x00340618
BN_STACK_pop 0x00340694
BN_POOL_init 0x003406b4
BN_CTX_new 0x003406d0
BN_POOL_finish 0x0034074c
BN_CTX_free 0x003407bc
BN_POOL_reset 0x00340800
BN_CTX_init 0x00340868
BN_POOL_get 0x003408a8
BN_CTX_get 0x003409b4
BN_POOL_release 0x00340a54
BN_CTX_end 0x00340a9c
BN_exp 0x00340b54
BN_mod_exp_recp 0x00340cd4
MOD_EXP_CTIME_COPY_TO_PREBUF 0x0034102c
MOD_EXP_CTIME_COPY_FROM_PREBUF 0x00341128
BN_mod_exp_mont_consttime 0x003411ec
BN_mod_exp_mont 0x003415f8
BN_mod_exp_mont_word 0x003419e0
BN_mod_exp 0x00341da4
BN_mod_exp_simple 0x00341e24
BN_bn2hex 0x00342160
BN_bn2dec 0x00342270
BN_hex2bn 0x00342470
BN_dec2bn 0x00342660
BN_print 0x0034282c
BN_print_fp 0x00342910
bn_sqr_normal 0x003429d4
bn_sqr_recursive 0x00342ac4
BN_sqr 0x00342c78
BN_uadd 0x00342e48
BN_usub 0x00342f68
BN_add 0x00343130
BN_sub 0x003431e0
BN_set_params 0x00343350
BN_get_params 0x003433e4
BN_value_one 0x0034342c
BN_num_bits_word 0x00343438
BN_num_bits 0x00343498
BN_clear_free 0x003434e8
BN_free 0x00343570
BN_init 0x003435e0
BN_new 0x003435ec
bn_expand_internal 0x00343664
bn_expand2 0x00343788
BN_copy 0x003437e4
BN_dup 0x003438e0
bn_dup_expand 0x00343948
BN_swap 0x003439c4
BN_clear 0x00343a48
BN_get_word 0x00343a98
BN_set_word 0x00343ac8
BN_bin2bn 0x00343b44
BN_bn2bin 0x00343c70
BN_ucmp 0x00343cec
BN_cmp 0x00343d54
BN_set_bit 0x00343e3c
BN_clear_bit 0x00343f18
BN_is_bit_set 0x00343fac
BN_mask_bits 0x00344000
BN_set_negative 0x003440b8
bn_cmp_words 0x003440e0
bn_cmp_part_words 0x0034415c
bn_sub_part_words 0x0034423c
bn_add_part_words 0x00344470
bn_mul_normal 0x00344748
bn_mul_recursive 0x0034484c
bn_mul_high 0x00344c98
bn_mul_part_recursive 0x003450a8
BN_mul 0x00345518
bn_mul_low_normal 0x003457e4
bn_mul_low_recursive 0x00345890
bnrand 0x003459a8
BN_rand 0x00345bc0
BN_pseudo_rand 0x00345bf4
BN_bntest_rand 0x00345c28
bn_rand_range 0x00345c5c
BN_rand_range 0x00345e4c
BN_pseudo_rand_range 0x00345e78
BN_div_no_branch 0x00345f44
BN_div 0x003463f8
euclid 0x003468e8
BN_gcd 0x00346a3c
BN_mod_inverse_no_branch 0x00346b20
BN_mod_inverse 0x00346e38
BN_nnmod 0x003474f8
BN_mod_add 0x00347588
BN_mod_add_quick 0x003475d4
BN_mod_sub 0x00347648
BN_mod_sub_quick 0x00347694
BN_mod_mul 0x00347700
BN_mod_sqr 0x003477a8
BN_mod_lshift1 0x003477fc
BN_mod_lshift1_quick 0x00347848
BN_mod_lshift_quick 0x003478bc
BN_mod_lshift 0x003479d0
BN_RECP_CTX_init 0x00347ac0
BN_RECP_CTX_new 0x00347b00
BN_RECP_CTX_free 0x00347b58
BN_RECP_CTX_set 0x00347ba4
BN_reciprocal 0x00347c10
BN_div_recp 0x00347c94
BN_mod_mul_reciprocal 0x00347f00
BN_mod_word 0x00348004
BN_div_word 0x0034807c
BN_add_word 0x00348164
BN_sub_word 0x00348298
BN_mul_word 0x003483a4
BN_from_montgomery 0x00348454
BN_mod_mul_montgomery 0x00348810
BN_MONT_CTX_init 0x003488b8
BN_MONT_CTX_new 0x00348910
BN_MONT_CTX_free 0x00348968
BN_MONT_CTX_set 0x003489c0
BN_MONT_CTX_copy 0x00348b8c
BN_MONT_CTX_set_locked 0x00348c30
BN_GENCB_call 0x00348dc8
witness 0x00348e70
BN_is_prime_fasttest_ex 0x00348f6c
BN_is_prime_ex 0x00349364
probable_prime 0x00349370
probable_prime_dh 0x00349440
probable_prime_dh_safe 0x00349568
BN_generate_prime_ex 0x00349724
BN_lshift1 0x00349998
BN_rshift1 0x00349ac0
BN_lshift 0x00349bdc
BN_rshift 0x00349d58
bn_sqr_comba4 0x00349ed0
bn_sqr_comba8 0x0034a020
bn_mul_comba4 0x0034a530
bn_mul_comba8 0x0034a700
bn_sub_words 0x0034ae10
Lppcasm_sub_mainloop 0x0034ae2c
Lppcasm_sub_adios 0x0034ae40
bn_add_words 0x0034ae50
Lppcasm_add_mainloop 0x0034ae6c
Lppcasm_add_adios 0x0034ae80
bn_div_words 0x0034ae90
Lppcasm_div1 0x0034aea0
Lppcasm_div2 0x0034aebc
Lppcasm_div3 0x0034aec8
Lppcasm_div4 0x0034aee4
Lppcasm_divouterloop 0x0034aef0
Lppcasm_div5 0x0034af0c
Lppcasm_div6 0x0034af10
Lppcasm_divinnerloop 0x0034af1c
Lppcasm_divinnerexit 0x0034af50
Lppcasm_div7 0x0034af68
Lppcasm_div8 0x0034af7c
Lppcasm_div9 0x0034af98
bn_sqr_words 0x0034afb0
Lppcasm_sqr_mainloop 0x0034afc4
Lppcasm_sqr_adios 0x0034afdc
bn_mul_words 0x0034aff0
Lppcasm_mw_LOOP 0x0034b004
Lppcasm_mw_REM 0x0034b064
Lppcasm_mw_OVER 0x0034b0d8
bn_mul_add_words 0x0034b0f0
Lppcasm_maw_mainloop 0x0034b104
Lppcasm_maw_leftover 0x0034b194
Lppcasm_maw_adios 0x0034b21c
ENGINE_load_builtin_engines 0x0034b230
int_free_str 0x0034b250
dynamic_data_ctx_free_func 0x0034b254
dynamic_set_data_ctx 0x0034b2d0
dynamic_get_data_ctx 0x0034b42c
engine_dynamic 0x0034b52c
ENGINE_load_dynamic 0x0034b610
dynamic_init 0x0034b650
dynamic_finish 0x0034b658
int_load 0x0034b660
dynamic_load 0x0034b730
dynamic_ctrl 0x0034b9c4
BUF_memdup 0x0034be88
BUF_strlcpy 0x0034bf14
BUF_strndup 0x0034bf8c
BUF_strdup 0x0034c008
BUF_strlcat 0x0034c054
BIO_set 0x0034c0fc
BIO_new 0x0034c1a8
BIO_free 0x0034c238
BIO_vfree 0x0034c2fc
BIO_clear_flags 0x0034c300
BIO_test_flags 0x0034c310
BIO_set_flags 0x0034c31c
BIO_get_callback 0x0034c32c
BIO_set_callback 0x0034c334
BIO_set_callback_arg 0x0034c33c
BIO_get_callback_arg 0x0034c344
BIO_method_name 0x0034c34c
BIO_method_type 0x0034c358
BIO_read 0x0034c364
BIO_write 0x0034c488
BIO_puts 0x0034c5b4
BIO_gets 0x0034c6d0
BIO_indent 0x0034c7e4
BIO_ctrl 0x0034c85c
BIO_ptr_ctrl 0x0034c950
BIO_int_ctrl 0x0034c990
BIO_callback_ctrl 0x0034c9b8
BIO_ctrl_pending 0x0034caa4
BIO_ctrl_wpending 0x0034cab4
BIO_push 0x0034cac4
BIO_pop 0x0034cb3c
BIO_get_retry_BIO 0x0034cbc4
BIO_get_retry_reason 0x0034cbfc
BIO_find_type 0x0034cc04
BIO_next 0x0034cc50
BIO_free_all 0x0034cc68
BIO_dup_chain 0x0034ccb8
BIO_copy_next_retry 0x0034cda8
BIO_get_ex_new_index 0x0034cdcc
BIO_set_ex_data 0x0034cde8
BIO_get_ex_data 0x0034cdf0
BIO_number_read 0x0034cdf8
BIO_number_written 0x0034ce10
BIO_s_file 0x0034ce7c
BIO_new_fp 0x0034ce88
BIO_new_file 0x0034cee4
file_new 0x0034cfe8
file_free 0x0034d004
file_read 0x0034d078
file_write 0x0034d128
file_ctrl 0x0034d194
file_gets 0x0034d40c
file_puts 0x0034d474
abs_val 0x0034d58c
pow_10 0x0034d5a8
roundv 0x0034d5c8
doapr_outch 0x0034d614
fmtfp 0x0034d708
fmtint 0x0034da7c
fmtstr 0x0034dd48
_dopr 0x0034de7c
BIO_vprintf 0x0034e5d8
BIO_printf 0x0034e690
BIO_vsnprintf 0x0034e720
BIO_snprintf 0x0034e794
sk_set_cmp_func 0x0034e8bc
sk_new 0x0034e8dc
sk_new_null 0x0034e98c
sk_insert 0x0034e994
sk_delete 0x0034ea84
sk_delete_ptr 0x0034eaf0
sk_push 0x0034eb4c
sk_unshift 0x0034eb60
sk_shift 0x0034eb68
sk_pop 0x0034eb90
sk_zero 0x0034ebd8
sk_free 0x0034ec28
sk_pop_free 0x0034ec6c
sk_dup 0x0034ecd4
sk_num 0x0034ed88
sk_value 0x0034eda0
sk_set 0x0034edd4
sk_sort 0x0034ee0c
internal_find 0x0034ee60
sk_find_ex 0x0034ef40
sk_find 0x0034ef48
sk_is_sorted 0x0034ef50
RAND_set_rand_method 0x0034efb8
RAND_get_rand_method 0x0034f000
RAND_set_rand_engine 0x0034f074
RAND_cleanup 0x0034f0e8
RAND_seed 0x0034f134
RAND_add 0x0034f17c
RAND_bytes 0x0034f1dc
RAND_pseudo_bytes 0x0034f22c
RAND_status 0x0034f27c
ERR_put_error 0x0034f2c8
ERR_clear_error 0x0034f3cc
get_error_values 0x0034f444
ERR_peek_last_error_line_data 0x0034f5f4
ERR_peek_last_error_line 0x0034f610
ERR_peek_last_error 0x0034f62c
ERR_peek_error_line_data 0x0034f648
ERR_peek_error_line 0x0034f664
ERR_peek_error 0x0034f680
ERR_get_error_line_data 0x0034f69c
ERR_get_error_line 0x0034f6b8
ERR_get_error 0x0034f6d4
ERR_set_error_data 0x0034f6f0
ERR_add_error_data 0x0034f754
ERR_set_mark 0x0034f88c
ERR_pop_to_mark 0x0034f8dc
ERR_load_crypto_strings 0x0034fa50
err_fns_check 0x0034fac0
ERR_get_implementation 0x0034fb30
ERR_set_implementation 0x0034fb54
int_err_get 0x0034fbd4
int_err_del 0x0034fc94
int_err_get_item 0x0034fcf4
int_err_set_item 0x0034fd90
int_err_del_item 0x0034fe2c
int_thread_get 0x0034fec8
int_thread_release 0x0034ff94
int_thread_get_item 0x0034fff8
int_thread_set_item 0x003500a4
int_err_get_next_lib 0x00350150
ERR_STATE_free 0x003501b4
int_thread_del_item 0x00350218
err_load_strings 0x003502fc
ERR_load_strings 0x00350374
ERR_unload_strings 0x003503b4
ERR_free_strings 0x0035042c
ERR_get_string_table 0x0035045c
ERR_get_err_state_table 0x00350490
ERR_release_err_state_table 0x003504c4
ERR_lib_error_string 0x00350504
ERR_func_error_string 0x00350564
ERR_reason_error_string 0x003505c8
err_hash 0x00350650
err_cmp 0x00350680
pid_hash 0x00350690
pid_cmp 0x0035069c
ERR_remove_state 0x003506ac
ERR_get_state 0x00350700
ERR_get_next_error_library 0x00350800
build_SYS_str_reasons 0x003508ac
ERR_load_ERR_strings 0x003509e4
sn_cmp 0x00350f30
ln_cmp 0x00350f44
add_hash 0x00350f58
add_cmp 0x00351030
init_added 0x00351134
cleanup1 0x00351184
cleanup3 0x003511a0
cleanup1_LHASH_DOALL 0x003511e4
cleanup2_LHASH_DOALL 0x003511e8
cleanup3_LHASH_DOALL 0x003511fc
OBJ_cleanup 0x00351200
OBJ_new_nid 0x00351270
OBJ_add_object 0x00351284
OBJ_nid2obj 0x00351448
OBJ_nid2sn 0x00351508
OBJ_nid2ln 0x003515cc
obj_cmp 0x00351690
OBJ_bsearch_ex 0x003516d4
OBJ_bsearch 0x003517d0
OBJ_obj2nid 0x003517d8
OBJ_obj2txt 0x00351880
OBJ_ln2nid 0x00351b78
OBJ_sn2nid 0x00351c10
OBJ_txt2obj 0x00351ca8
OBJ_txt2nid 0x00351d9c
OBJ_create 0x00351de8
OBJ_create_objects 0x00351ec8
OBJ_dup 0x00356960
OBJ_cmp 0x00356b04
ERR_load_OBJ_strings 0x00356b98
ERR_load_EVP_strings 0x00356c60
OPENSSL_add_all_algorithms_noconf 0x003573e0
OpenSSL_add_all_ciphers 0x00357404
OpenSSL_add_all_digests 0x00357888
PKCS5_PBE_add 0x00357a5c
PKCS5_PBE_keyivgen 0x00357b64
EVP_CIPHER_CTX_init 0x00357ec4
do_evp_enc_engine 0x00357ed0
EVP_CIPHER_CTX_cleanup 0x00357f7c
EVP_Cipher 0x00358034
EVP_CIPHER_CTX_ctrl 0x00358068
EVP_CIPHER_CTX_flags 0x00358104
EVP_CIPHER_CTX_iv_length 0x00358110
EVP_CipherInit_ex 0x0035811c
EVP_CIPHER_nid 0x00358414
i2d_ASN1_OBJECT 0x00358550
a2d_ASN1_OBJECT 0x003585ec
i2t_ASN1_OBJECT 0x003589a0
i2a_ASN1_OBJECT 0x003589a8
ASN1_OBJECT_new 0x00358a84
ASN1_OBJECT_free 0x00358b00
c2i_ASN1_OBJECT 0x00358ba0
d2i_ASN1_OBJECT 0x00358ccc
ASN1_OBJECT_create 0x00358d88
ERR_load_ASN1_strings 0x00358e2c
_asn1_check_infinite_end 0x00359e60
ASN1_check_infinite_end 0x00359eac
ASN1_const_check_infinite_end 0x00359eb0
asn1_get_length 0x00359eb4
ASN1_get_object 0x00359f90
ASN1_put_eoc 0x0035a0cc
asn1_put_length 0x0035a0ec
ASN1_put_object 0x0035a14c
ASN1_object_size 0x0035a238
_asn1_Finish 0x0035a280
asn1_Finish 0x0035a300
asn1_const_Finish 0x0035a304
asn1_GetSequence 0x0035a308
ASN1_STRING_set 0x0035a3c8
ASN1_STRING_set0 0x0035a4c0
ASN1_STRING_type_new 0x0035a4fc
ASN1_STRING_new 0x0035a578
ASN1_STRING_free 0x0035a580
ASN1_STRING_dup 0x0035a5c4
ASN1_STRING_cmp 0x0035a648
asn1_add_error 0x0035a6a0
ASN1_STRING_length 0x0035a724
ASN1_STRING_length_set 0x0035a72c
ASN1_STRING_type 0x0035a734
ASN1_STRING_data 0x0035a73c
d2i_PBEPARAM 0x0035a7b0
i2d_PBEPARAM 0x0035a7bc
PBEPARAM_new 0x0035a7c8
PBEPARAM_free 0x0035a7d4
PKCS5_pbe_set 0x0035a7e0
der_cmp 0x0035aa44
asn1_ex_i2c 0x0035aaa8
asn1_i2d_ex_primitive 0x0035ad4c
ASN1_item_ex_i2d 0x0035ae68
asn1_set_seq_out 0x0035b1e4
asn1_template_ex_i2d 0x0035b420
asn1_item_flags_i2d 0x0035b6c8
ASN1_item_i2d 0x0035b77c
ASN1_item_ndef_i2d 0x0035b784
ASN1_template_i2d 0x0035b78c
ASN1_primitive_free 0x0035b7ec
asn1_item_combine_free 0x0035b910
ASN1_template_free 0x0035bb54
ASN1_item_free 0x0035bbec
ASN1_item_ex_free 0x0035bc18
ASN1_INTEGER_dup 0x0035bc20
ASN1_INTEGER_cmp 0x0035bc24
i2c_ASN1_INTEGER 0x0035bc88
c2i_ASN1_INTEGER 0x0035be34
d2i_ASN1_UINTEGER 0x0035c030
ASN1_INTEGER_set 0x0035c1c0
ASN1_INTEGER_get 0x0035c2e8
BN_to_ASN1_INTEGER 0x0035c380
ASN1_INTEGER_to_BN 0x0035c4a0
ASN1_primitive_new 0x0035c5c0
asn1_primitive_clear 0x0035c6f4
asn1_item_clear 0x0035c774
asn1_template_clear 0x0035c820
asn1_item_ex_combine_new 0x0035c85c
ASN1_template_new 0x0035cb58
ASN1_item_ex_new 0x0035cc14
ASN1_item_new 0x0035cc1c
ERR_load_PEM_strings 0x0035ccb4
ERR_load_X509_strings 0x0035cfcc
ERR_load_X509V3_strings 0x0035d590
ERR_load_CONF_strings 0x0035df90
ERR_load_PKCS7_strings 0x0035e230
PKCS12_PBE_add 0x0035e854
PKCS12_PBE_keyivgen 0x0035e944
PKCS12_key_gen_uni 0x0035eba8
PKCS12_key_gen_asc 0x0035ef80
asc2uni 0x0035f0a4
uni2asc 0x0035f164
i2d_PKCS12_bio 0x0035f204
i2d_PKCS12_fp 0x0035f21c
d2i_PKCS12_bio 0x0035f234
d2i_PKCS12_fp 0x0035f24c
PKCS12_x5092certbag 0x0035f264
PKCS12_x509crl2certbag 0x0035f278
PKCS12_certbag2x509 0x0035f28c
PKCS12_certbag2x509crl 0x0035f2fc
ERR_load_PKCS12_strings 0x0035f3c0
ERR_load_OCSP_strings 0x0035f7f0
ERR_load_UI_strings 0x0035fc0c
impl_check 0x0035fdcc
CRYPTO_get_ex_data_implementation 0x0035fe2c
CRYPTO_set_ex_data_implementation 0x0035fe5c
ex_hash_cb 0x0035fed8
ex_cmp_cb 0x0035fee0
ex_data_check 0x0035fef0
def_cleanup_util_cb 0x0035ff7c
def_cleanup_cb 0x0035ff80
def_get_class 0x0035ffbc
def_add_index 0x003600bc
int_new_class 0x003601e4
int_cleanup 0x00360248
int_get_new_index 0x003602a0
CRYPTO_ex_data_new_class 0x003602f8
CRYPTO_cleanup_all_ex_data 0x00360334
CRYPTO_get_ex_new_index 0x00360370
CRYPTO_new_ex_data 0x003603d8
CRYPTO_dup_ex_data 0x00360428
CRYPTO_free_ex_data 0x00360478
CRYPTO_set_ex_data 0x003604c8
CRYPTO_get_ex_data 0x00360578
int_free_ex_data 0x003605e0
int_dup_ex_data 0x00360758
int_new_ex_data 0x003608f4
ERR_load_CRYPTO_strings 0x00360afc
CRYPTO_get_new_lockid 0x00360c14
CRYPTO_get_new_dynlockid 0x00360cc8
CRYPTO_destroy_dynlockid 0x00360ecc
CRYPTO_get_dynlock_value 0x00360fe4
CRYPTO_get_dynlock_create_callback 0x003610a0
CRYPTO_get_dynlock_lock_callback 0x003610a8
CRYPTO_get_dynlock_destroy_callback 0x003610b0
CRYPTO_set_dynlock_create_callback 0x003610b8
do_dynlock 0x003610c0
CRYPTO_set_dynlock_lock_callback 0x00361140
CRYPTO_set_dynlock_destroy_callback 0x0036118c
CRYPTO_get_lock_name 0x00361194
init 0x00361400
update 0x00361408
final 0x00361410
EVP_md2 0x00361420
init 0x0036142c
update 0x00361434
final 0x0036143c
EVP_md4 0x0036144c
init 0x00361458
update 0x00361460
final 0x00361468
EVP_md5 0x00361478
init 0x00361484
update 0x0036148c
final 0x00361494
EVP_sha 0x003614a4
init 0x003614b0
update 0x003614b8
final 0x003614c0
EVP_sha1 0x003614d0
init224 0x003614dc
init256 0x003614e4
update256 0x003614ec
final256 0x003614f4
EVP_sha224 0x00361504
EVP_sha256 0x00361510
init384 0x0036151c
init512 0x00361524
update512 0x0036152c
final512 0x00361534
EVP_sha384 0x00361544
EVP_sha512 0x00361550
PKCS5_PBKDF2_HMAC_SHA1 0x0036155c
PKCS5_v2_PBE_keyivgen 0x003616e0
init 0x00361ac0
update 0x00361ac8
final 0x00361ad0
EVP_ripemd160 0x00361ae0
rc2_cbc_cipher 0x00361aec
rc2_cfb64_cipher 0x00361b34
rc2_ecb_cipher 0x00361b80
rc2_ofb_cipher 0x00361bec
EVP_rc2_cbc 0x00361c34
EVP_rc2_cfb64 0x00361c40
EVP_rc2_ofb 0x00361c4c
EVP_rc2_ecb 0x00361c58
EVP_rc2_64_cbc 0x00361c64
EVP_rc2_40_cbc 0x00361c70
rc2_init_key 0x00361c7c
rc2_meth_to_magic 0x00361cd0
rc2_magic_to_meth 0x00361d34
rc2_get_asn1_type_and_iv 0x00361da0
rc2_set_asn1_type_and_iv 0x00361e80
rc2_ctrl 0x00361ed4
EVP_rc4 0x00361fc8
EVP_rc4_40 0x00361fd4
rc4_init_key 0x00361fe0
rc4_cipher 0x0036202c
RC4 0x00362060
bf_cbc_cipher 0x003624b0
bf_cfb64_cipher 0x003624f4
bf_ecb_cipher 0x0036253c
bf_ofb_cipher 0x003625a4
EVP_bf_cbc 0x003625e8
EVP_bf_cfb64 0x003625f4
EVP_bf_ofb 0x00362600
EVP_bf_ecb 0x0036260c
bf_init_key 0x00362618
cast5_cbc_cipher 0x00362664
cast5_cfb64_cipher 0x003626a8
cast5_ecb_cipher 0x003626f0
cast5_ofb_cipher 0x00362758
EVP_cast5_cbc 0x0036279c
EVP_cast5_cfb64 0x003627a8
EVP_cast5_ofb 0x003627b4
EVP_cast5_ecb 0x003627c0
cast_init_key 0x003627cc
ERR_load_BN_strings 0x00362818
RSA_sign 0x00362bfc
RSA_verify 0x00362e28
ERR_load_RSA_strings 0x003631ac
ERR_load_DSA_strings 0x0036392c
init 0x00363b2c
update 0x00363b34
final 0x00363b3c
EVP_dss 0x00363b4c
init 0x00363b58
update 0x00363b60
final 0x00363b68
EVP_dss1 0x00363b78
ERR_load_DH_strings 0x00363b84
ERR_load_DSO_strings 0x00363cd8
DSO_set_default_method 0x003640dc
DSO_get_default_method 0x003640e4
DSO_get_method 0x003640ec
DSO_set_method 0x003640f4
DSO_new_method 0x00364104
DSO_new 0x00364218
DSO_free 0x00364220
DSO_flags 0x00364368
DSO_up_ref 0x00364380
DSO_bind_var 0x003643e8
DSO_bind_func 0x0036448c
DSO_ctrl 0x00364534
DSO_set_name_converter 0x0036460c
DSO_get_filename 0x0036466c
DSO_set_filename 0x003646b8
DSO_load 0x003647b8
DSO_merge 0x00364964
DSO_convert_filename 0x003649fc
DSO_get_loaded_filename 0x00364b24
DSO_METHOD_openssl 0x00364c10
ERR_load_ENGINE_strings 0x00364c14
ENGINE_new 0x003651f8
engine_set_all_null 0x00365284
engine_free_util 0x003652d0
ENGINE_free 0x0036539c
int_cleanup_check 0x003653a4
int_cleanup_item 0x003653f4
engine_cleanup_add_first 0x00365444
engine_cleanup_add_last 0x0036549c
engine_cleanup_cb_free 0x003654f0
ENGINE_cleanup 0x00365528
ENGINE_get_ex_new_index 0x00365570
ENGINE_set_ex_data 0x0036558c
ENGINE_get_ex_data 0x00365594
ENGINE_set_id 0x0036559c
ENGINE_set_name 0x003655ec
ENGINE_set_destroy_function 0x0036563c
ENGINE_set_init_function 0x00365648
ENGINE_set_finish_function 0x00365654
ENGINE_set_ctrl_function 0x00365660
ENGINE_set_flags 0x0036566c
ENGINE_set_cmd_defns 0x00365678
ENGINE_get_id 0x00365684
ENGINE_get_name 0x0036568c
ENGINE_get_destroy_function 0x00365694
ENGINE_get_init_function 0x0036569c
ENGINE_get_finish_function 0x003656a4
ENGINE_get_ctrl_function 0x003656ac
ENGINE_get_flags 0x003656b4
ENGINE_get_cmd_defns 0x003656bc
ENGINE_get_static_state 0x003656c4
engine_list_add 0x00365720
engine_list_remove 0x00365864
ENGINE_get_first 0x00365950
ENGINE_get_last 0x003659c0
ENGINE_get_next 0x00365a30
ENGINE_get_prev 0x00365adc
ENGINE_add 0x00365b88
ENGINE_remove 0x00365c7c
engine_list_cleanup 0x00365d3c
engine_cpy 0x00365d6c
ENGINE_by_id 0x00365df8
ENGINE_up_ref 0x00365ff0
engine_unlocked_init 0x00366154
engine_unlocked_finish 0x003661b8
ENGINE_init 0x00366298
ENGINE_finish 0x00366328
int_ctrl_cmd_is_null 0x0036643c
int_ctrl_cmd_by_name 0x00366464
int_ctrl_cmd_by_num 0x003664d4
int_ctrl_helper 0x00366538
ENGINE_ctrl 0x0036679c
ENGINE_cmd_is_executable 0x00366954
ENGINE_ctrl_cmd 0x003669c4
ENGINE_ctrl_cmd_string 0x00366aa8
ENGINE_load_padlock 0x00366d8c
ENGINE_unregister_RAND 0x00366d90
engine_unregister_all_RAND 0x00366d9c
ENGINE_register_RAND 0x00366da4
ENGINE_register_all_RAND 0x00366dd8
ENGINE_set_default_RAND 0x00366e18
ENGINE_get_default_RAND 0x00366e4c
ENGINE_get_RAND 0x00366e58
ENGINE_set_RAND 0x00366e60
ENGINE_unregister_ciphers 0x00366e6c
engine_unregister_all_ciphers 0x00366e78
ENGINE_register_ciphers 0x00366e80
ENGINE_register_all_ciphers 0x00366eec
ENGINE_set_default_ciphers 0x00366f2c
ENGINE_get_cipher_engine 0x00366f98
ENGINE_get_ciphers 0x00366fa4
ENGINE_get_cipher 0x00366fac
ENGINE_set_ciphers 0x00367020
aes_128_cbc_cipher 0x00367084
aes_128_cfb128_cipher 0x003670c8
aes_128_ecb_cipher 0x00367110
aes_128_ofb_cipher 0x00367178
EVP_aes_128_cbc 0x003671bc
EVP_aes_128_cfb128 0x003671c8
EVP_aes_128_ofb 0x003671d4
EVP_aes_128_ecb 0x003671e0
aes_192_cbc_cipher 0x003671ec
aes_192_cfb128_cipher 0x00367230
aes_192_ecb_cipher 0x00367278
aes_192_ofb_cipher 0x003672e0
EVP_aes_192_cbc 0x00367324
EVP_aes_192_cfb128 0x00367330
EVP_aes_192_ofb 0x0036733c
EVP_aes_192_ecb 0x00367348
aes_256_cbc_cipher 0x00367354
aes_256_cfb128_cipher 0x00367398
aes_256_ecb_cipher 0x003673e0
aes_256_ofb_cipher 0x00367448
EVP_aes_256_cbc 0x0036748c
EVP_aes_256_cfb128 0x00367498
EVP_aes_256_ofb 0x003674a4
EVP_aes_256_ecb 0x003674b0
aes_128_cfb1_cipher 0x003674bc
EVP_aes_128_cfb1 0x00367518
aes_192_cfb1_cipher 0x00367524
EVP_aes_192_cfb1 0x00367580
aes_256_cfb1_cipher 0x0036758c
EVP_aes_256_cfb1 0x003675e8
aes_128_cfb8_cipher 0x003675f4
EVP_aes_128_cfb8 0x0036763c
aes_192_cfb8_cipher 0x00367648
EVP_aes_192_cfb8 0x00367690
aes_256_cfb8_cipher 0x0036769c
EVP_aes_256_cfb8 0x003676e4
aes_init_key 0x003676f0
AES_set_encrypt_key 0x003677ec
AES_set_decrypt_key 0x00367c7c
AES_encrypt 0x00367eb8
AES_decrypt 0x003682e8
AES_cbc_encrypt 0x00368714
ERR_load_BUF_strings 0x003689b8
ERR_load_BIO_strings 0x00368a58
lh_new 0x00368e58
lh_free 0x00368f68
doall_util_fn 0x00368fdc
lh_doall 0x00369068
lh_doall_arg 0x0036907c
expand 0x00369090
contract 0x003691cc
getrn 0x003692dc
lh_retrieve 0x003693b8
lh_delete 0x00369424
lh_insert 0x003694e4
lh_strhash 0x003695cc
lh_num_items 0x0036963c
RAND_SSLeay 0x003696a4
ssleay_rand_cleanup 0x003696b0
ssleay_rand_add 0x00369714
ssleay_rand_seed 0x00369a38
ssleay_rand_bytes 0x00369a74
ssleay_rand_pseudo_bytes 0x00369e64
ssleay_rand_status 0x00369eb8
ERR_load_RAND_strings 0x0036a0a8
RAND_poll 0x0036a26c
OBJ_NAME_init 0x0036a398
OBJ_NAME_new_index 0x0036a3fc
obj_name_cmp 0x0036a54c
obj_name_hash 0x0036a5c4
OBJ_NAME_get 0x0036a640
OBJ_NAME_add 0x0036a6f4
OBJ_NAME_remove 0x0036a7f4
do_all_fn 0x0036a8a0
do_all_fn_LHASH_DOALL_ARG 0x0036a8e4
OBJ_NAME_do_all 0x0036a8e8
do_all_sorted_fn 0x0036a924
do_all_sorted_cmp 0x0036a950
OBJ_NAME_do_all_sorted 0x0036a964
names_lh_free 0x0036aa20
names_lh_free_LHASH_DOALL 0x0036aa70
name_funcs_free 0x0036aa74
OBJ_NAME_cleanup 0x0036aa78
EVP_MD_CTX_init 0x0036ab5c
EVP_MD_CTX_create 0x0036ab68
do_evp_md_engine 0x0036abb4
EVP_DigestInit_ex 0x0036acb8
EVP_DigestInit 0x0036ada8
EVP_DigestUpdate 0x0036adf4
EVP_DigestFinal_ex 0x0036ae28
EVP_MD_CTX_cleanup 0x0036aee0
EVP_MD_CTX_destroy 0x0036afa4
EVP_Digest 0x0036afd4
EVP_MD_CTX_copy_ex 0x0036b080
EVP_MD_CTX_copy 0x0036b1c0
EVP_DigestFinal 0x0036b208
EVP_CIPHER_CTX_new 0x0036b314
EVP_CipherInit 0x0036b35c
EVP_EncryptInit 0x0036b3b8
EVP_EncryptInit_ex 0x0036b3c0
EVP_DecryptInit 0x0036b3c8
EVP_DecryptInit_ex 0x0036b3d0
EVP_EncryptUpdate 0x0036b3d8
EVP_EncryptFinal_ex 0x0036b5a0
EVP_EncryptFinal 0x0036b68c
EVP_DecryptUpdate 0x0036b6ac
EVP_CipherUpdate 0x0036b7e0
EVP_DecryptFinal_ex 0x0036b814
EVP_DecryptFinal 0x0036b990
EVP_CipherFinal 0x0036b9b0
EVP_CipherFinal_ex 0x0036b9e4
EVP_CIPHER_CTX_free 0x0036ba18
EVP_CIPHER_CTX_set_key_length 0x0036ba50
EVP_CIPHER_CTX_set_padding 0x0036bae0
EVP_CIPHER_CTX_rand_key 0x0036bb04
des_ecb_cipher 0x0036bc48
des_ofb_cipher 0x0036bcb0
des_cbc_cipher 0x0036bcf4
des_cfb64_cipher 0x0036bd38
des_cfb1_cipher 0x0036bd80
des_cfb8_cipher 0x0036be34
EVP_des_cbc 0x0036be74
EVP_des_cfb64 0x0036be80
EVP_des_ofb 0x0036be8c
EVP_des_ecb 0x0036be98
EVP_des_cfb1 0x0036bea4
EVP_des_cfb8 0x0036beb0
des_init_key 0x0036bebc
des_ctrl 0x0036beec
des_ede_ecb_cipher 0x0036bf4c
des_ede_ofb_cipher 0x0036bfbc
des_ede_cbc_cipher 0x0036c010
des_ede_cfb64_cipher 0x0036c064
des_ede3_cfb1_cipher 0x0036c0c0
des_ede3_cfb8_cipher 0x0036c180
EVP_des_ede_cbc 0x0036c1d4
EVP_des_ede_cfb64 0x0036c1e0
EVP_des_ede_ofb 0x0036c1ec
EVP_des_ede_ecb 0x0036c1f8
EVP_des_ede3_cbc 0x0036c204
EVP_des_ede3_cfb64 0x0036c210
EVP_des_ede3_ofb 0x0036c21c
EVP_des_ede3_ecb 0x0036c228
EVP_des_ede3_cfb1 0x0036c234
EVP_des_ede3_cfb8 0x0036c240
des_ede_init_key 0x0036c24c
des_ede3_init_key 0x0036c2b4
des3_ctrl 0x0036c318
EVP_des_ede 0x0036c3ac
EVP_des_ede3 0x0036c3b8
EVP_add_cipher 0x0036c3c4
EVP_add_digest 0x0036c424
EVP_get_cipherbyname 0x0036c4e0
EVP_get_digestbyname 0x0036c504
EVP_cleanup 0x0036c528
EVP_desx_cbc 0x0036c55c
desx_cbc_init_key 0x0036c568
desx_cbc_cipher 0x0036c5d4
EVP_CIPHER_get_asn1_iv 0x0036c628
EVP_CIPHER_asn1_to_param 0x0036c6b8
EVP_CIPHER_set_asn1_iv 0x0036c710
EVP_CIPHER_param_to_asn1 0x0036c778
EVP_CIPHER_type 0x0036c7d0
EVP_CIPHER_block_size 0x0036c8ec
EVP_CIPHER_CTX_block_size 0x0036c8f4
EVP_CIPHER_CTX_cipher 0x0036c900
EVP_CIPHER_flags 0x0036c908
EVP_CIPHER_CTX_get_app_data 0x0036c910
EVP_CIPHER_CTX_set_app_data 0x0036c918
EVP_CIPHER_iv_length 0x0036c920
EVP_CIPHER_key_length 0x0036c928
EVP_CIPHER_CTX_key_length 0x0036c930
EVP_CIPHER_CTX_nid 0x0036c938
EVP_MD_block_size 0x0036c944
EVP_MD_type 0x0036c94c
EVP_MD_pkey_type 0x0036c954
EVP_MD_size 0x0036c95c
EVP_MD_CTX_md 0x0036c964
EVP_MD_CTX_set_flags 0x0036c96c
EVP_MD_CTX_clear_flags 0x0036c97c
EVP_MD_CTX_test_flags 0x0036c98c
EVP_CIPHER_CTX_set_flags 0x0036c998
EVP_CIPHER_CTX_clear_flags 0x0036c9a8
EVP_CIPHER_CTX_test_flags 0x0036c9b8
EVP_PBE_CipherInit 0x0036ca3c
pbe_cmp 0x0036cb88
EVP_PBE_alg_add 0x0036cba0
EVP_PBE_cleanup 0x0036cc40
ASN1_BIT_STRING_set 0x0036ccd0
i2c_ASN1_BIT_STRING 0x0036ccd4
c2i_ASN1_BIT_STRING 0x0036ce10
ASN1_BIT_STRING_set_bit 0x0036cf70
ASN1_BIT_STRING_get_bit 0x0036d0d0
ASN1_TYPE_set_octetstring 0x0036d17c
ASN1_TYPE_get_octetstring 0x0036d1e8
ASN1_TYPE_set_int_octetstring 0x0036d278
ASN1_TYPE_get_int_octetstring 0x0036d388
d2i_ASN1_INTEGER 0x0036d59c
i2d_ASN1_INTEGER 0x0036d5a8
ASN1_INTEGER_new 0x0036d5b4
ASN1_INTEGER_free 0x0036d5c0
d2i_ASN1_ENUMERATED 0x0036d5cc
i2d_ASN1_ENUMERATED 0x0036d5d8
ASN1_ENUMERATED_new 0x0036d5e4
ASN1_ENUMERATED_free 0x0036d5f0
d2i_ASN1_BIT_STRING 0x0036d5fc
i2d_ASN1_BIT_STRING 0x0036d608
ASN1_BIT_STRING_new 0x0036d614
ASN1_BIT_STRING_free 0x0036d620
d2i_ASN1_OCTET_STRING 0x0036d62c
i2d_ASN1_OCTET_STRING 0x0036d638
ASN1_OCTET_STRING_new 0x0036d644
ASN1_OCTET_STRING_free 0x0036d650
d2i_ASN1_NULL 0x0036d65c
i2d_ASN1_NULL 0x0036d668
ASN1_NULL_new 0x0036d674
ASN1_NULL_free 0x0036d680
d2i_ASN1_UTF8STRING 0x0036d68c
i2d_ASN1_UTF8STRING 0x0036d698
ASN1_UTF8STRING_new 0x0036d6a4
ASN1_UTF8STRING_free 0x0036d6b0
d2i_ASN1_PRINTABLESTRING 0x0036d6bc
i2d_ASN1_PRINTABLESTRING 0x0036d6c8
ASN1_PRINTABLESTRING_new 0x0036d6d4
ASN1_PRINTABLESTRING_free 0x0036d6e0
d2i_ASN1_T61STRING 0x0036d6ec
i2d_ASN1_T61STRING 0x0036d6f8
ASN1_T61STRING_new 0x0036d704
ASN1_T61STRING_free 0x0036d710
d2i_ASN1_IA5STRING 0x0036d71c
i2d_ASN1_IA5STRING 0x0036d728
ASN1_IA5STRING_new 0x0036d734
ASN1_IA5STRING_free 0x0036d740
d2i_ASN1_GENERALSTRING 0x0036d74c
i2d_ASN1_GENERALSTRING 0x0036d758
ASN1_GENERALSTRING_new 0x0036d764
ASN1_GENERALSTRING_free 0x0036d770
d2i_ASN1_UTCTIME 0x0036d77c
i2d_ASN1_UTCTIME 0x0036d788
ASN1_UTCTIME_new 0x0036d794
ASN1_UTCTIME_free 0x0036d7a0
d2i_ASN1_GENERALIZEDTIME 0x0036d7ac
i2d_ASN1_GENERALIZEDTIME 0x0036d7b8
ASN1_GENERALIZEDTIME_new 0x0036d7c4
ASN1_GENERALIZEDTIME_free 0x0036d7d0
d2i_ASN1_VISIBLESTRING 0x0036d7dc
i2d_ASN1_VISIBLESTRING 0x0036d7e8
ASN1_VISIBLESTRING_new 0x0036d7f4
ASN1_VISIBLESTRING_free 0x0036d800
d2i_ASN1_UNIVERSALSTRING 0x0036d80c
i2d_ASN1_UNIVERSALSTRING 0x0036d818
ASN1_UNIVERSALSTRING_new 0x0036d824
ASN1_UNIVERSALSTRING_free 0x0036d830
d2i_ASN1_BMPSTRING 0x0036d83c
i2d_ASN1_BMPSTRING 0x0036d848
ASN1_BMPSTRING_new 0x0036d854
ASN1_BMPSTRING_free 0x0036d860
d2i_ASN1_TYPE 0x0036d86c
i2d_ASN1_TYPE 0x0036d878
ASN1_TYPE_new 0x0036d884
ASN1_TYPE_free 0x0036d890
d2i_ASN1_PRINTABLE 0x0036d89c
i2d_ASN1_PRINTABLE 0x0036d8a8
ASN1_PRINTABLE_new 0x0036d8b4
ASN1_PRINTABLE_free 0x0036d8c0
d2i_DISPLAYTEXT 0x0036d8cc
i2d_DISPLAYTEXT 0x0036d8d8
DISPLAYTEXT_new 0x0036d8e4
DISPLAYTEXT_free 0x0036d8f0
d2i_DIRECTORYSTRING 0x0036d8fc
i2d_DIRECTORYSTRING 0x0036d908
DIRECTORYSTRING_new 0x0036d914
DIRECTORYSTRING_free 0x0036d920
asn1_get_choice_selector 0x0036dab4
asn1_set_choice_selector 0x0036dac4
asn1_do_lock 0x0036dad8
asn1_get_enc_ptr 0x0036db68
asn1_enc_init 0x0036dbb0
asn1_enc_free 0x0036dbec
asn1_enc_save 0x0036dc40
asn1_enc_restore 0x0036dcc8
asn1_get_field_ptr 0x0036dd4c
asn1_do_adb 0x0036dd68
d2i_ASN1_type_bytes 0x0036deac
i2d_ASN1_bytes 0x0036e058
d2i_ASN1_bytes 0x0036e118
asn1_collate_primitive 0x0036e31c
d2i_X509_ALGOR 0x0036e530
i2d_X509_ALGOR 0x0036e53c
X509_ALGOR_new 0x0036e548
X509_ALGOR_free 0x0036e554
d2i_X509_ALGORS 0x0036e560
i2d_X509_ALGORS 0x0036e56c
X509_ALGOR_dup 0x0036e578
X509_ALGOR_set0 0x0036e588
X509_ALGOR_get0 0x0036e640
d2i_X509_SIG 0x0036e6c4
i2d_X509_SIG 0x0036e6d0
X509_SIG_new 0x0036e6dc
X509_SIG_free 0x0036e6e8
asn1_d2i_read_bio 0x0036e70c
ASN1_item_d2i_bio 0x0036e920
ASN1_item_d2i_fp 0x0036e990
ASN1_d2i_bio 0x0036ea18
ASN1_d2i_fp 0x0036ea88
ASN1_dup 0x0036ebbc
ASN1_item_dup 0x0036ec78
crl_inf_cb 0x0036ed70
d2i_X509_REVOKED 0x0036edc0
i2d_X509_REVOKED 0x0036edcc
X509_REVOKED_new 0x0036edd8
X509_REVOKED_free 0x0036ede4
d2i_X509_CRL_INFO 0x0036edf0
i2d_X509_CRL_INFO 0x0036edfc
X509_CRL_INFO_new 0x0036ee08
X509_CRL_INFO_free 0x0036ee14
d2i_X509_CRL 0x0036ee20
i2d_X509_CRL 0x0036ee2c
X509_CRL_new 0x0036ee38
X509_CRL_free 0x0036ee44
X509_CRL_dup 0x0036ee50
X509_REVOKED_cmp 0x0036ee60
X509_CRL_add0_revoked 0x0036ee74
d2i_X509_CINF 0x0036efec
i2d_X509_CINF 0x0036eff8
X509_CINF_new 0x0036f004
X509_CINF_free 0x0036f010
x509_cb 0x0036f01c
d2i_X509 0x0036f10c
i2d_X509 0x0036f118
X509_new 0x0036f124
X509_free 0x0036f130
X509_dup 0x0036f13c
X509_asn1_meth 0x0036f14c
X509_get_ex_new_index 0x0036f158
X509_set_ex_data 0x0036f174
X509_get_ex_data 0x0036f17c
d2i_X509_AUX 0x0036f184
i2d_X509_AUX 0x0036f1fc
d2i_X509_EXTENSION 0x0036f2bc
i2d_X509_EXTENSION 0x0036f2c8
X509_EXTENSION_new 0x0036f2d4
X509_EXTENSION_free 0x0036f2e0
d2i_X509_EXTENSIONS 0x0036f2ec
i2d_X509_EXTENSIONS 0x0036f2f8
X509_EXTENSION_dup 0x0036f304
d2i_X509_CERT_AUX 0x0036f354
i2d_X509_CERT_AUX 0x0036f360
X509_CERT_AUX_new 0x0036f36c
X509_CERT_AUX_free 0x0036f378
aux_get 0x0036f384
X509_alias_set1 0x0036f3e8
X509_keyid_set1 0x0036f49c
X509_alias_get0 0x0036f550
X509_keyid_get0 0x0036f588
X509_add1_trust_object 0x0036f5c0
X509_add1_reject_object 0x0036f650
X509_trust_clear 0x0036f6e0
X509_reject_clear 0x0036f738
d2i_X509_CERT_PAIR 0x0036f790
i2d_X509_CERT_PAIR 0x0036f79c
X509_CERT_PAIR_new 0x0036f7a8
X509_CERT_PAIR_free 0x0036f7b4
ASN1_tag2bit 0x0036f80c
asn1_ex_c2i 0x0036f830
collect_data 0x0036fbd4
asn1_check_eoc 0x0036fc58
asn1_check_tlen 0x0036fc94
asn1_collect 0x0036fed4
asn1_find_end 0x003700a4
asn1_d2i_ex_primitive 0x003701e4
asn1_template_ex_d2i 0x00370568
ASN1_item_ex_d2i 0x00370710
asn1_template_noexp_d2i 0x00370ebc
ASN1_template_d2i 0x003711ac
ASN1_item_d2i 0x003711d8
ASN1_seq_unpack 0x003712fc
ASN1_seq_pack 0x00371370
ASN1_unpack_string 0x00371454
ASN1_pack_string 0x003714c4
ASN1_item_pack 0x003715b4
ASN1_item_unpack 0x0037169c
ASN1_i2d_bio 0x003717a8
ASN1_i2d_fp 0x00371874
ASN1_item_i2d_bio 0x003718fc
ASN1_item_i2d_fp 0x003719ac
d2i_ASN1_TIME 0x00371a88
i2d_ASN1_TIME 0x00371a94
ASN1_TIME_new 0x00371aa0
ASN1_TIME_free 0x00371aac
ASN1_TIME_set 0x00371ab8
ASN1_TIME_check 0x00371b40
ASN1_TIME_to_generalizedtime 0x00371b84
d2i_PBE2PARAM 0x00371cec
i2d_PBE2PARAM 0x00371cf8
PBE2PARAM_new 0x00371d04
PBE2PARAM_free 0x00371d10
d2i_PBKDF2PARAM 0x00371d1c
i2d_PBKDF2PARAM 0x00371d28
PBKDF2PARAM_new 0x00371d34
PBKDF2PARAM_free 0x00371d40
PKCS5_pbe2_set 0x00371d4c
d2i_X509_NAME_ENTRY 0x00372114
i2d_X509_NAME_ENTRY 0x00372120
X509_NAME_ENTRY_new 0x0037212c
X509_NAME_ENTRY_free 0x00372138
X509_NAME_ENTRY_dup 0x00372144
d2i_X509_NAME 0x00372154
i2d_X509_NAME 0x00372160
X509_NAME_new 0x0037216c
X509_NAME_free 0x00372178
X509_NAME_dup 0x00372184
x509_name_ex_new 0x00372194
x509_name_ex_free 0x00372254
sk_internal_free 0x003722bc
x509_name_ex_d2i 0x003722c0
x509_name_encode 0x00372450
x509_name_ex_i2d 0x003725b0
X509_NAME_set 0x0037261c
ASN1_TYPE_get 0x00372738
ASN1_TYPE_set 0x00372760
ASN1_TYPE_set1 0x003727bc
X509_NAME_oneline 0x0037284c
policy_cache_create 0x00372c10
policy_cache_free 0x00372d68
policy_cache_find_data 0x00372dc4
policy_data_cmp 0x00372e18
policy_cache_set_int 0x00372e2c
policy_cache_new 0x00372e80
policy_cache_set 0x00373044
policy_data_free 0x0037310c
policy_data_new 0x0037316c
POLICY_CONSTRAINTS_new 0x003732c4
POLICY_CONSTRAINTS_free 0x003732d0
i2v_POLICY_CONSTRAINTS 0x003732dc
v2i_POLICY_CONSTRAINTS 0x00373334
ref_cmp 0x00373590
policy_map_free 0x003735a4
policy_map_find 0x003735e0
policy_cache_set_mapping 0x00373634
d2i_AUTHORITY_KEYID 0x0037388c
i2d_AUTHORITY_KEYID 0x00373898
AUTHORITY_KEYID_new 0x003738a4
AUTHORITY_KEYID_free 0x003738b0
d2i_OTHERNAME 0x003738e0
i2d_OTHERNAME 0x003738ec
OTHERNAME_new 0x003738f8
OTHERNAME_free 0x00373904
d2i_EDIPARTYNAME 0x00373910
i2d_EDIPARTYNAME 0x0037391c
EDIPARTYNAME_new 0x00373928
EDIPARTYNAME_free 0x00373934
d2i_GENERAL_NAME 0x00373940
i2d_GENERAL_NAME 0x0037394c
GENERAL_NAME_new 0x00373958
GENERAL_NAME_free 0x00373964
d2i_GENERAL_NAMES 0x00373970
i2d_GENERAL_NAMES 0x0037397c
GENERAL_NAMES_new 0x00373988
GENERAL_NAMES_free 0x00373994
d2i_CERTIFICATEPOLICIES 0x00373a8c
i2d_CERTIFICATEPOLICIES 0x00373a98
CERTIFICATEPOLICIES_new 0x00373aa4
CERTIFICATEPOLICIES_free 0x00373ab0
d2i_POLICYINFO 0x00373abc
i2d_POLICYINFO 0x00373ac8
POLICYINFO_new 0x00373ad4
POLICYINFO_free 0x00373ae0
d2i_POLICYQUALINFO 0x00373aec
i2d_POLICYQUALINFO 0x00373af8
POLICYQUALINFO_new 0x00373b04
POLICYQUALINFO_free 0x00373b10
d2i_USERNOTICE 0x00373b1c
i2d_USERNOTICE 0x00373b28
USERNOTICE_new 0x00373b34
USERNOTICE_free 0x00373b40
d2i_NOTICEREF 0x00373b4c
i2d_NOTICEREF 0x00373b58
NOTICEREF_new 0x00373b64
NOTICEREF_free 0x00373b70
nref_nos 0x00373b7c
notice_section 0x00373c44
policy_section 0x00373ee4
r2i_certpol 0x0037416c
print_notice 0x003743b4
print_qualifiers 0x00374500
i2r_certpol 0x00374614
X509_POLICY_NODE_print 0x003746cc
POLICY_MAPPING_new 0x00374a14
POLICY_MAPPING_free 0x00374a20
i2v_POLICY_MAPPINGS 0x00374a2c
v2i_POLICY_MAPPINGS 0x00374ab8
X509V3_add_value 0x00374d5c
X509V3_add_value_uchar 0x00374e68
X509V3_conf_free 0x00374e6c
X509V3_add_value_bool 0x00374ed0
X509V3_add_value_bool_nf 0x00374ef0
i2s_ASN1_ENUMERATED 0x00374f0c
i2s_ASN1_INTEGER 0x00374f90
s2i_ASN1_INTEGER 0x00375014
X509V3_add_value_int 0x00375190
X509V3_get_value_bool 0x003751f8
X509V3_get_value_int 0x003753ac
strip_spaces 0x00375434
X509V3_parse_list 0x003754f8
hex_to_string 0x003756cc
string_to_hex 0x003757b0
name_cmp 0x0037595c
sk_strcmp 0x003759c4
str_free 0x003759d0
X509_email_free 0x003759d4
append_ia5 0x003759e0
X509_get1_ocsp 0x00375abc
get_email 0x00375b70
X509_REQ_get1_email 0x00375c40
X509_get1_email 0x00375cb0
ipv4_from_asc 0x00375d1c
ipv6_from_asc 0x00375dec
a2i_ipadd 0x00375f4c
a2i_IPADDRESS 0x00375fc0
a2i_IPADDRESS_NC 0x00376038
ipv6_hex 0x00376114
ipv6_cb 0x003761b8
X509V3_NAME_from_section 0x003762b8
module_add 0x003764b4
module_load_dso 0x00376560
module_find 0x0037665c
module_init 0x003766f4
module_run 0x00376868
CONF_modules_load 0x00376994
module_free 0x00376a78
module_finish 0x00376abc
CONF_modules_finish 0x00376b28
CONF_modules_unload 0x00376b70
CONF_module_add 0x00376c0c
CONF_modules_free 0x00376c44
CONF_imodule_get_name 0x00376c68
CONF_imodule_get_value 0x00376c70
CONF_imodule_get_usr_data 0x00376c78
CONF_imodule_set_usr_data 0x00376c80
CONF_imodule_get_module 0x00376c88
CONF_imodule_get_flags 0x00376c90
CONF_imodule_set_flags 0x00376c98
CONF_module_get_usr_data 0x00376ca0
CONF_module_set_usr_data 0x00376ca8
CONF_get1_default_config_file 0x00376cb0
CONF_modules_load_file 0x00376d78
CONF_parse_list 0x00376e3c
PKCS12_item_pack_safebag 0x00377058
PKCS12_MAKE_KEYBAG 0x00377124
PKCS12_MAKE_SHKEYBAG 0x00377198
PKCS12_pack_p7data 0x00377248
PKCS12_unpack_p7data 0x00377318
PKCS12_pack_p7encdata 0x00377384
PKCS12_unpack_p7encdata 0x003774d0
PKCS12_decrypt_skey 0x00377534
PKCS12_pack_authsafes 0x0037753c
PKCS12_unpack_authsafes 0x0037757c
d2i_PKCS12 0x00377698
i2d_PKCS12 0x003776a4
PKCS12_new 0x003776b0
PKCS12_free 0x003776bc
d2i_PKCS12_MAC_DATA 0x003776c8
i2d_PKCS12_MAC_DATA 0x003776d4
PKCS12_MAC_DATA_new 0x003776e0
PKCS12_MAC_DATA_free 0x003776ec
d2i_PKCS12_BAGS 0x003776f8
i2d_PKCS12_BAGS 0x00377704
PKCS12_BAGS_new 0x00377710
PKCS12_BAGS_free 0x0037771c
d2i_PKCS12_SAFEBAG 0x00377728
i2d_PKCS12_SAFEBAG 0x00377734
PKCS12_SAFEBAG_new 0x00377740
PKCS12_SAFEBAG_free 0x0037774c
PKCS12_pbe_crypt 0x00377848
PKCS12_item_decrypt_d2i 0x003779a0
PKCS12_item_i2d_encrypt 0x00377a74
PKCS8_decrypt 0x00377bf0
PKCS8_encrypt 0x00377c20
app_info_free 0x00377da8
CRYPTO_mem_ctrl 0x00377df8
CRYPTO_is_mem_check_on 0x00377f7c
CRYPTO_dbg_set_options 0x00378008
CRYPTO_dbg_get_options 0x00378010
mem_cmp 0x00378018
mem_hash 0x00378028
app_info_cmp 0x0037804c
app_info_hash 0x00378064
pop_info 0x00378088
CRYPTO_dbg_push_info 0x0037813c
CRYPTO_dbg_pop_info 0x00378214
CRYPTO_dbg_remove_all_info 0x00378268
CRYPTO_dbg_malloc 0x003782c4
CRYPTO_dbg_free 0x00378448
CRYPTO_dbg_realloc 0x003784dc
print_leak 0x00378580
print_leak_LHASH_DOALL_ARG 0x003787ac
CRYPTO_mem_leaks 0x003787b0
CRYPTO_mem_leaks_fp 0x003788e0
cb_leak 0x00378964
cb_leak_LHASH_DOALL_ARG 0x003789b4
CRYPTO_mem_leaks_cb 0x003789b8
CRYPTO_malloc_debug_init 0x00378a28
CRYPTO_strdup 0x00378a88
OPENSSL_gmtime 0x00378bb8
MD2_options 0x00378be8
MD2_Init 0x00378bf4
md2_block 0x00378c54
MD2_Update 0x00378dd4
MD2_Final 0x00378e94
MD4_Init 0x00378f58
md4_block_data_order 0x00378fa0
MD4_Final 0x00379a08
MD4_Transform 0x00379b68
MD4_Update 0x00379b70
SHA_Init 0x00379c94
sha_block_data_order 0x00379ce8
SHA_Final 0x0037b8f4
SHA_Transform 0x0037ba74
SHA_Update 0x0037ba7c
SHA224_Init 0x0037bba0
SHA256_Init 0x0037bc20
sha256_block_data_order 0x0037bca0
SHA256_Final 0x0037dc60
SHA224_Final 0x0037de20
SHA256_Transform 0x0037de24
SHA256_Update 0x0037de2c
SHA224 0x0037df50
SHA256 0x0037dfc0
SHA224_Update 0x0037e030
SHA384_Init 0x0037e034
SHA512_Init 0x0037e11c
sha512_block_data_order 0x0037e204
SHA512_Transform 0x00380ac0
SHA512_Update 0x00380ac8
SHA384_Update 0x00380c20
SHA512_Final 0x00380c24
SHA512 0x00380dc0
SHA384 0x00380e34
SHA384_Final 0x00380ea8
HMAC_Init_ex 0x00380eac
HMAC_Update 0x0038105c
HMAC_Final 0x00381064
HMAC_CTX_init 0x003810cc
HMAC_Init 0x00381108
HMAC_CTX_cleanup 0x00381168
HMAC 0x003811b4
HMAC_CTX_set_flags 0x0038123c
DES_encrypt1 0x0038131c
DES_encrypt2 0x00382874
DES_encrypt3 0x00383c50
DES_decrypt3 0x00383dd0
DES_ncbc_encrypt 0x00383f54
DES_ede3_cbc_encrypt 0x003843e8
DES_set_odd_parity 0x003848c4
DES_check_key_parity 0x003848ec
DES_is_weak_key 0x00384924
DES_set_key_unchecked 0x0038497c
DES_set_key_checked 0x00384bf0
DES_set_key 0x00384c60
DES_key_sched 0x00384c98
DES_ecb_encrypt 0x00384c9c
DES_ecb3_encrypt 0x00384d78
DES_cfb64_encrypt 0x00384e5c
DES_ede3_cfb64_encrypt 0x00385080
DES_ede3_cfb_encrypt 0x003852b8
DES_cfb_encrypt 0x00385934
DES_ede3_ofb64_encrypt 0x00385f84
DES_ofb64_encrypt 0x00386134
DES_xcbc_encrypt 0x003862e0
RC2_ecb_encrypt 0x003868a8
RC2_set_key 0x00386990
RC2_encrypt 0x00386ac0
RC2_decrypt 0x00386bfc
RC2_cbc_encrypt 0x00386d68
RC2_cfb64_encrypt 0x003871ec
RC2_ofb64_encrypt 0x00387408
RC4_options 0x003875b0
RC4_set_key 0x003875bc
RSA_public_encrypt 0x0038770c
RSA_private_encrypt 0x00387740
RSA_private_decrypt 0x00387774
RSA_public_decrypt 0x003877a8
RSA_size 0x003877dc
RSA_blinding_off 0x0038780c
rsa_get_public_exp 0x0038785c
RSA_setup_blinding 0x0038794c
RSA_blinding_on 0x00387b20
sig_cb 0x00387bd4
d2i_DSA_SIG 0x00387c60
i2d_DSA_SIG 0x00387c6c
dsa_cb 0x00387c78
d2i_DSAPrivateKey 0x00387ce4
i2d_DSAPrivateKey 0x00387cf0
d2i_DSAparams 0x00387cfc
i2d_DSAparams 0x00387d08
d2i_DSAPublicKey 0x00387d14
i2d_DSAPublicKey 0x00387d20
DSA_sign 0x00387d2c
DSA_size 0x00387d9c
DSA_verify 0x00387e04
DSA_do_verify 0x00387f00
DSA_do_sign 0x00387f34
DSA_sign_setup 0x00387f68
DSA_SIG_new 0x00387f9c
DSA_SIG_free 0x00387fe8
DSO_METHOD_null 0x0038808c
ENGINE_get_table_flags 0x003880b4
ENGINE_set_table_flags 0x003880bc
engine_pile_cmp 0x003880c4
engine_pile_hash_LHASH_HASH 0x003880d4
engine_pile_cmp_LHASH_COMP 0x003880dc
int_table_check 0x003880e0
engine_table_register 0x00388150
int_unregister_cb 0x00388308
int_unregister_cb_LHASH_DOALL_ARG 0x00388374
engine_table_unregister 0x00388378
int_cleanup_cb 0x00388400
int_cleanup_cb_LHASH_DOALL 0x00388448
engine_table_cleanup 0x0038844c
engine_table_select 0x003884c8
ENGINE_unregister_digests 0x00388688
engine_unregister_all_digests 0x00388694
ENGINE_register_digests 0x0038869c
ENGINE_register_all_digests 0x00388708
ENGINE_set_default_digests 0x00388748
ENGINE_get_digest_engine 0x003887b4
ENGINE_get_digests 0x003887c0
ENGINE_get_digest 0x003887c8
ENGINE_set_digests 0x0038883c
AES_ecb_encrypt 0x003888a0
AES_cfb128_encrypt 0x003888d0
AES_cfbr_encrypt_block 0x003889ac
AES_cfb1_encrypt 0x00388af8
AES_cfb8_encrypt 0x00388bc4
AES_ofb128_encrypt 0x00388c24
BUF_MEM_new 0x00388ca0
BUF_MEM_free 0x00388d0c
BUF_MEM_grow 0x00388d60
BUF_MEM_grow_clean 0x00388e34
RAND_query_egd_bytes 0x00388f78
RAND_egd 0x00388f80
RAND_egd_bytes 0x00388f88
ASN1_UTCTIME_check 0x00388f90
ASN1_UTCTIME_set_string 0x00389134
ASN1_UTCTIME_set 0x003891b4
ASN1_UTCTIME_cmp_time_t 0x003892d8
pubkey_cb 0x00389524
d2i_X509_PUBKEY 0x00389558
i2d_X509_PUBKEY 0x00389564
X509_PUBKEY_new 0x00389570
X509_PUBKEY_free 0x0038957c
X509_PUBKEY_set 0x00389588
X509_PUBKEY_get 0x00389840
d2i_PUBKEY 0x00389a0c
i2d_PUBKEY 0x00389a80
d2i_RSA_PUBKEY 0x00389b08
i2d_RSA_PUBKEY 0x00389b8c
d2i_DSA_PUBKEY 0x00389c0c
i2d_DSA_PUBKEY 0x00389c90
ASN1_OCTET_STRING_dup 0x00389dd4
ASN1_OCTET_STRING_cmp 0x00389dd8
ASN1_OCTET_STRING_set 0x00389ddc
d2i_X509_ATTRIBUTE 0x00389de0
i2d_X509_ATTRIBUTE 0x00389dec
X509_ATTRIBUTE_new 0x00389df8
X509_ATTRIBUTE_free 0x00389e04
X509_ATTRIBUTE_dup 0x00389e10
X509_ATTRIBUTE_create 0x00389e20
bn_new 0x00389f10
bn_free 0x00389f48
bn_i2c 0x00389f9c
bn_c2i 0x0038a020
d2i_X509_VAL 0x0038a094
i2d_X509_VAL 0x0038a0a0
X509_VAL_new 0x0038a0ac
X509_VAL_free 0x0038a0b8
SetBlobCmp 0x0038a0e0
i2d_ASN1_SET 0x0038a13c
d2i_ASN1_SET 0x0038a3c8
i2d_PublicKey 0x0038a6d8
ASN1_ENUMERATED_set 0x0038a794
ASN1_ENUMERATED_get 0x0038a8bc
BN_to_ASN1_ENUMERATED 0x0038a954
ASN1_ENUMERATED_to_BN 0x0038aa58
ASN1_GENERALIZEDTIME_check 0x0038ab78
ASN1_GENERALIZEDTIME_set_string 0x0038ad70
ASN1_GENERALIZEDTIME_set 0x0038adf0
long_new 0x0038af74
long_free 0x0038af84
long_i2c 0x0038af90
long_c2i 0x0038b084
d2i_PublicKey 0x0038b20c
pkey_cb 0x0038b3e0
d2i_PKCS8_PRIV_KEY_INFO 0x0038b430
i2d_PKCS8_PRIV_KEY_INFO 0x0038b43c
PKCS8_PRIV_KEY_INFO_new 0x0038b448
PKCS8_PRIV_KEY_INFO_free 0x0038b454
X509_get_default_private_dir 0x0038b494
X509_get_default_cert_area 0x0038b4a0
X509_get_default_cert_dir 0x0038b4ac
X509_get_default_cert_file 0x0038b4b8
X509_get_default_cert_dir_env 0x0038b4c4
X509_get_default_cert_file_env 0x0038b4d0
X509_issuer_and_serial_hash 0x0038b54c
X509_get_issuer_name 0x0038b618
X509_get_subject_name 0x0038b624
X509_get_serialNumber 0x0038b630
X509_cmp 0x0038b63c
nocase_cmp 0x0038b698
nocase_spacenorm_cmp 0x0038b71c
asn1_string_memcmp 0x0038b8a0
X509_NAME_cmp 0x0038b8e0
X509_CRL_cmp 0x0038ba8c
X509_subject_name_cmp 0x0038baa0
X509_issuer_name_cmp 0x0038bab4
X509_issuer_and_serial_cmp 0x0038bac8
X509_NAME_hash 0x0038bb0c
X509_subject_name_hash 0x0038bbb8
X509_issuer_name_hash 0x0038bbc4
X509_find_by_issuer_and_serial 0x0038bbd0
X509_find_by_subject 0x0038bc50
X509_get_pubkey 0x0038bcc8
X509_get0_pubkey_bitstr 0x0038bcec
X509_check_private_key 0x0038bd0c
X509_to_X509_REQ 0x0038be14
X509_REQ_get_pubkey 0x0038bf14
X509_REQ_check_private_key 0x0038bf38
X509_REQ_extension_nid 0x0038bfec
X509_REQ_get_extension_nids 0x0038c024
X509_REQ_set_extension_nids 0x0038c02c
X509_REQ_add_extensions_nid 0x0038c034
X509_REQ_add_extensions 0x0038c17c
X509_REQ_get_attr_count 0x0038c184
X509_REQ_get_attr_by_NID 0x0038c190
X509_REQ_get_attr_by_OBJ 0x0038c19c
X509_REQ_get_attr 0x0038c1a8
X509_REQ_get_extensions 0x0038c1b4
X509_REQ_delete_attr 0x0038c2c4
X509_REQ_add1_attr 0x0038c2d0
X509_REQ_add1_attr_by_OBJ 0x0038c300
X509_REQ_add1_attr_by_NID 0x0038c330
X509_REQ_add1_attr_by_txt 0x0038c360
X509_REQ_set_version 0x0038c3e4
X509_REQ_set_subject_name 0x0038c400
X509_REQ_set_pubkey 0x0038c424
X509_NAME_entry_count 0x0038c448
X509_NAME_get_index_by_OBJ 0x0038c460
X509_NAME_get_index_by_NID 0x0038c4e0
X509_NAME_get_entry 0x0038c538
X509_NAME_delete_entry 0x0038c59c
X509_NAME_add_entry 0x0038c684
X509_NAME_ENTRY_set_object 0x0038c7fc
X509_NAME_ENTRY_set_data 0x0038c880
X509_NAME_ENTRY_create_by_OBJ 0x0038c964
X509_NAME_add_entry_by_OBJ 0x0038ca20
X509_NAME_ENTRY_create_by_txt 0x0038ca80
X509_NAME_add_entry_by_txt 0x0038cb24
X509_NAME_ENTRY_create_by_NID 0x0038cb84
X509_NAME_add_entry_by_NID 0x0038cc08
X509_NAME_ENTRY_get_object 0x0038cc68
X509_NAME_ENTRY_get_data 0x0038cc80
X509_NAME_get_text_by_OBJ 0x0038cc98
X509_NAME_get_text_by_NID 0x0038cd30
X509_CRL_get_ext_count 0x0038cdd4
X509_CRL_get_ext_by_NID 0x0038cde0
X509_CRL_get_ext_by_OBJ 0x0038cdec
X509_CRL_get_ext_by_critical 0x0038cdf8
X509_CRL_get_ext 0x0038ce04
X509_CRL_delete_ext 0x0038ce10
X509_CRL_get_ext_d2i 0x0038ce1c
X509_CRL_add1_ext_i2d 0x0038ce28
X509_CRL_add_ext 0x0038ce34
X509_get_ext_count 0x0038ce64
X509_get_ext_by_NID 0x0038ce70
X509_get_ext_by_OBJ 0x0038ce7c
X509_get_ext_by_critical 0x0038ce88
X509_get_ext 0x0038ce94
X509_delete_ext 0x0038cea0
X509_add_ext 0x0038ceac
X509_get_ext_d2i 0x0038cedc
X509_add1_ext_i2d 0x0038cee8
X509_REVOKED_get_ext_count 0x0038cef4
X509_REVOKED_get_ext_by_NID 0x0038cefc
X509_REVOKED_get_ext_by_OBJ 0x0038cf04
X509_REVOKED_get_ext_by_critical 0x0038cf0c
X509_REVOKED_get_ext 0x0038cf14
X509_REVOKED_delete_ext 0x0038cf1c
X509_REVOKED_add_ext 0x0038cf24
X509_REVOKED_get_ext_d2i 0x0038cf50
X509_REVOKED_add1_ext_i2d 0x0038cf58
X509at_get_attr_count 0x0038cf60
X509at_get_attr_by_OBJ 0x0038cf64
X509at_get_attr_by_NID 0x0038cfec
X509at_get_attr 0x0038d044
X509at_delete_attr 0x0038d0a4
X509at_add1_attr 0x0038d104
X509_ATTRIBUTE_set1_object 0x0038d1e4
X509_ATTRIBUTE_set1_data 0x0038d248
X509_ATTRIBUTE_create_by_OBJ 0x0038d394
X509_ATTRIBUTE_create_by_txt 0x0038d46c
X509at_add1_attr_by_txt 0x0038d510
X509at_add1_attr_by_OBJ 0x0038d574
X509_ATTRIBUTE_create_by_NID 0x0038d5d8
X509at_add1_attr_by_NID 0x0038d660
X509_ATTRIBUTE_count 0x0038d6c4
X509_ATTRIBUTE_get0_object 0x0038d6e8
X509_ATTRIBUTE_get0_type 0x0038d700
X509_ATTRIBUTE_get0_data 0x0038d768
X509at_get0_data_by_OBJ 0x0038d7e0
X509_verify 0x0038d8e0
X509_REQ_verify 0x0038d910
X509_CRL_verify 0x0038d940
NETSCAPE_SPKI_verify 0x0038d970
X509_sign 0x0038d9a0
X509_REQ_sign 0x0038d9d4
X509_CRL_sign 0x0038da0c
NETSCAPE_SPKI_sign 0x0038da48
d2i_X509_fp 0x0038da80
i2d_X509_fp 0x0038da98
d2i_X509_bio 0x0038dab0
i2d_X509_bio 0x0038dac8
d2i_X509_CRL_fp 0x0038dae0
i2d_X509_CRL_fp 0x0038daf8
d2i_X509_CRL_bio 0x0038db10
i2d_X509_CRL_bio 0x0038db28
d2i_PKCS7_fp 0x0038db40
i2d_PKCS7_fp 0x0038db58
d2i_PKCS7_bio 0x0038db70
i2d_PKCS7_bio 0x0038db88
d2i_X509_REQ_fp 0x0038dba0
i2d_X509_REQ_fp 0x0038dbb8
d2i_X509_REQ_bio 0x0038dbd0
i2d_X509_REQ_bio 0x0038dbe8
d2i_RSAPrivateKey_fp 0x0038dc00
i2d_RSAPrivateKey_fp 0x0038dc18
d2i_RSAPublicKey_fp 0x0038dc30
d2i_RSA_PUBKEY_fp 0x0038dc48
i2d_RSAPublicKey_fp 0x0038dc64
i2d_RSA_PUBKEY_fp 0x0038dc7c
d2i_RSAPrivateKey_bio 0x0038dc94
i2d_RSAPrivateKey_bio 0x0038dcac
d2i_RSAPublicKey_bio 0x0038dcc4
d2i_RSA_PUBKEY_bio 0x0038dcdc
i2d_RSAPublicKey_bio 0x0038dcf8
i2d_RSA_PUBKEY_bio 0x0038dd10
d2i_DSAPrivateKey_fp 0x0038dd28
i2d_DSAPrivateKey_fp 0x0038dd44
d2i_DSA_PUBKEY_fp 0x0038dd5c
i2d_DSA_PUBKEY_fp 0x0038dd78
d2i_DSAPrivateKey_bio 0x0038dd90
i2d_DSAPrivateKey_bio 0x0038ddac
d2i_DSA_PUBKEY_bio 0x0038ddc4
i2d_DSA_PUBKEY_bio 0x0038dde0
X509_pubkey_digest 0x0038ddf8
X509_digest 0x0038de4c
X509_CRL_digest 0x0038de68
X509_REQ_digest 0x0038de84
X509_NAME_digest 0x0038dea0
PKCS7_ISSUER_AND_SERIAL_digest 0x0038debc
d2i_PKCS8_fp 0x0038ded8
i2d_PKCS8_fp 0x0038def4
d2i_PKCS8_bio 0x0038df0c
i2d_PKCS8_bio 0x0038df28
d2i_PKCS8_PRIV_KEY_INFO_fp 0x0038df40
i2d_PKCS8_PRIV_KEY_INFO_fp 0x0038df5c
i2d_PKCS8PrivateKeyInfo_fp 0x0038df74
i2d_PrivateKey_fp 0x0038dfd8
d2i_PrivateKey_fp 0x0038dff0
i2d_PUBKEY_fp 0x0038e00c
d2i_PUBKEY_fp 0x0038e024
d2i_PKCS8_PRIV_KEY_INFO_bio 0x0038e040
i2d_PKCS8_PRIV_KEY_INFO_bio 0x0038e05c
i2d_PKCS8PrivateKeyInfo_bio 0x0038e074
i2d_PrivateKey_bio 0x0038e0d8
d2i_PrivateKey_bio 0x0038e0f0
i2d_PUBKEY_bio 0x0038e10c
d2i_PUBKEY_bio 0x0038e124
d2i_ACCESS_DESCRIPTION 0x0038e140
i2d_ACCESS_DESCRIPTION 0x0038e14c
ACCESS_DESCRIPTION_new 0x0038e158
ACCESS_DESCRIPTION_free 0x0038e164
d2i_AUTHORITY_INFO_ACCESS 0x0038e170
i2d_AUTHORITY_INFO_ACCESS 0x0038e17c
AUTHORITY_INFO_ACCESS_new 0x0038e188
AUTHORITY_INFO_ACCESS_free 0x0038e194
i2v_AUTHORITY_INFO_ACCESS 0x0038e1a0
v2i_AUTHORITY_INFO_ACCESS 0x0038e2dc
i2a_ACCESS_DESCRIPTION 0x0038e4d0
xp_cmp 0x0038e5f0
X509_PURPOSE_get_count 0x0038e608
X509_PURPOSE_get0 0x0038e640
X509_PURPOSE_get_by_sname 0x0038e678
X509_PURPOSE_get_by_id 0x0038e6f0
X509_PURPOSE_set 0x0038e754
X509_PURPOSE_add 0x0038e7c4
xptable_free 0x0038e928
X509_PURPOSE_cleanup 0x0038e980
X509_PURPOSE_get_id 0x0038e9e4
X509_PURPOSE_get0_name 0x0038e9ec
X509_PURPOSE_get0_sname 0x0038e9f4
X509_PURPOSE_get_trust 0x0038e9fc
nid_cmp 0x0038ea04
X509_supported_extension 0x0038ea14
x509v3_cache_extensions 0x0038ea78
X509_check_purpose 0x0038eeb0
check_ca 0x0038ef58
X509_check_ca 0x0038efd0
check_ssl_ca 0x0038f040
check_purpose_ssl_client 0x0038f088
check_purpose_ssl_server 0x0038f114
check_purpose_ns_ssl_server 0x0038f1a0
purpose_smime 0x0038f1f4
check_purpose_smime_sign 0x0038f2a0
check_purpose_smime_encrypt 0x0038f2fc
check_purpose_crl_sign 0x0038f358
ocsp_helper 0x0038f3bc
no_check 0x0038f3d4
X509_check_issued 0x0038f3dc
X509V3_EXT_add 0x0038f6e0
ext_cmp 0x0038f774
X509V3_EXT_get_nid 0x0038f78c
X509V3_EXT_get 0x0038f834
X509V3_EXT_add_list 0x0038f874
X509V3_EXT_add_alias 0x0038f8d0
X509V3_EXT_cleanup 0x0038f9ac
ext_list_free 0x0038f9e0
X509V3_add_standard_extensions 0x0038f9f4
X509V3_EXT_d2i 0x0038f9fc
X509V3_get_d2i 0x0038fa84
X509V3_add1_i2d 0x0038fb90
i2s_ASN1_OCTET_STRING 0x0038fdbc
s2i_ASN1_OCTET_STRING 0x0038fdd4
s2i_skey_id 0x0038fe6c
do_ext_i2d 0x00390078
do_ext_nconf 0x00390180
X509V3_EXT_i2d 0x003903ec
v3_check_critical 0x00390450
v3_check_generic 0x003904e0
generic_asn1 0x003905a0
v3_generic_extension 0x00390604
X509V3_EXT_nconf 0x00390770
X509V3_EXT_nconf_nid 0x00390838
X509V3_EXT_add_nconf_sk 0x003908b4
X509V3_EXT_add_nconf 0x00390968
X509V3_EXT_CRL_add_nconf 0x00390984
X509V3_EXT_REQ_add_nconf 0x003909a0
X509V3_get_string 0x00390a14
X509V3_get_section 0x00390a90
X509V3_string_free 0x00390b0c
X509V3_section_free 0x00390b54
nconf_get_string 0x00390b9c
nconf_get_section 0x00390ba0
X509V3_set_nconf 0x00390ba4
X509V3_set_ctx 0x00390bb8
X509V3_EXT_conf 0x00390bd0
X509V3_EXT_conf_nid 0x00390c18
conf_lhash_get_string 0x00390c60
conf_lhash_get_section 0x00390c64
X509V3_set_conf_lhash 0x00390c68
X509V3_EXT_add_conf 0x00390c7c
X509V3_EXT_CRL_add_conf 0x00390cc4
X509V3_EXT_REQ_add_conf 0x00390d0c
GENERAL_SUBTREE_new 0x00390ddc
GENERAL_SUBTREE_free 0x00390de8
NAME_CONSTRAINTS_new 0x00390df4
NAME_CONSTRAINTS_free 0x00390e00
v2i_NAME_CONSTRAINTS 0x00390e0c
print_nc_ipadd 0x00390fd8
do_i2r_name_constraints 0x003910d8
i2r_NAME_CONSTRAINTS 0x003911d4
d2i_PKEY_USAGE_PERIOD 0x00391348
i2d_PKEY_USAGE_PERIOD 0x00391354
PKEY_USAGE_PERIOD_new 0x00391360
PKEY_USAGE_PERIOD_free 0x0039136c
i2r_PKEY_USAGE_PERIOD 0x00391378
d2i_SXNETID 0x00391494
i2d_SXNETID 0x003914a0
SXNETID_new 0x003914ac
SXNETID_free 0x003914b8
d2i_SXNET 0x003914c4
i2d_SXNET 0x003914d0
SXNET_new 0x003914dc
SXNET_free 0x003914e8
sxnet_i2r 0x003914f4
SXNET_get_id_INTEGER 0x003915cc
SXNET_get_id_ulong 0x00391644
SXNET_get_id_asc 0x003916cc
SXNET_add_id_INTEGER 0x0039174c
SXNET_add_id_asc 0x00391908
sxnet_v2i 0x00391970
SXNET_add_id_ulong 0x003919ec
i2v_GENERAL_NAME 0x00391b1c
i2v_GENERAL_NAMES 0x00391d28
GENERAL_NAME_print 0x00391da8
copy_issuer 0x00391f74
copy_email 0x003920b8
do_othername 0x00392218
do_dirname 0x003922fc
v2i_GENERAL_NAME_ex 0x003923b4
v2i_GENERAL_NAME 0x003926c4
v2i_GENERAL_NAMES 0x003926dc
v2i_subject_alt 0x003927a0
v2i_issuer_alt 0x00392900
i2s_ASN1_IA5STRING 0x00392c40
s2i_ASN1_IA5STRING 0x00392ce4
i2r_ocsp_crlid 0x00392e28
i2r_ocsp_acutoff 0x00392f84
i2r_object 0x00393000
ocsp_nonce_new 0x0039307c
i2d_ocsp_nonce 0x00393080
d2i_ocsp_nonce 0x003930dc
ocsp_nonce_free 0x00393194
i2r_ocsp_nonce 0x00393198
i2r_ocsp_nocheck 0x0039321c
s2i_ocsp_nocheck 0x00393224
i2r_ocsp_serviceloc 0x00393228
CONF_set_nconf 0x003933d4
CONF_set_default_method 0x00393434
NCONF_new 0x00393440
NCONF_free 0x003934ac
NCONF_free_data 0x003934e8
CONF_free 0x00393524
NCONF_load 0x00393554
NCONF_load_bio 0x003935b4
NCONF_load_fp 0x00393614
CONF_load_bio 0x0039368c
CONF_load 0x003936f4
CONF_load_fp 0x00393770
NCONF_get_section 0x003937e8
CONF_get_section 0x00393860
NCONF_get_string 0x003938b0
CONF_get_string 0x00393940
NCONF_get_number_e 0x003939a0
CONF_get_number 0x00393a70
NCONF_dump_bio 0x00393af0
NCONF_dump_fp 0x00393b50
CONF_dump_bio 0x00393bd4
CONF_dump_fp 0x00393c18
_CONF_get_section 0x00393d00
_CONF_get_section_values 0x00393d4c
_CONF_add_string 0x00393d80
_CONF_get_string 0x00393e04
_CONF_new_data 0x00393ed0
_CONF_free_data 0x00393f3c
value_free_hash 0x00393fb8
value_free_hash_LHASH_DOALL_ARG 0x00393fd8
value_free_stack 0x00393fdc
value_free_stack_LHASH_DOALL_ARG 0x0039406c
hash 0x00394070
cmp_conf 0x003940bc
_CONF_new_section 0x0039414c
NCONF_default 0x00394270
NCONF_WIN32 0x0039427c
def_create 0x00394288
def_init_default 0x003942f8
def_init_WIN32 0x00394330
def_destroy_data 0x00394368
def_destroy 0x0039439c
str_copy 0x003943e4
eat_ws 0x003947d8
eat_alpha_numeric 0x00394820
scan_quote 0x00394880
scan_dquote 0x003948e8
clear_comments 0x0039493c
def_load_bio 0x00394a7c
def_load 0x003950bc
dump_value 0x0039515c
dump_value_LHASH_DOALL_ARG 0x003951c8
def_dump 0x003951cc
def_is_number 0x00395200
def_to_int 0x00395214
d2i_PKCS7 0x00395300
i2d_PKCS7 0x0039530c
PKCS7_new 0x00395318
PKCS7_free 0x00395324
i2d_PKCS7_NDEF 0x00395330
PKCS7_dup 0x0039533c
d2i_PKCS7_SIGNED 0x0039534c
i2d_PKCS7_SIGNED 0x00395358
PKCS7_SIGNED_new 0x00395364
PKCS7_SIGNED_free 0x00395370
si_cb 0x0039537c
d2i_PKCS7_SIGNER_INFO 0x003953b0
i2d_PKCS7_SIGNER_INFO 0x003953bc
PKCS7_SIGNER_INFO_new 0x003953c8
PKCS7_SIGNER_INFO_free 0x003953d4
d2i_PKCS7_ISSUER_AND_SERIAL 0x003953e0
i2d_PKCS7_ISSUER_AND_SERIAL 0x003953ec
PKCS7_ISSUER_AND_SERIAL_new 0x003953f8
PKCS7_ISSUER_AND_SERIAL_free 0x00395404
d2i_PKCS7_ENVELOPE 0x00395410
i2d_PKCS7_ENVELOPE 0x0039541c
PKCS7_ENVELOPE_new 0x00395428
PKCS7_ENVELOPE_free 0x00395434
ri_cb 0x00395440
d2i_PKCS7_RECIP_INFO 0x00395474
i2d_PKCS7_RECIP_INFO 0x00395480
PKCS7_RECIP_INFO_new 0x0039548c
PKCS7_RECIP_INFO_free 0x00395498
d2i_PKCS7_ENC_CONTENT 0x003954a4
i2d_PKCS7_ENC_CONTENT 0x003954b0
PKCS7_ENC_CONTENT_new 0x003954bc
PKCS7_ENC_CONTENT_free 0x003954c8
d2i_PKCS7_SIGN_ENVELOPE 0x003954d4
i2d_PKCS7_SIGN_ENVELOPE 0x003954e0
PKCS7_SIGN_ENVELOPE_new 0x003954ec
PKCS7_SIGN_ENVELOPE_free 0x003954f8
d2i_PKCS7_ENCRYPT 0x00395504
i2d_PKCS7_ENCRYPT 0x00395510
PKCS7_ENCRYPT_new 0x0039551c
PKCS7_ENCRYPT_free 0x00395528
d2i_PKCS7_DIGEST 0x00395534
i2d_PKCS7_DIGEST 0x00395540
PKCS7_DIGEST_new 0x0039554c
PKCS7_DIGEST_free 0x00395558
PKCS7_ctrl 0x00395760
PKCS7_set_content 0x00395868
PKCS7_set_type 0x00395920
PKCS7_content_new 0x00395b10
PKCS7_set0_type_other 0x00395b7c
PKCS7_add_signer 0x00395bc4
PKCS7_add_certificate 0x00395d20
PKCS7_add_crl 0x00395e24
PKCS7_SIGNER_INFO_set 0x00395f28
PKCS7_add_signature 0x003960dc
PKCS7_set_digest 0x00396150
PKCS7_get_signer_info 0x00396220
PKCS7_add_recipient_info 0x0039627c
PKCS7_RECIP_INFO_set 0x0039631c
PKCS7_add_recipient 0x003963fc
PKCS7_cert_from_signer_info 0x00396460
PKCS7_set_cipher 0x003964c4
d2i_OCSP_SIGNATURE 0x00396620
i2d_OCSP_SIGNATURE 0x0039662c
OCSP_SIGNATURE_new 0x00396638
OCSP_SIGNATURE_free 0x00396644
d2i_OCSP_CERTID 0x00396650
i2d_OCSP_CERTID 0x0039665c
OCSP_CERTID_new 0x00396668
OCSP_CERTID_free 0x00396674
d2i_OCSP_ONEREQ 0x00396680
i2d_OCSP_ONEREQ 0x0039668c
OCSP_ONEREQ_new 0x00396698
OCSP_ONEREQ_free 0x003966a4
d2i_OCSP_REQINFO 0x003966b0
i2d_OCSP_REQINFO 0x003966bc
OCSP_REQINFO_new 0x003966c8
OCSP_REQINFO_free 0x003966d4
d2i_OCSP_REQUEST 0x003966e0
i2d_OCSP_REQUEST 0x003966ec
OCSP_REQUEST_new 0x003966f8
OCSP_REQUEST_free 0x00396704
d2i_OCSP_RESPBYTES 0x00396710
i2d_OCSP_RESPBYTES 0x0039671c
OCSP_RESPBYTES_new 0x00396728
OCSP_RESPBYTES_free 0x00396734
d2i_OCSP_RESPONSE 0x00396740
i2d_OCSP_RESPONSE 0x0039674c
OCSP_RESPONSE_new 0x00396758
OCSP_RESPONSE_free 0x00396764
d2i_OCSP_RESPID 0x00396770
i2d_OCSP_RESPID 0x0039677c
OCSP_RESPID_new 0x00396788
OCSP_RESPID_free 0x00396794
d2i_OCSP_REVOKEDINFO 0x003967a0
i2d_OCSP_REVOKEDINFO 0x003967ac
OCSP_REVOKEDINFO_new 0x003967b8
OCSP_REVOKEDINFO_free 0x003967c4
d2i_OCSP_CERTSTATUS 0x003967d0
i2d_OCSP_CERTSTATUS 0x003967dc
OCSP_CERTSTATUS_new 0x003967e8
OCSP_CERTSTATUS_free 0x003967f4
d2i_OCSP_SINGLERESP 0x00396800
i2d_OCSP_SINGLERESP 0x0039680c
OCSP_SINGLERESP_new 0x00396818
OCSP_SINGLERESP_free 0x00396824
d2i_OCSP_RESPDATA 0x00396830
i2d_OCSP_RESPDATA 0x0039683c
OCSP_RESPDATA_new 0x00396848
OCSP_RESPDATA_free 0x00396854
d2i_OCSP_BASICRESP 0x00396860
i2d_OCSP_BASICRESP 0x0039686c
OCSP_BASICRESP_new 0x00396878
OCSP_BASICRESP_free 0x00396884
d2i_OCSP_CRLID 0x00396890
i2d_OCSP_CRLID 0x0039689c
OCSP_CRLID_new 0x003968a8
OCSP_CRLID_free 0x003968b4
d2i_OCSP_SERVICELOC 0x003968c0
i2d_OCSP_SERVICELOC 0x003968cc
OCSP_SERVICELOC_new 0x003968d8
OCSP_SERVICELOC_free 0x003968e4
BN_BLINDING_free 0x00396bc4
BN_BLINDING_new 0x00396c38
BN_BLINDING_convert_ex 0x00396d2c
BN_BLINDING_convert 0x00396dd8
BN_BLINDING_get_thread_id 0x00396de8
BN_BLINDING_set_thread_id 0x00396df0
BN_BLINDING_get_flags 0x00396df8
BN_BLINDING_set_flags 0x00396e00
BN_BLINDING_create_param 0x00396e08
BN_BLINDING_update 0x00396ff0
BN_BLINDING_invert_ex 0x00397108
BN_BLINDING_invert 0x003971a8
RSAPrivateKey_asn1_meth 0x00397208
rsa_cb 0x00397214
d2i_RSAPrivateKey 0x00397280
i2d_RSAPrivateKey 0x0039728c
d2i_RSAPublicKey 0x00397298
i2d_RSAPublicKey 0x003972a4
RSAPublicKey_dup 0x003972b0
RSAPrivateKey_dup 0x003972c0
RSA_set_default_method 0x003972f8
RSA_get_default_method 0x00397300
RSA_get_method 0x00397334
RSA_set_method 0x0039733c
RSA_new_method 0x003973b0
RSA_new 0x00397590
RSA_free 0x003975b4
RSA_up_ref 0x00397730
RSA_get_ex_new_index 0x00397774
RSA_set_ex_data 0x00397790
RSA_get_ex_data 0x00397798
RSA_flags 0x003977a0
RSA_memory_lock 0x003977bc
DSA_set_default_method 0x00397950
DSA_get_default_method 0x00397958
DSA_set_method 0x0039798c
DSA_new_method 0x00397a00
DSA_new 0x00397bcc
DSA_free 0x00397bd4
DSA_up_ref 0x00397d00
DSA_get_ex_new_index 0x00397d44
DSA_set_ex_data 0x00397d60
DSA_get_ex_data 0x00397d68
DSA_dup_DH 0x00397d70
DSA_OpenSSL 0x00397ea4
dsa_do_sign 0x00397eb0
dsa_sign_setup 0x003980d4
dsa_do_verify 0x003983a4
dsa_init 0x00398698
dsa_finish 0x003986ac
DH_set_default_method 0x00398740
DH_get_default_method 0x00398748
DH_set_method 0x0039877c
DH_new_method 0x003987f0
DH_new 0x003989c4
DH_free 0x003989cc
DH_up_ref 0x00398b0c
DH_get_ex_new_index 0x00398b50
DH_set_ex_data 0x00398b6c
DH_get_ex_data 0x00398b74
DH_size 0x00398b7c
ENGINE_unregister_RSA 0x00398bfc
engine_unregister_all_RSA 0x00398c08
ENGINE_register_RSA 0x00398c10
ENGINE_register_all_RSA 0x00398c44
ENGINE_set_default_RSA 0x00398c84
ENGINE_get_default_RSA 0x00398cb8
ENGINE_get_RSA 0x00398cc4
ENGINE_set_RSA 0x00398ccc
ENGINE_unregister_DSA 0x00398cd8
engine_unregister_all_DSA 0x00398ce4
ENGINE_register_DSA 0x00398cec
ENGINE_register_all_DSA 0x00398d20
ENGINE_set_default_DSA 0x00398d60
ENGINE_get_default_DSA 0x00398d94
ENGINE_get_DSA 0x00398da0
ENGINE_set_DSA 0x00398da8
ENGINE_unregister_DH 0x00398db4
engine_unregister_all_DH 0x00398dc0
ENGINE_register_DH 0x00398dc8
ENGINE_register_all_DH 0x00398dfc
ENGINE_set_default_DH 0x00398e3c
ENGINE_get_default_DH 0x00398e70
ENGINE_get_DH 0x00398e7c
ENGINE_set_DH 0x00398e84
EVP_PKEY_bits 0x00398e90
EVP_PKEY_size 0x00398ee8
EVP_PKEY_save_parameters 0x00398f3c
EVP_PKEY_missing_parameters 0x00398f68
EVP_PKEY_copy_parameters 0x00398fac
EVP_PKEY_cmp_parameters 0x003990d4
EVP_PKEY_cmp 0x00399188
EVP_PKEY_new 0x00399280
EVP_PKEY_get1_RSA 0x003992f8
EVP_PKEY_get1_DSA 0x0039935c
EVP_PKEY_get1_DH 0x003993c0
EVP_PKEY_type 0x00399424
EVP_PKEY_free_it 0x003994a0
EVP_PKEY_free 0x00399504
EVP_PKEY_assign 0x0039957c
EVP_PKEY_set1_DH 0x003995d8
EVP_PKEY_set1_DSA 0x00399628
EVP_PKEY_set1_RSA 0x00399678
EVP_PKCS82PKEY 0x00399718
PKCS8_set_broken 0x00399b20
dsa_pkey2pkcs8 0x00399b94
EVP_PKEY2PKCS8_broken 0x00399f9c
EVP_PKEY2PKCS8 0x0039a11c
EVP_PKEY_get_attr_count 0x0039a140
EVP_PKEY_get_attr_by_NID 0x0039a164
EVP_PKEY_get_attr_by_OBJ 0x0039a188
EVP_PKEY_get_attr 0x0039a1ac
EVP_PKEY_delete_attr 0x0039a1d0
EVP_PKEY_add1_attr 0x0039a1f4
EVP_PKEY_add1_attr_by_OBJ 0x0039a220
EVP_PKEY_add1_attr_by_NID 0x0039a24c
EVP_PKEY_add1_attr_by_txt 0x0039a278
rinf_cb 0x0039a354
d2i_X509_REQ_INFO 0x0039a3a0
i2d_X509_REQ_INFO 0x0039a3ac
X509_REQ_INFO_new 0x0039a3b8
X509_REQ_INFO_free 0x0039a3c4
d2i_X509_REQ 0x0039a3d0
i2d_X509_REQ 0x0039a3dc
X509_REQ_new 0x0039a3e8
X509_REQ_free 0x0039a3f4
X509_REQ_dup 0x0039a400
ASN1_verify 0x0039a464
ASN1_item_verify 0x0039a5cc
i2a_ASN1_INTEGER 0x0039a7c0
a2i_ASN1_INTEGER 0x0039a8f0
i2a_ASN1_STRING 0x0039ac3c
a2i_ASN1_STRING 0x0039ad40
d2i_NETSCAPE_SPKAC 0x0039b044
i2d_NETSCAPE_SPKAC 0x0039b050
NETSCAPE_SPKAC_new 0x0039b05c
NETSCAPE_SPKAC_free 0x0039b068
d2i_NETSCAPE_SPKI 0x0039b074
i2d_NETSCAPE_SPKI 0x0039b080
NETSCAPE_SPKI_new 0x0039b08c
NETSCAPE_SPKI_free 0x0039b098
ASN1_digest 0x0039b0ec
ASN1_item_digest 0x0039b1a4
ASN1_PRINTABLE_type 0x0039b278
ASN1_UNIVERSALSTRING_to_string 0x0039b37c
parse_tagging 0x0039b488
append_exp 0x0039b5d8
asn1_str2tag 0x0039b6a8
asn1_cb 0x0039b720
asn1_str2type 0x0039ba50
ASN1_generate_v3 0x0039bf5c
asn1_multi 0x0039c224
ASN1_generate_nconf 0x0039c3bc
bitstr_cb 0x0039c408
i2d_PrivateKey 0x0039c894
X509_ocspid_print 0x0039c950
X509_signature_print 0x0039cadc
ASN1_STRING_print 0x0039cbfc
ASN1_GENERALIZEDTIME_print 0x0039cce0
ASN1_UTCTIME_print 0x0039ce70
ASN1_TIME_print 0x0039cff0
X509_print_ex 0x0039d044
X509_print 0x0039d5fc
X509_print_ex_fp 0x0039d608
X509_print_fp 0x0039d698
X509_NAME_print 0x0039d6a4
ASN1_sign 0x0039dab4
ASN1_item_sign 0x0039dd54
X509_CERT_AUX_print 0x0039e098
send_bio_chars 0x0039e3d0
send_fp_chars 0x0039e418
do_esc_char 0x0039e46c
do_buf 0x0039e674
do_hex_dump 0x0039e830
do_dump 0x0039e8c4
do_print_ex 0x0039e9b8
do_indent 0x0039ebd8
do_name_ex 0x0039ec34
X509_NAME_print_ex 0x0039ef98
X509_NAME_print_ex_fp 0x0039efe4
ASN1_STRING_print_ex 0x0039f064
ASN1_STRING_print_ex_fp 0x0039f07c
ASN1_STRING_to_UTF8 0x0039f094
ASN1_STRING_set_default_mask 0x0039f1c0
ASN1_STRING_get_default_mask 0x0039f1c8
ASN1_STRING_set_default_mask_asc 0x0039f1d0
sk_table_cmp 0x0039f2e0
table_cmp 0x0039f2f8
ASN1_STRING_TABLE_get 0x0039f308
ASN1_STRING_set_by_NID 0x0039f394
ASN1_STRING_TABLE_add 0x0039f448
ASN1_STRING_TABLE_cleanup 0x0039f54c
st_free 0x0039f570
d2i_PrivateKey 0x0039f64c
d2i_AutoPrivateKey 0x0039f784
X509v3_get_ext_count 0x0039f8cc
X509v3_get_ext_by_OBJ 0x0039f8e0
X509v3_get_ext_by_NID 0x0039f968
X509v3_get_ext_by_critical 0x0039f9c0
X509v3_get_ext 0x0039fa54
X509v3_delete_ext 0x0039fab4
X509v3_add_ext 0x0039fb14
X509_EXTENSION_set_object 0x0039fc18
X509_EXTENSION_set_critical 0x0039fc7c
X509_EXTENSION_set_data 0x0039fca8
X509_EXTENSION_create_by_OBJ 0x0039fcf8
X509_EXTENSION_create_by_NID 0x0039fdd8
X509_EXTENSION_get_object 0x0039fe58
X509_EXTENSION_get_data 0x0039fe70
X509_EXTENSION_get_critical 0x0039fe88
i2v_crld 0x0039ff00
d2i_DIST_POINT_NAME 0x0039ffec
i2d_DIST_POINT_NAME 0x0039fff8
DIST_POINT_NAME_new 0x003a0004
DIST_POINT_NAME_free 0x003a0010
d2i_DIST_POINT 0x003a001c
i2d_DIST_POINT 0x003a0028
DIST_POINT_new 0x003a0034
DIST_POINT_free 0x003a0040
v2i_crld 0x003a004c
d2i_CRL_DIST_POINTS 0x003a01a0
i2d_CRL_DIST_POINTS 0x003a01ac
CRL_DIST_POINTS_new 0x003a01b8
CRL_DIST_POINTS_free 0x003a01c4
i2r_pci 0x003a02bc
process_pci_value 0x003a03c0
r2i_pci 0x003a07d8
X509V3_EXT_val_prn 0x003a0bf0
unknown_ext_print 0x003a0d50
X509V3_EXT_print 0x003a0e18
X509V3_extensions_print 0x003a0fdc
X509V3_EXT_print_fp 0x003a1184
d2i_BASIC_CONSTRAINTS 0x003a1240
i2d_BASIC_CONSTRAINTS 0x003a124c
BASIC_CONSTRAINTS_new 0x003a1258
BASIC_CONSTRAINTS_free 0x003a1264
i2v_BASIC_CONSTRAINTS 0x003a1270
v2i_BASIC_CONSTRAINTS 0x003a12c8
i2s_ASN1_ENUMERATED_TABLE 0x003a14a8
s2i_asn1_int 0x003a1618
d2i_PROXY_POLICY 0x003a1620
i2d_PROXY_POLICY 0x003a162c
PROXY_POLICY_new 0x003a1638
PROXY_POLICY_free 0x003a1644
d2i_PROXY_CERT_INFO_EXTENSION 0x003a1650
i2d_PROXY_CERT_INFO_EXTENSION 0x003a165c
PROXY_CERT_INFO_EXTENSION_new 0x003a1668
PROXY_CERT_INFO_EXTENSION_free 0x003a1674
i2v_AUTHORITY_KEYID 0x003a16e0
v2i_AUTHORITY_KEYID 0x003a17a8
i2v_ASN1_BIT_STRING 0x003a1b0c
v2i_ASN1_BIT_STRING 0x003a1b80
d2i_EXTENDED_KEY_USAGE 0x003a1ef8
i2d_EXTENDED_KEY_USAGE 0x003a1f04
EXTENDED_KEY_USAGE_new 0x003a1f10
EXTENDED_KEY_USAGE_free 0x003a1f1c
i2v_EXTENDED_KEY_USAGE 0x003a1f28
v2i_EXTENDED_KEY_USAGE 0x003a1fb4
BN_mod_exp2_mont 0x003a2150
RSA_PKCS1_SSLeay 0x003a278c
RSA_eay_public_encrypt 0x003a2798
rsa_get_blinding 0x003a2ab0
rsa_blinding_convert 0x003a2c24
rsa_blinding_invert 0x003a2cc8
RSA_eay_private_encrypt 0x003a2d6c
RSA_eay_private_decrypt 0x003a3168
RSA_eay_public_decrypt 0x003a351c
RSA_eay_mod_exp 0x003a3818
RSA_eay_init 0x003a3e20
RSA_eay_finish 0x003a3e34
RSA_padding_add_PKCS1_type_1 0x003a3f4c
RSA_padding_check_PKCS1_type_1 0x003a3fe4
RSA_padding_add_PKCS1_type_2 0x003a4148
RSA_padding_check_PKCS1_type_2 0x003a422c
RSA_padding_add_SSLv23 0x003a43b0
RSA_padding_check_SSLv23 0x003a44a4
RSA_padding_add_none 0x003a4678
RSA_padding_check_none 0x003a46f8
PKCS1_MGF1 0x003a47c4
MGF1 0x003a48b4
RSA_padding_check_PKCS1_OAEP 0x003a4904
RSA_padding_add_PKCS1_OAEP 0x003a4b44
RSA_padding_add_X931 0x003a4d70
RSA_padding_check_X931 0x003a4e2c
RSA_X931_hash_id 0x003a4f4c
DH_generate_key 0x003a503c
DH_compute_key 0x003a5070
DH_OpenSSL 0x003a50a4
generate_key 0x003a50b0
compute_key 0x003a5290
dh_bn_mod_exp 0x003a5440
dh_init 0x003a54b8
dh_finish 0x003a54cc
DH_check 0x003a555c
DH_check_pub_key 0x003a56bc
BIO_dump_indent_cb 0x003a576c
BIO_dump_cb 0x003a5a20
write_fp 0x003a5a28
BIO_dump_fp 0x003a5a34
BIO_dump_indent_fp 0x003a5a50
write_bio 0x003a5a70
BIO_dump 0x003a5a84
BIO_dump_indent 0x003a5aa0
print_bio 0x003a5af4
ERR_print_errors 0x003a5b08
EVP_SignFinal 0x003a5b18
EVP_VerifyFinal 0x003a5cac
traverse_string 0x003a5e3c
ASN1_mbstring_ncopy 0x003a5f44
ASN1_mbstring_copy 0x003a63ec
in_utf8 0x003a63f8
out_utf8 0x003a640c
cpy_asc 0x003a6454
cpy_bmp 0x003a6470
cpy_univ 0x003a6494
cpy_utf8 0x003a64c8
is_printable 0x003a6510
type_str 0x003a659c
UTF8_getc 0x003a66f0
UTF8_putc 0x003a69dc
print 0x003a6bd4
DSA_print 0x003a6e28
DSA_print_fp 0x003a70d4
RSA_print 0x003a715c
RSA_print_fp 0x003a755c
DHparams_print 0x003a75e4
DHparams_print_fp 0x003a7760
DSAparams_print 0x003a77e0
DSAparams_print_fp 0x003a79a0
ASN1_tag2str 0x003a7bdc
asn1_print_info 0x003a7c18
asn1_parse2 0x003a7d24
ASN1_parse 0x003a85fc
ASN1_parse_dump 0x003a8634
print_fp 0x003a88b4
ERR_error_string_n 0x003a88c4
ERR_print_errors_cb 0x003a8a30
ERR_print_errors_fp 0x003a8ae8
ERR_error_string 0x003a8af8
i2d_ASN1_BOOLEAN 0x003a8b84
d2i_ASN1_BOOLEAN 0x003a8bf8
ipfirewall_alloc_aligned 0x003a8d0c
ipfirewall_find_userdef 0x003a8d78
ipfirewall_limit_timeout 0x003a8de8
ipfirewall_init 0x003a8e70
ipfirewall_check_head 0x003a8f50
ipfirewall_sort_group 0x003a8fb4
ipfirewall_get_configuration 0x003a9020
ipfirewall_internal_unlink_rule 0x003a9108
ipfirewall_internal_remove_rule 0x003a9270
ipfirewall_internal_insert_rule 0x003a9310
ipfirewall_internal_add_rule 0x003a9490
ipfirewall_internal_get_user 0x003a97a0
ipfirewall_internal_get_info 0x003a9824
ipfirewall_internal_flush_rules 0x003a986c
ipfirewall_internal_flush_group 0x003a98b0
ipfirewall_internal_flush_log 0x003a9914
ipfirewall_internal_flush_userdefs 0x003a9978
ipfirewall_internal_clear_stats 0x003a9a30
ipfirewall_cancel_rate_limit_timeouts 0x003a9a64
ipfirewall_internal_enable 0x003a9acc
ipfirewall_internal_disable 0x003a9b24
ipfirewall_configure_rules 0x003a9b7c
ipfirewall_match_interface 0x003a9c00
ipfirewall_compare_limit 0x003a9c5c
ipfirewall_register_userdef 0x003a9d14
ipfirewall_unregister_userdef 0x003a9e3c
ipfirewall_getsockopt 0x003a9fa4
ipfirewall_setsockopt 0x003aa0b8
ipfirewall_create 0x003aa214
ipfirewall_start 0x003aa218
ipfirewall_version 0x003aa420
ipfirewall_clean_state 0x003aab80
ipfirewall_state_timeout 0x003aabe4
ipfirewall_log_pkt 0x003aabf8
ipfirewall_reverse_state 0x003aae58
ipfirewall_add_state 0x003aaec8
ipfirewall_update_state 0x003ab0f8
ipfirewall_check_state 0x003ab23c
ipfirewall_check_fragment_state 0x003ab3d8
ipfirewall_return_icmp 0x003ab51c
ipfirewall_return_rst 0x003ab60c
ipfirewall_check_range 0x003ab738
ipfirewall_check_transport_header 0x003ab814
ipfirewall_obj_hash_v4 0x003ab8bc
ipfirewall_key_hash_v4 0x003ab930
ipfirewall_cmp_hash_v4 0x003ab9a4
ipfirewall_get_frag4_info 0x003aba04
ipfirewall_check_rules 0x003aba4c
ipfirewall_internal_get_rule 0x003ac278
ipfirewall_internal_get_log 0x003ac304
ipfirewall_internal_get_state 0x003ac394
ipfirewall_internal_flush_states 0x003ac42c
ipfirewall_input_hook 0x003ac468
ipfirewall_output_hook 0x003ac4c4
ipfirewall_mac_log_pkt 0x003ac6b0
ipfirewall_mac_check_rules 0x003ac898
ipfirewall_mac_internal_get_rule 0x003acd98
ipfirewall_mac_internal_get_log 0x003ace28
ipfirewall_mac_input_hook 0x003aceb8
ipfirewall_mac_output_hook 0x003acf00
ipfirewall_userdef_match 0x003acf8c
ipfirewall_userdef_check 0x003acfc0
ipfirewall_userdef_destroy 0x003acfc8
ipfirewall_http_bms_str_search 0x003acfd4
ipfirewall_http_bf_str_search 0x003ad164
ipfirewall_http_fast_str_search 0x003ad258
ipfirewall_http_str_st_len 0x003ad288
ipfirewall_http_is_ci_string_same 0x003ad2c0
ipfirewall_http_str_ci_cmp 0x003ad328
ipfirewall_http_find 0x003ad43c
ipfirewall_field_name_find 0x003ad4ac
ipfirewall_http_checksum_adjust 0x003ad5bc
ipfirewall_http_match_cookie 0x003ad62c
ipfirewall_http_match_object 0x003ad738
ipfirewall_http_match_url 0x003ad878
ipfirewall_http_match 0x003adab8
ipfirewall_http_check 0x003adcb8
ipfirewall_http_destroy 0x003add44
ipfirewall_http_insert_url_filter 0x003add48
ipfirewall_http_insert_proxy_filter 0x003adf14
ipfirewall_http_insert_cookie_filter 0x003adfa0
ipfirewall_http_insert_java_filter 0x003ae02c
ipfirewall_http_insert_activex_filter 0x003ae0b8
ipfirewall_http_add_filter 0x003ae144
ipfirewall_http_remove_filter 0x003ae23c
ipfirewall_cmd_setsockopt 0x003aea84
ipfirewall_cmd_getsockopt 0x003aea88
ipfirewall_get_protocol_number 0x003aea8c
ipfirewall_get_protocol_name 0x003aeae0
ipfirewall_print_usage 0x003aeb44
ipfirewall_mac_print_addr 0x003aedfc
ipfirewall_print_addr 0x003aeeb8
ipfirewall_print_port 0x003aef78
ipfirewall_print_rule_common1 0x003af130
ipfirewall_print_rule_common2 0x003af290
ipfirewall_print_address_scope 0x003af328
ipfirewall_print_rules 0x003af568
ipfirewall_mac_print_rules 0x003afbcc
ipfirewall_print_states 0x003afd68
ipfirewall_print_log 0x003aff38
ipfirewall_mac_print_log 0x003b02d4
ipfirewall_print_userdef 0x003b054c
ipfirewall_print_stats 0x003b0654
ipfirewall_parse_addrmask 0x003b07dc
ipfirewall_mac_parse_addrmask 0x003b08f4
ipfirewall_parse_proto 0x003b0a90
ipfirewall_parse_pktflags 0x003b0bb4
ipfirewall_parse_tos 0x003b0e24
ipfirewall_parse_ttl 0x003b0f9c
ipfirewall_parse_interface 0x003b108c
ipfirewall_parse_quick 0x003b11a4
ipfirewall_parse_logkey 0x003b1208
ipfirewall_parse_direction 0x003b1288
ipfirewall_parse_action 0x003b1340
ipfirewall_parse_index 0x003b15a8
ipfirewall_parse_port 0x003b162c
ipfirewall_parse_address 0x003b1b68
ipfirewall_parse_mac_type 0x003b1ddc
ipfirewall_parse_icmptype 0x003b1ed0
ipfirewall_parse_flags 0x003b2108
ipfirewall_parse_with 0x003b2490
ipfirewall_parse_keep 0x003b2608
ipfirewall_parse_head 0x003b26cc
ipfirewall_parse_limit 0x003b27d0
ipfirewall_parse_userdef 0x003b2a1c
ipfirewall_parse_rule 0x003b2b70
ipfirewall_setsockopt_single 0x003b30dc
ipfirewall_addremove_parsed_rule 0x003b3150
ipfirewall_addremove_rule 0x003b3250
ipfirewall_enable_disable 0x003b3338
ipfirewall_flush_group_common 0x003b3444
ipfirewall_enable 0x003b34f0
ipfirewall_disable 0x003b34f8
ipfirewall_add_rule 0x003b3500
ipfirewall_remove_rule 0x003b3514
ipfirewall_mac_add_rule 0x003b3528
ipfirewall_add_rule_file 0x003b353c
ipfirewall_mac_remove_rule 0x003b36c8
ipfirewall_flush_rules 0x003b36dc
ipfirewall_mac_flush_rules 0x003b36e4
ipfirewall_flush_group 0x003b36ec
ipfirewall_mac_flush_group 0x003b36f4
ipfirewall_flush_states 0x003b36fc
ipfirewall_flush_userdefs 0x003b3704
ipfirewall_flush_log 0x003b370c
ipfirewall_mac_flush_log 0x003b3714
ipfirewall_cmd_ipfirewall 0x003b371c
ipnet_cmd_netstat_is_contiguous 0x003b55a4
ipnet_netstat_print_routes 0x003b5618
ipnet_netstat_print_entries 0x003b5a54
ipnet_netstat_init_stat_sig 0x003b5dd4
ipnet_netstat_print_stats 0x003b5e24
ipnet_cmd_netstat 0x003b6828
ipnet_cmd_ifconfig_create_mask 0x003b7a3c
ipnet_ifconfig_print_ipv4 0x003b7a8c
ipnet_ifconfig_print_tunnel 0x003b7bdc
ipnet_ifconfig_print_vlan 0x003b7d08
ipnet_ifconfig_if_change_state 0x003b7dac
ipnet_ifconfig_if_change_dhcp 0x003b7e90
ipnet_ifconfig_if_detach 0x003b7f2c
ipnet_ifconfig_ipv4_replace 0x003b8040
ipnet_ifconfig_ipv4_add_delete 0x003b8158
ipnet_ifconfig_set_vr 0x003b82ec
ipnet_ifconfig_set_mtu 0x003b838c
ipnet_ifconfig_set_dstaddr 0x003b8420
ipnet_ifconfig_set_lladdr 0x003b84fc
ipnet_ifconfig_create 0x003b85ec
ipnet_ifconfig_destroy 0x003b8664
ipnet_ifconfig_vlan_conf 0x003b8708
ipnet_ifconfig_vlanpri_conf 0x003b87a4
ipnet_ifconfig_tunnel_conf 0x003b8840
ipnet_ifconfig_if_change_link 0x003b88d4
ipnet_ifconfig_if_promisc_link 0x003b89cc
ipnet_cmd_ifconfig_print_usage 0x003b8a60
ipnet_cmd_ifconfig_parse_arg 0x003b8f48
ipnet_ifconfig_format_number 0x003b96e4
ipnet_ifconfig_print_info 0x003b976c
ipstack_ifconfig_print_info 0x003b9bac
ipnet_cmd_ifconfig 0x003b9bfc
ipnet_cmd_route_create_mask 0x003bb888
ipnet_cmd_route_set_mask_from_prefixlen 0x003bb8d8
ipnet_cmd_route_print_addresses 0x003bb964
ipnet_cmd_route_print_metrics 0x003bba20
ipnet_cmd_route_print_if 0x003bbaa0
ipnet_cmd_route_print_msghdr 0x003bbb10
ipnet_cmd_route_print_routeinfo 0x003bbb68
ipnet_cmd_route_print_addrinfo 0x003bbc30
ipnet_cmd_route_print_ifinfo 0x003bbc80
ipnet_cmd_route_print_ifannounce 0x003bbdb8
ipnet_cmd_route_issue_request 0x003bbe04
ipnet_cmd_route_change 0x003bc180
ipnet_cmd_route_get 0x003bc254
ipnet_cmd_route_monitor 0x003bc344
ipnet_cmd_route_vr 0x003bc474
ipnet_cmd_route_print_usage 0x003bc4c4
ipnet_cmd_route_parse_arg 0x003bc540
ipnet_cmd_route_add 0x003bce94
ipnet_cmd_route_delete 0x003bcfdc
ipnet_cmd_route 0x003bd0b8
ipnet_ping_error 0x003bf664
ipnet_ping_get_response_time 0x003bf6c0
ipnet_ping_update_timeout 0x003bf734
ipnet_ping_print_ip_opts 0x003bf7b0
ipnet_ping_schedule_echo_request 0x003bf8e0
ipnet_ping_send_echo_request 0x003bf960
ipnet_ping_process_msg 0x003bfb24
ipnet_ping_recv_echo_reply 0x003bfbfc
ipnet_cmd_ping_internal 0x003bfdfc
ipnet_cmd_ping_stoppable 0x003c0958
ipnet_cmd_ping 0x003c095c
ipnet_cmd_rt_flags_to_str 0x003c15f4
ipnet_cmd_rt_flags_to_str_short 0x003c1864
ipnet_cmd_if_type_to_str 0x003c1b08
ipnet_cmd_init_addrs 0x003c1c00
ipnet_cmd_msec_since 0x003c1c68
ipnet_bit_array_clr 0x003c1ce8
ipnet_bit_array_test_and_set 0x003c1d0c
ipnet_nat_protocol_number 0x003c1d48
ipnet_nat_protocol_name 0x003c1d9c
ipnet_ping_stat_init 0x003c1e24
ipnet_ping_stat_transmit 0x003c1e84
ipnet_ping_stat_receive 0x003c1e94
ipnet_ping_stat_report 0x003c1ef8
ipnet_suspend 0x003c223c
ipnet_update_time_tmo 0x003c232c
ipnet_timeout_pq_cmp 0x003c2340
ipnet_timeout_pq_store_index 0x003c2370
ipnet_timeout_duration_until_next 0x003c2378
ipnet_ip4_try_eth_fast_forward_path 0x003c23d8
ipnet_pkt_input 0x003c2710
ipnet_pkt_kclone 0x003c2954
ipnet_pkt_report_wrapper 0x003c2ac8
ipnet_softirq_run 0x003c2b20
ipnet_sig_free 0x003c2bb4
ipnet_pkt_rx_action 0x003c2bf8
ipnet_open 0x003c2c64
ipnet_stats_tcp_established 0x003c2cdc
ipnet_handle_statistics_sig 0x003c2d50
ipnet_process_signals 0x003c2f9c
ipnet_sysvar_netif_get_as_int_ex 0x003c348c
ipnet_sysvar_netif_get_as_int 0x003c355c
ipnet_softirq_init 0x003c3564
ipnet_init 0x003c3574
ipnet_softirq_schedule 0x003c39dc
ipnet_timeout_cancel 0x003c3a7c
ipnet_timeout_msec_until 0x003c3af0
ipnet_sec_now 0x003c3b08
ipnet_msec_now 0x003c3b18
ipnet_timeout_schedule 0x003c3b54
ipcom_stackd_init 0x003c3c78
ipnet_process_pending_timeouts 0x003c3d04
ipnet_is_stack_task 0x003c3dc0
ipnet_pkt_clone 0x003c3df8
ipnet_schedule_pkt_report 0x003c3e00
ipnet_increase_hdr_space 0x003c3e68
ipnet_has_priv 0x003c3ed0
ipnet_finish_transport_checksum 0x003c3ee0
ipcom_pkt_input_queue 0x003c3f3c
ipnet_kioevent 0x003c4054
ipnet_kioevent_softirq 0x003c4278
ipnet_timeval_to_msec 0x003c42d8
ipnet_create 0x003c4308
ipnet_start 0x003c438c
ipnet_version 0x003c4498
ipnet_ctrl_sock 0x003c4764
ipnet_ctrl 0x003c48f0
ipnet_diffserv_key_hash 0x003c4960
ipnet_diffserv_obj_hash 0x003c4998
ipnet_diffserv_hash_cmp 0x003c49d4
ipnet_diffserv_register_ctor 0x003c4a00
ipnet_diffserv_get_ds_field 0x003c4a44
ipnet_diffserv_input 0x003c4a70
ipnet_diffserv_set_ds_field 0x003c4b04
ipnet_diffserv_ioctl 0x003c4b28
ipnet_diffserv_init 0x003c4d8c
ipnet_ds_marker_sm_input 0x003c4eb4
ipnet_ds_sm_delete 0x003c4f28
ipnet_ds_sm_new 0x003c4f2c
ipnet_diffserv_sm_template 0x003c4fc8
ipnet_ds_meter_srtcm_class_to_color 0x003c4fe0
ipnet_ds_meter_srtcm_add_tokens 0x003c50a4
ipnet_ds_meter_srtcm_input 0x003c514c
ipnet_ds_marker_srtcm_input 0x003c520c
ipnet_ds_srtcm_delete 0x003c52b4
ipnet_ds_srtcm_new 0x003c52b8
ipnet_diffserv_srtcm_template 0x003c5344
ipnet_eth_is_valid_node_mac 0x003c5354
ipnet_eth_rarp_input 0x003c5380
ipnet_eth_ioevent 0x003c542c
ipnet_eth_ip4_multicast_to_link_addr 0x003c5488
ipnet_arp_timeout 0x003c54c0
ipnet_eth_send_pending_pkt 0x003c54d0
ipnet_arp_init 0x003c5538
ipnet_eth_get_frame_info 0x003c555c
ipnet_set_eth_type 0x003c569c
ipnet_eth_raw_output 0x003c571c
ipnet_eth_rarp_request 0x003c57e0
ipnet_eth_rarp_timeout 0x003c58fc
ipnet_eth_update_mib2_lastchange 0x003c5978
ipnet_eth_if_init 0x003c59dc
ipnet_arp_set_state 0x003c5adc
ipnet_arp_try_resolve 0x003c5bb8
ipnet_arp_try_resolve_on_all_links 0x003c5c6c
ipnet_eth_update_arp_entry_from_msg 0x003c5ce8
ipnet_eth_arp_input 0x003c5e10
ipnet_arp_request 0x003c6414
ipnet_eth_set_mac_addr 0x003c66b0
ipnet_eth_ioctl 0x003c6740
ipnet_arp_probe 0x003c69b0
ipnet_arp_ioctl 0x003c69fc
ipnet_eth_add_hdr 0x003c6eb0
ipnet_ioctl_sigalarm 0x003c7028
ipnet_ioctl_if_is_rt_affected 0x003c70e8
ipnet_ioctl_if_remove_routes 0x003c7160
ipnet_ioctl_if_queue 0x003c7290
ipnet_ioctl_if_queue_filter 0x003c740c
ipnet_ioctl_if_siocgifconf 0x003c75ac
ipnet_ioctl_rtab 0x003c772c
ipnet_ioctl_sock 0x003c78d0
ipnet_ioctl_netif_from_in_addr 0x003c7aac
ipnet_ioctl_ip4_bsd43_compat 0x003c7b30
ipnet_ioctl_x_route 0x003c7d44
ipnet_ioctl_ip4 0x003c7e84
ipnet_ioctl_move_if_rt_to_vr 0x003c8458
ipnet_ioctl_if 0x003c8630
ipnet_sys_socketioctl 0x003c8b9c
ipnet_ip4_addr_key_func 0x003c8f80
ipnet_ip4_addr_obj_func 0x003c8fd0
ipnet_ip4_addr_cmp_func 0x003c902c
ipnet_ip4_addr_ignore_if_key_func 0x003c9074
ipnet_ip4_addr_ignore_if_obj_func 0x003c90b8
ipnet_ip4_addr_ignore_if_cmp_func 0x003c9100
ipnet_ip4_addr_to_sockaddr 0x003c9134
ipnet_ip4_addr_exit_tentative_state 0x003c918c
ipnet_ip4_get_ip_opt 0x003c919c
ipnet_ip4_rfc1256_sysvar_address 0x003c920c
ipnet_ip4_rfc1256_route_remove_auto 0x003c92d0
ipnet_ip4_rfc1256_mode 0x003c93c4
ipnet_ip4_rfc1256_advertise_schedule 0x003c9480
ipnet_ip4_rfc1256_solicit_input 0x003c9508
ipnet_ip4_rfc1256_advertise_input 0x003c95e8
ipnet_ip4_lladdr_generate 0x003c988c
ipnet_ip4_is_part_of_same_pkt 0x003c996c
ipnet_ip4_get_offset 0x003c9a04
ipnet_ip4_more_fragments 0x003c9a1c
ipnet_ip4_update_ip_header 0x003c9a34
ipnet_ip4_get_next_binding_rt 0x003c9a60
ipnet_icmp4_rate_reseed 0x003c9a80
ipnet_igmpv3_add_source_to_group_record 0x003c9ab8
ipnet_igmpv3_create_membership_report 0x003c9b64
ipnet_igmpv3_build_if_filter 0x003c9c58
ipnet_igmp_host_compatibility_mode 0x003c9cd0
ipnet_igmp_should_send_message 0x003c9d50
ipnet_igmp_report_all 0x003c9d84
ipnet_ip4_deliver_to_raw_sock 0x003c9df0
ipnet_ip4_try_fast_forward_path 0x003c9e90
ipnet_ip4_get_global_src_addr 0x003ca254
ipnet_ip4_insert_addr_cache 0x003ca2e8
ipnet_ip4_remove_addr_cache 0x003ca3c8
ipnet_ip4_netif_get_subbrd 0x003ca4d8
ipnet_ip4_get_src_addr 0x003ca580
ipnet_ip4_add_route_table 0x003ca8e0
ipnet_ip4_configure_route_table 0x003ca948
ipnet_ip4_init 0x003caa48
ipnet_ip4_get_addr_entry 0x003cab10
ipnet_ip4_get_addr_type 0x003cab64
ipnet_ip4_get_addr_type2 0x003cac04
ipnet_ip4_process_ts_option 0x003cac1c
ipnet_icmp4_param_init 0x003cae20
ipnet_ip4_apply_ancillary_data 0x003caebc
ipnet_igmp_input 0x003cb098
ipnet_ip4_schedule_host_unreachable 0x003cb2f0
ipnet_ip4_pseudo_header_checksum_update 0x003cb2fc
ipnet_ip4_restore_options 0x003cb324
ipnet_ip4_add_options 0x003cb3ec
ipnet_ip4_add_header 0x003cb528
ipnet_ip4_remove_header 0x003cb634
ipnet_ip4_is_on_same_subnet 0x003cb678
ipnet_icmp4_send 0x003cb6e0
ipnet_ip4_sendto 0x003cbf10
ipnet_ip4_process_options 0x003cc694
ipnet_ip4_send_host_unreachable 0x003cc89c
ipnet_igmp_report 0x003cc980
ipnet_igmp_report_filter_change 0x003cca50
ipnet_igmpv3_report_change 0x003ccaa8
ipnet_igmp_report_specific_query 0x003ccb20
ipnet_igmp_report_general_query 0x003ccb28
ipnet_igmp_send_host_leave_group 0x003ccb30
ipnet_ip4_assign_addr 0x003ccbe8
ipnet_ip4_lladdr_init 0x003ccf04
ipnet_ip4_lladdr_probe_wait 0x003cd074
ipnet_ip4_lladdr_probe 0x003cd07c
ipnet_ip4_lladdr_announce 0x003cd164
ipnet_ip4_lladdr_defend 0x003cd254
ipnet_ip4_add_addr 0x003cd25c
ipnet_ip4_lladdr_set_state 0x003cd26c
ipnet_ip4_remove_addr 0x003cd45c
ipnet_ip4_change_addr_mask 0x003cd794
ipnet_ip4_add_addr2 0x003cd950
ipnet_ip4_lladdr_conflict 0x003cdc2c
ipnet_ip4_rfc1256_state_change 0x003cdd04
ipnet_ip4_rfc1256_solicit 0x003cdd6c
ipnet_ip4_rfc1256_state_run 0x003cde3c
ipnet_ip4_rfc1256_mode_update 0x003cdf70
ipnet_ip4_if_configure 0x003ce100
ipnet_ip4_if_unconfigure 0x003ce1a0
ipnet_ip4_kioevent 0x003ce268
ipnet_ip4_rfc1256_advertise 0x003ce388
ipnet_ip4_fragment_timeout 0x003ce738
ipnet_icmp4_dst_create_rt 0x003ce850
ipnet_icmp4_input 0x003cea3c
ipnet_ip4_get_mss 0x003cf208
ipnet_loopback_ioctl 0x003cf7a8
ipnet_loopback_input 0x003cf900
ipnet_loopback_get_frame_info 0x003cf9cc
ipnet_loopback_raw_output 0x003cfa30
ipnet_loopback_ip_output 0x003cfa84
ipnet_loopback_drv_output 0x003cfb08
ipnet_loopback_attach 0x003cfb6c
ipnet_loopback_get_netif 0x003cfbd0
ipnet_is_loopback 0x003cfbdc
ipnet_loopback_if_init 0x003cfc1c
ipnet_loopback_ioevent 0x003cfc88
ipnet_mcast_init 0x003cfcac
ipnet_mcast_clear 0x003cfcf4
ipnet_mcast_free 0x003cfd68
ipnet_mcast_schedule_membership_report 0x003cfdb0
ipnet_mcast_report_finish 0x003cfe44
ipnet_mcast_build_if_filter 0x003cfed0
ipnet_mcast_build_source_change_report 0x003cff80
ipnet_mcast_time_to_msec 0x003d01a4
ipnet_neigh_get_base_reachable_time 0x003d01f0
ipnet_neigh_rt_template_is_valid 0x003d0298
ipnet_neigh_queue_until_resolved 0x003d02d4
ipnet_neigh_free_all_pending 0x003d03e4
ipnet_neigh_send_all_pending 0x003d0484
ipnet_neigh_init 0x003d0524
ipnet_neigh_set_state 0x003d0554
ipnet_neigh_timeout 0x003d0864
ipnet_netif_key_hash 0x003d0b38
ipnet_netif_obj_hash 0x003d0b64
ipnet_netif_hash_cmp 0x003d0b6c
ipnet_if_index_array_cmp_cb 0x003d0b84
ipnet_if_update_mib2_lastchange 0x003d0bb0
ipnet_if_indextonetif 0x003d0c14
ipnet_if_get_index_array 0x003d0c80
ipnet_if_nametonetif 0x003d0d98
ipnet_if_to_sockaddr_dl 0x003d0e84
ipnet_if_can_detach 0x003d0f90
ipnet_if_clean_snd_queue 0x003d102c
ipnet_if_free 0x003d10a4
ipnet_if_drv_ioctl 0x003d1108
ipnet_if_link_ioctl 0x003d1184
ipnet_if_clean 0x003d11ec
ipnet_if_detach 0x003d12c4
ipnet_if_init_ppp_peer 0x003d1364
ipnet_if_set_ipv4_ppp_peer 0x003d13ac
ipnet_if_clean_ppp_peer 0x003d14e0
ipnet_sys_if_indexname 0x003d14e8
ipnet_sys_if_nametonetif 0x003d15b0
ipnet_if_init 0x003d1608
ipnet_ppp_if_init 0x003d167c
ipnet_netif_change_flags 0x003d16c4
ipnet_sys_if_attach 0x003d17c4
ipnet_sys_if_detach 0x003d1964
ipnet_sys_if_free 0x003d19ec
ipnet_sys_if_malloc 0x003d1a48
ipnet_sys_if_changename 0x003d1b1c
ipnet_sys_if_changemtu 0x003d1b24
ipnet_sys_if_changelinkaddr 0x003d1b2c
ipnet_pkt_queue_key_hash 0x003d1bf4
ipnet_pkt_queue_obj_hash 0x003d1c2c
ipnet_pkt_queue_hash_cmp 0x003d1c68
ipnet_pkt_queue_register 0x003d1c94
ipnet_pkt_queue_reset 0x003d1d28
ipnet_pkt_select_queue_id 0x003d1d70
ipnet_pkt_queue_delete 0x003d1df4
ipnet_pkt_queue_new 0x003d1e70
ipnet_pkt_queue_init 0x003d2190
ipnet_pkt_queue_fifo_enqueue 0x003d244c
ipnet_pkt_queue_fifo_dequeue 0x003d2494
ipnet_pkt_queue_fifo_requeue 0x003d24d4
ipnet_pkt_queue_fifo_count 0x003d2518
ipnet_pkt_queue_fifo_dump 0x003d2520
ipnet_pkt_queue_fifo_configure 0x003d252c
ipnet_pkt_queue_fifo_init 0x003d253c
ipnet_pkt_queue_fifo_template 0x003d2558
ipnet_sock_packet_init 0x003d256c
ipnet_sock_packet_destroy 0x003d25a4
ipnet_sock_packet_lookup 0x003d25d8
ipnet_sock_packet_send 0x003d2640
ipnet_packet_getsockopt 0x003d27c4
ipnet_packet_setsockopt 0x003d27cc
ipnet_sock_packet_register 0x003d28c4
ipnet_raw_socket_input 0x003d29a4
ipnet_raw_input 0x003d2a6c
ipnet_packet_input 0x003d2d08
ipnet_route_name_obj_hash 0x003d2eac
ipnet_route_name_key_hash 0x003d2ee8
ipnet_route_name_hash_cmp 0x003d2f20
ipnet_route_find_name_cb 0x003d2f4c
ipnet_route_table_hash_key 0x003d2f98
ipnet_route_table_hash_obj 0x003d2fc0
ipnet_route_table_hash_cmp 0x003d2ffc
ipnet_route_policy_hash_key 0x003d303c
ipnet_route_policy_hash_obj 0x003d3068
ipnet_route_policy_hash_cmp 0x003d309c
ipnet_route_create_af_link_gateway 0x003d30cc
ipnet_route_u32_align 0x003d3100
ipnet_route_policy_get_rule_head 0x003d3110
ipnet_route_find_netif 0x003d315c
ipnet_route_replace_node 0x003d3214
ipnet_route_unhook 0x003d32bc
ipnet_route_get_rt_with_largest_prefixlen 0x003d33f8
ipnet_route_remove_all_cb_for_each_table 0x003d34d4
ipnet_route_are_sockaddr_equal 0x003d3514
ipnet_route_delete2_cloned_cb 0x003d35d0
ipnet_route_delete_non_perm_cloned_cb 0x003d3600
ipnet_route_key_unpack 0x003d3618
ipnet_route_ip4_is_mcast_or_bcast 0x003d3630
ipnet_route_get_capable_netif 0x003d36b0
ipnet_route_lock 0x003d3734
ipnet_route_unlock 0x003d3744
ipnet_route_init_dont_route_entry 0x003d3788
ipnet_route_dont_route_timeout_cb 0x003d3858
ipnet_route_has_expired 0x003d3958
ipnet_route_get_rtab 0x003d398c
ipnet_route_get 0x003d3a0c
ipnet_route_apply_mask 0x003d3a88
ipnet_route_cache_invalidate 0x003d3ae4
ipnet_route_notify_func 0x003d3b14
ipnet_route_insert 0x003d3bf4
ipnet_route_walk_tree 0x003d3e68
ipnet_route_for_each_data_init 0x003d3f7c
ipnet_route_lookup_ip4_dont_route 0x003d3f8c
ipnet_route_set_lifetime 0x003d426c
ipnet_route_next_entry 0x003d435c
ipnet_route_first_entry 0x003d440c
ipnet_route_get_table_ids_cb 0x003d446c
ipnet_route_get_table_ids 0x003d4508
ipnet_route_key_to_sockaddr 0x003d45a4
ipnet_route_delete_dynamic_rt_cb 0x003d45fc
ipnet_route_has_changed 0x003d4678
ipnet_route_rotate_gateways 0x003d4734
ipnet_route_remove_all 0x003d4788
ipnet_route_sockaddr_to_key 0x003d47d4
ipnet_route_is_virtual_router_valid 0x003d47f0
ipnet_route_set_rtab 0x003d483c
ipnet_route_policy_ioctl 0x003d4928
ipnet_route_vr_and_table_from_name 0x003d4c64
ipnet_route_get_name 0x003d4d00
ipnet_route_set_name 0x003d4d88
ipnet_route_delete_name 0x003d4e74
ipnet_route_delete_table 0x003d4edc
ipnet_route_delete_vr 0x003d5084
ipnet_route_add_table 0x003d51b8
ipnet_route_policy_get_rule_chain 0x003d5344
ipnet_route_key_cmp 0x003d537c
ipnet_route_get_table_id 0x003d53f0
ipnet_route_create_llinfo_entry 0x003d55f4
ipnet_route_lookup_link_local 0x003d5770
ipnet_route_raw_lookup 0x003d580c
ipnet_route_lookup_ecmp 0x003d5b04
ipnet_route_lookup 0x003d5e9c
ipnet_route_raw_lookup2 0x003d5f20
ipnet_route_add_cloned_rt 0x003d6078
ipnet_route_add 0x003d62e4
ipnet_route_delete2 0x003d68f8
ipnet_route_timeout_cb 0x003d6ab0
ipnet_route_remove_all_cb_for_each_entry 0x003d6b6c
ipnet_route_delete 0x003d6cf8
ipnet_route_create_mask 0x003d6d3c
ipnet_sock_route_lookup 0x003d6dec
ipnet_sock_route_init 0x003d6e54
ipnet_sock_route_destroy 0x003d6e8c
ipnet_routesock_output 0x003d6ec0
ipnet_routesock_get_addrs_from_rt_msg 0x003d6f04
ipnet_routesock_get_rt 0x003d6f9c
ipnet_routesock_create_addrs 0x003d7080
ipnet_routesock_output_addr 0x003d7150
ipnet_routesock_output_rt 0x003d71f0
ipnet_routesock_output_get 0x003d7428
ipnet_routesock_output_err_reply 0x003d74bc
ipnet_routesock_input_add_rt 0x003d7574
ipnet_routesock_input_delete_rt 0x003d7754
ipnet_routesock_input_new_vr 0x003d7838
ipnet_routesock_input_delete_vr 0x003d7894
ipnet_routesock_addr_add 0x003d78f8
ipnet_routesock_addr_delete 0x003d7924
ipnet_routesock_if_change 0x003d7950
ipnet_routesock_if_announce 0x003d79e4
ipnet_routesock_rt_add 0x003d7a88
ipnet_routesock_rt_delete 0x003d7b3c
ipnet_routesock_rt_change 0x003d7bf0
ipnet_routesock_input_change_rt 0x003d7c90
ipnet_routesock_input 0x003d7df8
ipnet_sock_route_send 0x003d7f50
ipnet_routesock_rt_miss 0x003d7f98
ipnet_routesock_rt_redirect 0x003d8044
ipnet_routesock_rt_resolve 0x003d81ac
ipnet_sock_route_register 0x003d825c
ipnet_sock_bound_obj_hash 0x003d8338
ipnet_sock_bound_key_hash 0x003d838c
ipnet_sock_bound_hash_cmp 0x003d83e0
ipnet_sock_obj_hash 0x003d8430
ipnet_sock_key_hash 0x003d84d4
ipnet_sock_hash_cmp 0x003d8574
ipnet_key_from_sock 0x003d8608
ipnet_bound_sock_from_sock 0x003d8658
ipnet_add_ancillary_ipv4_data 0x003d86f4
ipnet_bind_check_reuse 0x003d88bc
ipnet_sock_get_port_from_sockaddr 0x003d8a90
ipnet_sock_opt_obj_hash 0x003d8aac
ipnet_sock_opt_key_hash 0x003d8aec
ipnet_sock_opt_cmp 0x003d8b2c
ipnet_sock_create_failed_cb 0x003d8b6c
ipnet_poll_timeout 0x003d8b9c
ipnet_signal_ready_sock 0x003d8c00
ipnet_sock_has_waiting 0x003d8c90
ipnet_sock_get_bound_socket_size 0x003d8cf4
ipnet_sock_has_waiting_writers 0x003d8cfc
ipnet_is_sock_writable 0x003d8d04
ipnet_is_sock_exceptional 0x003d8dd8
ipnet_is_sock_readable 0x003d8e4c
ipnet_sys_poll 0x003d8f78
ipnet_sys_poll_done 0x003d9084
ipnet_sock_pkt_drain 0x003d9148
ipnet_sock_register_ops 0x003d91dc
ipnet_sock_alloc_private_data 0x003d9324
ipnet_sock_create_lookup_tables 0x003d9350
ipnet_sock_rx_cache_invalidate 0x003d93f4
ipnet_sock_set_reachable 0x003d9428
ipnet_sock_set_unreachable 0x003d94e0
ipnet_sock_add_to_rx_cache 0x003d95c4
ipnet_sock_unconnect 0x003d9644
ipnet_sock_unbind 0x003d9690
ipnet_sock_bind 0x003d97a4
ipnet_sock_change_addr_entry 0x003d9820
ipnet_next_ephemeral_port 0x003d9878
ipnet_sock_bind_to_port 0x003d99b0
ipnet_sock_data_avail 0x003d9a9c
ipnet_queue_received_packet 0x003d9c04
ipnet_sock_bind_addr_removed 0x003d9d98
ipnet_sys_poll_async 0x003d9e14
ipnet_sock_free 0x003d9e94
ipnet_sock_pkt_dtor 0x003d9f80
ipnet_sock_drop_all_multicast_memberships 0x003da140
ipnet_sock_get_ops 0x003da208
ipnet_sys_socket 0x003da244
ipnet_sys_shutdown 0x003da4a0
ipnet_do_close 0x003da660
ipnet_sys_socketclose 0x003da78c
ipnet_sys_listen 0x003da828
ipnet_sys_accept 0x003da8e0
ipnet_sys_bind 0x003da998
ipnet_sys_connect 0x003daad0
ipcom_pkt_hdrspace 0x003dac50
ipnet_sys_sendmsg 0x003dacf4
ipnet_sys_getname 0x003daeac
ipnet_sock_get_route 0x003daf64
ipnet_sys_get_ancillary_data 0x003db040
ipnet_sock_ip4_init 0x003db4a0
ipnet_sock_ip4_close 0x003db58c
ipnet_sock_ip4_connect 0x003db5d4
ipnet_sock_ip4_raw_connect 0x003db764
ipnet_sock_ip4_bind 0x003db7b4
ipnet_sock_ip4_getname 0x003db960
ipnet_sock_ip4_mcast_remove_source 0x003dba08
ipnet_sock_ip4_get_mcast_data 0x003dba48
ipnet_sock_ip4_mcast_delete_data 0x003dba90
ipnet_sock_ip4_lookup 0x003dbb44
ipnet_sock_ip4_get_ops 0x003dbc28
ipnet_sock_ip4_register 0x003dbcdc
ipnet_sock_tcp_init 0x003dbe50
ipnet_sock_tcp_destroy 0x003dbed8
ipnet_sock_tcp_bind 0x003dbf24
ipnet_sock_tcp_connect 0x003dbf78
ipnet_usr_sock_tcp_recv 0x003dbff4
ipnet_sock_tcp_append_send_data 0x003dc118
ipnet_usr_sock_tcp_pkts_from_iov 0x003dc1f0
ipnet_sock_tcp_register 0x003dc4e4
ipnet_sockopt_invalidate_sock_cache 0x003dc6c4
ipnet_sockopt_enter_exit_promisc 0x003dc6ec
ipnet_receive_cb_init 0x003dc754
ipnet_getsockopt_sol 0x003dc7a0
ipnet_setsockopt_sol 0x003dcb60
ipnet_getsockopt_udp 0x003dd038
ipnet_setsockopt_udp 0x003dd090
ipnet_getsockopt_ip4 0x003dd128
ipnet_sockopt_ip4_mcast_create_data 0x003dd4e4
ipnet_sockopt_ip4_mcast_add_remove_source 0x003dd610
ipnet_sockopt_ip4_set_ip_options 0x003dd74c
ipnet_setsockopt_ip4_update_sticky_option_flag 0x003dd7fc
ipnet_getsockopt_icmp 0x003dd824
ipnet_setsockopt_icmp 0x003dd884
ipnet_sockopt_ip4_addr_to_netif 0x003dd8d8
ipnet_setsockopt_ip4 0x003dd980
ipnet_sys_getsockopt 0x003de2d8
ipnet_sys_setsockopt 0x003de46c
ipnet_sysctl_route_dump_elem_len 0x003de61c
ipnet_sysctl_route_add_addr 0x003de67c
ipnet_sysctl_route_dump_cb 0x003de6ec
ipnet_sysctl_for_each_rtab_cb 0x003de90c
ipnet_sysctl_route_dump 0x003de968
ipnet_sysctl_if_add_ip4_addr 0x003de9fc
ipnet_sysctl_inet4 0x003dea58
ipnet_sysctl_if_add_addrs_one 0x003ded78
ipnet_sysctl_if_add_addrs 0x003defc4
ipnet_sysctl_create_ifinfo 0x003df074
ipnet_sysctl_if_dump 0x003df178
ipnet_sysctl_route 0x003df32c
ipnet_sysctl_net 0x003df3cc
ipnet_sys_sysctl 0x003df424
ipnet_sock_udp_init 0x003df570
ipnet_sock_udp_bind 0x003df5ec
ipnet_sock_udp_connect 0x003df640
ipnet_sock_udp_send 0x003df6a4
ipnet_udp_encapsulation 0x003df818
ipnet_udp_fast_deliver_data 0x003df8a8
ipnet_udp_input 0x003dfa0c
ipnet_sock_udp_register 0x003dfe78
ipnet_usr_sock_pipe_recv 0x003dfff4
ipnet_copy_sender_info 0x003e0090
ipnet_usr_sock_poll_done 0x003e01f0
ipnet_usr_sock_poll_free 0x003e0238
ipnet_is_sock_readable_adapter 0x003e027c
ipnet_is_sock_writable_adapter 0x003e0284
ipnet_is_sock_exceptional_adapter 0x003e028c
ipnet_usr_sock_init 0x003e0294
ipnet_usr_sock_get_ops 0x003e02ec
ipnet_get_sock 0x003e0308
ipnet_usr_sock_get_pipe 0x003e03a8
ipnet_usr_sock_get_response_pipe 0x003e03b8
ipnet_usr_sock_init_sig 0x003e03c8
ipnet_usr_sock_alloc_poll_done_sig 0x003e043c
ipnet_usr_sock_poll 0x003e04a4
ipnet_usr_sock_wait_until 0x003e0560
ipnet_usr_sock_wait_until_readable 0x003e062c
ipnet_usr_sock_poll_exceptional 0x003e0678
ipnet_usr_sock_poll_writable 0x003e06a8
ipnet_usr_sock_poll_readable 0x003e06d8
ipnet_usr_sock_basic_send_recv 0x003e0708
ipnet_usr_sock_getname 0x003e07d4
ipnet_usr_sockopt 0x003e08ac
ipnet_do_if_attach 0x003e0980
ipnet_usr_sock_get_route_cache_id 0x003e0a7c
ipnet_release_sock 0x003e0a8c
ipnet_for_each_sock_in_set 0x003e0b04
ipnet_usr_sock_wait_until_writable 0x003e0c44
ipnet_usr_sock_create_pkt_from_iov 0x003e0c90
ipnet_usr_sock_recvmsg 0x003e1168
ipcom_accept 0x003e13c4
ipcom_bind 0x003e14b8
ipcom_connect 0x003e1578
ipcom_getsockname 0x003e1698
ipcom_getsockopt 0x003e16a0
ipcom_getpeername 0x003e16a8
ipcom_socketioctl 0x003e16b0
ipcom_listen 0x003e17a0
ipcom_recvmsg 0x003e181c
ipcom_recvfrom 0x003e19ac
ipcom_recv 0x003e1a30
ipcom_sendmsg 0x003e1a3c
ipcom_sendto 0x003e1da4
ipcom_send 0x003e1dfc
ipcom_setsockopt 0x003e1e08
ipcom_socketselect 0x003e1e34
ipcom_socketread 0x003e1fd0
ipcom_socketwrite 0x003e1fe0
ipcom_socketwritev 0x003e1ff0
ipcom_socket 0x003e203c
ipcom_socketclose 0x003e20c0
ipcom_shutdown 0x003e2148
ipcom_sysctl 0x003e21c4
ipcom_if_attach 0x003e22f8
ipcom_if_attach_and_lock 0x003e2340
ipcom_if_changelinkaddr 0x003e23a4
ipcom_if_changemtu 0x003e24a4
ipcom_if_changename 0x003e259c
ipcom_if_detach 0x003e26a8
ipcom_if_free 0x003e27f4
ipcom_if_malloc 0x003e2898
ipcom_if_nametoindex 0x003e2994
ipcom_if_indextoname 0x003e2a7c
ipcom_if_nameindex 0x003e2b98
ipcom_if_freenameindex 0x003e2cf4
ipcom_if_nametonetif 0x003e2d04
ipnet_suspend_stack 0x003e2e3c
ipnet_resume_stack 0x003e2ed4
ipnet_pcap_session_key_func 0x003e2f80
ipnet_pcap_session_obj_func 0x003e2f8c
ipnet_pcap_session_cmp_func 0x003e2fb4
ipnet_pcap_fill_header 0x003e2fcc
ipnet_pcap_new_record 0x003e3080
ipnet_pcap_file_add_record 0x003e30f8
ipnet_pcap_add_record 0x003e3174
ipnet_pcap_link_input 0x003e31c8
ipnet_pcap_drv_output 0x003e3224
ipnet_pcap_file_init 0x003e3280
ipnet_pcap_ioctl 0x003e333c
ipnet_pkt_pool_unlock_sched_drain 0x003e355c
ipnet_pkt_pool_wakeup_tmo 0x003e3594
ipnet_issue_pktavail_cb 0x003e35dc
ipnet_pkt_pool_hdr_ctor 0x003e36a4
ipnet_pkt_pool_hdr_dtor 0x003e36bc
ipcom_pktbuf_free 0x003e36c0
ipnet_pkt_drain 0x003e3714
ipnet_pkt_pool_init 0x003e37b0
ipnet_pkt_pool_hdr_count_hint 0x003e38d0
ipnet_config_cmd_ifconfig 0x003e3964
ipnet_config_cmd_qc 0x003e39a4
ipnet_config_cmd_route 0x003e39e4
ipnet_config_add_route 0x003e3a24
ipnet_config_add_inet_addr 0x003e3bf4
ipnet_config_add_gateway 0x003e3e40
ipnet_config_bring_up_if 0x003e3f54
ipnet_config_interface 0x003e3fac
ipnet_config_run_boot_cmd 0x003e4178
ipnet_boot_config 0x003e42cc
ipnet_ppp_input 0x003e4728
ipnet_ppp_ioctl 0x003e472c
ipnet_ppp_ip4_output 0x003e4730
ipnet_ppp_ioevent 0x003e4738
ipnet_ppp_ioevent_init 0x003e4784
ipcom_ppp_ioevent 0x003e4788
ipppp_if_init2 0x003e4ae8
ipnet_ip4_mcast_vr_obj_hash 0x003e4b9c
ipnet_ip4_mcast_vr_key_hash 0x003e4bb0
ipnet_ip4_mcast_vr_hash_cmp 0x003e4bbc
ipnet_ip4_mcast_rt_obj_hash 0x003e4bd8
ipnet_ip4_mcast_rt_key_hash 0x003e4be8
ipnet_ip4_mcast_rt_hash_cmp 0x003e4bf4
ipnet_ip4_mcast_del_mrt 0x003e4c24
ipnet_ip4_mcast_hash_del_mrt 0x003e4c88
ipnet_ip4_mcast_get_cached_mrt 0x003e4cc8
ipnet_ip4_mcast_mrt_init 0x003e4d34
ipnet_ip4_mcast_netiftovif 0x003e4e7c
ipnet_ip4_mcast_mrt_report 0x003e4ed8
ipnet_ip4_mcast_mrt_timeout 0x003e4fc4
ipnet_ip4_mcast_cache_unresolved 0x003e4fcc
ipnet_ip4_mcast_output 0x003e50f4
ipnet_ip4_mcast_add_vif 0x003e5280
ipnet_ip4_mcast_del_vif 0x003e5554
ipnet_ip4_mcast_del_mfc 0x003e5668
ipnet_ip4_mcast_set_assert 0x003e56ec
ipnet_ip4_mcast_mrt_done 0x003e5730
ipnet_ip4_mcast_getsockopt 0x003e57ec
ipnet_ip4_mcast_ioctl 0x003e589c
ipnet_ip4_mcast_input 0x003e59c4
ipnet_ip4_mcast_add_mfc 0x003e5b90
ipnet_ip4_mcast_setsockopt 0x003e5d54
ipnet_pim_ip4_input 0x003e5eb8
ipnet_pkt_queue_dpaf_cmp_func 0x003e60dc
ipnet_pkt_queue_dpaf_store_index 0x003e60ec
ipnet_pkt_queue_dpaf_dequeue2 0x003e611c
ipnet_pkt_queue_dpaf_enqueue2 0x003e61f0
ipnet_pkt_queue_dpaf_enqueue 0x003e62bc
ipnet_pkt_queue_dpaf_dequeue 0x003e6380
ipnet_pkt_queue_dpaf_requeue 0x003e63ec
ipnet_pkt_queue_dpaf_count 0x003e6400
ipnet_pkt_queue_dpaf_dump 0x003e6408
ipnet_pkt_queue_dpaf_configure 0x003e6414
ipnet_pkt_queue_dpaf_destroy 0x003e6424
ipnet_pkt_queue_dpaf_init 0x003e646c
ipnet_pkt_queue_dpaf_template 0x003e6504
ipnet_pkt_queue_htbc_retry_cb 0x003e6580
ipnet_pkt_queue_htbc_dequeue 0x003e65fc
ipnet_pkt_queue_htbc_requeue 0x003e672c
ipnet_pkt_queue_htbc_count 0x003e673c
ipnet_pkt_queue_htbc_reset 0x003e6798
ipnet_pkt_queue_htbc_dump 0x003e67f4
ipnet_pkt_queue_htbc_configure 0x003e683c
ipnet_pkt_queue_htbc_init 0x003e691c
ipnet_pkt_queue_htbc_destroy 0x003e6a14
ipnet_pkt_queue_htbc_get 0x003e6a90
ipnet_pkt_queue_htbc_enqueue 0x003e6b20
ipnet_pkt_queue_htbc_remove 0x003e6ba0
ipnet_pkt_queue_htbc_insert 0x003e6c00
ipnet_pkt_queue_htbc_f_insert 0x003e6ca0
ipnet_pkt_queue_htbc_f_remove 0x003e6cf4
ipnet_pkt_queue_htbc_template 0x003e6cfc
ipnet_pkt_queue_mbc_insert_default_queue 0x003e6de4
ipnet_pkt_queue_mbc_enqueue 0x003e6e80
ipnet_pkt_queue_mbc_dequeue 0x003e6ed8
ipnet_pkt_queue_mbc_requeue 0x003e6f48
ipnet_pkt_queue_mbc_count 0x003e6fa0
ipnet_pkt_queue_mbc_reset 0x003e7000
ipnet_pkt_queue_mbc_dump 0x003e7054
ipnet_pkt_queue_mbc_configure 0x003e7098
ipnet_pkt_queue_mbc_init 0x003e71dc
ipnet_pkt_queue_mbc_destroy 0x003e7244
ipnet_pkt_queue_mbc_get 0x003e72c0
ipnet_pkt_queue_mbc_remove 0x003e7360
ipnet_pkt_queue_mbc_insert 0x003e7400
ipnet_pkt_queue_mbc_f_insert 0x003e7494
ipnet_pkt_queue_mbc_f_remove 0x003e751c
ipnet_pkt_queue_mbc_template 0x003e7524
ipnet_pkt_queue_netemu_pq_cmp 0x003e76b4
ipnet_pkt_queue_netemu_corrupt 0x003e7764
ipnet_pkt_queue_netemu_retry_cb 0x003e77d4
ipnet_pkt_queue_netemu_enqueue 0x003e784c
ipnet_pkt_queue_netemu_dequeue 0x003e7a58
ipnet_pkt_queue_netemu_requeue 0x003e7af0
ipnet_pkt_queue_netemu_count 0x003e7af8
ipnet_pkt_queue_netemu_reset 0x003e7b00
ipnet_pkt_queue_netemu_dump 0x003e7b40
ipnet_pkt_queue_netemu_configure 0x003e7b8c
ipnet_pkt_queue_netemu_init 0x003e7bdc
ipnet_pkt_queue_netemu_destroy 0x003e7c38
ipnet_pkt_queue_netemu_template 0x003e7c74
ipnet_pkt_queue_null_enqueue 0x003e7c88
ipnet_pkt_queue_null_dequeue 0x003e7cb0
ipnet_pkt_queue_null_count 0x003e7cb8
ipnet_pkt_queue_null_dump 0x003e7cc0
ipnet_pkt_queue_null_configure 0x003e7cc4
ipnet_pkt_queue_null_init 0x003e7ccc
ipnet_pkt_queue_null_template 0x003e7cd4
ipnet_tunnel_nat_t 0x003e7ce8
ipnet_tunnel_min_encap_create_header 0x003e7ec8
ipnet_tunnel_min_encap_input 0x003e8010
ipnet_tunnel_ip4_obj_hash 0x003e8168
ipnet_tunnel_ip4_key_hash 0x003e81b4
ipnet_tunnel_ip4_hash_cmp 0x003e8214
ipnet_tunnel_tos 0x003e82bc
ipnet_tunnel_ip4_output 0x003e82e8
ipnet_tunnel_output 0x003e84f0
ipnet_tunnel_input 0x003e86fc
ipnet_tunnel_get_frame_info 0x003e88a8
ipnet_tunnel_get_type 0x003e8944
ipnet_tunnel_get_basetype 0x003e89b8
ipnet_tunnel_get_basename 0x003e8a68
ipnet_tunnel_type 0x003e8b60
ipnet_tunnel_configure 0x003e8b80
ipnet_tunnel_ioctl 0x003e8be0
ipnet_tunnel_ip4_input 0x003e931c
ipnet_tunnel_ip4_rfc3519_input 0x003e9488
ipnet_tunnel_dsmipv6_input 0x003e94bc
ipnet_tunnel_setup 0x003e954c
ipnet_tunnel_add 0x003e95d0
ipnet_tunnel_create_bsd 0x003e969c
ipnet_tunnel_create_linux 0x003e96ec
ipnet_tunnel_if_init 0x003e9794
ipnet_vlan_obj_hash 0x003e9a84
ipnet_vlan_key_hash 0x003e9a98
ipnet_vlan_hash_cmp 0x003e9aa4
ipnet_vlan_bind 0x003e9ac0
ipnet_vlan_unbind 0x003e9bec
ipnet_vlan_link_ioctl 0x003e9d08
ipnet_vlan_drv_ioctl 0x003ea0d8
ipnet_vlan_drv_output 0x003ea1cc
ipnet_vlan_create 0x003ea240
ipnet_vlan_compact_create 0x003ea2c0
ipnet_vlan_add_frame_header 0x003ea40c
ipnet_vlan_if_init 0x003ea498
ipnet_nat_mapping_get 0x003ea51c
ipnet_nat_get_id 0x003ea584
ipnet_nat_release_id 0x003ea648
ipnet_nat_clean_mapping 0x003ea680
ipnet_nat_mapping_timeout 0x003ea750
ipnet_nat_obj_hash_out_port 0x003ea7c0
ipnet_nat_key_hash_out_port 0x003ea834
ipnet_nat_cmp_hash_out_port 0x003ea8a4
ipnet_nat_obj_hash_out_noport 0x003ea904
ipnet_nat_key_hash_out_noport 0x003ea958
ipnet_nat_cmp_hash_out_noport 0x003ea9a8
ipnet_nat_obj_hash_in_port 0x003ea9e8
ipnet_nat_key_hash_in_port 0x003eaa5c
ipnet_nat_cmp_hash_in_port 0x003eaacc
ipnet_nat_obj_hash_in_noport 0x003eab2c
ipnet_nat_key_hash_in_noport 0x003eab80
ipnet_nat_cmp_hash_in_noport 0x003eabd0
ipnet_nat_translate_address 0x003eac10
ipnet_nat_get_configuration 0x003eac48
ipnet_nat_remove_mappings 0x003ead20
ipnet_nat_internal_add_rule 0x003ead88
ipnet_nat_internal_remove_rule 0x003eaf78
ipnet_nat_internal_flush_rules 0x003eb018
ipnet_nat_internal_get_rule 0x003eb078
ipnet_nat_internal_get_mapping 0x003eb10c
ipnet_nat_internal_get_proxy 0x003eb1a0
ipnet_nat_internal_get_info 0x003eb234
ipnet_nat_internal_clear_stats 0x003eb284
ipnet_nat_internal_enable 0x003eb2bc
ipnet_nat_internal_disable 0x003eb368
ipnet_nat_assign_mapping 0x003eb3bc
ipnet_nat_reset_mapping_timeout 0x003eb684
ipnet_nat_assign_timeout 0x003eb6f0
ipnet_nat_translate_icmp_id 0x003eb7f0
ipnet_nat_get_tuple 0x003eb864
ipnet_nat_match_rule 0x003eba84
ipnet_nat_checksum_update 0x003ebcc0
ipnet_nat_translate_embedded_icmp 0x003ebd68
ipnet_nat_tcp_checksum 0x003ec044
ipnet_nat_udp_checksum 0x003ec234
ipnet_nat_icmp_checksum 0x003ec3b0
ipnet_nat_update_sequence_number 0x003ec490
ipnet_nat_translate_sequence_number 0x003ec4d8
ipnet_nat_translate_ack_number 0x003ec58c
ipnet_nat_proxy 0x003ec648
ipnet_nat_translate_tcpudp_port 0x003ec8e0
ipnet_nat_translate 0x003ec90c
ipnet_nat_add_mapping 0x003ecc18
ipnet_nat_update_mapping 0x003ece74
ipnet_nat_embedded_tuple 0x003ecfa0
ipnet_nat_find_mapping 0x003ed148
ipnet_nat_loop_rules 0x003ed5ec
ipnet_nat_getsockopt 0x003ed7c0
ipnet_nat_setsockopt 0x003ed864
ipnet_nat_input_hook 0x003ed948
ipnet_nat_output_hook 0x003ed9a0
ipnet_nat_proxy_get_time 0x003eda28
ipnet_nat_proxy_timeout_schedule 0x003eda2c
ipnet_nat_proxy_timeout_cancel 0x003eda34
ipnet_nat_proxy_timeout_reschedule 0x003eda38
ipnet_nat_proxy_add_mapping 0x003eda88
ipnet_nat_proxy_set_mapping_timeout 0x003edcec
ipnet_nat_add_proxy 0x003edcf8
ipnet_nat_init 0x003edf48
ipnet_nat_remove_proxy 0x003ee2cc
ipnet_nat_proxy_ftp_port_cmd 0x003eebcc
ipnet_nat_proxy_ftp_extport_cmd 0x003eef1c
ipnet_nat_proxy_ftp_extpasv_cmd 0x003ef284
ipnet_nat_proxy_ftp_pasv_rep 0x003ef2fc
ipnet_nat_proxy_ftp_extpasv_rep 0x003ef664
ipnet_nat_proxy_ftp 0x003ef8a4
ipnet_nat_proxy_h245_msg 0x003efb70
ipnet_nat_proxy_h245 0x003efcd4
ipnet_nat_proxy_h225_msg 0x003efd0c
ipnet_nat_proxy_h323 0x003f00b4
ipnet_nat_proxy_esp_translation_timeout 0x003f0194
ipnet_nat_proxy_ipsec_esp_find_pending 0x003f01c4
ipnet_nat_proxy_ipsec_esp_match_outbound 0x003f0228
ipnet_nat_proxy_ipsec_esp_match_inbound 0x003f0294
ipnet_nat_proxy_ipsec_esp_new 0x003f0304
ipnet_nat_proxy_isakmp_translation_timeout 0x003f03fc
ipnet_nat_proxy_ipsec_isakmp_match_outbound 0x003f042c
ipnet_nat_proxy_ipsec_isakmp_match_inbound 0x003f04d0
ipnet_nat_proxy_ipsec_isakmp_new 0x003f0564
ipnet_nat_proxy_ipsec_isakmp_cleanup_list 0x003f06b4
ipnet_nat_proxy_ipsec_isakmp_find_active 0x003f0780
ipnet_nat_proxy_ipsec_esp 0x003f07f0
ipnet_nat_proxy_ipsec_isakmp 0x003f0a38
ipnet_nat_proxy_ipsec 0x003f0d4c
ipnet_nat_proxy_trigger 0x003f0fb0
ipnet_nat_proxy_pptp_messsage_type 0x003f11a0
ipnet_nat_proxy_pptp_translation_timeout 0x003f12bc
ipnet_nat_proxy_pptp_find_outbound_entry_peer 0x003f12ec
ipnet_nat_proxy_pptp_find_outbound_entry 0x003f1358
ipnet_nat_proxy_pptp_find_inbound_entry 0x003f13c4
ipnet_nat_proxy_pptp_new 0x003f1434
ipnet_nat_proxy_pptp_new_spoofed_call_id 0x003f1530
ipnet_nat_proxy_pptp_gre 0x003f15d0
ipnet_nat_proxy_pptp_control 0x003f173c
ipnet_nat_proxy_pptp 0x003f1a3c
ipnet_nat_proxy_sip_faststrsearch 0x003f1d24
ipnet_nat_proxy_sip_keyfind 0x003f1e18
ipnet_nat_proxy_sip_outboundmsgtypecheck 0x003f1f50
ipnet_nat_proxy_sip_inboundmsgtypecheck 0x003f21e4
ipnet_nat_proxy_sip_endmsgprocess 0x003f23f4
ipnet_nat_proxy_sip_addrportstrparse 0x003f240c
ipnet_nat_proxy_sip_callidstr 0x003f2534
ipnet_nat_proxy_sip_modmsg 0x003f25e4
ipnet_nat_proxy_sip_localaddrprocess 0x003f267c
ipnet_nat_proxy_sip_payload_parse 0x003f2864
ipnet_nat_proxy_sip_msg 0x003f2e48
ipnet_nat_proxy_sip 0x003f2e78
ipnet_classifier_addr_match 0x003f31bc
ipnet_classifier_port_match 0x003f3264
ipnet_classifier_ip4_get_tag 0x003f32c8
ipnet_classifier_get_map 0x003f33f0
ipnet_classifier_pkt_to_tag 0x003f3440
ipnet_classifier_set_tag 0x003f3498
ipnet_classifier_invalidate_tag 0x003f34dc
ipnet_classifier_get_smallest_unused_id 0x003f352c
ipnet_classifier_add_mapping 0x003f358c
ipnet_classifier_del_mapping 0x003f3724
ipnet_classifier_new 0x003f376c
ipnet_classifier_delete 0x003f37cc
ipnet_frag_list_len 0x003f3984
ipnet_fragment_packet 0x003f39bc
ipnet_reassembly 0x003f3be8
ipnet_create_reassembled_packet 0x003f3ec0
ipnet_gre_seq_cmp 0x003f40c8
ipnet_gre_destroy 0x003f4154
ipnet_gre_setup 0x003f41c0
ipnet_gre_seq_tmo 0x003f424c
ipnet_gre_input 0x003f4398
ipnet_gre_output_append 0x003f462c
userPPPFuncDummy 0x003f482c
SetPPP_Eventfunc 0x003f4868
GetStatusPPP 0x003f4884
ipppp_auth_login_hook 0x003f488c
ipppp_example_action_work_default 0x003f498c
ipppp_action_cb 0x003f4c8c
ipppp_sysvar_get_conf 0x003f4cdc
ipppp_sysvar_get_conf_as_int 0x003f4e28
ipppp_sysvar_get_conf_string 0x003f4e64
ipppp_ip4_get_dstaddr 0x003f4eb4
ipppp_pkt_malloc 0x003f5014
ipppp_drv_ioctl 0x003f5130
ipppp_log 0x003f5160
ipppp_timer_cancel 0x003f5338
ipppp_timer_set 0x003f54e0
ipppp_action_irc 0x003f5618
ipppp_win_output 0x003f568c
ipppp_coderej_input 0x003f57c8
ipppp_output 0x003f5844
ipppp_chap_response_output 0x003f5ca8
ipppp_chap_challenge_output 0x003f5e08
ipppp_pap_request_output 0x003f5f64
ipppp_ip4_output 0x003f609c
ipppp_termack_reply 0x003f612c
ipppp_echoreq_output 0x003f6180
ipppp_termreq_output 0x003f6278
ipppp_confreq_output 0x003f62e8
ipppp_event_up 0x003f69a4
ipppp_login 0x003f6a74
ipppp_event_close 0x003f6c3c
ipppp_action_starting 0x003f6dac
ipppp_event_down 0x003f70ac
ipppp_event_open 0x003f71d8
ipppp_action_up 0x003f732c
ipppp_action_down 0x003f7794
ipppp_action_lcp_close 0x003f7918
ipppp_authenticate 0x003f7a24
ipppp_ioctl 0x003f7db4
ipppp_drv_wincompat 0x003f82c8
ipppp_drv_open 0x003f840c
ipppp_action_finished 0x003f84c0
ipppp_termack_input 0x003f8804
ipppp_confnakrej_input 0x003f8910
ipppp_link_down 0x003f8f84
ipppp_confreq_input 0x003f8ffc
ipppp_confack_input 0x003f97c4
ipppp_chap_input 0x003f98fc
ipppp_pap_input 0x003f9c6c
ipppp_echorep_input 0x003f9f14
ipppp_echoreq_input 0x003f9fd4
ipppp_termreq_input 0x003fa0e4
ipppp_protrej_input 0x003fa1c8
ipppp_prot_input 0x003fa274
ipppp_input 0x003fa408
ipppp_link_up 0x003faaf0
ipppp_ioevent 0x003fac58
ipppp_timeout 0x003fad4c
ipppp_lock 0x003fb028
ipppp_unlock 0x003fb02c
ipppp_if_create 0x003fb030
ipppp_if_init 0x003fb03c
ipppp_if_attach 0x003fb150
ipppp_create 0x003fb1ec
ipppp_start 0x003fb220
ipppp_version 0x003fb2b4
ipppp_pppoe_set_cookie 0x003fc750
ipppp_pppoe_sessionidtonetif 0x003fc7fc
ipppp_pppoe_ascii_addr 0x003fc874
ipppp_pppoe_send_padt 0x003fc8dc
ipppp_pppoe_send_padi 0x003fc990
ipppp_pppoe_timeout 0x003fcad0
ipppp_pppoe_drv_output 0x003fcad4
ipppp_pppoe_if_malloc 0x003fcc00
ipppp_pppoe_if_create_server 0x003fccec
ipppp_pppoe_if_detach 0x003fcd74
ipppp_pppoe_drv_ioctl 0x003fce10
ipppp_pppoe_create 0x003fd120
ipppp_pppoe_input 0x003fd160
ipppp_cmd_pppconfig_sysvar_each_cb 0x003fe3f0
ipppp_cmd_pppconfig_sysvar_each_user_cb 0x003fe42c
ipppp_cmd_pppconfig_sysvar_each_if_cb 0x003fe490
ipppp_cmd_pppconfig_sysvar_each_ifp_cb 0x003fe4f4
ipppp_cmd_pppconfig_sprintbit 0x003fe588
ipppp_cmd_pppconfig_print_interface 0x003fe650
ipppp_cmd_pppconfig_cache_interface 0x003fe9c4
ipppp_cmd_pppconfig_list_interfaces 0x003fec48
ipppp_cmd_pppconfig 0x003fecf4
ipradius_inaddr_equal 0x00401014
ipradius_server_equal 0x0040105c
ipradius_addr_to_str 0x00401100
ipradius_get_lexicographic_server 0x00401164
ipradius_session_free 0x004011e8
ipradius_servent_free 0x00401230
ipradius_packet_id_alloc 0x0040131c
ipradius_packet_id_free 0x004013bc
ipradius_reqent_free 0x00401464
ipradius_set_server 0x004014b4
ipradius_attr_check 0x00401600
ipradius_access_accept 0x004016f0
ipradius_access_reject 0x00401750
ipradius_access_challenge 0x004017b0
ipradius_md5_encrypt 0x00401810
ipradius_hmac_md5 0x00401858
ipradius_session_find 0x00401994
ipradius_request_entry_find 0x00401a00
ipradius_packet_validate 0x00401acc
ipradius_attr_find 0x00401be8
ipradius_attr_add_array 0x00401c3c
ipradius_attr_add_u32 0x00401cb0
ipradius_password_insert 0x00401cdc
ipradius_attr_add_message_auth 0x00401f38
ipradius_request_packet_send 0x00401fa0
ipradius_accounting_request_create 0x00402268
ipradius_tick 0x00402440
ipradius_attr_get_u32 0x0040269c
ipradius_accounting_response 0x0040270c
ipradius_attr_get_array 0x004027e4
ipradius_attr_get_next 0x004027e8
ipradius_attr_change_u32 0x00402838
ipradius_attr_verify_message_auth 0x00402884
ipradius_init 0x0040292c
ipradius_open 0x004029a4
ipradius_close 0x00402a68
ipradius_exit 0x00402b7c
ipradius_ctrl 0x00402bb8
ipradius_server_add 0x00402d0c
ipradius_server_remove 0x00402f54
ipradius_server_ctrl 0x00402ff8
ipradius_check_request_unlocked 0x00403240
ipradius_check_request 0x0040329c
ipradius_access_request_pkt_malloc 0x00403308
ipradius_access_request_pkt_free 0x004033c0
ipradius_access_request 0x00403428
ipradius_accounting_session_start 0x004035e0
ipradius_accounting_session_stop 0x0040370c
ipradius_accounting_session_update 0x00403808
ipradius_read 0x00403898
ipradius_get_numattempts 0x00403a7c
ipradius_create 0x00403ae8
ipradius_start 0x00403b0c
ipradius_version 0x00403b8c
ipradius_errname2 0x00403e58
ipradius_errname 0x00403fa8
ipradius_example_event_callback 0x00403ff8
ipradius_run_command 0x0040428c
ipradius_cmd_exit 0x00404310
ipradius_cmd_help 0x00404318
ipradius_cmd_servadd 0x00404320
ipradius_cmd_servdel 0x00404448
ipradius_cmd_accessmib 0x0040452c
ipradius_cmd_acctmib 0x00404760
ipradius_cmd_close 0x0040497c
ipradius_cmd_open 0x004049e0
ipradius_example_recv 0x00404a7c
ipradius_cmd_accounting 0x00404c44
ipradius_cmd_access 0x00404f18
ipradius_setup 0x00405174
ipradius_cleanup 0x00405314
ipradius_cmd_radiusc 0x00405390
ipssl_ciphers 0x00406fc8
ipssl_s_time 0x00407008
ipssl_s_client 0x00407048
ipssl_s_server 0x00407088
SSL_library_init 0x004070c8
ipssl_create 0x004070d0
ipssl_get_stdio_fd 0x004070f4
ipssl_start 0x00407114
ipssl_version 0x0040711c
ssl_load_ciphers 0x0040717c
sk_comp_cmp 0x0040725c
load_builtin_compressions 0x00407274
ssl_cipher_get_evp 0x004073a4
ll_append_tail 0x004075d4
ssl_cipher_get_disabled 0x0040763c
ssl_cipher_collect_ciphers 0x00407728
ssl_cipher_collect_aliases 0x0040784c
ssl_cipher_apply_rule 0x004078c0
ssl_cipher_strength_sort 0x00407ab8
ssl_cipher_process_rulestr 0x00407c04
ssl_create_cipher_list 0x00407f88
SSL_CIPHER_description 0x004081f0
SSL_CIPHER_get_version 0x0040871c
SSL_CIPHER_get_name 0x0040876c
SSL_CIPHER_get_bits 0x00408788
ssl3_comp_find 0x004087b0
SSL_COMP_get_compression_methods 0x0040881c
SSL_COMP_add_compression_method 0x00408840
SSL_COMP_get_name 0x00408984
SSL_CTX_set_ssl_version 0x00408d58
SSL_CTX_set_session_id_context 0x00408dd8
SSL_set_session_id_context 0x00408e30
SSL_CTX_set_generate_session_id 0x00408e88
SSL_set_generate_session_id 0x00408ef4
SSL_has_matching_session_id 0x00408f60
SSL_CTX_set_purpose 0x00409020
SSL_set_purpose 0x00409028
SSL_CTX_set_trust 0x00409030
SSL_set_trust 0x00409038
SSL_set_bio 0x00409040
SSL_get_rbio 0x004090d0
SSL_get_wbio 0x004090d8
SSL_get_rfd 0x004090e0
SSL_get_fd 0x0040912c
SSL_get_wfd 0x00409130
SSL_set_fd 0x0040917c
SSL_set_wfd 0x004091f8
SSL_set_rfd 0x004092bc
SSL_get_finished 0x00409380
SSL_get_peer_finished 0x004093d8
SSL_get_verify_mode 0x00409430
SSL_get_verify_depth 0x00409438
SSL_get_verify_callback 0x00409440
SSL_CTX_get_verify_mode 0x00409448
SSL_CTX_get_verify_depth 0x00409450
SSL_CTX_get_verify_callback 0x00409458
SSL_set_verify 0x00409460
SSL_set_verify_depth 0x00409474
SSL_set_read_ahead 0x0040947c
SSL_get_read_ahead 0x00409484
SSL_pending 0x0040948c
SSL_get_peer_certificate 0x004094c0
SSL_get_peer_cert_chain 0x0040952c
SSL_copy_session_id 0x0040955c
SSL_CTX_check_private_key 0x00409630
SSL_check_private_key 0x004096c8
SSL_get_default_timeout 0x00409790
SSL_read 0x004097c4
SSL_peek 0x00409844
SSL_write 0x004098bc
SSL_renegotiate 0x00409958
SSL_renegotiate_pending 0x004099a8
SSL_callback_ctrl 0x004099b8
SSL_CTX_sessions 0x00409a00
SSL_CTX_ctrl 0x00409a08
SSL_CTX_callback_ctrl 0x00409bd4
ssl_cipher_id_cmp 0x00409c1c
ssl_cipher_ptr_id_cmp 0x00409c48
SSL_get_ciphers 0x00409c7c
ssl_get_ciphers_by_id 0x00409cb8
SSL_get_cipher_list 0x00409cf4
SSL_CTX_set_cipher_list 0x00409d74
SSL_set_cipher_list 0x00409df4
SSL_get_shared_ciphers 0x00409e78
ssl_cipher_list_to_bytes 0x00409f5c
ssl_bytes_to_cipher_list 0x00409ff4
SSL_get_servername 0x0040a12c
SSL_get_servername_type 0x0040a164
SSL_SESSION_hash 0x0040a198
SSL_SESSION_cmp 0x0040a1c4
SSL_SESSION_hash_LHASH_HASH 0x0040a21c
SSL_SESSION_cmp_LHASH_COMP 0x0040a220
SSL_CTX_free 0x0040a224
SSL_CTX_new 0x0040a34c
SSL_CTX_set_default_passwd_cb 0x0040a648
SSL_CTX_set_default_passwd_cb_userdata 0x0040a650
SSL_CTX_set_cert_verify_callback 0x0040a658
SSL_CTX_set_verify 0x0040a664
SSL_CTX_set_verify_depth 0x0040a670
ssl_set_cert_masks 0x0040a678
check_srvr_ecc_cert_and_alg 0x0040a9a4
ssl_get_server_send_cert 0x0040aad8
ssl_get_sign_pkey 0x0040abf4
ssl_update_cache 0x0040ac98
SSL_get_ssl_method 0x0040ad9c
SSL_set_ssl_method 0x0040ada4
ssl_undefined_function 0x0040ae54
ssl_undefined_void_function 0x0040ae90
ssl_undefined_const_function 0x0040aecc
ssl_bad_method 0x0040af08
SSL_get_version 0x0040af44
ssl_clear_cipher_ctx 0x0040af90
SSL_set_connect_state 0x0040b028
SSL_connect 0x0040b04c
SSL_set_accept_state 0x0040b098
SSL_accept 0x0040b0c0
SSL_free 0x0040b10c
SSL_clear 0x0040b328
SSL_new 0x0040b4d0
SSL_get_certificate 0x0040b738
SSL_get_privatekey 0x0040b758
SSL_get_current_cipher 0x0040b778
SSL_get_current_compression 0x0040b798
SSL_get_current_expansion 0x0040b7b4
ssl_init_wbio_buffer 0x0040b7d0
ssl_free_wbio_buffer 0x0040b8c4
SSL_CTX_set_quiet_shutdown 0x0040b91c
SSL_CTX_get_quiet_shutdown 0x0040b924
SSL_set_quiet_shutdown 0x0040b92c
SSL_get_quiet_shutdown 0x0040b934
SSL_set_shutdown 0x0040b93c
SSL_get_shutdown 0x0040b944
SSL_version 0x0040b94c
SSL_ctrl 0x0040b954
SSL_get_SSL_CTX 0x0040bab8
SSL_set_SSL_CTX 0x0040bac0
SSL_CTX_set_default_verify_paths 0x0040bb5c
SSL_CTX_load_verify_locations 0x0040bb64
SSL_set_info_callback 0x0040bb6c
SSL_get_info_callback 0x0040bb74
SSL_dup 0x0040bb7c
SSL_state 0x0040be90
SSL_do_handshake 0x0040be98
SSL_shutdown 0x0040bf30
SSL_set_verify_result 0x0040bfb8
SSL_get_verify_result 0x0040bfc0
SSL_get_ex_new_index 0x0040bfc8
SSL_set_ex_data 0x0040bfe4
SSL_get_ex_data 0x0040bfec
SSL_CTX_get_ex_new_index 0x0040bff4
SSL_CTX_set_ex_data 0x0040c010
SSL_CTX_get_ex_data 0x0040c018
ssl_ok 0x0040c020
SSL_CTX_get_cert_store 0x0040c028
SSL_CTX_set_cert_store 0x0040c030
SSL_want 0x0040c078
SSL_get_error 0x0040c080
SSL_CTX_set_tmp_rsa_callback 0x0040c214
SSL_set_tmp_rsa_callback 0x0040c220
SSL_CTX_set_tmp_dh_callback 0x0040c22c
SSL_set_tmp_dh_callback 0x0040c238
SSL_CTX_set_msg_callback 0x0040c244
SSL_set_msg_callback 0x0040c250
SSL_get_session 0x0040c388
SSL_get1_session 0x0040c390
SSL_SESSION_get_ex_new_index 0x0040c404
SSL_SESSION_set_ex_data 0x0040c420
SSL_SESSION_get_ex_data 0x0040c428
SSL_SESSION_new 0x0040c430
SSL_SESSION_get_id 0x0040c4e8
def_generate_session_id 0x0040c500
SSL_SESSION_free 0x0040c574
ssl_get_new_session 0x0040c65c
SSL_set_session 0x0040c8f8
SSL_SESSION_set_timeout 0x0040ca64
SSL_SESSION_get_timeout 0x0040ca80
SSL_SESSION_get_time 0x0040ca98
SSL_SESSION_set_time 0x0040cab0
SSL_CTX_set_timeout 0x0040cacc
SSL_CTX_get_timeout 0x0040caec
SSL_CTX_flush_sessions 0x0040cb04
SSL_SESSION_list_remove 0x0040cb98
timeout 0x0040cc20
timeout_LHASH_DOALL_ARG 0x0040ccbc
remove_session_lock 0x0040ccc0
SSL_CTX_remove_session 0x0040cda8
ssl_clear_bad_session 0x0040cdb0
SSL_SESSION_list_add 0x0040ce2c
SSL_CTX_add_session 0x0040cea8
ssl_get_prev_session 0x0040d020
SSL_CTX_sess_set_new_cb 0x0040d360
SSL_CTX_sess_set_remove_cb 0x0040d368
SSL_CTX_sess_set_get_cb 0x0040d370
SSL_CTX_set_info_callback 0x0040d378
SSL_CTX_set_client_cert_cb 0x0040d380
SSL_CTX_set_client_cert_engine 0x0040d388
SSL_CTX_set_cookie_generate_cb 0x0040d434
SSL_CTX_set_cookie_verify_cb 0x0040d43c
sv_usage 0x0040d4d4
print_details 0x0040d75c
lock_dbg_cb 0x0040d87c
doit_biopair 0x0040d9a0
doit 0x0040e0d0
get_proxy_auth_ex_data_idx 0x0040e6c8
verify_callback 0x0040e750
process_proxy_debug 0x0040ea38
process_proxy_cond_val 0x0040eb08
process_proxy_cond_multipliers 0x0040ed00
process_proxy_cond_adders 0x0040ee7c
process_proxy_cond 0x0040efa0
app_verify_callback 0x0040efcc
tmp_rsa_cb 0x0040f280
get_dh512 0x0040f3b4
get_dh1024 0x0040f440
get_dh1024dsa 0x0040f4cc
do_test_cipherlist 0x0040f564
ssltest_main 0x0040f704
tls1_default_timeout 0x0041164c
tlsv1_base_method 0x00411654
tls1_new 0x00411660
tls1_free 0x004116b4
tls1_clear 0x004116b8
ssl_add_clienthello_tlsext 0x004116ec
ssl_add_serverhello_tlsext 0x00411a8c
ssl_parse_clienthello_tlsext 0x00411bc8
ssl_parse_serverhello_tlsext 0x00411f98
ssl_check_clienthello_tlsext 0x00412148
ssl_check_serverhello_tlsext 0x0041227c
tls_decrypt_ticket 0x004123d0
tls1_process_ticket 0x00412614
TLSv1_method 0x004127d4
tls1_get_method 0x004127e0
sc_usage 0x004127fc
ssl_servername_cb 0x00412c00
print_stuff 0x00412c90
s_client_main 0x004131a8
ocsp_resp_cb 0x00414e9c
get_dh512 0x0041622c
s_server_init 0x004162b0
sv_usage 0x00416320
ssl_servername_cb 0x0041683c
cert_status_cb 0x004168f8
print_stats 0x00416c30
close_accept_socket 0x00416e88
init_ssl_connection 0x00416ed4
sv_body 0x00417104
load_dh_param 0x0041790c
s_server_main 0x00417970
www_body 0x00418e80
tmp_rsa_cb 0x00419898
generate_session_id 0x004199d8
verify_callback 0x0041b414
set_cert_stuff 0x0041b5bc
set_cert_key_stuff 0x0041b684
bio_dump_callback 0x0041b744
apps_ssl_info_callback 0x0041b7d4
msg_cb 0x0041b8e4
tlsext_cb 0x0041bfec
init_client_ip 0x0041c81c
init_server_long 0x0041c954
init_server 0x0041ca84
extract_port 0x0041ca90
GetHostByName 0x0041cb08
host_ip 0x0041cc18
extract_host_port 0x0041cd5c
init_client 0x0041ce00
do_accept 0x0041ce54
do_server 0x0041cfe0
s_time_init 0x0041d240
s_time_usage 0x0041d290
parseArgs 0x0041d358
tm_Time_F 0x0041d690
doConnection 0x0041d724
s_time_main 0x0041d898
ciphers_main 0x0041e22c
ipssl_setup_ssl_ctx 0x0041e5fc
ipssl_cmd_init_args 0x0041e6d0
ipssl_cmd_parse_args 0x0041e724
ipssl_get_elapsed_msecs 0x0041e8ac
ipssl_cmd_ssl_clt 0x0041e8d8
ipssl_cmd_ssl_srv 0x0041ed18
add_ocsp_cert 0x0041f65c
add_ocsp_serial 0x0041f714
print_ocsp_summary 0x0041f824
lookup_serial 0x0041fa38
make_ocsp_response 0x0041faec
init_responder 0x0041fd78
do_responder 0x0041fe24
send_ocsp_response 0x0041ff50
query_responder 0x00420010
process_responder 0x00420298
ocsp_main 0x004203b0
BIO_f_ssl 0x00422c74
ssl_new 0x00422c80
ssl_free 0x00422d10
ssl_read 0x00422db0
ssl_write 0x00422f38
ssl_ctrl 0x004230a4
ssl_callback_ctrl 0x0042367c
ssl_puts 0x004236d4
BIO_new_ssl 0x00423720
BIO_new_ssl_connect 0x004237a8
BIO_new_buffer_ssl_connect 0x00423824
BIO_ssl_copy_session_id 0x004238b0
BIO_ssl_shutdown 0x00423948
DTLSv1_client_method 0x004239c4
dtls1_get_client_method 0x004239d0
dtls1_client_hello 0x004239ec
dtls1_get_hello_verify 0x00423cc0
dtls1_send_client_key_exchange 0x00423df4
dtls1_send_client_verify 0x00424150
dtls1_send_client_certificate 0x00424304
dtls1_connect 0x00424508
dtls1_default_timeout 0x00424fd0
dtlsv1_base_method 0x00424fd8
dtls1_new 0x00424fe4
dtls1_free 0x0042513c
dtls1_clear 0x00425258
dtls1_get_cipher 0x00425290
dtls1_copy_record 0x00425340
dtls1_buffer_record 0x004253c4
dtls1_retrieve_buffered_record 0x00425530
have_handshake_fragment 0x00425598
do_dtls1_write 0x00425648
dtls1_write_bytes 0x0042593c
dtls1_write_app_data_bytes 0x004259e8
dtls1_dispatch_alert 0x00425ae0
dtls1_get_bitmap 0x00425c00
dtls1_reset_seq_numbers 0x00425c5c
bytes_to_long_long 0x00425cfc
dtls1_record_bitmap_update 0x00425d98
dtls1_process_record 0x00425e78
dtls1_process_buffered_records 0x0042604c
dtls1_record_replay_check 0x0042611c
dtls1_clear_timeouts 0x004261e0
dtls1_get_record 0x004261f4
dtls1_read_bytes 0x004264cc
DTLSv1_server_method 0x00426e28
dtls1_get_server_method 0x00426e34
dtls1_send_hello_request 0x00426e50
dtls1_send_hello_verify_request 0x00426ec4
dtls1_send_server_hello 0x00427004
dtls1_send_server_done 0x004271b4
dtls1_send_server_key_exchange 0x00427230
dtls1_send_certificate_request 0x00427890
dtls1_send_server_certificate 0x00427ac4
dtls1_accept 0x00427b70
ssl23_get_client_method 0x00428768
SSLv23_client_method 0x004287b8
ssl23_client_hello 0x004287c4
ssl23_get_server_hello 0x00428c30
ssl23_connect 0x00428f88
ssl23_default_timeout 0x0042929c
sslv23_base_method 0x004292a4
ssl23_num_ciphers 0x004292b0
ssl23_get_cipher 0x004292e4
ssl23_get_cipher_by_char 0x0042932c
ssl23_put_cipher_by_char 0x00429370
ssl23_read 0x00429398
ssl23_peek 0x00429444
ssl23_write 0x004294f0
ssl23_get_method 0x004295e4
SSLv23_method 0x00429610
ssl23_write_bytes 0x0042961c
ssl23_read_bytes 0x00429694
ssl23_get_server_method 0x00429714
SSLv23_server_method 0x00429764
ssl23_get_client_hello 0x00429770
ssl23_accept 0x00429e18
SSLv2_client_method 0x0042a084
ssl2_get_client_method 0x0042a090
client_hello 0x0042a0ac
client_finished 0x0042a254
client_certificate 0x0042a300
get_server_verify 0x0042a6cc
get_server_finished 0x0042a87c
ssl2_set_certificate 0x0042aa84
get_server_hello 0x0042ac44
ssl_rsa_public_encrypt 0x0042b1b8
client_master_key 0x0042b290
ssl2_connect 0x0042b5b0
ssl2_enc_init 0x0042ba78
ssl2_enc 0x0042bc80
ssl2_mac 0x0042bcfc
ssl2_default_timeout 0x0042be88
sslv2_base_method 0x0042be90
ssl2_num_ciphers 0x0042be9c
ssl2_get_cipher 0x0042bea4
ssl2_pending 0x0042becc
ssl2_free 0x0042bf14
ssl2_clear 0x0042bf88
ssl2_new 0x0042bfe4
ssl2_ctrl 0x0042c0d4
ssl2_callback_ctrl 0x0042c0ec
ssl2_ctx_ctrl 0x0042c0f4
ssl2_ctx_callback_ctrl 0x0042c0fc
ssl2_get_cipher_by_char 0x0042c104
ssl2_put_cipher_by_char 0x0042c17c
ssl2_generate_key_material 0x0042c1bc
ssl2_write_error 0x0042c33c
ssl2_return_error 0x0042c3fc
ssl2_shutdown 0x0042c434
SSLv2_method 0x0042c5ac
ssl2_get_method 0x0042c5b8
read_n 0x0042c5d4
ssl2_read_internal 0x0042c7f8
ssl2_peek 0x0042cbe4
ssl2_read 0x0042cbec
write_pending 0x0042cbf4
do_ssl_write 0x0042cd0c
ssl2_write 0x0042cfb8
ssl2_do_write 0x0042d0dc
ssl_mt_error 0x0042d19c
ssl2_part_read 0x0042d1b8
SSLv2_server_method 0x0042d304
ssl2_get_server_method 0x0042d310
get_client_hello 0x0042d32c
server_hello 0x0042d7ac
get_client_finished 0x0042d9e0
server_verify 0x0042dbc8
server_finish 0x0042dc74
request_certificate 0x0042dd20
ssl_rsa_private_decrypt 0x0042e250
get_client_master_key 0x0042e31c
ssl2_accept 0x0042e780
ssl3_do_write 0x0042ed10
ssl3_send_finished 0x0042ede0
ssl3_get_finished 0x0042ee9c
ssl3_send_change_cipher_spec 0x0042efc0
ssl3_output_cert_chain 0x0042eff4
ssl3_get_message 0x0042f2ec
ssl_cert_type 0x0042f65c
ssl_verify_alarm_type 0x0042f6d8
ssl3_setup_buffers 0x0042f6f8
SSLv3_client_method 0x0042f878
ssl3_get_client_method 0x0042f884
ssl3_client_hello 0x0042f8a0
ssl3_get_server_hello 0x0042fb1c
ssl3_get_server_certificate 0x0042ffec
ssl3_get_key_exchange 0x00430464
ssl3_get_certificate_request 0x00430be8
ca_dn_cmp 0x00430f40
ssl3_get_new_session_ticket 0x00430f68
ssl3_get_cert_status 0x00431120
ssl3_get_server_done 0x004312bc
ssl3_send_client_key_exchange 0x00431358
ssl3_send_client_verify 0x004316e0
ssl3_check_cert_and_algorithm 0x0043188c
ssl3_check_finished 0x00431b8c
ssl_do_client_cert_cb 0x00431c34
ssl3_send_client_certificate 0x00431cc8
ssl3_connect 0x00431ec4
ssl3_generate_key_block 0x00432988
ssl3_change_cipher_state 0x00432b3c
ssl3_cleanup_key_block 0x00432f94
ssl3_setup_key_block 0x00432ff8
ssl3_enc 0x00433164
ssl3_init_finished_mac 0x00433308
ssl3_finish_mac 0x0043336c
ssl3_handshake_mac 0x004333bc
ssl3_final_finish_mac 0x004334dc
ssl3_cert_verify_mac 0x00433538
ssl3_record_sequence_update 0x00433548
ssl3_mac 0x00433574
ssl3_generate_master_secret 0x004336e8
ssl3_alert_code 0x00433804
ssl3_default_timeout 0x00433b0c
sslv3_base_method 0x00433b14
ssl3_num_ciphers 0x00433b20
ssl3_get_cipher 0x00433b28
ssl3_pending 0x00433b50
ssl3_new 0x00433b84
ssl3_free 0x00433c10
ssl3_clear 0x00433ce0
ssl3_ctrl 0x00433dd4
ssl3_callback_ctrl 0x00434264
ssl3_ctx_ctrl 0x00434304
ssl3_ctx_callback_ctrl 0x004346a0
ssl3_get_cipher_by_char 0x00434710
ssl3_put_cipher_by_char 0x0043477c
ssl3_choose_cipher 0x004347b4
ssl3_get_req_cert_type 0x0043489c
ssl3_shutdown 0x00434910
ssl3_renegotiate 0x00434a04
ssl3_renegotiate_check 0x00434a48
ssl3_read_internal 0x00434ae4
ssl3_peek 0x00434bc4
ssl3_read 0x00434bcc
ssl3_write 0x00434bd4
SSLv3_method 0x0043501c
ssl3_get_method 0x00435028
ssl3_read_n 0x00435044
ssl3_do_uncompress 0x00435234
ssl3_do_compress 0x004352a0
ssl3_write_pending 0x0043530c
do_ssl3_write 0x00435450
ssl3_write_bytes 0x00435700
ssl3_do_change_cipher_spec 0x00435814
ssl3_send_alert 0x00435934
ssl3_get_record 0x004359e8
ssl3_read_bytes 0x00435de0
ssl3_dispatch_alert 0x00436658
SSLv3_server_method 0x004367f0
ssl3_get_server_method 0x004367fc
ssl3_send_hello_request 0x00436818
ssl3_check_client_hello 0x00436878
ssl3_get_client_hello 0x00436914
ssl3_send_server_hello 0x0043710c
ssl3_send_server_done 0x004372c8
ssl3_send_server_key_exchange 0x0043732c
ssl3_send_certificate_request 0x00437994
ssl3_get_client_key_exchange 0x00437bbc
ssl3_get_cert_verify 0x00437f44
ssl3_get_client_certificate 0x00438268
ssl3_send_server_certificate 0x00438688
ssl3_send_newsession_ticket 0x0043872c
ssl3_send_cert_status 0x00438a68
ssl3_accept 0x00438b58
i2d_SSL_SESSION 0x0043964c
d2i_SSL_SESSION 0x00439d48
SSL_get_ex_data_X509_STORE_CTX_idx 0x0043ac0c
ssl_cert_new 0x0043acd0
ssl_cert_dup 0x0043ad54
ssl_cert_free 0x0043b01c
ssl_cert_inst 0x0043b0c4
ssl_sess_cert_new 0x0043b158
ssl_sess_cert_free 0x0043b1dc
ssl_set_peer_cert_type 0x0043b284
ssl_verify_cert_chain 0x0043b290
set_client_CA_list 0x0043b3e4
SSL_dup_CA_list 0x0043b434
SSL_set_client_CA_list 0x0043b4c4
SSL_CTX_set_client_CA_list 0x0043b4cc
SSL_CTX_get_client_CA_list 0x0043b4d4
SSL_get_client_CA_list 0x0043b4dc
add_client_CA 0x0043b530
SSL_add_client_CA 0x0043b5c4
SSL_CTX_add_client_CA 0x0043b5cc
xname_cmp 0x0043b5d4
SSL_load_client_CA_file 0x0043b5e0
SSL_add_file_cert_subjects_to_stack 0x0043b778
SSL_add_dir_cert_subjects_to_stack 0x0043b8b8
SSL_load_error_strings 0x0043bb20
ssl_set_pkey 0x0043bb40
SSL_use_RSAPrivateKey 0x0043bc54
SSL_use_RSAPrivateKey_file 0x0043bd34
SSL_use_RSAPrivateKey_ASN1 0x0043be78
SSL_use_PrivateKey 0x0043bf00
SSL_use_PrivateKey_file 0x0043bf9c
SSL_use_PrivateKey_ASN1 0x0043c0e0
ssl_set_cert 0x0043c168
SSL_CTX_use_certificate 0x0043c2b4
SSL_use_certificate 0x0043c350
SSL_use_certificate_ASN1 0x0043c3ec
SSL_use_certificate_file 0x0043c474
SSL_CTX_use_certificate_file 0x0043c5b8
SSL_CTX_use_certificate_ASN1 0x0043c6f8
SSL_CTX_use_RSAPrivateKey 0x0043c784
SSL_CTX_use_RSAPrivateKey_file 0x0043c864
SSL_CTX_use_RSAPrivateKey_ASN1 0x0043c9a4
SSL_CTX_use_PrivateKey 0x0043ca2c
SSL_CTX_use_PrivateKey_file 0x0043cac8
SSL_CTX_use_PrivateKey_ASN1 0x0043cc08
SSL_CTX_use_certificate_chain_file 0x0043cc90
SSL_state_string_long 0x0043ce78
SSL_rstate_string_long 0x0043dd80
SSL_state_string 0x0043ddd0
SSL_alert_type_string_long 0x0043ead0
SSL_alert_type_string 0x0043eb08
SSL_alert_desc_string 0x0043eb40
SSL_alert_desc_string_long 0x0043ee20
SSL_rstate_string 0x0043f100
SSL_SESSION_print 0x004402c0
SSL_SESSION_print_fp 0x00440724
TLSv1_client_method 0x00440998
tls1_get_client_method 0x004409a4
tls1_P_hash 0x004409c0
tls1_PRF 0x00440b38
tls1_generate_key_block 0x00440be0
tls1_change_cipher_state 0x00440c78
tls1_setup_key_block 0x00441144
tls1_enc 0x004412e0
tls1_cert_verify_mac 0x00441588
tls1_final_finish_mac 0x004415ec
tls1_mac 0x004416c0
tls1_generate_master_secret 0x00441880
tls1_alert_code 0x00441918
ipssl_tls1_PRF 0x00441b88
TLSv1_server_method 0x00441c94
tls1_get_server_method 0x00441ca0
dtls1_hm_fragment_new 0x00441cbc
dtls1_hm_fragment_free 0x00441d3c
dtls1_preprocess_fragment 0x00441d78
dtls1_retrieve_buffered_fragment 0x00441e94
dtls1_process_out_of_seq_message 0x00441f7c
dtls1_buffer_message 0x004420d4
dtls1_clear_record_buffer 0x0044221c
dtls1_set_message_header_int 0x00442274
dtls1_set_message_header 0x00442290
dtls1_output_cert_chain 0x004422ec
dtls1_fix_message_header 0x00442598
dtls1_write_message_header 0x004425a8
dtls1_guess_mtu 0x00442628
dtls1_do_write 0x00442668
dtls1_retransmit_message 0x00442a38
dtls1_retransmit_buffered_messages 0x00442b4c
dtls1_read_failed 0x00442bec
dtls1_send_change_cipher_spec 0x00442cf8
dtls1_send_finished 0x00442dd4
dtls1_get_message_header 0x00442e98
dtls1_get_message_fragment 0x00442f58
dtls1_get_message 0x004431dc
dtls1_get_ccs_header 0x00443400
dtls1_enc 0x004436c0
ERR_load_SSL_strings 0x00443a4c
iptcp_at_mark 0x00445fa4
iptcp_option_len 0x0044600c
iptcp_get_mss 0x0044605c
iptcp_usr_async_notification 0x00446128
iptcp_flag_count 0x00446198
iptcp_segment_new 0x004461d0
iptcp_segment_delete 0x00446234
iptcp_timeout_ptr 0x00446278
iptcp_timer_remove 0x00446304
iptcp_timer_add 0x004463a0
iptcp_timer_remove_retransmit 0x004465a4
iptcp_timer_remove_all 0x004466e8
iptcp_append_recv_data 0x00446768
iptcp_queue_out_of_order_recv_segment 0x00446850
iptcp_queue_recv_segment 0x004469c8
iptcp_usr_peek_recv_queue 0x00446b74
iptcp_usr_get_from_recv_queue 0x00446c0c
iptcp_cleanup_receive_buffer 0x00447024
iptcp_cleanup 0x004470b0
iptcp_calc_md5_digest 0x004471b0
iptcp_process_md5_opt 0x004472b0
iptcp_add_sack_opt 0x00447330
iptcp_process_sack_opt 0x00447530
iptcp_process_options 0x00447644
iptcp_sendto 0x00447924
iptcp_is_addr_valid 0x00447d94
iptcp_server_add_to_backlog 0x00447e44
iptcp_server_remove_from_backlog 0x00447ea4
iptcp_server_handshake_done 0x00447f8c
iptcp_update_send_window 0x00448010
iptcp_update_roundtrip_estimate 0x00448110
iptcp_process_syn 0x00448214
iptcp_deliver_state_listen 0x0044823c
iptcp_sock_kclose 0x00448278
iptcp_output 0x004482f0
iptcp_create_output_seg 0x0044867c
iptcp_drop_connection 0x0044891c
iptcp_change_state 0x004489d4
iptcp_schedule_delayed_ack 0x00448cc0
iptcp_timeout_dack 0x00448d60
iptcp_timeout_lope 0x00448ddc
iptcp_timeout_rsrt 0x00448e1c
iptcp_timeout_lngr 0x00448e28
iptcp_timeout_tiwa 0x00448e30
iptcp_deliver_data 0x00448e38
iptcp_drop_oldest_closed_socket 0x00449050
iptcp_send_reset 0x004490a8
iptcp_deliver_state_syn_rcvd_or_higher 0x004492b4
iptcp_deliver_state_syn_sent 0x004495dc
iptcp_deliver 0x004496b8
iptcp_resend 0x00449a90
iptcp_fast_retransmit 0x00449c38
iptcp_notify_cb 0x00449d64
iptcp_gap_fast_retransmit 0x00449de4
iptcp_timeout_perskeep 0x00449eb4
iptcp_timeout_pers 0x00449f90
iptcp_timeout_keep 0x00449f98
iptcp_timeout_retr 0x00449fa0
iptcp_timeout_conn 0x0044a024
iptcp_server_dos_avoidance 0x0044a078
iptcp_server_socket_new 0x0044a0f0
iptcp_handle_passive_open 0x0044a3b8
iptcp_resize_backlog 0x0044a544
iptcp_fast_ack 0x0044a6c8
iptcp_fast_deliver_data 0x0044a85c
iptcp_bytes_in_send_queue 0x0044aaac
iptcp_last_urgent_octet_offset 0x0044aadc
iptcp_window_update 0x0044ab34
iptcp_pkt_drain 0x0044abec
iptcp_input 0x0044acb0
iptcp_sock_init 0x0044b420
iptcp_connect 0x0044b604
iptcp_shutdown 0x0044b6f4
iptcp_close 0x0044b840
iptcp_sock_free 0x0044b940
iptcp_send 0x0044ba3c
iptcp_usr_recv 0x0044bb28
iptcp_listen 0x0044bc74
iptcp_accept 0x0044bd80
iptcp_getsockopt 0x0044be58
iptcp_setsockopt 0x0044c040
iptcp_drop_connection_on_icmp_error 0x0044c320
iptcp_icmp4_report 0x0044c3d4
iptcp_ioctl 0x0044c498
iptcp_get_rto 0x0044c510
iptcp_change_state_global 0x0044c530
iptcp_get_state 0x0044c534
iptcp_create 0x0044c540
iptcp_start 0x0044c5f0
iptcp_version 0x0044c5f8
ipwlan_printf 0x0044c874
ipwlan_print_usage 0x0044c930
ipwlan_print_usage_acl 0x0044ccec
ipwlan_print_usage_auth 0x0044cd48
ipwlan_print_usage_bi 0x0044cdb8
ipwlan_print_usage_bss 0x0044ce00
ipwlan_print_usage_channel 0x0044ce5c
ipwlan_print_usage_country 0x0044ceb8
ipwlan_print_usage_encr 0x0044cf00
ipwlan_print_usage_fragthresh 0x0044cf98
ipwlan_print_usage_lrl 0x0044cfe0
ipwlan_print_usage_mbss 0x0044d028
ipwlan_print_usage_wme 0x0044d070
ipwlan_print_usage_wmeac 0x0044d0b8
ipwlan_print_usage_mode 0x0044d100
ipwlan_print_usage_pm 0x0044d184
ipwlan_print_usage_ps 0x0044d1cc
ipwlan_print_usage_quality 0x0044d214
ipwlan_print_usage_radiomode 0x0044d25c
ipwlan_print_usage_rate 0x0044d2e0
ipwlan_print_usage_regulatory 0x0044d33c
ipwlan_print_usage_rtsthresh 0x0044d384
ipwlan_print_usage_scan 0x0044d3cc
ipwlan_print_usage_srl 0x0044d42c
ipwlan_print_usage_ssid 0x0044d474
ipwlan_print_usage_statistics 0x0044d4d0
ipwlan_print_usage_status 0x0044d518
ipwlan_print_usage_vlan 0x0044d560
ipwlan_get_next_iwap 0x0044d5a8
ipwlan_get_next_iwe 0x0044d5d8
ipwlan_parse_ether_addr 0x0044d608
ipwlan_parse_key 0x0044d6a8
ipwlan_ioctl 0x0044d774
ipwlan_cmd_wlan_en 0x0044d814
ipwlan_cmd_wlan 0x00450b3c
ipwlan_cmd_wlan_silent 0x00450b4c
convertDecimalToKeycode 0x00450b5c
ftpLibInit 0x00452ff8
ftpReplyGetEnhanced 0x0045304c
ftpReplyGet 0x004532fc
ftpCommandEnhanced 0x0045332c
ftpCommand 0x004534d0
ftpHookup 0x00453504
ftpLogin 0x00453734
ftpDataConnInit 0x00453834
ftpDataConnGet 0x00453a98
ftpLibDebugOptionsSet 0x00453b84
ftpTransientConfigSet 0x00453b8c
ftpTransientConfigGet 0x00453b9c
ftpTransientFatal 0x00453bc4
ftpTransientFatalInstall 0x00453bf8
ftpPasvReplyParse 0x00453c14
ftpDataConnInitPassiveMode 0x00453d90
ftpXfer 0x00453f78
ftpLs 0x0045443c
remLibInit 0x00454b14
remCurIdGet 0x00454b30
remCurIdSet 0x00454ba8
iam 0x00454cb4
whoami 0x00454d1c
bindresvport_af 0x00454d78
bindresvport 0x00454e64
bindresvportCommon 0x00454eac
rresvport_af 0x00454eb0
rresvportCommon 0x00454f84
rcmd_af 0x00454f88
rcmd 0x0045546c
rresvport 0x00455474
applLoggerInit 0x00455538
applUtilInstInit 0x00455588
applLoggerStop 0x00455628
logLevelChange 0x00455668
logDecorationChange 0x004556c4
loggerInfoShow 0x00455718
initApplLogger 0x00455784
stopApplLogger 0x00455788
changeLogLevel 0x0045578c
showLoggerInfo 0x00455794
_applLog 0x00455798
etherMultiAdd 0x00455b60
etherMultiDel 0x00455ca4
etherMultiGet 0x00455d38
hostTblInit 0x00455dcc
_hostDelete 0x00455e30
hostDelete 0x00455f94
hostTblSearchByName 0x00455fec
getSingleAddrInfo 0x004560ac
_hostGetByName 0x004561a0
hostGetByName 0x00456250
hostTblSearchByAddr 0x0045628c
hostTblSearchByAddr2 0x00456334
_hostGetByAddr 0x00456420
hostGetByAddr 0x004564e8
hostNameFill 0x0045651c
_hostBootAdd 0x00456570
hostAdd 0x00456734
hostTblSetup 0x00456790
_hostAdd 0x0045687c
aifree 0x00456884
_hostTblSearchByName2 0x004568dc
hostTblSearchByName2 0x00456d84
getlhostbyname 0x00456dc8
getlhostbyaddr 0x00456e94
hostentFree 0x00456eb0
hostentAlloc 0x00456f98
sethostname 0x00457054
hostnameSetup 0x0045709c
gethostname 0x00457164
inet_lnaof 0x004571c0
inet_makeaddr_b 0x00457208
inet_makeaddr 0x00457268
inet_netof 0x00457290
in_netof 0x004572dc
inet_network 0x004573c4
inet_ntoa_b 0x00457530
inet_netof_string 0x00457578
sockLibInit 0x004575cc
sockLibAdd 0x004576b8
socket 0x00457758
bind 0x0045781c
listen 0x004578ac
accept 0x0045792c
connect 0x00457a10
connectWithTimeout 0x00457a8c
sendto 0x00457b10
send 0x00457bcc
sendmsg 0x00457c58
recvfrom 0x00457cd4
recv 0x00457da8
recvmsg 0x00457e34
setsockopt 0x00457ebc
getsockopt 0x00457f58
getsockname 0x00457ff0
getpeername 0x00458078
shutdown 0x00458100
socketClose 0x00458178
socketWrite 0x004581dc
socketRead 0x00458210
socketIoctl 0x00458244
panic 0x00458380
rpcInit 0x00458488
rpcTaskInit 0x00458538
rpcTaskDeleteHook 0x004585d8
rpcClntErrnoSet 0x004586dc
rpcErrnoGet 0x004586e4
getaddrinfo 0x00458714
gai_strerror 0x00458734
freeaddrinfo 0x00458770
getnameinfo 0x004588e0
if_nametoindex 0x00458928
if_indextoname 0x0045895c
if_nameindex 0x00458960
if_freenameindex 0x00458964
inet_addr 0x00458974
inet_ntoa 0x00458af0
inet_aton 0x00458af4
inet_ntop 0x00458b4c
inet_pton 0x00458b8c
ipAttach 0x00458bf0
ipDetach 0x00458c48
ifconfig 0x00458d98
routec 0x00458e98
strduparr 0x00458fd4
freestrarr 0x00459028
deleteHook 0x00459070
pingtask 0x004590bc
ping 0x00459184
cbioLibInit 0x00459688
cbioDevVerify 0x004596e8
cbioRdyChk 0x0045974c
cbioShow 0x00459818
cbioParamsGet 0x00459a20
cbioUnlock 0x00459a90
cbioLock 0x00459ad4
cbioRdyChgdSet 0x00459b28
cbioRdyChgdGet 0x00459b88
cbioModeSet 0x00459c28
cbioModeGet 0x00459cbc
cbioIoctl 0x00459d48
cbioBlkCopy 0x00459d9c
cbioBytesRW 0x00459df8
cbioBlkRW 0x00459e6c
cbioDevCreate 0x00459ed8
shiftCalc 0x00459fd4
cbioWrapBlkDev 0x00459ff4
cbioWrapOk 0x0045a158
cbioBlkWrapBufCreate 0x0045a160
blkWrapBlkRW 0x0045a224
blkWrapIoctl 0x0045a428
blkWrapBlkCopy 0x0045a95c
blkWrapBytesRW 0x0045ab10
blkWrapBlkRWbuf 0x0045ad64
fsEventUtilLibInit 0x0045b0f8
fsPathAddedHandler 0x0045b160
fsPathAddedEventSetup 0x0045b1d4
fsPathAddedEventRaise 0x0045b26c
fsWaitForPath 0x0045b284
fsMonitorInit 0x0045b2fc
fsmProbe 0x0045b3cc
fsmProbeInstall 0x0045b458
fsmProbeUninstall 0x0045b4f4
fsmNameUninstall 0x0045b5a4
fsmGetDriver 0x0045b668
fsmUnmountHookAdd 0x0045b6fc
fsmUnmountHookDelete 0x0045b744
fsmUnmountHookRun 0x0045b78c
strncpy_z 0x0045b7d4
fsmGetVolume 0x0045b81c
fsmNameInstall 0x0045b8b0
fsmNameMap 0x0045b9a8
fsmHandler 0x0045ba34
print64 0x0045bc34
print64Fine 0x0045bdb0
print64Row 0x0045bdf4
print64Mult 0x0045be0c
rawFsEject 0x0045bf18
rawFsFdFlush 0x0045bfb0
rawFsFdFree 0x0045c000
rawFsDevDelete 0x0045c060
rawFsClose 0x0045c0fc
rawFsFdGet 0x0045c1bc
rawFsInit 0x0045c234
rawFsDevInit 0x0045c360
rawFsOpen 0x0045c51c
rawFsSeek 0x0045c650
rawFsVolFlush 0x0045c69c
rawFsFlush 0x0045c724
rawFsVolUnmount 0x0045c778
rawFsIoctl 0x0045c804
rawFsSplitIo 0x0045cbd8
blockxfer_done 0x0045cce0
blockxfer 0x0045cce8
rawFsRead 0x0045cd6c
rawFsWrite 0x0045cf94
utfLibInit 0x0045d218
proofUtf8 0x0045d2a0
utf8ToCP 0x0045d484
CPToUtf8 0x0045d4f0
utf16ToCP 0x0045d5f8
CPToUtf16 0x0045d6cc
utflen8 0x0045d7a4
utflen16 0x0045d7cc
proofUtf8String 0x0045d7f4
utf8ToUtf16String 0x0045d86c
utf16ToUtf8String 0x0045d908
utf8ToUtf16StringBOM 0x0045d9a4
utf16ToUtf8StringBOM 0x0045da0c
dosChkFinish 0x0045da74
dosChkEntryMark 0x0045dad0
dosChkEntryFind 0x0045dc58
dosChkIsClean 0x0045ddd4
dosChkLibInit 0x0045de44
dosChkEntryMarkSet 0x0045de54
dosChkChainStartGet 0x0045deb0
dosChkBuildPath 0x0045df1c
dosChkMsg 0x0045e0c0
dosChkInit 0x0045e160
dosChkChainUnmark 0x0045e2e4
dosChkEntryDel 0x0045e36c
dosChkChainMark 0x0045e444
dosChkDirStruct 0x0045e674
dosChkStartCrossProc 0x0045e79c
dosChkChainVerify 0x0045e8ac
dosFsChkTree 0x0045eb28
dosChkLostFind 0x0045eea4
dosChkLostFree 0x0045f03c
dosChkDsk 0x0045f1e8
dosFsCacheLibInit 0x0045fa3c
dosFsDefaultDataCacheSizeGet 0x0045fa7c
dosFsDefaultDirCacheSizeGet 0x0045fa84
dosFsDefaultFatCacheSizeGet 0x0045fa8c
dosFsDefaultCacheSizeSet 0x0045fa94
dosFsCacheOptionsSet 0x0045faa4
dosFsCacheOptionsGet 0x0045faa8
dosFsCacheCreateInternal 0x0045faac
dosFsCacheMount 0x0045fd90
dosFsCacheCreate 0x0045fe6c
dosFsCacheListAddSort 0x00460020
dosFsCacheDone 0x004600a0
dosFsCacheBlkXfer 0x004600a8
dosCacheBlockFind 0x004601e0
dosCacheHashRemove 0x004602e4
dosFsCacheFlushInternal 0x004603a8
dosFsCacheInvalidate 0x004605b8
dosFsCacheFlush 0x0046062c
dosFsCacheUnmount 0x00460694
_dosFsCacheDelete 0x00460798
dosFsCacheDelete 0x004609a8
dosCacheBlockFree 0x00460a00
dosFsCacheDiscard 0x00460aa0
dosCacheHashInsert 0x00460b64
dosCacheBlockAlloc 0x00460bc0
dosFsCacheBlkWrite 0x00460d08
dosFsCacheBlkRead 0x00460fa4
dosFsCacheBytesRW 0x00461458
dosFsCacheDataBytesRW 0x00461694
dosFsCacheDirBytesRW 0x004616ac
dosFsCacheFatBytesRW 0x004616c4
dosFsCacheBlkCopy 0x004616dc
dosFsCacheIoctl 0x00461914
dosFsCacheFatIoctl 0x00461b68
dosFsCacheDirIoctl 0x00461b78
dosFsCacheDataIoctl 0x00461b88
dosFsCacheTune 0x00461b98
dosFsCacheInfo 0x00461d68
dosDirOldFillFd 0x00462080
dosDirOldRewindDir 0x00462204
dosDirOldTDDecode 0x00462288
dosDirOldTDEncode 0x00462380
dosDirOldNameEncode 0x0046251c
dosDirOldDirentGet 0x004626a8
dosDirOldForceUppercase 0x00462838
dosDirOldLkupInDir 0x00462874
dosDirOldClustAdd 0x004629ec
dosDirOldUpdateEntry 0x00462a9c
dosDirOldFileCreateInDir 0x00462c14
dosDirOldNameDecode 0x0046306c
dosDirOldReaddir 0x0046314c
dosDirOldPathLkup 0x004632c8
dosDirOldDateGet 0x00463428
dosDirOldVolLabel 0x004634d8
dosDirOldNameChk 0x00463714
dosDirOldVolUnmount 0x00463784
dosDirOldVolMount 0x00463788
dosDirOldLibInit 0x00463b84
fatMirrorSect 0x00463cec
fatSyncToggle 0x00463e38
fat12RawEntRead 0x00463f04
fat12EntRead 0x00464010
fat12RawEntWrite 0x0046406c
fat12EntWrite 0x0046422c
fat16RawEntRead 0x00464320
fat16EntRead 0x004643b0
fat16RawEntWrite 0x0046440c
fat16EntWrite 0x004644a4
fat32RawEntRead 0x00464594
fat32EntRead 0x0046463c
fat32RawEntWrite 0x004646c0
fat32EntWrite 0x00464768
fatContigGet 0x004648b8
fat16MarkAlloc 0x00464a40
fatGetNext 0x00464af8
fatTruncate 0x00464dac
fatSeek 0x00464ff8
fatNFree 0x004651a4
fatContigChk 0x00465258
fat16MaxContigClustersGet 0x00465314
fatContigAlloc 0x004653e4
fatMaxContigSectors 0x00465534
fat16ClustValueSet 0x00465570
fat16ClustValueGet 0x00465720
fatMarkClean 0x004657d8
fatMountActivate 0x0046587c
fatVolUnmount 0x00465884
fat16VolMount 0x00465894
dosFsFatInit 0x00465c1c
dosFsFmtShow 0x00465c90
dosFsFmtAutoParams 0x00465d3c
dosFsSdhcFmtAutoParams 0x00466264
dosFsBootSecInvalidate 0x004668a4
dosFsFmtReadBootBlock 0x00466984
dosFsFmtNonFsBootInit 0x00466da4
dosFsFmtVolInit 0x00466de4
_dosFsVolFormat 0x00467554
dosFsVolFormatFd 0x0046781c
dosFsVolFormat 0x004679d8
_dosFsSdhcVolFormat 0x00467b68
dosFsSdhcVolFormat 0x00467e70
dosFsFmtLibInit 0x00467ffc
dosfsHostToDisk32 0x004684b8
dosfsHostToDisk16 0x004684d8
dosfsDiskToHost32 0x004684e8
dosfsDiskToHost16 0x00468514
dosSetVolCaseSens 0x0046852c
dosFsVolDescGet 0x00468580
dosFsVolumeOptionsGet 0x00468640
dosFsVolumeOptionsSet 0x00468698
dosFsFSemTake 0x00468728
dosFsFSemGive 0x00468774
dosFsVolUnmount 0x004687c0
dosFsChkDsk 0x00468904
dosFsBadBootMsg 0x00468a0c
dosFsVolIsFat12 0x00468a60
dosFsFdFree 0x00468c28
dosFsFdGet 0x00468c88
dosFsHdlDeref 0x00468d9c
dosFsSeek 0x00468e60
dosFsSeekDir 0x00469130
dosFsIsDirEmpty 0x00469218
dosPathParse 0x00469310
dosFsClose 0x00469484
dosFsDeleteByFd 0x004696e4
dosFsStatGet 0x00469824
dosFsFSStatGet 0x0046992c
dosFsCheckDirRename 0x004699d4
dosFsOptUpdate 0x00469ac4
dosFsContigAlloc 0x00469c1c
dosFsLastAccessDateEnable 0x00469e64
dosFsLibInit 0x00469eb0
dosFsDevDelete 0x00469f58
dosFsFinishDevDelete 0x00469fe0
dosFsEject 0x0046a184
findDeviceInArray 0x0046a21c
dosFsDiskProbe 0x0046a280
dosFsHdlrInstall 0x0046a3f4
dosFsBioGet 0x0046a53c
dosFsBioRelease 0x0046a620
dosFsFillGap 0x0046a694
dosFsFileRW 0x0046a8a0
dosFsRead 0x0046afa4
dosFsTrunc 0x0046afac
dosFsXbdDone 0x0046b1c8
dosFsBlkXfer 0x0046b1d0
dosFsXbdBlkWrite 0x0046b308
dosFsSingleBlkXfer 0x0046b540
dosFsXbdBlkRead 0x0046b69c
dosFsXbdBytesRW 0x0046b978
dosFsBootSecGet 0x0046bbf8
dosFsVolMountPart1 0x0046c1c0
dosFsVolMount 0x0046c318
dosFsVolMountPart2 0x0046c35c
dosFsOpen 0x0046c470
dosFsMakeDir 0x0046c7a8
dosFsRename 0x0046c830
dosFsDelete 0x0046cc00
dosFsIoctl 0x0046cc5c
dosFsWrite 0x0046d7c4
dosFsCreate 0x0046d848
dosFsVolBufCreate 0x0046d8fc
dosFsDevCreate 0x0046d980
dosFsMonitorDevCreate 0x0046df1c
dosFsXbdBlkCopy 0x0046e080
dosFsXbdDiscard 0x0046e2c4
dosFsXbdIoctl 0x0046e37c
dosFsVolumeReadOnlySet 0x0046e614
dosVDirFillFd 0x0046ecec
dosVDirRewindDir 0x0046ee98
dosVDirChkSum 0x0046ef1c
dosVDirTDDecode 0x0046ef4c
dosVDirTDEncode 0x0046f044
dosVDirCheckRaw8dot3 0x0046f1d4
dosVDirBlankPad 0x0046f2ec
dosVDirCvtTo8dot3 0x0046f354
dosVDirUnpad 0x0046f3f8
dosVDirFromUTF8 0x0046f49c
dosVDirToUTF8 0x0046f6a4
dosVDirBuildSynthName 0x0046f760
dosVDirNameExplode 0x0046f8d0
dosVDirNameImplode 0x0046f9f8
dosVDirBuildUtf8 0x0046fc04
dosVDirClustNext 0x0046fce8
dosVDirDirentGet 0x0046fdb0
dosVDirDeStore 0x0046ff44
dosVDirEntryDel 0x00470048
dosVDirWriteDEs 0x004701b0
dosVDirFullEntGet 0x00470248
dosVDirNameEq 0x004704bc
dosVDirFileLookup 0x00470558
dosVDirUpdateEntry 0x0047079c
dosVDirFileCreate 0x0047091c
dosVDirReaddir 0x00470c74
dosVDirPathLkup 0x00470f40
dosVDirDateGet 0x0047113c
dosVDirVolLabel 0x004711ec
dosVDirVolUnmount 0x004713b8
dosVDirVolMount 0x00471418
dosVDirLibInit 0x004717c8
dosFsShowInit 0x004719a4
dosFsShow 0x004719d8
dosFsFatShow 0x00471f64
dosVDirShow 0x0047201c
dosDirOldShow 0x004720f4
dosFsCacheShowInternal 0x004721ac
dosFsCacheShow 0x0047241c
dosChkStatPrint 0x004724e8
dosFsUsageDataGet 0x00472698
dosFsUsageDataShow 0x00472760
nfs3StableWriteGet 0x00473248
nfs3StableWriteSet 0x00473250
nfs3DirMount 0x0047326c
nfs3DirUnmount 0x00473328
nfs3MntUnmountAll 0x00473374
nfs3ExportRead 0x004733b0
nfs3MntDump 0x0047341c
nfs3ExportShow 0x004734e8
nfs3DecodeWcc 0x004735d8
nfs3FileWrite 0x0047366c
nfs3FileReadInternal 0x004737d8
nfs3FileRead 0x0047391c
nfs3LinkGet 0x004739a8
nfs3FileAttrGet 0x00473a60
nfs3FsAttrGet 0x00473b4c
nfs3FsAttrGet64 0x00473c54
nfs3FsInfoGet 0x00473d84
nfs3PathconfGet 0x00473e24
nfs3DirReadOne 0x00473ee0
nfs3RpcAttrSet 0x0047414c
nfs3RpcAttrGet 0x00474210
nfs3LookUpByName 0x004742c8
nfs3ThingCreate 0x004745c4
nfs3Rename 0x0047491c
nfs3FileRemove 0x00474b54
nfs3Drv 0x00474d28
nfs3DrvNumGet 0x00474e10
nfs3Mount 0x00474e44
nfs3DevFind 0x00474fc8
nfs3UnmountAll 0x0047504c
nfs3DevInfoGet 0x004750c8
nfs3Delete 0x00475154
nfs3ChkFilePerms 0x00475220
nfs3Open 0x004752c0
nfs3Create 0x004757b4
nfs3Close 0x00475804
nfs3Read 0x004758e8
nfs3Write 0x00475a08
nfs3Seek 0x00475b34
nfs3PathConf 0x00475c04
nfs3Ioctl 0x00475d04
nfs2Drv 0x004760d8
nfs2DrvNumGet 0x004761c0
nfs2Mount 0x004761f4
nfs2DevFind 0x004762ec
nfs2UnmountAll 0x00476370
nfs2DevInfoGet 0x004763e4
nfs2Delete 0x00476470
nfs2ChkFilePerms 0x00476510
nfs2Open 0x004765a0
nfs2Create 0x00476980
nfs2Close 0x004769d0
nfs2Read 0x00476a90
nfs2Write 0x00476bb0
nfs2Seek 0x00476cd8
nfs2Ioctl 0x00476db8
nfs2DirMount 0x0047705c
nfs2DirUnmount 0x00477124
nfs2MntUnmountAll 0x00477170
nfs2MntDump 0x004771ac
nfs2ExportShow 0x0047728c
nfs2ExportRead 0x0047737c
nfs2FileWrite 0x004773e8
nfs2FileRead 0x00477530
nfs2LinkGet 0x0047767c
nfs2LookUpByName 0x00477724
nfs2ThingCreate 0x004779e4
nfs2Rename 0x00477c78
nfs2FileRemove 0x00477ec0
nfs2DirReadOne 0x00478064
nfs2FileAttrGet 0x00478284
nfs2FsAttrGet 0x00478374
nfs2RpcAttrSet 0x00478448
nfs2RpcAttrGet 0x00478510
nfsDevShow 0x004785d0
nfsDevInfoGet 0x00478728
nfsDevListGet 0x004787b8
nfsDrvNumGet 0x00478834
nfsHelp 0x004788a8
nfsComponentInit 0x00478908
nfsInit 0x00478958
nfsClientCacheCleanUp 0x004789fc
nfsDeleteHook 0x00478b24
nfsClientClose 0x00478b74
nfsClientCacheSetUp 0x00478b90
nfsClientCall 0x00478dcc
nfsPmapDump 0x00478ea8
nfsFindRemoteVersionDetails 0x00478fa0
nfsExportShow 0x00479124
nfsMntDump 0x00479288
nfsUnMountAll 0x00479344
nfsMountAll 0x00479400
nfsMount 0x0047957c
nfsAuthUnixSet 0x00479650
nfsAuthUnixGet 0x00479708
nfsAuthUnixShow 0x004797b4
nfsIdSet 0x00479870
printClear 0x004798bc
promptParamString 0x00479928
promptParamNum 0x004799d4
nfsAuthUnixPrompt 0x00479a84
nfsChkFilePerms 0x00479ba0
nfsErrnoSet 0x00479c8c
nfsCacheFileInvalidate 0x00479c94
nfsCacheFileFlush 0x00479ce0
nfsCacheLineFlush 0x00479df8
nfsCacheAlloc 0x00479e78
nfsCacheFree 0x00479fb8
nfsUnmount 0x0047a030
nfsWhichCacheLine 0x0047a180
nfsCacheLineWrite 0x0047a1d8
nfsCacheLineRead 0x0047a4c0
romfsBlkDevCreate 0x0047acc4
romfsBlkRd 0x0047ad6c
romfsFsOpen 0x0047ae28
romfsFsClose 0x0047aed4
romfsFsWrite 0x0047af30
romfsFsRead 0x0047af58
romfsFsDirRead 0x0047afa8
romfsFsIoctl 0x0047b0b4
romfsFsInit 0x0047b194
romfsFsDevDelete 0x0047b210
romfsFsDevCreate 0x0047b2b4
vxBlkIO 0x0047b37c
partLibCreate 0x0047b434
xbdCreatePartition 0x0047b8bc
xbdCreatePartitionSz 0x0047ba50
xbdBlkDevLibInit 0x0047bd58
getNextBio 0x0047bd64
execBio 0x0047bdd8
xbd_bd_service 0x0047bef4
xbd_bd_dump 0x0047bf90
xbdBlkDevDelete 0x0047bf98
xbd_bd_test 0x0047c064
xbd_bd_eject 0x0047c0e8
xbd_bd_strategy 0x0047c1ec
xbd_bd_ioctl 0x0047c2d0
xbd_bd_media_detect 0x0047c500
xbdBlkDevCreate 0x0047c598
xbdBlkDevCreateSyncHandler 0x0047c754
xbdBlkDevCreateSync 0x0047c7cc
deletePart 0x0047c838
ejectHandler 0x0047c8bc
partName 0x0047c994
xpBioDone 0x0047ca24
readSectorN 0x0047ca2c
validatePartitionTable 0x0047cacc
xpInitialize 0x0047cbd4
loadPartitionTable 0x0047cd3c
xbdPartitionDevCreate 0x0047cea8
xpStrategy 0x0047d0fc
xpIoctl 0x0047d208
xpDump 0x0047d47c
xbdRamDiskDevCreate 0x0047d4e0
xbdRamDiskDevCreateMemAligned 0x0047d654
xbdRamDiskDevCreateFromMem 0x0047d7f8
xrd_ioctl 0x0047d974
xrd_strategy 0x0047db08
xrd_dump 0x0047dc40
xbdRamDiskDevDelete 0x0047dc9c
classLibInit 0x0047dd38
classInit 0x0047dd74
classCreateConnect 0x0047de2c
classOpenConnect 0x0047de5c
classDestroyConnect 0x0047de8c
classShowConnect 0x0047debc
classMemPartIdSet 0x0047deec
clockLibInit 0x0047df60
clock_getres 0x0047dfe4
clock_setres 0x0047e0ac
clock_gettime 0x0047e0b4
clock_settime 0x0047e264
clock_nanosleep 0x0047e3e0
coprocLibInit 0x0047e7c0
coprocTaskCreateHook 0x0047e98c
coprocTaskDeleteHook 0x0047eb10
coprocSave 0x0047ebf4
coprocTaskSwapHook 0x0047ec64
coprocShowOnDebug 0x0047ed0c
coprocAction 0x0047ed50
coprocDisable 0x0047ee28
coprocEnable 0x0047ee34
coprocTaskRegsAccess 0x0047ee40
coprocTaskRegsSet 0x0047ef8c
coprocTaskRegsGet 0x0047efa0
coprocCtxStorageSizeGet 0x0047efb4
coprocShowInit 0x0047f008
getSymNames 0x0047f024
coprocShow 0x0047f174
coprocTaskRegsShow 0x0047f2c8
coprocRegListShow 0x0047f36c
coprocCtxReplicate 0x0047f3c0
coprocMRegs 0x0047f480
edrLogBaseGet 0x0047f760
edrLogSizeGet 0x0047f7b0
edrStatusMsg 0x0047f800
edrLibInit 0x0047f8cc
edrErrorLogClear 0x0047f9c4
edrErrorRecordCount 0x0047fa18
edrErrorInjectHookAdd 0x0047fa6c
edrErrorInjectHookDelete 0x0047fad0
edrErrorInjectPrePostHookAdd 0x0047fb34
edrErrorInjectPrePostHookDelete 0x0047fb98
edrErrorInjectTextHookAdd 0x0047fbfc
edrErrorInjectTextHookDelete 0x0047fc60
edrBootCountGet 0x0047fcc4
edrAnnotateCodeDump 0x0047fd18
codePrintToEDRbuf 0x0047fdf0
edrCodePrint 0x0047fdf8
edrStackTracePrint 0x0047ff2c
moduleDisplayEDR 0x00480248
rtpSigStackGet 0x004802f0
isRtpSigStack 0x0048035c
edrTrcPcValidate 0x004803c4
edrGenerateStackTrace 0x00480428
edrGenerateDisassembly 0x004806fc
edrGenerateMemoryMap 0x004807d8
edrGenerateExcInfo 0x0048092c
edrGenerateRegisters 0x00480ad4
edrErrorInject 0x00480bbc
printToEDRbuf 0x00481584
edrShowInit 0x00481618
edrErrorRecordDecode 0x00481620
edrShow 0x004819b0
edrFatalShow 0x00481e78
edrInfoShow 0x00481e84
edrIntShow 0x00481e90
edrInitShow 0x00481e9c
edrRebootShow 0x00481ea8
edrBootShow 0x00481eb4
edrKernelShow 0x00481ec0
edrUserShow 0x00481ecc
edrRtpShow 0x00481ed8
edrClear 0x00481ee4
edrInjectHookShow 0x00481f18
edrInjectTextHookShow 0x00481f60
edrInjectPrePostHookShow 0x00481fa8
edrHookShow 0x00481ff0
edrHelp 0x0048204c
edrSystemDebugFlagExtract 0x00482c5c
edrSystemDebugModeInit 0x00482cb4
edrSystemDebugModeGet 0x00482ce4
edrSystemDebugModeSet 0x00482cfc
edrFlagsGet 0x00482d0c
edrIsDebugMode 0x00482d38
envLibInit 0x00482d5c
envDestroy 0x00482e3c
envDuplicate 0x00482e88
envCreateHook 0x00482f40
envDeleteHook 0x00483028
envPrivateCreate 0x00483094
envPrivateDestroy 0x00483228
envFind 0x004832e8
getenv 0x0048338c
putenv 0x00483474
envShow 0x0048366c
envGet 0x00483748
__errno 0x0048384c
errnoGet 0x00483888
errnoOfTaskGet 0x004838b0
errnoSet 0x004838e4
errnoOfTaskSet 0x0048391c
excInit 0x00483960
jobExcAdd 0x00483adc
jobAdd 0x00483b8c
excJobAdd 0x00483c28
excTask 0x00483c2c
excHookAdd 0x00483d00
handleInit 0x00483d7c
handleTerminate 0x00483d98
handleVerify 0x00483db0
handleTypeGet 0x00483ddc
handleContextGetBase 0x00483e2c
handleContextGet 0x00483e40
handleContextSet 0x00483eac
handleShowConnect 0x00483f14
handleShow 0x00483f40
hashLibInit 0x00483ffc
hashTblInit 0x00484004
hashTblCreate 0x004840c4
hashTblDestroy 0x00484134
hashTblTerminate 0x004841a8
hashTblDelete 0x004841b0
hashTblPut 0x004841b8
hashTblFind 0x0048423c
hashTblRemove 0x004842e0
hashTblEach 0x00484364
hashFuncIterScale 0x004843ec
hashFuncModulo 0x00484424
hashFuncMultiply 0x00484440
hashKeyCmp 0x0048448c
hashKeyStrCmp 0x004844a4
intContext 0x004844d4
intRestrict 0x004844e8
intCount 0x0048452c
intConnect 0x00484534
intDisconnect 0x004845bc
jobLibInit 0x00484644
jobTaskWorkAdd 0x0048474c
jobTask 0x00484964
logMsg 0x00484a94
logFdAdd 0x00484b3c
logFdDelete 0x00484ba8
logFdSet 0x00484c54
logInit 0x00484ce0
lprintf 0x00484dc8
logTask 0x00484e74
logShow 0x00484fb8
nbioLogServerInit 0x00485114
nbioLogInfoTerminate 0x004851ec
nbioLogMsgAdd 0x0048526c
nbioBegin 0x004852cc
nbioFlush 0x00485374
nbioEnd 0x004853ec
nbioLogInfoSync 0x00485430
nbioSync 0x004854d8
writeIt 0x004854e4
nbioBufChainFree 0x00485594
nbioDrop 0x004855d8
nbioLogInfoMsgsAdd 0x00485630
nbioLogInfoInit 0x004856fc
nbioLogInit 0x0048576c
nbioBufFree 0x00485868
nbioLogServer 0x0048587c
nbioBufAlloc 0x00485998
nbioOutput 0x00485a08
nbioFormatV 0x00485ad0
nbioLog 0x00485c24
nbioFdPrint 0x00485ce8
nbioAppend 0x00485db8
objLibInit 0x00485e94
objGenericVerify 0x00485ea8
objShow 0x00485f78
objAllocExtra 0x00485ffc
objAlloc 0x004860f0
objMemAlloc 0x004860fc
objMemFree 0x00486150
objFree 0x004861a4
objCoreInit 0x00486250
objCoreInvalidate 0x00486328
objCoreReclaim 0x0048632c
objCoreUnlink 0x0048639c
objOwnerGet 0x00486408
objOwnerSetBase 0x00486454
objOwnerSet 0x00486494
objClassTypeGet 0x004864d4
objNamePtrGet 0x00486518
objNameLenGet 0x0048656c
objNameGet 0x004865f8
objNamePtrSetBase 0x004866d4
objNamePtrSet 0x004867d0
objNameSet 0x00486858
objCoreTerminate 0x00486950
objClassIdGet 0x00486a14
objContextGet 0x00486a5c
objContextSet 0x00486ae0
pmPageProtect 0x00486b3c
pmArenaChecksum 0x00486c0c
pmArenaFreeSpace 0x00486c5c
pmArenaFindFreeRegion 0x00486c6c
pmArenaFindRegion 0x00486ccc
pmArenaUnprotect 0x00486d4c
pmArenaProtect 0x00486dac
pmArenaValidateBasic 0x00486e0c
pmArenaValidate 0x00486e84
pmArenaRegionValidate 0x00486f88
pmLibInit 0x00487000
pmInit 0x00487008
pmFreeSpace 0x00487148
pmRegionOpen 0x00487190
pmRegionClose 0x004871d8
pmRegionAddr 0x00487280
pmRegionSize 0x004872cc
pmRegionProtect 0x00487314
pmRegionCreate 0x0048739c
pmValidate 0x00487514
pmInvalidate 0x0048755c
pmShow 0x004875ec
reboot 0x00487864
kernelBaseInit 0x00487aa8
getpid 0x00487b88
kernelIdGet 0x00487ba4
sigeventLibInit 0x00487bac
sigeventInit 0x00487bc0
sigeventCreate 0x00487d98
sigeventNotify 0x00487e20
sigeventDelete 0x00488020
sigeventSigOverrunGet 0x00488118
sigInit 0x0048813c
sigqueueInit 0x004881c0
sigDeleteHook 0x00488240
sigTimeoutRecalc 0x004882fc
sigemptyset 0x00488344
sigfillset 0x00488358
sigaddset 0x0048836c
sigdelset 0x00488400
sigismember 0x00488494
pause 0x00488534
sigTcbGet 0x00488694
sigpending 0x00488750
sigaction 0x004887c8
sigvec 0x00488958
signal 0x004889e4
sigPendInit 0x00488a34
sigPendDestroy 0x00488a4c
sigWindRestart 0x00488b4c
sigFfsMsb 0x00488c70
sigPendGet 0x00488cac
sigtimedwait 0x00488dec
sigwaitinfo 0x0048909c
sigwait 0x004890a4
sigprocmask 0x004890f4
sigreturn 0x00489214
sigWrapper 0x00489230
sigPendRun 0x004892d8
sigsetmask 0x004893dc
sigblock 0x00489418
sigWindPendKill 0x00489454
sigWindKill 0x004897cc
kill 0x00489808
raise 0x0048996c
sigqueue 0x0048997c
sigqueueWrapper 0x00489b4c
sigPendKill 0x00489b74
sigExcSend 0x00489c4c
sigExcKill 0x00489cc0
sigsuspend 0x00489d2c
taskHookShowInit 0x00489ecc
taskCreateHookShow 0x00489ed0
taskSwitchHookShow 0x00489ee0
taskSwapHookShow 0x00489ef0
taskDeleteHookShow 0x00489f00
timerLibInit 0x00489f10
timerConHandler 0x00489f98
timer_connect 0x0048a028
timer_create 0x0048a0dc
_timer_destroy 0x0048a39c
timer_delete 0x0048a4b8
timer_destroy 0x0048a570
timer_gettime 0x0048a60c
timer_getoverrun 0x0048a784
timerWdHandler 0x0048a7f4
timer_settime 0x0048a98c
timer_cancel 0x0048ae34
nanosleep 0x0048ae7c
sleep 0x0048b0a4
alarm 0x0048b0dc
timer_modify 0x0048b178
timerShowInit 0x0048b2a4
timerDisplay 0x0048b2d0
timer_show 0x0048b494
trcStackLvlUser 0x0048b700
trcStackLvl 0x0048b7a8
trcStackCtxTrace 0x0048b88c
trcStackTrace 0x0048b930
trcPcValidate 0x0048bb34
vxAtomicAdd 0x0048bc18
vxAtomicSub 0x0048bc50
vxAtomicInc 0x0048bc88
vxAtomicDec 0x0048bc90
vxAtomicOr 0x0048bc98
vxAtomicXor 0x0048bcd0
vxAtomicAnd 0x0048bd08
vxAtomicNand 0x0048bd40
vxAtomicSet 0x0048bd78
vxAtomicGet 0x0048bdac
vxAtomicClear 0x0048bdb4
vxCas 0x0048bdfc
vxMemProbeInit 0x0048be44
vxMemProbe 0x0048be80
vxMemCommonProbe 0x0048bec0
vxCpuEnabledGet 0x0048bf48
vxCpuConfiguredGet 0x0048bf50
classListLibInit 0x0048bf58
classListTblInitialize 0x0048bfa8
classListInitialize 0x0048bff8
classListAdd 0x0048c040
classListRemove 0x0048c0b8
classListUnlockInitial 0x0048c130
classListLock 0x0048c138
classListLockInitial 0x0048c148
classListUnlock 0x0048c178
classShowInit 0x0048c184
classShowSymbol 0x0048c194
classShow 0x0048c248
objShowInit 0x0048c7c4
objClassTypeShow 0x0048c7c8
objShowAll 0x0048c8f4
objShowOwnedObjects 0x0048cdd0
objHandleShow 0x0048cf28
objHandleTblShow 0x0048cfc8
objInfoInit 0x0048d778
objInfo 0x0048d78c
objNameCmpRtn 0x0048d8b8
objEach 0x0048d948
objNameToId 0x0048da04
objNameVerifiedSet 0x0048da58
_objClose 0x0048db18
objClose 0x0048dd48
objUnlink 0x0048de54
objAttrSet 0x0048e0c4
objOpen 0x0048e208
timerOpenInit 0x0048e698
vTimerCreate 0x0048e6a8
timer_open 0x0048e734
timer_close 0x0048e79c
timer_unlink 0x0048e7a4
objOwnershipInit 0x0048e7ac
objOwnerListAdd 0x0048e80c
objOwnerListRemove 0x0048e864
objOwnerRtpUpdate 0x0048e8bc
objOwnerSetBaseInternal 0x0048e92c
objOwnerReclaim 0x0048ea78
objOwnerCheck 0x0048ebac
objOwnerSetInternal 0x0048ec60
objOwnerListLock 0x0048ed98
objOwnerListUnlock 0x0048eda4
objOwnerListLockInitial 0x0048edac
objOwnerListUnlockInitial 0x0048eddc
taskVarInit 0x0048ede4
taskVarDeleteHook 0x0048ee48
taskVarSwitchHook 0x0048eee0
taskVarAdd 0x0048effc
taskVarDelete 0x0048f128
taskVarGet 0x0048f20c
taskVarSet 0x0048f2d0
taskVarInfo 0x0048f3a0
taskCreateHookInit 0x0048f484
taskCreateHookAdd 0x0048f4a0
taskCreateHookDelete 0x0048f504
taskDeleteHookAdd 0x0048f568
taskDeleteHookDelete 0x0048f5cc
taskSwapHookAdd 0x0048f630
taskSwapHookDelete 0x0048f6b8
taskSwapMaskSet 0x0048f76c
taskSwapHookAttach 0x0048f818
taskSwapMaskClear 0x0048f8d4
taskSwapHookDetach 0x0048f980
taskSwitchHookAdd 0x0048fa38
taskSwitchHookDelete 0x0048fa9c
readdir 0x0048fb00
readdir_r 0x0048fb6c
rewinddir 0x0048fbf8
closedir 0x0048fc04
fstat 0x0048fc5c
opendir 0x0048fc6c
stat 0x0048fd44
fstatfs 0x0048fdd0
fstatfs64 0x0048fde0
statfs 0x0048fdf0
statfs64 0x0048fe7c
utime 0x0048ff08
close 0x0048ff80
ioReadWrite 0x0048fff8
read 0x00490074
write 0x004900a0
ioctl 0x004900bc
lseek 0x00490168
readv 0x004902a4
writev 0x0049036c
ioFullFileNameGet 0x0049042c
ioCreateOrOpen 0x004904fc
creat 0x004907fc
open 0x00490808
ioGlobalStdSet 0x00490810
ioGlobalStdGet 0x004908b4
ioTaskStdSet 0x004908f4
ioTaskStdGet 0x00490990
isatty 0x00490a24
fcntl 0x00490a5c
remove 0x00490c64
getcwd 0x00490e00
getwd 0x00490e94
ioDefPathSetInternal 0x00490ed0
ioDefPathSet 0x00490fdc
ioDefPathGet 0x00490fec
ioDefPathCat 0x00490ffc
chdir 0x00491140
iosDevMatch 0x00491148
iosCreate 0x004911b8
iosDelete 0x004911ec
iosOpen 0x00491250
iosLock 0x00491284
iosUnlock 0x004912d4
iosDevFind 0x004912dc
iosDevDelDrv 0x004913a4
iosDrvRemove 0x00491440
iosDevDelete 0x00491558
iosDevAdd 0x0049165c
iosDrvInstall 0x00491798
iosFdTableLock 0x0049187c
iosFdTableUnlock 0x004918d8
iosRtpFdInvalid 0x004918e0
iosFdEntryIoctl 0x00491970
iosDrvIoctl 0x00491acc
iosFdEntrySet 0x00491b24
iosNonRmvFdEntrySet 0x00491bb4
iosFdMap 0x00491bec
iosIoctlInternal 0x00491cb0
iosIoctl 0x00491d9c
iosWrite 0x00491da4
iosRead 0x00491e48
iosFdDrvValue 0x00491ef4
iosFdValue 0x00491f6c
iosFdMaxFiles 0x00491fa0
iosFdEntryGet 0x00491fb0
iosFdEntryReturn 0x00491ff4
iosRtpFdUnmap2 0x00492028
iosClose 0x00492240
iosFdDestroy 0x004922a0
iosRtpDevCloseOrInvalidate 0x00492328
iosNonRmvDevClose 0x004923f4
iosNonRmvFdInvalid 0x00492428
iosRtpFdReserve 0x0049245c
iosInit 0x004924f4
iosRtpFdEntryMap 0x004927c0
iosRtpFdSetup 0x004928ac
iosFdDevFind 0x00492988
iosRtpFdTableSizeGet 0x004929bc
iosFdFree 0x004929c0
iosFdSet 0x004929d4
iosFdNew 0x00492a1c
iosNextDevGet 0x00492aa0
iosPathLibInit 0x00492ab8
iosPathFdEntryIoctl 0x00492ac8
iosRtpDefPathGet 0x00492cb0
iosRtpDefPathSet 0x00492d28
iosPxLibInit 0x00492d2c
dup 0x00492de4
dup2 0x00492e9c
iosRtpIoTableSizeGet 0x00492fc8
iosRtpFdReserveCntrl 0x00493054
iosPosixFdEntryIoctl 0x004930e4
iosRmvLibInit 0x00493188
iosDevReplaceExt 0x00493218
iosDevReplace 0x00493348
iosRmvFdInvalid 0x0049338c
iosRmvFdEntrySet 0x004933e0
iosDevSuspend 0x00493460
iosDevDelCallback 0x00493534
iosDevCheck 0x004935e4
unmount 0x00493688
iosFdValid 0x00493728
iosDevResume 0x004937f8
iosRmvDevClose 0x004938b4
iosDrvRefCntInc 0x00493908
iosDrvRefCntDec 0x0049397c
iosRmvDrvWaitSuspend 0x00493a14
iosDrvRemovableRead 0x00493af0
iosDrvRemovableWrite 0x00493b8c
iosDrvRemovableIoctl 0x00493c28
iosDrvRemovableIoctlMemValidate 0x00493cc4
iosDrvRemovableClose 0x00493d60
iosDrvSuspendedCreate 0x00493e00
iosDrvRemovableCreate 0x00493e58
iosDrvSuspendedOpen 0x00493f0c
iosDrvRemovableOpen 0x00493f6c
iosDrvSuspendedDelete 0x00494030
iosDrvRemovableDelete 0x0049409c
iosDrvSuspendedRead 0x00494148
iosDrvSuspendedWrite 0x004941b8
iosDrvSuspendedIoctl 0x00494228
iosDrvSuspendedIoctlMemValidate 0x00494298
iosDrvSuspendedClose 0x00494308
iosRtpLibInit 0x00494374
iosRtpFdTableGet 0x00494378
iosRtpFdTblEntryGet 0x00494380
iosRtpIoTableSizeSet 0x00494400
iosRtpTableSizeSet 0x004944d0
nullWrite 0x004944e4
nullOpen 0x004944ec
nullIoctl 0x00494538
iosDrvDeleted 0x004945c0
iosFdInvalidClose 0x004945ec
iosDrvDefault 0x004945f4
iosDrvDefaultIoctl 0x00494620
iosDrvDefaultIoctlMemValidate 0x00494660
iosDrvIoctlMemValSet 0x004946e8
iosDrvInit 0x00494758
pathParse 0x00494828
pathCondense 0x00494920
pathBuild 0x00494a94
pathSlashRindex 0x00494b98
pathLastNamePtr 0x00494bf0
pathLastName 0x00494c30
pathSplit 0x00494c60
strcatlim 0x00494d00
pathCat 0x00494d78
pipeDrv 0x00494f08
pipeDevCreate 0x00494f7c
pipeDevDelete 0x004950b4
pipeOpen 0x00495224
pipeClose 0x00495284
pipeRead 0x004952b0
pipeWrite 0x00495310
pipeFileStatGet 0x00495404
pipeIoctl 0x0049548c
ptyDrv 0x00495708
ptyDevCreate 0x004957e0
ptyDevRemove 0x00495924
ptyMasterOpen 0x00495a54
ptySlaveOpen 0x00495ac0
ptySlaveRead 0x00495b38
ptyMasterRead 0x00495bcc
ptySlaveWrite 0x00495c58
ptyMasterWrite 0x00495ce4
ptySlaveIoctl 0x00495d5c
ptySlaveClose 0x00495db8
ptyMasterIoctl 0x00495e6c
ptyMasterClose 0x00495f3c
ptyMasterStartup 0x00495fd4
selTaskDeleteHookAdd 0x00496030
selDoIoctls 0x0049609c
select 0x00496168
selUnselectForTask 0x004967b4
selWakeup 0x00496954
selWakeupAll 0x004969b0
selNodeAdd 0x00496a64
selNodeDelete 0x00496b14
selWakeupListInit 0x00496c04
selWakeupTerm 0x00496c4c
selWakeupListTerm 0x00496cac
selWakeupListLen 0x00496d30
selWakeupType 0x00496d38
selTaskCreateHook 0x00496d40
selectInit 0x00496e30
selTaskDeleteHook 0x00496f58
selTyAdd 0x0049709c
selTyDelete 0x00497120
selPtyAdd 0x00497128
selPtyDelete 0x004971ac
ttyDrv 0x00497260
ttyDevCreate 0x004972e8
ttyOpen 0x00497404
ttyClose 0x00497468
ttyIoctl 0x004974c4
ttyStartup 0x00497558
tyLibInit 0x00497590
tyDevRemove 0x004975cc
tyDevTerminate 0x00497688
tyFlushWrt 0x00497720
tyAbortFuncSet 0x0049779c
tyAbortFuncGet 0x004977a4
tyAbortSet 0x004977ac
tyAbortGet 0x004977b4
tyBackspaceSet 0x004977bc
tyDeleteLineSet 0x004977c4
tyEOFSet 0x004977cc
tyEOFGet 0x004977d4
tyMonitorTrapSet 0x004977dc
tyITx 0x004977e4
tyRdXoff 0x004979a8
tyRead 0x00497a5c
tyFlushRd 0x00497bf8
tyDevInit 0x00497c98
tyWrtXoff 0x00497db4
tyIoctl 0x00497e40
tyTxStartup 0x00498280
tyIRd 0x004982f4
tyWrite 0x004988c4
tyXoffHookSet 0x004989a4
ramDrv 0x00498a14
ramDevCreate 0x00498a1c
ramIoctl 0x00498b38
ramBlkRd 0x00498b74
ramBlkWrt 0x00498bc0
cacheLibInit 0x00498c0c
cacheEnable 0x00498c1c
cacheDisable 0x00498c68
cacheLock 0x00498cb4
cacheUnlock 0x00498d00
cacheFlush 0x00498d4c
cacheInvalidate 0x00498d98
cacheClear 0x00498de4
cachePipeFlush 0x00498e58
cacheTextLocalUpdate 0x00498ea4
cacheTextUpdate 0x00498f00
cacheDmaMalloc 0x00498f14
cacheDmaFree 0x00498f84
cacheFuncsSet 0x00498fd0
cacheDrvFlush 0x004990e4
cacheDrvInvalidate 0x00499130
cacheDrvVirtToPhys 0x0049917c
cacheDrvPhysToVirt 0x004991c4
cacheForeignFlush 0x0049920c
cacheForeignClear 0x0049924c
cacheForeignInvalidate 0x0049928c
memEdrConfigInit 0x004992cc
memEdrMemInit 0x00499354
memEdrConfigClear 0x0049945c
memEdrBlockMatch 0x00499504
memEdrBlockFind 0x00499538
memEdrLocalFind 0x004995d8
memEdrErrorLog 0x00499668
memEdrFreePatternValidate 0x004997fc
memEdrFreeQueuePartFlush 0x00499914
memEdrFreeQueueFlush 0x00499a44
memEdrCheckPartitionStatus 0x00499a4c
memEdrPartDeleteHook 0x00499ad4
memEdrTaskCreateHook 0x00499ca4
memEdrTaskDeleteHook 0x00499d08
memEdrLocalReturn 0x00499d90
memEdrTrcPcValidate 0x00499da0
memEdrTrace 0x00499e28
memEdrItemGet 0x00499ef4
memEdrFreeAndCopy 0x00499f2c
memEdrFreeHook 0x0049a4bc
memEdrAllocHook 0x0049a588
memEdrReallocHook 0x0049a97c
memEdrPartCreateHook 0x0049aa64
memEdrPartInfoGet 0x0049ab9c
memPartInfoCallback 0x0049ac88
memEdrBlockInfoGet 0x0049acec
memEdrBlkInfoCallback 0x0049ad60
memEdrBlockMark 0x0049af30
memEdrBlkMarkCallback 0x0049afb8
memEdrShowInit 0x0049b540
memEdrPartShow 0x0049b544
memEdrBlockShow 0x0049b5bc
memEdrTaskRegister 0x0049b6e0
memEdrShowUtilInit 0x0049b76c
memEdrTaskUidRegister 0x0049b7fc
memEdrTaskNameGet 0x0049b848
memEdrTaskUidGet 0x0049b8b8
memEdrSymNameGet 0x0049b968
memEdrUserStopGet 0x0049ba74
memEdrPartInfoPrint 0x0049bae8
memEdrBlockInfoPrint 0x0049bb30
memEdrPartHdrPrint 0x0049bcfc
memEdrBlockHdrPrint 0x0049bd0c
memInfoInit 0x0049bf78
memPartInfoGet 0x0049bf80
memPartFindMax 0x0049c040
memInfoGet 0x0049c0b4
memFindMax 0x0049c0c0
memPartFreeListWalk 0x0049c0c8
memInit 0x0049c188
memPartOptionsSet 0x0049c1e4
memPartOptionsGet 0x0049c2d0
memalign 0x0049c37c
valloc 0x0049c388
memPartAlignedRealloc 0x0049c404
memPartReallocInternal 0x0049c4e0
memPartRealloc 0x0049ca18
memPartAllocError 0x0049cab4
memPartBlockError 0x0049cb0c
memOptionsSet 0x0049cb98
memOptionsGet 0x0049cba4
memPartHooksInstall 0x0049cbb0
memPartBlockValidate 0x0049cc14
memShowInit 0x0049ccc4
memPartOptionsPrint 0x0049ccd4
memPartSizeNodeInfoGet 0x0049cdcc
memPartFreeListGet 0x0049ce94
memPartSectionListGet 0x0049cef0
memPartFreeListPrint 0x0049cf2c
memPartShow 0x0049d09c
memShow 0x0049d478
taskMemLibInit 0x0049d8b0
taskStackGuardPageEnable 0x0049d918
taskStackNoExecEnable 0x0049d954
taskStackAlloc 0x0049d994
taskStackFree 0x0049dcec
vmBaseLibInit 0x0049dfc8
vmBaseFuncsSet 0x0049e0b4
vmEnable 0x0049e174
vmPageSizeGet 0x0049e1a0
vmBasePageSizeGet 0x0049e1cc
vmCurrentGet 0x0049e1f8
vmPhysTranslate 0x0049e208
vmTranslate 0x0049e27c
vmStateSet 0x0049e2e8
vmPgMap 0x0049e3cc
vmMap 0x0049e570
vmPageMap 0x0049e590
vmBaseStateSet 0x0049e5b0
vmTextProtect 0x0049e5b4
vmTextPageProtect 0x0049e654
vmBufferWrite 0x0049e6ac
vmPageOptimize 0x0049e7ac
vmPageLock 0x0049e8a4
vmPageUnlock 0x0049e99c
vmMaxPhysBitsGet 0x0049ea70
convertAttrFromArchDepToIndep 0x0049eab4
vmStateGet 0x0049ebd8
vmKernelContextIdGet 0x0049ec88
vmContigBlockEach 0x0049ec94
vmNonExecSupported 0x0049eec8
vmInfoGet 0x0049ef60
vmBaseGlobalMap 0x0049f07c
convertAttrFromArchIndepToDep 0x0049f148
vmGlobalMapInit 0x0049f308
vmBaseGlobalMapInit 0x0049f4ec
vmShowInit 0x0049f59c
vmContextRangeShow 0x0049f60c
vmAttrStringGet 0x0049f6ec
vmContextShowNewBlock 0x0049f9bc
vmContextHeaderPrint 0x0049fae8
vmContextShow 0x0049fb70
vmAttrShow 0x0049fbec
sysctlInit 0x0049fe94
sysctl_find_oidname 0x004a0094
sysctl_register_oid 0x004a00f8
sysctl_unregister_oid 0x004a0214
sysctl_ctx_init 0x004a0260
sysctl_ctx_entry_add 0x004a0284
sysctl_ctx_entry_find 0x004a0324
sysctl_remove_oid 0x004a0360
sysctl_ctx_free 0x004a04c4
sysctl_add_oid_internal 0x004a05b8
kernSysctlInit 0x004a07c4
sysctl_add_oid 0x004a0a24
sysctlTransparentExit 0x004a0ab4
sysctl_sysctl_debug_dump_node 0x004a0b2c
sysctl_sysctl_debug 0x004a0d30
sysctl_sysctl_name 0x004a0d78
sysctl_sysctl_next_ls 0x004a0f88
sysctl_sysctl_next 0x004a11e0
name2oid 0x004a1268
sysctl_sysctl_name2oid 0x004a1498
sysctl_handle_int 0x004a157c
sysctl_handle_long 0x004a1600
sysctl_handle_string 0x004a1674
sysctl_handle_opaque 0x004a1710
sysctl_handle_reg 0x004a1778
sysctl_old_kernel 0x004a1834
sysctl_new_kernel 0x004a18c8
sysctl_find_oid 0x004a1940
sysctl_sysctl_oidfmt 0x004a1aa4
sysctl_root 0x004a1b44
kernel_sysctl 0x004a1c64
sysctl 0x004a1d58
sysctlbyname 0x004a1e04
sysctlnametomib 0x004a1e88
trcStack 0x004a2038
trcDefaultPrint 0x004a2098
trcPrint 0x004a2194
symLibInit 0x004a21e0
symTblCreate 0x004a2278
symInit 0x004a232c
symEachRtn 0x004a2348
symHFuncName 0x004a239c
symKeyCmpName 0x004a240c
symNameValueCmp 0x004a247c
symNameGet 0x004a249c
symValueGet 0x004a24c4
symTypeGet 0x004a24ec
symTblIdVerify 0x004a2514
symEach 0x004a256c
symName 0x004a25ec
symFindSymbol 0x004a2628
symFindByValueAndType 0x004a289c
symFindByValue 0x004a296c
symByValueAndTypeFind 0x004a2978
symByValueFind 0x004a2a44
symFindByNameAndType 0x004a2a50
symFindByName 0x004a2af4
symByCNameFind 0x004a2b00
symTblRemove 0x004a2b94
symTblAdd 0x004a2c60
symFree 0x004a2d3c
symTblSymSetRemove 0x004a2d84
symRemove 0x004a2ee0
symCreate 0x004a2f54
symRegister 0x004a300c
symAdd 0x004a30a8
symTblDelete 0x004a30e4
symTblShutdown 0x004a318c
symShowInit 0x004a31fc
symShow 0x004a320c
strMatch 0x004a3388
symPrint 0x004a33f4
symTypeToStringConvert 0x004a346c
symRtpTblPrint 0x004a34f4
symSysTblPrint 0x004a3634
spyLibInit 0x004a38c8
spyCreateHook 0x004a3994
spyDeleteHook 0x004a39b0
spyClkInt 0x004a39c0
spyClkStartCommon 0x004a3ab8
spyClkStopCommon 0x004a3c48
spyStopCommon 0x004a3c78
spyCommon 0x004a3cc0
spyTaskIdListSort 0x004a3d80
spyReportCommon 0x004a3e10
spyComTask 0x004a42ac
timexInit 0x004a44f4
timexHelp 0x004a44f8
timexAddCall 0x004a455c
timexClrArrays 0x004a45f0
timexMakeCalls 0x004a4654
timexNull 0x004a46c0
timexScale 0x004a46c4
timexShowCalls 0x004a479c
timexShow 0x004a4974
timexClear 0x004a49f0
timexFunc 0x004a4a10
timexPost 0x004a4a78
timexPre 0x004a4ae0
timexTime 0x004a4b48
timexAutoTime 0x004a4be0
timexCal 0x004a4c84
timexN 0x004a4ce4
timex 0x004a4dd0
tipLibInit 0x004a54b4
tipWrite 0x004a5610
tipLineBufferedRead 0x004a56ac
tipLineUnbufferedRead 0x004a5830
tipLineRead 0x004a59a4
tipCmdProcess 0x004a5a10
tipUserInputRead 0x004a5a80
tipInstanceInit 0x004a5cd8
tipConnIdInit 0x004a5d8c
tipSerialLineOpen 0x004a5fc8
tipNetLineOpen 0x004a6030
tipLineOpen 0x004a62d8
tipConnSetup 0x004a6300
tipTagToColorEscConvert 0x004a638c
tipStdInConfigure 0x004a6510
tipStdInRestore 0x004a65c0
tipExit 0x004a6654
tipLineReserve 0x004a680c
tipTaskDeleteHook 0x004a6920
tipCfgStringArgGet 0x004a6998
tipCfgStringArgRemove 0x004a6b04
tipAttrFromCfgLineGet 0x004a6bc4
tipLineAttrFromAliasGet 0x004a6c64
tipArgsParse 0x004a6da4
tipQuitCmd 0x004a6f84
tipListCmd 0x004a6f94
tipHelpCmd 0x004a7058
tipSessionStatusChange 0x004a70d4
tipSwitchCmd 0x004a71c8
tipStart 0x004a7580
loadElfInit 0x004a7f48
loadElfSectionStringTableRead 0x004a7f5c
loadElfSegmentInfoGet 0x004a7ff8
loadElfSymbolEntryRead 0x004a8178
loadElfSymbolTypeGet 0x004a82c4
loadElfSymbolTableProcess 0x004a835c
loadElfTargetSymbolTableBuild 0x004a857c
loadElfSectionIsLoadable 0x004a8678
loadElfSectionsRelocate 0x004a86a8
loadElfUtilityArraysAlloc 0x004a8754
loadElfSymtabSectionHeaderFind 0x004a880c
loadElfTextSegmentProtect 0x004a8834
loadElfFullyLinkedSegAndSectRegister 0x004a8a20
loadElfSectionTypeGet 0x004a8ac4
loadElfSectionsIntoSegmentsSort 0x004a8b40
loadElfSectionHeaderReadAndCheck 0x004a8cb8
loadElfObjectLoad 0x004a8e44
loadElfProgramHeaderCheck 0x004a93bc
loadElfFileHeaderCheck 0x004a9400
loadElfFileHeaderReadAndCheck 0x004a9524
loadElfRelaEntryRead 0x004a96e0
loadElfRelEntryRead 0x004a976c
loadElfProgramHeaderTableReadAndCheck 0x004a97e0
loadElfSectionHeaderCheck 0x004a9940
loadModuleInfoInit 0x004a9984
loadModuleInfoRelease 0x004a9a90
loadModuleInfoFromFilenameOpen 0x004a9b00
loadModuleInfoFromFilenameClose 0x004a9b9c
loadModuleInfoFromFd 0x004a9bec
loadModuleSeek 0x004a9c78
loadModuleStringRead 0x004a9d14
loadModuleValueRead 0x004a9e60
loadLibInit 0x004a9e64
loadSegInfoDescAllocate 0x004a9e70
loadSegInfoDescFree 0x004a9f00
loadSegmentsAllocate 0x004a9f78
loadSectionsInstall 0x004aa324
moduleUndefSymAdd 0x004aa3dc
symbolLookup 0x004aa42c
existingSymbolUse 0x004aa4a0
symbolActionSelect 0x004aa4bc
symbolIsVisible 0x004aa51c
symbolInternalProcess 0x004aa568
loadDefinedSymbolProcess 0x004aa6cc
loadCommonSymbolProcess 0x004aa6e8
loadUndefinedSymbolProcess 0x004aa708
loadFlagsCheck 0x004aa760
loadInternalModuleLoadAt 0x004aa7fc
loadSegDirectivesFill 0x004aaa10
loadSysSymTblLoad 0x004aaac8
loadModuleAt 0x004aab64
loadModule 0x004aad04
loadShareTgtMemAlign 0x004aae04
loadShareTgtMemSet 0x004aae08
loadShareTgtMemFree 0x004aae0c
moduleLibInit 0x004aae10
moduleInsert 0x004aaf00
moduleIdFigure 0x004aafc8
segGet 0x004ab0d4
sectionDescGet 0x004ab128
moduleSegNext 0x004ab188
moduleCreateHookAdd 0x004ab1d4
moduleCreateHookDelete 0x004ab284
moduleFindByName 0x004ab2f8
moduleInit 0x004ab3b4
moduleCreate 0x004ab54c
moduleFindByNameAndPath 0x004ab5c8
moduleEach 0x004ab680
moduleFindByGroup 0x004ab728
moduleIdListGet 0x004ab7d4
scnChecksumCompare 0x004ab864
moduleIdVerify 0x004ab8c0
moduleFlagsGet 0x004ab918
moduleNameGet 0x004ab958
moduleFirstSectionGet 0x004ab99c
moduleSegFirst 0x004aba0c
moduleSegInfoGet 0x004aba6c
moduleInfoGet 0x004abb80
moduleSegEach 0x004abc04
moduleSectionDescGet 0x004abc90
moduleSegGet 0x004abcd4
moduleSegAdd 0x004abd18
moduleSectionRegister 0x004abdac
sectionIdVerify 0x004abe90
moduleNextSectionGet 0x004abee8
moduleChecksumIsOk 0x004abf58
modulesInListCheck 0x004ac0c0
moduleCheck 0x004ac14c
moduleSectionDescFree 0x004ac158
moduleDescDestroy 0x004ac1a8
moduleDelete 0x004ac284
kernelModuleListIdGet 0x004ac28c
moduleChecksum 0x004ac294
moduleSectionChecksumSet 0x004ac32c
moduleShowInit 0x004ac448
moduleDisplayGeneric 0x004ac458
moduleShow 0x004ac6a0
unldLibInit 0x004ac8d4
moduleSymUnld 0x004ac8fc
textScnIsUsedByHook 0x004ac994
moduleTextInUseCheck 0x004acad8
unldByModuleId 0x004acb40
unldByGroup 0x004acd70
unldByNameAndPath 0x004acdb4
dbgShellCmdInit 0x004ace28
taskTraceCmd 0x004acf30
taskContinueCmd 0x004acf80
taskStepoverCmd 0x004ad0bc
taskStepCmd 0x004ad154
memListCmd 0x004ad258
cmdDpWrapper 0x004ad320
bpDpErrCheck 0x004ad3d8
dprintfCmd 0x004ad548
bpCmd 0x004ad7a0
edrShellCmdInit 0x004ae7f4
edrShowCmd 0x004ae880
edrShowFatalCmd 0x004ae904
edrShowInfoCmd 0x004ae988
edrShowIntCmd 0x004aea0c
edrShowInitCmd 0x004aea90
edrShowRebootCmd 0x004aeb14
edrShowBootCmd 0x004aeb98
edrShowKernelCmd 0x004aec1c
edrShowUserCmd 0x004aeca0
edrShowRtpCmd 0x004aed24
edrClearCmd 0x004aeda8
fppMRegs 0x004af6d4
ledLibInit 0x004af80c
ledRead 0x004af894
ledModeRegister 0x004af938
ledInactivityDelaySet 0x004afa0c
ledModeDefaultNameGet 0x004afa20
ledModeSet 0x004afa3c
ledModeNameGet 0x004afaf0
ledHistCurrentNumGet 0x004afb0c
ledHistorySet 0x004afb30
ledHistoryFree 0x004afb48
ledClose 0x004afb84
ledHistoryAdd 0x004afbe4
ledCompletionSet 0x004afda0
ledComplete 0x004afdb0
ledDfltComplete 0x004afdf0
ledPreemptSet 0x004b0014
ledPreempt 0x004b001c
ledSearch 0x004b0078
find 0x004b02c4
ledFwdFind 0x004b0320
ledBwdFind 0x004b037c
ledCDelete 0x004b03d8
ledChange 0x004b0804
ledReplace 0x004b09fc
ledBeep 0x004b0a88
ledCtrlWrite 0x004b0a94
ledNWrite 0x004b0b14
ledRedraw 0x004b0bac
ledHistNumGet 0x004b0d88
ledHistNextGet 0x004b0e50
ledHistPrevGet 0x004b0f30
ledHistFind 0x004b0fd8
histAll 0x004b11c8
histLineAllocate 0x004b12bc
ledHistoryLineAllocate 0x004b1308
ledHistoryCreate 0x004b1408
ledHistoryClone 0x004b1490
ledOpen 0x004b1548
ledHistResize 0x004b15f8
ledControl 0x004b1728
ledLibGlobalSemRelease 0x004b179c
moduleShellCmdInit 0x004b18ac
moduleCmd 0x004b1934
moduleInfoCmd 0x004b1964
moduleLoadCmd 0x004b1a14
memEdrShellCmdInit 0x004b2060
memEdrPartCmd 0x004b20d4
memEdrBlockCmd 0x004b217c
memEdrMarkCmd 0x004b235c
memEdrUnmarkCmd 0x004b240c
memEdrFlushCmd 0x004b24bc
shellConfigLibInit 0x004b2a2c
shellConfigLibDynamicInit 0x004b2ac8
variableStringGet 0x004b2b08
configListGet 0x004b2bbc
configListFinalize 0x004b2c7c
configNodeGet 0x004b2cec
configStringGet 0x004b2d5c
shellConfigGet 0x004b2f48
shellConfigDefaultGet 0x004b3030
configValueGet 0x004b30c8
shellConfigValueGet 0x004b3144
shellConfigDefaultValueGet 0x004b31e8
configNodeAdd 0x004b3260
configValueSet 0x004b3324
shellConfigValueSet 0x004b33fc
shellConfigDefaultValueSet 0x004b3480
configStringParse 0x004b34ec
shellConfigSet 0x004b36f4
shellConfigDefaultSet 0x004b3784
configValueUnset 0x004b37fc
shellConfigDefaultValueUnset 0x004b38f8
shellConfigValueUnset 0x004b39b4
shellConfigLibGlobalSemRelease 0x004b3a58
shellDataAdd 0x004b3b1c
shellDataFromNameAdd 0x004b3c00
shellDataRemove 0x004b3c58
shellDataAllRemove 0x004b3d14
shellDataGet 0x004b3db4
shellDataFromNameGet 0x004b3e64
shellDataFirst 0x004b3ec8
shellDataNext 0x004b3f18
shellInOutInputUniqueCheck 0x004b3f88
shellInOutInputHookUnset 0x004b4020
shellInOutInputHookAdd 0x004b4078
shellInOutInputHookSet 0x004b40f8
shellInOutInputHookDelete 0x004b41b8
shellInOutGet 0x004b41f0
shellInOutInitialGet 0x004b42b8
shellInOutBgndIoClose 0x004b433c
shellInOutBgndGet 0x004b43a0
shellInOutBgndClose 0x004b4428
shellInOutBgndRegister 0x004b45f0
shellInOutSlavePtyGet 0x004b46a0
shellInOutMasterPtyGet 0x004b46d4
shellInOutBlockingGet 0x004b4708
shellInOutBlockingDataSet 0x004b47ac
shellInOutBlockingBlock 0x004b47d4
shellOutputLock 0x004b4a08
shellOutputUnlock 0x004b4a80
shellInOutRedirectOpen 0x004b4af4
shellVFdPrint 0x004b4d88
shellPrint 0x004b4e1c
shellPrintErr 0x004b4f74
taskFromShellInOutSet 0x004b50c4
shellInOutUse 0x004b5114
shellInOutSet 0x004b5170
shellInOutRedirectRestore 0x004b52dc
shellInOutRedirectClose 0x004b53cc
shellInOutRedirectSet 0x004b550c
shellInOutRedirectScript 0x004b5650
shellIoPtyOpen 0x004b56e0
shellInOutBlockingOpen 0x004b588c
shellInOutBgndOpen 0x004b59c4
shellExcPrint 0x004b5a3c
blockingStructGet 0x004b5bf0
shellInOutBlockingBlockedDataGet 0x004b5c7c
shellInOutBlockingUnblock 0x004b5cdc
shellInOutBlockingClose 0x004b5d70
shellInOutBlockingOnDataClose 0x004b5eb0
inputHook 0x004b5f08
ctrlCCheckHook 0x004b5fb4
shellMemFree2 0x004b608c
shellInternalSymTblFromRtpGet 0x004b60cc
shellInternalSymTblFromTaskGet 0x004b61f4
shellInternalArgStackAllocate 0x004b622c
shellInternalFuncIntArgAdd 0x004b626c
shellInternalFuncLLongArgAdd 0x004b629c
shellInternalFuncFloatArgAdd 0x004b62f8
shellInternalFuncDoubleArgAdd 0x004b6354
shellInternalFunctionCall 0x004b63ac
shellInternalKernelSymbolCreate 0x004b65a4
shellInternalSymbolDisplay 0x004b66b0
shellInternalDecValueDisplay 0x004b67b0
shellInternalHexValueDisplay 0x004b6994
shellInternalValueDisplay 0x004b6b5c
shellInternalArgumentEval 0x004b6cc0
shellInternalTaskNameMatch 0x004b6d10
shellInternalStrToChar 0x004b6dc0
shellInternalStrUnquote 0x004b6f20
shellInternalStrTokenize 0x004b7060
shellInternalStrSpaceTokenize 0x004b7164
shellInternalStrToInt 0x004b7190
shellInternalStrToInt32 0x004b75e0
shellInternalStrToInt2 0x004b766c
shellInternalStrToFloat 0x004b78b0
shellInternalOptFree 0x004b79e8
argumentStrCrack 0x004b7a50
shellInternalOptGet 0x004b7d7c
symbolTypeConvert 0x004b8004
shellInternalCSymbolGet 0x004b8020
matchingCplusSymbolCheck 0x004b80ec
demangleSymbolGet 0x004b8218
shellInternalCppSymbolGet 0x004b84dc
adaIdMatch 0x004b85a0
countAdaIdMatch 0x004b8634
numAdaIdMatches 0x004b8680
shellInternalAdaSymbolGet 0x004b86fc
shellInternalSymbolGet 0x004b87b0
shellInternalDataSymbolGet 0x004b88a0
shellInternalTextSymbolGet 0x004b88f4
shellInternalSymbolsResolve 0x004b8950
printAdaIdMatch 0x004b8c4c
__yy_memcpy 0x004b8f68
yy_get_previous_state 0x004b8f8c
yy_try_NUL_trans 0x004b9098
shellInterpC_load_buffer_state 0x004b916c
shellInterpC_switch_to_buffer 0x004b9198
shellInterpC_flush_buffer 0x004b91f0
shellInterpC_init_buffer 0x004b9248
yy_fatal_error 0x004b9284
yyunput 0x004b92d0
shellInterpC_scan_buffer 0x004b9388
shellInterpC_scan_bytes 0x004b9430
shellInterpC_scan_string 0x004b94cc
shellInterpC_create_buffer 0x004b9510
shellInterpCrestart 0x004b9588
yy_get_next_buffer 0x004b95dc
input 0x004b9770
shellInterpC_delete_buffer 0x004b983c
flexContextSave 0x004b9898
shellInterpCInit 0x004b9920
cInterpCtxInitialize 0x004b9988
cInterpCtxRestart 0x004b99dc
cInterpCtxFinalize 0x004b9a74
redirGet 0x004b9abc
cInterpRedirGet 0x004b9c1c
errorSet 0x004b9cb0
valueCastTypeGet 0x004b9d80
valueIntegerCheck 0x004b9d9c
valueFloatCheck 0x004b9df8
valueConvert 0x004b9e34
convChar 0x004ba064
convShort 0x004ba0c4
convInt 0x004ba124
convLong 0x004ba188
convLLong 0x004ba1f4
convFloat 0x004ba254
convDouble 0x004ba2a4
sizeofGet 0x004ba2f8
shellTypeGet 0x004ba380
cTypeGet 0x004ba3c0
symbolValueAddrGet 0x004ba400
shellCMalloc 0x004ba50c
interpStrdup 0x004ba560
valueRead 0x004ba5c8
symbolResolve 0x004ba680
functionEval 0x004ba7f0
rightValueGet 0x004ba968
leftValueCheck 0x004baa50
valueCast 0x004baaa8
valueDisplay 0x004bac68
arithmeticOp 0x004bae08
integerOp 0x004bba90
relationalOp 0x004bbd48
assignFunc 0x004bbdec
assignOp 0x004bbff8
incrementValue 0x004bc140
unaryOp 0x004bc214
sizeofValue 0x004bc3e0
functionArgumentAdd 0x004bc464
functionDefine 0x004bc588
valueArrayDefine 0x004bc674
valueStructDefine 0x004bc7c4
interpStatementInit 0x004bc8ec
commentParse 0x004bc90c
shellInterpClex 0x004bc9ac
shellInterpCparse 0x004bd928
cInterpParse 0x004be6b0
cInterpEvaluate 0x004bea00
symbolCompleteGet 0x004bea94
cInterpComplete 0x004bed3c
staticStringsFree 0x004bef4c
shellInterpCmdInit 0x004bf6e4
cmdInterpCtxInitialize 0x004bf78c
cmdInterpCtxRestart 0x004bf7d8
cmdInterpCtxFinalize 0x004bf82c
cmdInterpRedirGet 0x004bf8a0
stringCompletionGet 0x004bfb90
statementGet 0x004bfd40
backquotedStringGet 0x004bfe60
pipeStatementsGet 0x004bff54
shellCmdBgndBquoteEval 0x004c003c
backquoteParse 0x004c00ac
shellCmdBgndPipeEval 0x004c02f0
statementExec 0x004c0348
cmdInterpParse 0x004c06ec
cmdInterpEvaluate 0x004c07b8
contextNamePrint 0x004c0804
symbolCompleteGet 0x004c0818
cmdInterpComplete 0x004c0a6c
shellCmdMemRegister 0x004c117c
shellCmdMemUnregister 0x004c120c
shellCmdPreParsedGet 0x004c129c
shellCmdAliasDelete 0x004c1408
shellCmdMatchingAliasListGet 0x004c14a8
shellCmdSymTabIdGet 0x004c1564
shellCmdTaskIdConvert 0x004c159c
shellCmdAliasShow 0x004c1700
shellInterpCmdLibBasicInit 0x004c17a0
shellInterpCmdLibDynamicInit 0x004c18d4
shellCmdAliasGet 0x004c1914
shellTopicGet 0x004c1998
shellCmdTopicAdd 0x004c1a04
shellSimpleCmdGet 0x004c1afc
shellCmdGet 0x004c1bd0
shellCmdAliasAdd 0x004c1ca0
shellCmdAliasArrayAdd 0x004c1e8c
shellCmdMatchingCmdListGet 0x004c1ef0
shellCmdCheck 0x004c1f30
shellCmdAdd 0x004c1fa0
shellInterpCmdLibInit 0x004c21c8
shellCmdArrayAdd 0x004c223c
shellCmdPreParseAdd 0x004c229c
cmdInfoFinalize 0x004c232c
cmdInfoStructGet 0x004c2378
shellCmdInfoGet 0x004c2440
shellCmdInfoCmdLineStore 0x004c24c4
shellCmdInfoArgsStore 0x004c2548
shellCmdInfoFinalNameStore 0x004c25cc
shellCmdInfoInitialNameStore 0x004c2650
shellCmdStatementSplit 0x004c26d4
optionsPreprocess 0x004c2ba4
shellCmdExec 0x004c2c84
shellCmdStatementExec 0x004c2fa4
formatedPrint 0x004c3184
cmdNodeDisplay 0x004c33fc
topicDisplay 0x004c3620
commandDisplay 0x004c3774
helpCmd 0x004c3870
shellInterpCmdLibGlobalSemRelease 0x004c3b90
shellInterpLibInit 0x004c4200
shellInterpRegister 0x004c4288
shellInterpByNameFind 0x004c43c0
shellInterpCtxGet 0x004c442c
shellInterpDefaultNameGet 0x004c448c
shellInterpNameGet 0x004c44a8
shellInterpPromptGet 0x004c4528
shellInterpPromptSet 0x004c4574
shellInterpDelete 0x004c469c
shellInterpRestart 0x004c4734
interpreterGet 0x004c4794
shellInterpCtxCreate 0x004c47ec
shellInterpSwitch 0x004c495c
shellInterpSet 0x004c4a40
shellInterpEvaluate 0x004c4a8c
shellInterpPromptDftSet 0x004c4c48
shellInterpLibGlobalSemRelease 0x004c4cd4
shellLineLenGet 0x004c4ed4
shellLoginInstall 0x004c4f4c
shellLogoutInstall 0x004c4f58
shellFirst 0x004c4f64
shellNext 0x004c4f8c
shellFromTaskGet 0x004c4fbc
shellIdVerify 0x004c501c
shellTaskGet 0x004c5098
shellBackgroundRead 0x004c50f8
shellFromNameGet 0x004c52e0
shellErrnoSet 0x004c5314
shellErrnoGet 0x004c536c
shellCompatibleCheck 0x004c53c0
shellTaskIdDefault 0x004c53c8
shellTaskDefaultOptionsSet 0x004c54c0
shellTaskDefaultOptionsGet 0x004c54fc
shellTaskDefaultStackSizeSet 0x004c55a0
shellTaskDefaultStackSizeGet 0x004c55d4
shellTaskDefaultPrioritySet 0x004c55dc
shellTaskDefaultPriorityGet 0x004c5610
shellTaskDefaultBaseNameSet 0x004c5618
shellTaskDefaultBaseNameGet 0x004c564c
stringTrimRight 0x004c5654
configCheck 0x004c56bc
inputLineAlloc 0x004c5940
inputLineFree 0x004c59b4
inputLineGet 0x004c5a14
shellLedModeSet 0x004c5b50
configSet 0x004c5c10
shellLedCompletion 0x004c5e60
shellContextListLock 0x004c5ef0
shellContextListUnlock 0x004c5f30
shellContextInit 0x004c5f6c
shellCompatibleSet 0x004c620c
shellResourceReleaseHookAdd 0x004c63e8
shellLibInit 0x004c644c
shellFromTaskParentContextGet 0x004c660c
shellContextCompatibleGet 0x004c66a0
shellLock 0x004c6710
shellHistory 0x004c6770
shellScriptNoAbort 0x004c67c8
shellScriptAbort 0x004c6808
shellPromptSet 0x004c6848
shellLogout2 0x004c6938
shellLogout 0x004c6a40
shellExitWrapper 0x004c6a64
sessionInOutClose 0x004c6b2c
shellContextFinalize 0x004c6b78
shellBackgroundInit 0x004c6c9c
consoleLogout 0x004c6fbc
shellLogin 0x004c7048
shellGenericInit 0x004c71a8
shellConsoleInit 0x004c7528
shellSecureInit 0x004c7598
shellTaskCreateHook 0x004c75d4
shellTaskDeleteHook 0x004c769c
shellLibResourceRelease 0x004c782c
sessionTerminate 0x004c78e8
shellRestart 0x004c7984
shellTerminate 0x004c7b60
shellExec 0x004c7c80
shellTask 0x004c7ea4
taskShellAbort 0x004c83b4
shellAbort 0x004c8574
shellSigHandler 0x004c8640
consoleLogin 0x004c878c
shellDefaultAbort 0x004c8898
shellAbortHandledByShell 0x004c889c
shellMemLibInit 0x004c9204
shellMemFree 0x004c92a0
shellMemStringShow 0x004c92bc
shellMemRegFind 0x004c9448
shellMemUnregister 0x004c9494
shellMemAllRegFree 0x004c9500
shellMemRegAllFree 0x004c9584
shellMemRegFree 0x004c9594
allocatedStringGet 0x004c95e4
shellMemStringFree 0x004c9658
shellMemStringIsAllocated 0x004c9718
stringListFinalize 0x004c9740
shellMemPartIncrease 0x004c978c
shellMemMalloc 0x004c9810
shellMemStrdup 0x004c988c
shellMemStringAdd 0x004c98e4
shellMemRegister 0x004c99e0
shellMemRegMalloc 0x004c9a60
shellMemRealloc 0x004c9ab0
shellMemCalloc 0x004c9b44
shellPromptGet 0x004c9c30
shellPromptFmtSet 0x004c9c78
shellPromptFmtDftSet 0x004c9c7c
shellPromptLibBasicInit 0x004c9c80
shellPromptFmtStrAdd 0x004c9d40
shellPromptLibInit 0x004c9df8
fmtRtnGet 0x004c9eb4
shellPromptPrint 0x004c9f20
currentPathPrint 0x004ca044
currentHistNumPrint 0x004ca080
targetNamePrint 0x004ca0dc
percentPrint 0x004ca13c
userNamePrint 0x004ca150
shellPromptLibGlobalSemRelease 0x004ca1b0
remLogout 0x004ca2c8
dataFinalize 0x004ca30c
shellParserControl 0x004ca314
memCtxAttachStructFinalize 0x004ca5d8
memCtxAttachNodeCreate 0x004ca650
memCtxAttachStructAdd 0x004ca698
memCtxAttachStructGet 0x004ca770
memCtxAttachNodeAdd 0x004ca844
memCtxAttachNodeGet 0x004ca944
shellWorkingMemCtxAttach 0x004ca9b8
memCtxAttachedFromNumGet 0x004caa48
shellWorkingMemCtxDuplicate 0x004caac4
shellWorkingMemCtxCurrentSet 0x004cabd8
shellWorkingMemCtxLastGet 0x004cac20
shellWorkingMemCtxCurrentGet 0x004cac54
shellWorkingMemCtxIdConvert 0x004cac88
shellWorkingMemCtxDetach 0x004cade4
shellWorkingMemCtxGet 0x004caee0
shellWorkingMemCtxAttachedShow 0x004caf94
shellWorkingMemCtxRtnSet 0x004cb118
symShellCmdInit 0x004cb1f0
lookupCmd 0x004cb268
printfCmd 0x004cb37c
setSymbolCmd 0x004cb520
demangleCmd 0x004cb9fc
symLkupPgSzRestore 0x004cbac0
taskShellCmdInit 0x004cc244
taskCmd 0x004cc338
taskInfoCmd 0x004cc3d8
taskSpawnCmd 0x004cc430
taskStackCmd 0x004cc930
taskDeleteCmd 0x004cc9b8
taskDefaultCmd 0x004ccafc
taskRegsCmd 0x004ccba0
taskSuspendCmd 0x004ccc20
taskStopCmd 0x004ccca8
taskResumeCmd 0x004ccd38
taskHooksCmd 0x004ccdc8
taskWaitCmd 0x004cce48
unloadShellCmdInit 0x004cdce8
moduleUnloadCmd 0x004cdd3c
usrFsShellCmdInit 0x004cdff0
cdCmd 0x004ce074
lsCmd 0x004ce0b0
pwdCmd 0x004ce0e8
rmCmd 0x004ce10c
fileCreateCmd 0x004ce244
bufferPagingWrite 0x004ce2fc
fileDisplay 0x004ce54c
catCmd 0x004ce6b8
moreCmd 0x004ce768
nameIsDir 0x004ce884
mvCmd 0x004ce90c
cpCmd 0x004ce9fc
viLedLibInit 0x004cf6b4
viLedRead 0x004cf6d4
vmShowShellCmdInit 0x004d07d0
vmCtxCmd 0x004d0844
mlockall 0x004d09a8
munlockall 0x004d09b0
mlock 0x004d09b8
munlock 0x004d09c0
sll_ins 0x004d09c8
sll_head 0x004d09f4
mqPxLibInit 0x004d0a20
mq_terminate 0x004d0ac0
mqPxDestroy 0x004d0bd0
mq_init 0x004d0cd8
mqPxCreateRtn 0x004d0ddc
mq_create 0x004d0e94
mq_open 0x004d0f50
_mq_receive 0x004d1174
mq_receive 0x004d14cc
mq_work 0x004d1610
_mq_send 0x004d16b8
mq_send 0x004d1af0
mq_close 0x004d1c5c
mq_unlink 0x004d1d28
_mq_notify 0x004d1db0
mq_notify 0x004d1fd0
mq_setattr 0x004d2088
mq_getattr 0x004d21cc
mqPxDescObjIdGet 0x004d21d8
mqPxShow 0x004d223c
mqPxShowInit 0x004d23e8
pthreadLibInit 0x004d24dc
pthread_sigmask 0x004d266c
pthread_mutexattr_init 0x004d26a0
pthread_mutexattr_destroy 0x004d26d4
pthread_mutexattr_setprotocol 0x004d26f4
pthread_mutexattr_getprotocol 0x004d2744
pthread_mutexattr_setprioceiling 0x004d2778
pthread_mutexattr_getprioceiling 0x004d27b0
pthread_mutex_getprioceiling 0x004d27e4
pthread_mutex_setprioceiling 0x004d28bc
pthread_mutex_init 0x004d2a18
pthread_mutex_destroy 0x004d2a8c
pthread_condattr_init 0x004d2bd4
pthread_condattr_destroy 0x004d2bf8
pthread_cond_init 0x004d2c08
pthread_cond_destroy 0x004d2c68
pthread_cond_signal 0x004d2d74
pthread_cond_broadcast 0x004d2e78
pthread_attr_setscope 0x004d2f64
pthread_attr_getscope 0x004d2fa8
pthread_attr_setinheritsched 0x004d2fdc
pthread_attr_getinheritsched 0x004d301c
pthread_attr_setschedpolicy 0x004d3050
pthread_attr_getschedpolicy 0x004d3098
pthread_attr_setschedparam 0x004d30cc
pthread_attr_getschedparam 0x004d3118
pthread_attr_init 0x004d3154
pthread_attr_destroy 0x004d31b8
pthread_attr_setopt 0x004d31d8
pthread_attr_getopt 0x004d3208
pthread_attr_setname 0x004d3244
pthread_attr_getname 0x004d3274
pthread_attr_setstacksize 0x004d32c0
pthread_attr_getstacksize 0x004d3300
pthread_attr_setstackaddr 0x004d333c
pthread_attr_getstackaddr 0x004d336c
pthread_attr_setdetachstate 0x004d33a8
pthread_attr_getdetachstate 0x004d33f0
pthread_create 0x004d342c
pthread_equal 0x004d3448
pthread_once 0x004d3458
pthread_key_allocate_data 0x004d35e4
pthread_setcanceltype 0x004d3628
pthread_cleanup_pop 0x004d362c
cleanupPrivateData 0x004d368c
threadExitCleanup 0x004d3784
self_become_pthread 0x004d37ec
pthread_key_create 0x004d38a4
pthread_self 0x004d3958
pthread_cleanup_push 0x004d398c
pthread_mutex_lock 0x004d39d8
pthread_key_delete 0x004d3b98
pthread_mutex_trylock 0x004d3c4c
pthread_mutex_unlock 0x004d3e0c
pthread_getspecific 0x004d3f74
pthread_setspecific 0x004d3ff8
pthreadValidateAndLock 0x004d40ec
pthread_abnormal_exit 0x004d41b0
pthread_setcancelstate 0x004d4280
pthread_exit 0x004d4330
pthread_testcancel 0x004d4468
pthread_testandset_canceltype 0x004d4514
pthread_join 0x004d4558
pthread_cond_timedwait 0x004d46fc
pthread_cond_wait 0x004d4b44
sigCancelHandler 0x004d4da8
wrapperFunc 0x004d4e24
pthread_detach 0x004d4e90
pthread_setschedparam 0x004d4f00
pthread_getschedparam 0x004d4fd4
pthread_kill 0x004d505c
pthread_cancel 0x004d50d8
semPxShowInit 0x004d5380
semPxShow 0x004d53b0
sched_setparam 0x004d5584
sched_getparam 0x004d5620
sched_setscheduler 0x004d568c
sched_getscheduler 0x004d5704
sched_yield 0x004d5768
sched_get_priority_max 0x004d5770
sched_get_priority_min 0x004d57c4
sched_rr_get_interval 0x004d5818
_schedPxKernelIsTimeSlicing 0x004d58bc
unlink 0x004d58d4
link 0x004d59c8
fsync 0x004d5a8c
fdatasync 0x004d5b10
rename 0x004d5b94
fpathconf 0x004d5c58
pathconf 0x004d5cdc
access 0x004d5dc4
chmod 0x004d5e60
fchmod 0x004d5f10
usrPathCat 0x004d5f20
usrPathSplit2 0x004d5fa4
cd 0x004d6024
dirNameWildcard 0x004d6070
usrFsPathQuery 0x004d60cc
nameIsDir 0x004d6138
usrPathSplit 0x004d61a8
pwd 0x004d6268
mkdir 0x004d62a0
rmdir 0x004d62dc
rm 0x004d63c0
copyStreams 0x004d63c4
chkdsk 0x004d64dc
dirListPattern 0x004d657c
dirListEnt 0x004d668c
dirList 0x004d696c
ls 0x004d6cfc
ll 0x004d6d10
lsr 0x004d6d24
llr 0x004d6d38
mvFile 0x004d6d4c
mv 0x004d6de8
recursiveXDelete 0x004d712c
xdelete 0x004d734c
attrib 0x004d7438
xattrib 0x004d76b4
dosfsDiskFormat 0x004d787c
diskFormat 0x004d78e0
hrfsDiskFormat 0x004d792c
diskInit 0x004d79ac
commit 0x004d79ec
ioHelp 0x004d7a54
copy_blk 0x004d7b34
copy 0x004d7ddc
cp_blk 0x004d7de0
cp 0x004d8068
xcopy_blk 0x004d806c
xcopy 0x004d82ac
useFdiskPartParse 0x004d8e78
usrFdiskPartRead 0x004d9210
usrFdiskPartCreate 0x004d92e4
usrFdiskPartShow 0x004d97b0
usrFdiskPartCreateFloat 0x004d9c10
tarHelp 0x004db1ac
mtChecksum 0x004db25c
tarRdBlks 0x004db284
mtAccess 0x004db360
tarSetMtime 0x004db440
tarExtractFile 0x004db4b8
tarProcDirs 0x004db9f8
tarExtract 0x004dbb5c
tarWrtBlks 0x004dbe24
tarCreateHdr 0x004dbf20
tarArchDo 0x004dc03c
tarArchive 0x004dc4c0
tarTocFile 0x004dc674
tarToc 0x004dc834
help 0x004dd28c
netHelp 0x004dd36c
shConfig 0x004dd44c
strFree 0x004dd4e0
bootChange 0x004dd540
periodRun 0x004dd57c
repeatRun 0x004dd5e0
sp 0x004dd664
repeat 0x004dd748
period 0x004dd7ac
taskIdFigure 0x004dd810
tw 0x004dd8b8
w 0x004dd958
printStackSummary 0x004dd9e8
checkStack 0x004ddc18
objectShow 0x004ddd78
show 0x004ddebc
i 0x004ddee4
ti 0x004ddf64
version 0x004ddfd8
getHex 0x004de054
memoryModify 0x004de1e8
m 0x004de5bc
memoryDump 0x004de5e4
d 0x004deb6c
usrModuleLoad 0x004deb94
ld 0x004dec40
devs 0x004ded14
lkup 0x004ded34
lkAddrInternal 0x004ded7c
lkAddr 0x004dee84
vxOffsetNameMatches 0x004deea8
lkAddrPrintSame 0x004def10
lkAddrNext 0x004defc8
lkAddrFind 0x004df02c
substrcmp 0x004df0c8
changeReg 0x004df160
taskRegsModify 0x004df390
mRegs 0x004df5bc
changeFpReg 0x004df61c
pc 0x004df6dc
printErrno 0x004df738
td 0x004df844
tr 0x004df8d4
ts 0x004df948
printLogo 0x004df9d8
logout 0x004dfa94
h 0x004dfac0
spyReport 0x004dfae0
spyTask 0x004dfb34
spy 0x004dfb88
spyClkStart 0x004dfbdc
spyClkStop 0x004dfc34
spyStop 0x004dfc80
spyHelp 0x004dfccc
unld 0x004dfd40
reld 0x004dfdc8
tip 0x004dfeb0
avlUintSearch 0x004e1de0
avlUintSuccessorGet 0x004e1e1c
avlUintPredecessorGet 0x004e1e64
avlUintMinimumGet 0x004e1eac
avlUintMaximumGet 0x004e1edc
avlUintTreeWalk 0x004e1f0c
avlUintRebalance 0x004e20d4
avlUintDelete 0x004e22a0
avlUintInsert 0x004e23d8
bcmp 0x004e2494
binvert 0x004e24e0
bswap 0x004e2514
uswab 0x004e2540
bzero 0x004e2574
index 0x004e257c
rindex 0x004e25bc
bitFirstGet 0x004e2610
addAssignNum 0x004e26a4
addAssignString 0x004e2708
bootStructToString 0x004e2758
printClear 0x004e29d4
printParamNum 0x004e2a40
printParamString 0x004e2a74
bootParamsShow 0x004e2ad8
promptRead 0x004e2c54
promptParamNum 0x004e2d14
promptParamString 0x004e2dfc
promptParamBootDevice 0x004e2e9c
bootParamsPrompt 0x004e3018
checksum 0x004e337c
dllInit 0x004e33e4
dllTerminate 0x004e33f8
dllInsert 0x004e3400
dllAdd 0x004e343c
dllRemove 0x004e3448
dllGet 0x004e3484
dllCount 0x004e34bc
dllEach 0x004e34dc
lstLibInit 0x004e352c
lstInit 0x004e3530
lstConcat 0x004e3544
lstCount 0x004e35c0
lstDelete 0x004e35c8
lstExtract 0x004e3610
lstFirst 0x004e368c
lstGet 0x004e3694
lstInsert 0x004e36d8
lstAdd 0x004e3720
lstLast 0x004e372c
lstNext 0x004e3734
lstNth 0x004e373c
lstPrevious 0x004e37a4
lstNStep 0x004e37ac
lstFind 0x004e381c
lstFree2 0x004e3854
lstFree 0x004e38b0
poolLibInit 0x004e38bc
poolDelete 0x004e38fc
poolIncrementSet 0x004e3a2c
poolIncrementGet 0x004e3a70
poolTotalCount 0x004e3ab0
poolFreeCount 0x004e3af0
poolIdListGet 0x004e3b34
poolBlockBuild 0x004e3bc0
poolItemGet 0x004e3c94
poolBlockAdd 0x004e3d74
poolCreate 0x004e3e5c
poolItemIsValid 0x004e3ff4
poolItemReturn 0x004e4084
poolBlockIsFree 0x004e418c
poolUnusedBlocksFree 0x004e4200
qFifoInit 0x004e432c
qFifoPut 0x004e4380
qFifoRestore 0x004e43b8
qFifoGet 0x004e43c4
qFifoRemove 0x004e43dc
qFifoInfo 0x004e4400
qFifoEach 0x004e445c
qFifoNext 0x004e44e4
qInit 0x004e44ec
qTerminate 0x004e460c
qFirst 0x004e465c
qPut 0x004e4664
qGet 0x004e4698
qRemove 0x004e46cc
qResort 0x004e4700
qAdvance 0x004e4734
qGetExpired 0x004e4768
qKey 0x004e479c
qCalibrate 0x004e47d8
qInfo 0x004e480c
qEach 0x004e4840
qNullRtn 0x004e4874
qPriBMapInit 0x004e487c
qTradPriBMapSetCompatible 0x004e4918
qPriBMapNext 0x004e4930
qPriBMapKey 0x004e4a20
qPriBMapInfo 0x004e4a28
qPriBMapEach 0x004e4b10
qPriBMapSet 0x004e4b98
qPriBMapRestore 0x004e4bd0
qPriBMapPut 0x004e4c50
qPriBMapRemove 0x004e4cb8
qPriBMapReadyQResort 0x004e4e04
qPriBMapResort 0x004e4ee0
qPriBMapGet 0x004e4f40
qPriDeltaInit 0x004e4f7c
qPriDeltaTerminate 0x004e4fa0
qPriDeltaPut 0x004e4fa8
qPriDeltaGet 0x004e504c
qPriDeltaRemove 0x004e5064
qPriDeltaResort 0x004e50a4
qPriDeltaAdvance 0x004e5118
qPriDeltaGetExpired 0x004e5134
qPriDeltaKey 0x004e519c
qPriDeltaInfo 0x004e51c4
qPriDeltaEach 0x004e5220
qPriDeltaNext 0x004e52a8
qPriListInit 0x004e52b0
qTradPriListSetCompatible 0x004e5304
qPriListTerminate 0x004e5318
qPriListPut 0x004e5320
qPriListPutFromTail 0x004e5360
qPriListGet 0x004e539c
qPriListRemove 0x004e53b4
qPriListResort 0x004e53d8
qPriListReadyQResort 0x004e546c
qPriListAdvance 0x004e5554
qPriListGetExpired 0x004e5558
qPriListCalibrate 0x004e559c
qPriListKey 0x004e55c4
qPriListInfo 0x004e55e4
qPriListEach 0x004e5640
qPriListNext 0x004e56c8
rngDelete 0x004e56d0
rngFlush 0x004e5704
rngCreate 0x004e5714
rngBufGet 0x004e5794
rngBufPut 0x004e587c
rngIsEmpty 0x004e59a0
rngIsFull 0x004e59b8
rngFreeBytes 0x004e59ec
rngNBytes 0x004e5a10
rngPutAhead 0x004e5a30
rngMoveAhead 0x004e5a54
sllInit 0x004e5a74
sllTerminate 0x004e5a88
sllPutAtHead 0x004e5a90
sllPutAtTail 0x004e5aac
sllGet 0x004e5ad8
sllRemove 0x004e5b08
sllPrevious 0x004e5b44
sllCount 0x004e5b88
sllEach 0x004e5ba8
setLibInit 0x004e5bfc
setInit 0x004e5cc8
setCreate 0x004e5d40
setDestroy 0x004e5dac
setTerminate 0x004e5e64
setDelete 0x004e5e6c
setItemAdd 0x004e5e74
setItemDelete 0x004e5ef4
setItemFirst 0x004e5fc8
setItemLast 0x004e6028
setItemNext 0x004e6088
setItemPrev 0x004e6100
setLock 0x004e6178
setUnlock 0x004e61e0
setSize 0x004e6238
setDuplicate 0x004e6290
setIsNull 0x004e6378
rBuffLibInit 0x004e63e8
rBuffNewBuffHookAdd 0x004e6454
rBuffNewBufferHookExecute 0x004e648c
rBuffFlush 0x004e64f0
rBuffNBytes 0x004e6564
rBuffLock 0x004e656c
rBuffUnlock 0x004e6590
rBuffReadReserve 0x004e6598
rBuffElementCreate 0x004e65f8
rBuffInsert 0x004e665c
rBuffRecycle 0x004e66d4
rBuffOverflowHandle 0x004e6738
rBuffWrite 0x004e68d4
rBuffFree 0x004e6a94
rBuffReset 0x004e6b44
rBuffDestroy 0x004e6c48
rBuffCreate 0x004e6ce0
rBuffSetFd 0x004e6f90
rBuffHandleEmpty 0x004e6f9c
rBuffReadCommit 0x004e70a4
rBuffRead 0x004e7168
wvRBuffMgr 0x004e723c
wvRBuffMgrPrioritySet 0x004e73c4
rBuffUpload 0x004e744c
rBuffShowInit 0x004e7610
rBuffShow 0x004e7620
rBuffInfoGet 0x004e79a8
symNodeAdd 0x004e7d24
symListGet 0x004e7dec
symSimpleMatchAdd 0x004e7f9c
hookAddToTail 0x004e7ffc
hookAddToHead 0x004e809c
hookDelete 0x004e8150
hookFind 0x004e8228
hookShow 0x004e82b8
getoptInit 0x004e8450
getopt_r 0x004e847c
getopt 0x004e8694
getOptServ 0x004e8718
bootParamsErrorPrint 0x004e8848
skipSpace 0x004e887c
bootScanNum 0x004e88b0
bootSubfieldExtract 0x004e89c8
bootBpAnchorExtract 0x004e8a50
bootLeaseExtract 0x004e8a58
bootNetmaskExtract 0x004e8b44
getWord 0x004e8bdc
getConst 0x004e8c6c
getNum 0x004e8d0c
getAssign 0x004e8d98
getAssignNum 0x004e8e20
bootStringToStructAdd 0x004e8ec4
bootStringToStruct 0x004e9258
xdr_ftype 0x004e9308
xdr_nfs_fh2 0x004e9330
xdr_nfscookie 0x004e935c
xdr_nfstime 0x004e9388
xdr_fattr 0x004e93e4
xdr_sattr 0x004e9590
xdr_attrstat 0x004e965c
xdr_diropargs 0x004e96d0
xdr_diropokres 0x004e972c
xdr_diropres 0x004e9788
xdr_sattrargs 0x004e97fc
xdr_readlinkres 0x004e9858
xdr_readargs 0x004e98cc
xdr_data 0x004e9960
xdr_readokres 0x004e999c
xdr_readres 0x004e99f8
xdr_writeargs 0x004e9a6c
xdr_createargs 0x004e9b1c
xdr_renameargs 0x004e9b78
xdr_linkargs 0x004e9bd4
xdr_symlinkargs 0x004e9c30
xdr_readdirargs 0x004e9ca8
xdr_entry 0x004e9d20
xdr_dirlist 0x004e9dc0
xdr_readdirres 0x004e9e28
xdr_statfsokres 0x004e9e9c
xdr_statfsres 0x004e9f4c
xdr_uint64 0x004e9fc0
xdr_uint32 0x004e9fe8
xdr_int64 0x004ea010
xdr_int32 0x004ea038
xdr_fileid3 0x004ea060
xdr_cookie3 0x004ea088
xdr_uid3 0x004ea0b0
xdr_gid3 0x004ea0d8
xdr_size3 0x004ea100
xdr_offset3 0x004ea128
xdr_mode3 0x004ea150
xdr_count3 0x004ea178
xdr_cookieverf3 0x004ea1a0
xdr_createverf3 0x004ea1cc
xdr_writeverf3 0x004ea1f8
xdr_ftype3 0x004ea224
xdr_specdata3 0x004ea24c
xdr_nfs_fh3 0x004ea2a8
xdr_nfstime3 0x004ea2e4
xdr_fattr3 0x004ea340
xdr_post_op_attr 0x004ea4d0
xdr_wcc_attr 0x004ea558
xdr_pre_op_attr 0x004ea5d0
xdr_wcc_data 0x004ea644
xdr_post_op_fh3 0x004ea6a0
xdr_time_how 0x004ea728
xdr_set_mode3 0x004ea750
xdr_set_uid3 0x004ea7c4
xdr_set_gid3 0x004ea838
xdr_set_size3 0x004ea8ac
xdr_set_atime 0x004ea920
xdr_set_mtime 0x004ea994
xdr_diropargs3 0x004eaa08
xdr_GETATTR3args 0x004eaa64
xdr_GETATTR3resok 0x004eaa8c
xdr_GETATTR3res 0x004eaab4
xdr_sattr3 0x004eab28
xdr_sattrguard3 0x004eabf4
xdr_SETATTR3args 0x004eac7c
xdr_SETATTR3resok 0x004eacf4
xdr_SETATTR3resfail 0x004ead1c
xdr_SETATTR3res 0x004ead44
xdr_LOOKUP3args 0x004eadcc
xdr_LOOKUP3resok 0x004eadf4
xdr_LOOKUP3resfail 0x004eae6c
xdr_LOOKUP3res 0x004eae94
xdr_ACCESS3args 0x004eaf1c
xdr_ACCESS3resok 0x004eaf78
xdr_ACCESS3resfail 0x004eafd4
xdr_ACCESS3res 0x004eaffc
xdr_READLINK3args 0x004eb084
xdr_READLINK3resok 0x004eb0ac
xdr_READLINK3resfail 0x004eb108
xdr_READLINK3res 0x004eb130
xdr_READ3args 0x004eb1b8
xdr_READ3resok 0x004eb230
xdr_READ3resfail 0x004eb2cc
xdr_READ3res 0x004eb2f4
xdr_stable_how 0x004eb37c
xdr_WRITE3args 0x004eb3a4
xdr_WRITE3resok 0x004eb45c
xdr_WRITE3resfail 0x004eb4f0
xdr_WRITE3res 0x004eb518
xdr_createmode3 0x004eb5a0
xdr_createhow3 0x004eb5c8
xdr_CREATE3args 0x004eb674
xdr_CREATE3resok 0x004eb6d0
xdr_CREATE3resfail 0x004eb748
xdr_CREATE3res 0x004eb770
xdr_MKDIR3args 0x004eb7f8
xdr_MKDIR3resok 0x004eb854
xdr_MKDIR3resfail 0x004eb8cc
xdr_MKDIR3res 0x004eb8f4
xdr_symlinkdata3 0x004eb97c
xdr_SYMLINK3args 0x004eb9d8
xdr_SYMLINK3resok 0x004eba34
xdr_SYMLINK3resfail 0x004ebaac
xdr_SYMLINK3res 0x004ebad4
xdr_devicedata3 0x004ebb5c
xdr_mknoddata3 0x004ebbb8
xdr_MKNOD3args 0x004ebc64
xdr_MKNOD3resok 0x004ebcc0
xdr_MKNOD3resfail 0x004ebd38
xdr_MKNOD3res 0x004ebd60
xdr_REMOVE3args 0x004ebde8
xdr_REMOVE3resok 0x004ebe10
xdr_REMOVE3resfail 0x004ebe38
xdr_REMOVE3res 0x004ebe60
xdr_RMDIR3args 0x004ebee8
xdr_RMDIR3resok 0x004ebf10
xdr_RMDIR3resfail 0x004ebf38
xdr_RMDIR3res 0x004ebf60
xdr_RENAME3args 0x004ebfe8
xdr_RENAME3resok 0x004ec044
xdr_RENAME3resfail 0x004ec0a0
xdr_RENAME3res 0x004ec0fc
xdr_LINK3args 0x004ec184
xdr_LINK3resok 0x004ec1e0
xdr_LINK3resfail 0x004ec23c
xdr_LINK3res 0x004ec298
xdr_READDIR3args 0x004ec320
xdr_entry3 0x004ec3b4
xdr_dirlist3 0x004ec454
xdr_READDIR3resok 0x004ec4bc
xdr_READDIR3resfail 0x004ec534
xdr_READDIR3res 0x004ec55c
xdr_READDIRPLUS3args 0x004ec5e4
xdr_entryplus3 0x004ec694
xdr_dirlistplus3 0x004ec76c
xdr_READDIRPLUS3resok 0x004ec7d4
xdr_READDIRPLUS3resfail 0x004ec84c
xdr_READDIRPLUS3res 0x004ec874
xdr_FSSTAT3args 0x004ec8fc
xdr_FSSTAT3resok 0x004ec924
xdr_FSSTAT3resfail 0x004eca28
xdr_FSSTAT3res 0x004eca50
xdr_FSINFO3args 0x004ecad8
xdr_FSINFO3resok 0x004ecb00
xdr_FSINFO3resfail 0x004ecc58
xdr_FSINFO3res 0x004ecc80
xdr_PATHCONF3args 0x004ecd08
xdr_PATHCONF3resok 0x004ecd30
xdr_PATHCONF3resfail 0x004ece18
xdr_PATHCONF3res 0x004ece40
xdr_COMMIT3args 0x004ecec8
xdr_COMMIT3resok 0x004ecf40
xdr_COMMIT3resfail 0x004ecf9c
xdr_COMMIT3res 0x004ecfc4
xdr_nfsstat 0x004ed04c
xdr_filename 0x004ed074
xdr_nfspath 0x004ed0a0
xdr_fhandle 0x004ed0cc
xdr_fhstatus 0x004ed0f8
xdr_fhandle3 0x004ed16c
xdr_mountstat3 0x004ed1a8
xdr_mountres3_ok 0x004ed1d0
xdr_mountres3 0x004ed240
xdr_dirpath 0x004ed2b4
xdr_name 0x004ed2e0
xdr_mountlist 0x004ed30c
xdr_mountbody 0x004ed340
xdr_groups 0x004ed3b8
xdr_groupnode 0x004ed3ec
xdr_exports 0x004ed448
xdr_exportnode 0x004ed47c
rfsread 0x004ed4f4
rfs_read 0x004ed5f8
rfs_seek 0x004ed6b4
rfs_close 0x004ed718
rfs_write 0x004ed764
rfs_stat 0x004ed770
rfs_ls 0x004ed7e8
romfs_ntoh 0x004ed8c0
rfs_open 0x004ed8c4
edrErrLogValidate 0x004edbfc
edrErrLogNodeIsFree 0x004edc6c
edrErrLogAllocPP 0x004edc98
edrErrLogIterCreate 0x004ede00
edrErrLogIterNext 0x004edee4
edrErrLogNodeCount 0x004edf68
edrErrLogMaxNodeCount 0x004edfac
edrErrLogSize 0x004edff0
edrErrLogNodePosition 0x004ee034
edrErrLogHeaderProtect 0x004ee0a0
edrErrLogHeaderUnprotect 0x004ee1bc
edrErrLogNodeProtect 0x004ee2c0
edrErrLogNodeCommit 0x004ee408
edrErrLogNodeUnprotect 0x004ee4c4
edrErrLogNodeAlloc 0x004ee5f8
edrErrLogNodeListInit 0x004ee730
edrErrLogClear 0x004ee830
edrErrLogNodeListProtect 0x004ee898
edrErrLogAttach 0x004ee904
edrErrLogCreate 0x004eea00
fcntl_dup 0x004eebf8
ioPxCreateOrOpen 0x004eecec
iosShowInit 0x004eedd0
iosDrvShow 0x004eedd4
iosDevShow 0x004eef28
iosFdShow 0x004eefb4
iosRtpFdShow 0x004ef1ac
semTypeStrGet 0x004ef420
taskWaitSmObjGet 0x004ef4b4
taskWaitShowInternal 0x004ef664
taskWaitShowCoreRtn 0x004efa04
taskWaitShow 0x004efb38
findXtors 0x004efdc8
cplusLoadFixup 0x004efe84
cplusUnloadFixup 0x004eff2c
completionSymListGet 0x004effb8
listPrint 0x004f0238
completionPathShow 0x004f03d8
pathComplete 0x004f0584
completionPathComplete 0x004f06e4
pathSplit 0x004f0850
completionPathListGet 0x004f0900
symbolStrGet 0x004f0b10
symbolComplete 0x004f0b50
completionSymShow 0x004f0c4c
completionSymComplete 0x004f0de0
shellCmdInit 0x004f0f24
cCmd 0x004f10ec
setHistoryCmd 0x004f11f4
showHistoryCmd 0x004f1254
showLasterrorCmd 0x004f1280
aliasCmd 0x004f12dc
unaliasCmd 0x004f144c
setPromptCmd 0x004f14cc
setConfigCmd 0x004f1564
echoCmd 0x004f1688
unsetConfigCmd 0x004f1754
exprCmd 0x004f17c0
repeatCmd 0x004f1934
setEnvCmd 0x004f1cfc
setBootlineCmd 0x004f1e10
showBootlineCmd 0x004f1eb0
rebootCmd 0x004f1ed8
showDevicesCmd 0x004f1f2c
showDriversCmd 0x004f1f50
showFdsCmd 0x004f1f74
versionCmd 0x004f1f98
sleepCmd 0x004f1fbc
exitCmd 0x004f203c
logoutCmd 0x004f20a4
setDeployCmd 0x004f20d8
printErrnoCmd 0x004f21c4
funcCallCmd 0x004f2220
memDumpCmd 0x004f24e0
memModifyCmd 0x004f25c0
memInfoCmd 0x004f2670
stringFreeCmd 0x004f26e0
objectInfoCmd 0x004f2788
objectHandleCmd 0x004f288c
interpCmdPreParse 0x004f29f8
shellCompletionPathnameGet 0x004f50c8
authunix_nextverf 0x004f5304
authunix_marshal 0x004f5308
authunix_destroy 0x004f5358
marshal_new_auth 0x004f53dc
authunix_refresh 0x004f5480
authunix_validate 0x004f5584
authunix_create 0x004f5648
xdr_authunix_parms 0x004f5838
clnt_genericInclude 0x004f58ec
clnt_create 0x004f58f0
clnt_rawInclude 0x004f5a10
clnt_rawInit 0x004f5a14
clnt_rawExit 0x004f5ae8
clntraw_create 0x004f5b40
clntraw_call 0x004f5c1c
clntraw_geterr 0x004f5e28
clntraw_freeres 0x004f5e2c
clntraw_abort 0x004f5e78
clntraw_control 0x004f5e7c
clntraw_destroy 0x004f5e84
clnt_simpleInclude 0x004f5ed8
callrpc 0x004f5edc
clnttcp_create 0x004f606c
clnttcp_call 0x004f62e4
clnttcp_geterr 0x004f65c0
clnttcp_freeres 0x004f65e0
clnttcp_abort 0x004f661c
clnttcp_control 0x004f6620
clnttcp_destroy 0x004f66a4
clnt_readtcp 0x004f6718
clnt_writetcp 0x004f6850
clntudp_bufcreate 0x004f68fc
clntudp_create 0x004f6bb4
clntudp_call 0x004f6bf0
clntudp_geterr 0x004f6f94
clntudp_freeres 0x004f6fb4
clntudp_abort 0x004f7000
clntudp_control 0x004f7004
clntudp_destroy 0x004f70c0
pmap_getmapsInclude 0x004f7174
pmap_getmaps 0x004f7178
pmap_getport 0x004f7274
xdr_pmap 0x004f73b0
xdr_pmaplist 0x004f742c
portmapd 0x004f74e8
find_service 0x004f766c
xdr_encap_parms 0x004f76b4
xdr_rmtcall_args 0x004f76d0
xdr_rmtcall_result 0x004f774c
xdr_opaque_parms 0x004f77a4
xdr_len_opaque_parms 0x004f77c4
callit 0x004f7884
reg_service_internal 0x004f7a04
reg_service 0x004f7d24
xdr_opaque_auth 0x004f7ef4
xdr_des_block 0x004f7f50
xdr_deskey 0x004f7f58
xdr_accepted_reply 0x004f7fac
xdr_rejected_reply 0x004f8070
xdr_replymsg 0x004f8100
xdr_callhdr 0x004f8184
accepted 0x004f8230
rejected 0x004f82cc
_seterr_reply 0x004f8310
xprt_register 0x004f83d4
xprt_unregister 0x004f8418
svc_unregisterall 0x004f847c
svc_find 0x004f84c8
svc_unregister 0x004f8510
svc_register 0x004f8598
svc_sendreply 0x004f8658
svcerr_noproc 0x004f86cc
svcerr_decode 0x004f8734
svcerr_systemerr 0x004f879c
svcerr_auth 0x004f8804
svcerr_weakauth 0x004f8858
svcerr_noprog 0x004f8860
svcerr_progvers 0x004f88cc
svc_getreqset 0x004f893c
svc_getreq 0x004f8b94
svc_run 0x004f8bd4
_authenticate 0x004f8cb4
_svcauth_null 0x004f8d2c
_svcauth_unix 0x004f8d34
_svcauth_short 0x004f8ed4
svc_rawInclude 0x004f8f00
svc_rawInit 0x004f8f04
svc_rawExit 0x004f8fd8
svcraw_create 0x004f9030
svcraw_stat 0x004f909c
svcraw_recv 0x004f90a4
svcraw_reply 0x004f9110
svcraw_getargs 0x004f9198
svcraw_freeargs 0x004f91e0
svcraw_destroy 0x004f922c
svc_simpleInclude 0x004f9250
registerrpc 0x004f9254
universal 0x004f9394
svctcp_create 0x004f9640
makefd_xprt 0x004f97ec
svcfd_create 0x004f98f4
rendezvous_request 0x004f98f8
rendezvous_stat 0x004f9980
svctcp_destroy 0x004f9988
readtcp 0x004f9a0c
writetcp 0x004f9b28
svctcp_stat 0x004f9b90
svctcp_recv 0x004f9bd8
svctcp_getargs 0x004f9c30
svctcp_freeargs 0x004f9c68
svctcp_reply 0x004f9ca8
svcudp_bufcreate 0x004f9dbc
svcudp_create 0x004f9f9c
svcudp_stat 0x004f9fa8
svcudp_getargs 0x004f9fb0
svcudp_freeargs 0x004f9fe8
svcudp_destroy 0x004fa028
svcudp_enablecache 0x004fa15c
cache_commitset 0x004fa28c
svcudp_reply 0x004fa398
cache_partialset 0x004fa45c
cache_get 0x004fa5f8
svcudp_recv 0x004fa750
cache_fillparams 0x004fa868
xdr_free 0x004fa920
xdr_void 0x004fa958
xdr_u_longlong_t 0x004fa960
xdr_longlong_t 0x004fa9cc
xdr_long 0x004faa38
xdr_u_long 0x004faaa4
xdr_short 0x004fab10
xdr_u_int 0x004fabb8
xdr_int 0x004fabbc
xdr_u_short 0x004fabc0
xdr_char 0x004fac68
xdr_u_char 0x004facbc
xdr_bool 0x004fad10
xdr_enum 0x004fadc8
xdr_opaque 0x004fadcc
xdr_bytes 0x004faedc
xdr_netobj 0x004fafe4
xdr_union 0x004fb000
xdr_string 0x004fb0ac
xdr_wrapstring 0x004fb1d0
xdr_array 0x004fb234
xdr_vector 0x004fb3c4
xdr_floatInclude 0x004fb478
xdr_float 0x004fb47c
xdr_double 0x004fb4fc
xdrmem_create 0x004fb600
xdrmem_destroy 0x004fb620
xdrmem_getlonglong 0x004fb624
xdrmem_putlonglong 0x004fb66c
xdrmem_getlong 0x004fb6ac
xdrmem_putlong 0x004fb6e4
xdrmem_getbytes 0x004fb71c
xdrmem_putbytes 0x004fb788
xdrmem_putwords 0x004fb7f8
xdrmem_putlongs 0x004fb868
xdrmem_getpos 0x004fb8d8
xdrmem_setpos 0x004fb8e8
xdrmem_inline 0x004fb920
xdrrec_getpos 0x004fb950
xdrrec_setpos 0x004fb9e0
xdrrec_inline 0x004fba9c
xdrrec_destroy 0x004fbb14
flush_out 0x004fbb50
xdrrec_endofrecord 0x004fbbe4
xdrrec_putbytes 0x004fbc64
xdrrec_putlong 0x004fbcfc
fill_input_buf 0x004fbd94
get_input_bytes 0x004fbdf0
set_input_fragment 0x004fbe78
xdrrec_getbytes 0x004fbeec
xdrrec_getlong 0x004fbf98
skip_input_bytes 0x004fc02c
xdrrec_eof 0x004fc0b0
xdrrec_skiprecord 0x004fc13c
fix_buf_size 0x004fc1bc
xdrrec_create 0x004fc1d4
xdr_reference 0x004fc344
xdr_pointer 0x004fc414
authnone_create 0x004fc4b4
authnone_marshal 0x004fc578
authnone_verf 0x004fc5c8
authnone_validate 0x004fc5cc
authnone_refresh 0x004fc5d4
authnone_destroy 0x004fc5dc
clnt_sperrno 0x004fc5e0
clnt_perrno 0x004fc618
clnt_spcreateerror 0x004fc648
clnt_pcreateerror 0x004fc788
auth_errmsg 0x004fc7b8
clnt_sperror 0x004fc7ec
clnt_perror 0x004fc9dc
get_myaddress 0x004fcd68
pmap_set 0x004fcf18
pmap_unset 0x004fd020
pmapUnset 0x004fd100
xdr_callmsg 0x004fd190
findEndpoint 0x004fd560
linksyswusb54EndStop 0x004fd5dc
linksyswusb54ListenForInput 0x004fd750
linksyswusb54EndStart 0x004fd944
linksyswusb54Send 0x004fda7c
linksyswusb54MuxTxRestart 0x004fdc88
linksyswusb54TxCallback 0x004fdcb4
dump_buffer 0x004fdf80
dump_buffer_enhanced 0x004fe0d0
linksyswusb54Mchash 0x004fe220
linksyswusb54MCastFilterSet 0x004fe2a8
linksyswusb54FindDevice 0x004fe314
linksyswusb54OutIrpInUse 0x004fe3e0
linksyswusb54DestroyDevice 0x004fe458
linksyswusb54Shutdown 0x004fe54c
usbLinksysWusb54EndInit 0x004fe5e4
linksyswusb54EndParse 0x004fe808
wusb54_80211_hdrlen 0x004fea30
linksyswusb54Dot11EndRecv 0x004feaa4
linksyswusb54RxCallback 0x004ff1d4
linksyswusb54EndMemInit 0x004ff3e4
linksyswusb54EndConfig 0x004ff710
usbLinksysWusb54EndUnload 0x004ff748
notifyAttach 0x004ff878
linksyswusb54AttachCallback 0x004ff958
usbLinksysWusb54DynamicAttachRegister 0x004ffe50
usbLinksysWusb54DynamicAttachUnregister 0x004fff64
usbLinksysWusb54DevLock 0x00500080
usbLinksysWusb54DevUnlock 0x005000dc
usbLinksysWusb54ReadReg 0x00500200
usbLinksysWusb54WritePhy 0x0050022c
usbLinksysWusb54ReadSrom 0x00500258
usbLinksysWusb54EndUninit 0x00500284
linksyswusb54Show 0x005002e0
linksyswusb54BufferWrite 0x00500300
linksyswusb54MacRegRead 0x00500374
linksyswusb54MacRegWrite 0x00500458
linksyswusb54RegRead 0x0050053c
linksyswusb54RegWrite 0x0050060c
linksyswusb54EepromRead 0x005006dc
linksyswusb54FirmwareRun 0x00500748
linksyswusb54LedSet 0x005007b8
linksyswusb54FirmwareUpload 0x0050094c
linksyswusb54BBPRegRead 0x00500c24
linksyswusb54BBPRegWrite 0x00500db0
linksyswusb54AsicInit 0x00500eac
linksyswusb54EepromParamRead 0x00501100
linksyswusb54FromEepromInit 0x005013c4
RT73WriteTXRXCSR0 0x005016d8
AsicSetRxAnt 0x00501764
AsicAntennaSetting 0x005019f4
AsicAntennaSelect 0x00501bac
RTUSBWriteRFRegister 0x00501ea0
sysWusb54ChannelSet 0x00501fa0
linksyswusb54MacAddrSet 0x005022a0
usbLinksysWusb54Init 0x005023d8
linksyswusb54DevInit 0x0050270c
usbLinksysWusb54EndLoad 0x00502f00
sysLinksyswusb54BssidSet 0x00503398
rum_scan_start 0x00503468
rum_scan_end 0x00503508
rum_enable_tsf_sync 0x00503580
wusb54BringUp 0x00503620
wusb54TakeDown 0x00503678
wusb54PsPollSend 0x005036d0
wusb54StaBeaconSync 0x00503728
wusb54ChannelGet 0x00503780
wusb54EncryptionKeySet 0x005037d8
wusb54EncryptionKeyDel 0x00504408
wusb54EncryptionKeyMaxGet 0x00504460
wusb54RtsCtsThresholdSet 0x005044b8
wusb54ProbStateSet 0x00504510
wusb54RtsCtsThresholdGet 0x00504568
wusb54NextDtimGet 0x005045c0
wusb54MulticastAddressAdd 0x00504618
wusb54MulticastAddressDel 0x00504670
wusb54CountryCodeChange 0x005046c8
wusb54DtimPacketAdd 0x00504720
wusb54DtimPacketFlush 0x00504778
wusb54BeaconStop 0x005047d0
wusb54TsfGet 0x00504834
wusb54TsfSet 0x005048a8
wusb54TsfReset 0x00504904
wusb54TxParamsSet 0x00504990
wusb54ControlRateSet 0x005049e8
wusb54FrameLongRetrySet 0x00504a4c
wusb54FrameLongRetryGet 0x00504aa4
wusb54FrameShortRetrySet 0x00504afc
wusb54FrameShortRetryGet 0x00504b54
wusb54TxPowerScaleGet 0x00504bac
wusb54TxPowerScaleSet 0x00504c04
wusb54CountryCodeIeGet 0x00504c5c
wusb54Start 0x00504cb4
wusb54Stop 0x00504d48
wusb54PShow 0x00504ddc
rum_ack_rate 0x00504e50
rum_txtime 0x00504f50
wusb54RxMapInit 0x00505020
wusb54RxMapSet 0x00505104
wusb54macAddrGet 0x00505234
wusb54ChannelSet 0x00505338
wusb54ChannelListGet 0x005053e8
wusb54PmStateSet 0x005054dc
wusb54PmStateGet 0x00505550
wusb54BssidSet 0x005055a8
wusb54SuppRatesGet 0x0050565c
wusb54RxFilterSet 0x005057a0
wusb54MacAddrChange 0x005059d8
wusb54CardTypeGet 0x00505a7c
wusb54Free 0x00505ad4
dot11HddWusb54Initialize 0x00505bc8
dbgw54chanset 0x00505fcc
dbgw54scan 0x00506010
rum_plcp_signal 0x00506074
linksyswusb54TxDescSetup 0x00506198
wusb54RawSend 0x005066b8
wusb54BeaconStart 0x00506ab8
wlanXlatNonIsoCcode 0x00506bfc
wlanGetCountryCodeByName 0x00506c7c
wusb54CountryCodeNumGet 0x00506d1c
gsmEventCallback 0x0050904c
gsmEventListenerTask 0x00509090
startListenerTask 0x005091ac
usbCallbackInit 0x0050922c
usbDataServicesSendMsg 0x005092a4
usbDataServicesSendMsgInt 0x005093e4
usbDevEventRegister 0x0050947c
eventRegister 0x005095f4
usbDevEventUnregister 0x00509648
eventUnregister 0x0050971c
usbDevClearCallbacks 0x00509770
usbDevCallbackShow 0x00509840
usbDevCountMonitorCallback 0x00509940
usbGsmDeviceAttachReNotify 0x005099b8
read_modem 0x00509a1c
write_modem 0x00509b04
waitForAnswer 0x00509b60
read_modem_response 0x00509c54
validate_modem_command 0x00509d28
open_modem 0x00509df0
execute_modem_command 0x00509ee8
dtest 0x00509fb4
get_lineCoding 0x0050a0b8
send_break 0x0050a168
set_baudRate 0x0050a208
get_baudRate 0x0050a2e0
set_ctrlinestate 0x0050a3b8
verify_signal 0x0050a460
usbGsmParameterGet 0x0050a4b0
usbGsmChangePinState 0x0050a7a4
usbGsmChangePin 0x0050a860
usbGsmCheckStatusPin 0x0050a914
usbGsmValidateRoaming 0x0050a998
ddtest 0x0050aa40
usbGsmMTEnterCode 0x0050aa84
usbGsmMTAccess 0x0050ab48
usbGsmPPPUserSet 0x0050ac30
usbGsmPPPPasswordSet 0x0050ac8c
usbGsmAPNSet 0x0050ace8
usbGsmAPNGet 0x0050ad34
usbGsmOpenConnection 0x0050ad80
usbGsmCloseConnection 0x0050b1f0
getInterfaceCounters 0x0050b274
printInterfaceCounters 0x0050b384
printInterfaceCounters_wifi 0x0050b3f8
connectionUptimeEventCallback 0x0050b46c
connectionTerminatedEventCallback 0x0050b4a8
getConnectionUptime 0x0050b4cc
operatorChangedEventCallback 0x0050b520
usbGsmMonitorTask 0x0050b628
startMonitorTask 0x0050b8ac
stopMonitorTask 0x0050b92c
translateError 0x0050c008
translatePriority 0x0050c070
threadHead 0x0050c0bc
ossStatus 0x0050c0f0
ossShutdown 0x0050c124
ossThreadCreate 0x0050c12c
ossThreadDestroy 0x0050c1d8
ossThreadSleep 0x0050c214
ossSemCreate 0x0050c264
ossSemDestroy 0x0050c2c8
ossSemGive 0x0050c304
ossSemTake 0x0050c340
ossMutexCreate 0x0050c3c4
ossMutexDestroy 0x0050c424
ossMutexTake 0x0050c460
ossMutexRelease 0x0050c4e4
ossPartSizeGet 0x0050c520
ossPartSizeSet 0x0050c528
ossPartIdGet 0x0050c544
ossMemUsedGet 0x0050c54c
ossMalloc 0x0050c570
ossPartMalloc 0x0050c598
ossOldMalloc 0x0050c6e8
ossCalloc 0x0050c714
ossFree 0x0050c770
ossPartFree 0x0050c798
ossOldFree 0x0050c7e8
ossOldInstall 0x0050c7f8
ossTime 0x0050c81c
ossInitialize 0x0050c860
usbTransferTime 0x0050c9b4
usbRecurringTime 0x0050ca60
usbDescrParseSkip 0x0050cb10
usbDescrParse 0x0050cb90
usbConfigCountGet 0x0050cbc0
usbConfigDescrGet 0x0050cc64
usbHidReportSet 0x0050cd98
usbHidIdleSet 0x0050ce08
usbHidProtocolSet 0x0050ce50
usbListUnlink 0x0050ce90
usbListUnlinkProt 0x0050cec8
usbListFirst 0x0050cf14
usbListNext 0x0050cf38
usbListLink 0x0050cf5c
usbListLinkProt 0x0050d014
usbdInitialize 0x0050d0b8
usbdShutdown 0x0050d158
usbdClientRegister 0x0050d210
usbdClientUnregister 0x0050d368
usbdMngmtCallbackSet 0x0050d468
usbdBusStateSet 0x0050d4f0
usbdDynamicAttachRegister 0x0050d4f8
usbdDynamicAttachUnRegister 0x0050d600
usbtuInitFindDriverInfo 0x0050d6bc
usbtuInitHandleClientEvent 0x0050da4c
usbtuInitHandleDeviceEvent 0x0050dbf8
usbtuInitClientIrpCompleteThreadFn 0x0050e0e8
usbtuInitDeviceAdd 0x0050e138
usbtuInitDeviceRemove 0x0050e174
usbtuInitDeviceSuspend 0x0050e1a8
usbtuInitDeviceResume 0x0050e1dc
usbdPipeCreate 0x0050e37c
flushIrpQueueCallback 0x0050e470
abortIrpCallback 0x0050e48c
usbdTransferAbort 0x0050e4ac
usbdTransfer 0x0050e64c
usbdPipeDestroy 0x0050ec5c
usbdVendorSpecific 0x0050ee60
usbtuDataUrbCompleteCallback 0x0050f064
usbtuDataVendorSpecificCallback 0x0050f304
usbdFeatureClear 0x0050f420
usbdFeatureSet 0x0050f4b0
usbdFastCharge 0x0050f544
usbdConfigurationGet 0x0050f5d8
usbdDescriptorGet 0x0050f67c
usbdConfigurationSet 0x0050f758
usbdDescriptorSet 0x0050f8e8
usbdInterfaceGet 0x0050f988
usbdInterfaceSet 0x0050fa20
usbdStatusGet 0x0050fad0
usbdSynchFrameGet 0x0050fb88
usbdBusCountGet 0x0050fd54
usbdRootNodeIdGet 0x0050fd94
usbdHubPortCountGet 0x0050fde4
usbdNodeIdGet 0x0050fe30
usbdAddressGet 0x0050fee8
usbdAddressSet 0x0050ff04
usbdVersionGet 0x0050ff1c
usbdStatisticsGet 0x0050ff74
usbdCurrentFrameGet 0x0050ffa4
HubEnumerate 0x00510024
usbdNodeInfoGet 0x00510104
usb2FindInterface 0x005101e4
usb2FindEndpoint 0x005103e8
usb2GetFreeIndex 0x005107d8
usb2DriverIsEmpty 0x00510980
usb2ClassDeviceDelete 0x005109e0
usb2ClassDeviceCreate 0x00510b6c
usb2ClassDeviceIsValid 0x0051108c
usb2TakeDevice 0x005111c8
usb2ReleaseDevice 0x00511460
usb2TakeDriver 0x005114bc
usb2ReleaseDriver 0x0051151c
usb2ClassSpecificCallback 0x00511578
usb2VendorClassSpecific 0x0051160c
usb2ClassDeviceAddCallbackSet 0x0051199c
usb2ClassDeviceDelCallbackSet 0x005119c8
usb2ClassDriverDelete 0x005119f4
usb2ClassDriverCreate 0x00511a8c
usb2DeviceDeleteHelperTask 0x00511dbc
usb2DeviceDeleteMsgPost 0x005120d8
usb2DeviceDeleteHelperInit 0x00512368
usb2DeviceDeleteHelperDeInit 0x005125a4
usb2PgsGetRegisters 0x00513998
usb2PgsSetSingleRegister 0x00513adc
usb2PgsSetMultiRegisters 0x00513b9c
usb2PgsEEPROMWordRead 0x00513c70
usb2PgsPhyWrite 0x00513df0
usb2PgsDataPacking 0x00513f4c
usb2PgsDataUnPacking 0x00513fa8
usb2PgsHWConfig 0x00514058
usb2PgsMchash 0x00514868
usb2PgsMCastFilterSet 0x005148f0
usb2PgsSetFlag 0x005149c0
usb2PgsInit 0x00514b68
usb2PgsDeInit 0x00514bdc
usb2EndUrbCompleteCallback 0x00515550
usb2EndInterruptUrbSubmit 0x005155e0
usb2EndBulkUrbSubmit 0x005157d0
usb2EndInterruptInTransfer 0x00515a04
usb2EndStop 0x00515cf4
usb2EndUnload 0x00515dd8
usb2EndSend 0x00515e60
usb2EndMCastAdd 0x00516270
usb2EndMCastDel 0x00516418
usb2EndMCastGet 0x00516538
usb2EndIoctl 0x00516574
usb2EndRecv 0x00516c6c
usb2EndMemInit 0x00516ff0
usb2EndLoad 0x005173ec
usb2EndMuxConnect 0x005176f4
usb2EndIpAttach 0x00517844
usb2EndBind 0x00517a34
usb2EndUnbind 0x00517b68
usb2EndCommonTaskFeeder 0x00517d8c
usb2EndLinkStatusChecking 0x00518054
usb2EndStart 0x0051824c
usb2EndBulkInTransfer 0x00518338
usb2EndCommonTask 0x00518970
usb2EndCommonTaskInit 0x00518d1c
usb2EndDelete 0x00518f40
usb2EndDeleteCallback 0x00519134
usb2EndCreate 0x005193f8
usb2EndDeviceRemove 0x00519a18
usb2EndSuspendResume 0x00519c14
usb2EndInit 0x00519c50
usb2EndDeInit 0x00519f94
usb2EndDeviceListAdd 0x0051a0d8
usb2EndDeviceListRemove 0x0051a2fc
usb2EndAdaptorMatch 0x0051a4ec
usb2EndDeviceAdd 0x0051a664
usb2AsixGetRegisters 0x0051d7d8
usb2AsixSetRegisters 0x0051d8e0
usb2AsixPhyReadWord 0x0051d940
usb2AsixStatusCheck 0x0051dbf0
usb2Asix88772DataPacking 0x0051dcf4
usb2Asix88772DataUnPacking 0x0051dd68
usb2Asix8717xHWConfig 0x0051de1c
usb2AsixMchash 0x0051e560
usb2AsixMCastFilterSet 0x0051e5e8
usb2Asix88772HWConfig 0x0051e75c
usb2AsixSetFlag 0x0051f0b4
usb2AsixInit 0x0051f354
usb2AsixDeInit 0x0051f3c8
usb2Dm960xGetRegisters 0x0051fe68
usb2Dm960xSetSingleRegister 0x0051ff68
usb2Dm960xSetMultiRegisters 0x0051ffe4
usb2Dm960xPhyWrite 0x005200b8
usb2Dm960xReadEEPROMWord 0x005203ac
usb2Dm960xDataPacking 0x00520680
usb2Dm960xDataUnPacking 0x005206dc
usb2Dm960xMchash 0x00520770
usb2Dm960xMCastFilterSet 0x005207f8
usb2Dm960xHWConfig 0x00520920
usb2Dm960xSetFlag 0x00520dc8
usb2Dm960xInit 0x00520e14
usb2Dm960xDeInit 0x00520e88
usb2CdcEEMDeviceAdd 0x00521654
usb2CdcACMDeviceAdd 0x00521b08
usb2CdcDeviceAdd 0x00521fbc
cdcDeleteCallback 0x0052226c
usb2CdcDeviceRemove 0x00522358
usb2CdcDeviceSuspend 0x005224fc
usb2CdcDeviceResume 0x00522518
usb2CdcInit 0x00522534
cdcFindDescriptor 0x00522a48
usb2CdcEemJobProcess 0x00522ff4
usb2CdcEemPush2net 0x0052332c
inUrbCallback 0x00523a50
outUrbCallback 0x00523b74
eemDelete 0x00523cf0
eemRemove 0x00523ff0
eemSend 0x005240e0
eemRecv 0x0052459c
usb2CdcEemDeviceAdd 0x0052496c
eemEchoCommand 0x005250f4
eemIoctl 0x00525578
cdcEndMsg 0x005263ec
cdcEndBind 0x00526500
cdcEndUnbind 0x00526734
pRcvTask 0x00526950
cdcEndRecv 0x00526ac4
cdcEndStart 0x00526c6c
cdcEndStop 0x00526d34
cdcEndIoctl 0x00526e18
EemIoctlSendShutdown 0x0052736c
cdcEndSend 0x005273d8
cdcEndMCastAdd 0x005275a4
cdcEndMCastDel 0x00527700
cdcEndMCastGet 0x00527814
cdcEndCommonTask 0x00527894
cdcEndMemInit 0x00527a18
usb2CdcEndCreate 0x00527e40
usb2CdcEndDelete 0x00528198
cdcEndLoad 0x0052821c
cdcEndUnload 0x005284ac
acmDelete 0x00528f58
acmSetLineCoding 0x0052908c
acmSetOptions 0x005291ac
usb2CdcAcmDeviceAdd 0x00529390
acmTxStartup 0x0052a038
acmIoctl 0x0052a0c0
acmCallbackInstall 0x0052a1b4
urbRxCallback 0x0052a260
urbIntrCallback 0x0052a4a0
urbTxCallback 0x0052a68c
acmTx 0x0052a720
ttyDevDelete 0x0052a994
acmRemove 0x0052aa54
listenForInput 0x0052b12c
usb2Serial3GSendSetup 0x0052b28c
usb2SerialInit 0x0052b2ac
usb2SerialDriverListAdd 0x0052b45c
activateHuaweiModemInterface 0x0052b540
usb2SerialDeviceRemove 0x0052b604
usb2SerialDeviceSuspend 0x0052b740
usb2SerialDeviceResume 0x0052b75c
usb2SerialIosOpen 0x0052b778
usb2SerialIosClose 0x0052b89c
usb2SerialIosRead 0x0052b948
usb2SerialIosWrite 0x0052b9d8
usb2SerialIosIoctl 0x0052ba68
usb2SerialInUrbCompleteCallback 0x0052bad8
usb2SerialOutUrbCompleteCallback 0x0052bbcc
usb2SerialSubmitSetupUrb 0x0052bc50
usb2SerialVendorMatch 0x0052bc88
usb2SerialDelete 0x0052bd00
usb2SerialCreate 0x0052bec0
usb2SerialDeleteCallback 0x0052c23c
usb2SerialDeviceAdd 0x0052c270
usb2Serial3GInit 0x0052c720
usb2Serial3GOpen 0x0052c78c
usb2Serial3GRead 0x0052c828
usb2Serial3GWrite 0x0052c8ec
usb2Serial3GIoctl 0x0052ca40
usb2Serial3GClose 0x0052cbbc
usb2MscFixupAsciiString 0x0052ccc4
usb2MscUrbCompleteCallback 0x0052cd48
usb2MscBulkTransfer 0x0052cef8
usb2MscBulkOutTransfer 0x0052d184
usb2MscBulkInTransfer 0x0052d1e0
usb2MscInterruptInTransfer 0x0052d23c
usb2MscIsEndpointHalted 0x0052d458
usb2MscResetEndpoint 0x0052d4e4
usb2MscResetDevice 0x0052d5ac
usb2MscGetTotalLun 0x0052d610
usb2MscTransport 0x0052d658
usb2MscLunDeviceDelete 0x0052d9f0
usb2MscLunDeviceCreate 0x0052db4c
usb2MscDeviceMount 0x0052de08
usb2MscDeviceUnmount 0x0052e028
usb2MscDeviceDelete 0x0052e218
usb2MscDeviceCreate 0x0052e394
usb2MscCheckOptimalInterface 0x0052e748
usb2MscFindOptimalInterface 0x0052e8f8
activateHuaweiModemInterface 0x0052eae4
usb2MscDeviceAdd 0x0052eb8c
usb2MscDeviceRemove 0x0052f5b0
usb2MscDeviceSuspend 0x0052f764
usb2MscDeviceResume 0x0052f7dc
usb2MscDrvInit 0x0052f854
usb2MscDrvUnInit 0x0052fb24
usb2MscBulkOnlyMassStorageReset 0x00530d28
usb2MscBulkOnlyGetMaxLun 0x00530ed4
usb2MscBulkOnlyResetEndpoints 0x00530ff0
usb2MscBulkOnlyResetRecovery 0x00531058
usb2MscBulkOnlyTransport 0x005310b8
usb2MscCBICommandTransfer 0x00531e10
usb2MscCBIStatusTransfer 0x00531ea4
usb2MscCBICommandBlockReset 0x00531f6c
usb2MscCBIResetRecovery 0x005320bc
usb2MscCBITransport 0x00532174
usb2MscBlkDevRead 0x00532e98
usb2MscBlkDevWrite 0x00532f5c
usb2MscBlkDevGeometryCheck 0x005330dc
usb2MscBlkDevIoctl 0x00533198
usb2MscBlkDevReset 0x005333bc
usb2MscBlkDevStatusCheck 0x00533444
usb2MscBlkDevDelete 0x00533720
usb2MscBlkDevCreate 0x00533768
usb2MscBlkDevMount 0x00533a6c
usb2MscBlkDevUnmount 0x00533c3c
usb2MscScsiHandleSenseData 0x005343d4
usb2MscScsiRequestSense 0x00534bb0
usb2MscCommandSetTransport 0x00534d80
usb2MscScsiInquiry 0x00534de8
usb2MscScsiStartStopUnit 0x00535380
usb2MscScsiTestUnitReady 0x0053557c
usb2MscScsiCheckReady 0x00535778
usb2MscStatusCheck 0x00535d0c
usb2MscScsiReadFormatCapacities 0x00535e68
usb2MscScsiReadCapacity10 0x005360d0
usb2MscScsiFormatUnit 0x005363fc
usb2MscScsiModeSense10 0x00536668
usb2MscScsiModeSense6 0x00536908
usb2MscScsiModeSense 0x00536b98
usb2MscWriteProtectionCheck 0x00536c80
usb2MscScsiRead10Internal 0x00536ce8
usb2MscScsiWrite10Internal 0x00536fe8
usb2MscScsiRead10 0x005372e8
usb2MscScsiWrite10 0x005373b0
usb2MscXbdRead 0x00538208
usb2MscXbdWrite 0x005382c0
usb2MscXbdDelete 0x00538434
usb2MscXbdCreate 0x00538514
usb2MscXbdCreateSyncHandler 0x005389d0
usb2MscXbdRunBio 0x00538ba0
usb2MscXbdGetNextBio 0x00538df4
usb2MscXbdHotPlug 0x00538e7c
usb2MscXbdIdleCheck 0x00539150
usb2MscXbdService 0x005391c0
usb2MscXbdGeometryCheck 0x00539354
usb2MscXbdMediaTest 0x00539408
usb2MscXbdEject 0x0053947c
usb2MscXbdTest 0x005397dc
usb2MsxXbdIoctl 0x005398f4
usb2MscXbdStrategy 0x0053a090
usb2MscXbdDump 0x0053a330
usb2MscXbdMount 0x0053a3d0
usb2MscXbdUnmount 0x0053aa6c
usb2MscDirectAccessOpen 0x0053b940
usb2MscDirectAccessClose 0x0053bd5c
usb2MscDirectAccessRead 0x0053be88
usb2MscDirectAccessWrite 0x0053c094
usb2MscDirectAccessScsiPassThrough 0x0053c220
usb2MscGetSerial 0x0053c4b4
usb2MscDirectAccessIoctl 0x0053c870
usb2MscDirectAccessDeviceAdd 0x0053cb94
usb2MscDirectAccessDeviceRemove 0x0053cdc4
usb2MscDirectAccessInit 0x0053cfbc
usb2MscDirectAccessUnInit 0x0053d07c
usb2MscComplianceLogLangId 0x0053d96c
usb2MscComplianceLogCBW 0x0053da08
usb2MscComplianceLogCSW 0x0053dbe4
usb2MscComplianceLogInfo 0x0053dc38
usb2MscComplianceLogWarning 0x0053dcfc
usb2MscComplianceLogError 0x0053ddd8
usb2MscComplianceLogCurrentStatistics 0x0053deb4
usb2MscComplianceLogFinalStatistics 0x0053df44
usb2MscComplianceLogHstStatus 0x0053df88
usb2MscComplianceTransportCommon 0x0053e200
usb2MscComplianceRequestSense 0x0053e5cc
usb2MscComplianceTransport 0x0053e7cc
usb2MscCompliancePreliminaryProcedure 0x0053e860
usb2MscComplianceRecoveryProcedure 0x0053ed8c
usb2MscComplianceInterfaceDescriptorTest 0x0053eeb8
usb2MscComplianceVerifySerialNumber 0x0053f6b0
usb2MscComplianceSerialNumberTest 0x0053f87c
usb2MscComplianceClassSpecificRequestTest 0x0053fefc
usb2MscComplianceErrorRecoveryTest 0x005407e4
usb2MscComplianceCase1Test 0x005415c0
usb2MscComplianceCase2Test 0x0054190c
usb2MscComplianceCase3Test 0x00541d78
usb2MscComplianceCase4Test 0x005421e4
usb2MscComplianceCase5Test 0x00542654
usb2MscComplianceCase6Test 0x00542b20
usb2MscComplianceCase7Test 0x00542fdc
usb2MscComplianceCase8Test 0x005434bc
usb2MscComplianceCase9Test 0x00543a14
usb2MscComplianceCase10Test 0x00543eec
usb2MscComplianceCase11Test 0x00544444
usb2MscComplianceCase12Test 0x00544898
usb2MscComplianceCase13Test 0x00544cb8
usb2MscCompliancePowerUpTest 0x00545178
usb2MscCompliancebCBLengthTest 0x00545238
usb2MscComplianceInquiryTest 0x00545454
usb2MscComplianceRequestSenseTest 0x00545634
usb2MscComplianceTestUnitReadyTest 0x0054580c
usb2MscComplianceRead10Test 0x005459b0
usb2MscComplianceRead12Test 0x00545bd4
usb2MscComplianceReadCapacityTest 0x00545dc8
usb2MscComplianceWrite10Test 0x00545f6c
usb2MscComplianceWrite12Test 0x00546190
usb2MscComplianceModeSelect6Test 0x00546384
usb2MscComplianceModeSelect10Test 0x00546528
usb2MscComplianceModeSense6Test 0x005466cc
usb2MscComplianceModeSense10Test 0x00546880
usb2MscCompliancePreventAllowMediumRemovalTest 0x00546a44
usb2MscComplianceStartStopUnitTest 0x00546be8
usb2MscComplianceReadTOCTest 0x00546d8c
usb2MscComplianceVerify10Test 0x00546f74
usb2MscComplianceSaveTestSectors 0x00547198
usb2MscComplianceTestTask 0x00547280
usb2MscComplianceTestDeviceAdd 0x00547740
usb2MscComplianceTestDeviceRemove 0x00547ba8
usbEhcdHostBusInitialize 0x0054c820
usbEhcdDestroyInterruptTree 0x0054cd40
usbEhcdCreateInterruptTree 0x0054cde0
usbEhcdHostBusUninitialize 0x0054d4fc
usbEhcdDataUninitialize 0x0054d57c
usbEhcdDataInitialize 0x0054d750
usbEhcdInstantiate 0x0054e518
usbEhcdInit 0x0054e51c
usbEhcdDisableHC 0x0054e704
usbHcdEhciDeviceInit 0x0054e7d8
usbHcdEhciDeviceConnect 0x0054e89c
usbHcdEhciDeviceRemove 0x0054ede0
vxbUsbEhciRegister 0x0054ef88
vxbUsbHcdEhciDevDeregister 0x0054efd8
usbEhcdExit 0x0054f04c
usbVxbHcdEhciDeviceProbe 0x0054f0ec
usbVxbNullFunction 0x0054f190
usbHcdEhciPlbInit 0x0054f194
usbEhcdPipeReturnAll 0x0054f4e4
usbEhcdDeletePipe 0x0054f55c
usbEhcdCreatePipe 0x0054fe00
usbEhcdModifyDefaultPipe 0x00551020
usbEhcdIsBandwidthAvailable 0x0055155c
usbEhcdSubmitURB 0x00551724
usbEhcdCancelURB 0x00552be4
usbEhcdIsRequestPending 0x005535fc
usbEhcdGetFrameNumber 0x00553678
usbEhcdSetBitRate 0x0055371c
usbEhcdClearTTRequestComplete 0x00553750
usbEhcdResetTTRequestComplete 0x00553a40
usbEhcdAlign 0x00553b54
usbEhcdAddToFreeQHList 0x00553b84
usbEhcdAddToFreeQTDList 0x00553c00
usbEhcdAddToFreeITDList 0x00553c7c
usbEhcdAddToFreeSITDList 0x00553cf8
usbEhcdGetFreeQTD 0x00553d74
usbEhcdGetFreeQH 0x00553e28
usbEhcdGetFreeITD 0x00553edc
usbEhcdGetFreeSITD 0x00553f90
usbEhcdFreeAllLists 0x00554044
usbEhcdFormEmptyQH 0x00554148
usbEhcdFormEmptyQTD 0x005542f8
usbEhcdFillQTDBuffer 0x00554520
usbEhcdCreateQTDs 0x005548d8
usbEhcdUpdateNonIsochStatusAndBytes 0x00554c4c
usbEhcdUpdateITDData 0x00554f04
usbEhcdUpdateSITDData 0x005550bc
usbEhcdCalculateBusTime 0x005551f4
usbEhcdCheckBandwidth 0x005552b0
usbEhcdCopyRHInterruptData 0x00555998
usbEhcdUpdateBandwidth 0x00555bc0
usbEhcdFormEmptyITD 0x00555cc0
usbEhcdFillITD 0x005560e4
usbEhcdGenerateITDs 0x00556714
usbEhcdLinkITDs 0x005568c4
usbEhcdLinkSITDs 0x00556e14
usbEhcdUnLinkSITD 0x00557320
usbEhcdUnLinkITD 0x00557b30
usbEhcdFormEmptySITD 0x00558340
usbEhcdFillSITD 0x005588dc
usbEhcdGenerateSITDs 0x00558d78
usbEhcdAsynchScheduleEnable 0x00558f5c
usbEhcdAsynchScheduleDisable 0x0055908c
usbEhcdSubBandwidth 0x0055918c
usbEhcdSubDeviceBandwidth 0x0055952c
usbEhcdAddBandwidth 0x005597c8
usbHubUrbTimeoutSet 0x005599e4
usbHubFindPortNumber 0x00559a40
usbHubFindParentHub 0x00559a98
usbHubFindParentHubInBuses 0x00559b58
usbHubCreateBusStructure 0x00559bb8
usbHubDeleteBusStructure 0x00559cfc
usbHubRemoveDevice 0x00559d94
usbHubResetPort 0x00559ed0
usbHubHandleDeviceConnection 0x0055a0bc
usbHubRetryDeviceConfiguration 0x0055a1a8
usbHubSubmitControlRequest 0x0055a29c
usbHubPowerOnPort 0x0055a414
usbHubGetStatus 0x0055a4bc
usbHubGetPortStatus 0x0055a674
usbHubPortDebounceHandler 0x0055a850
usbHubGetDescriptor 0x0055aa50
usbHubSubmitInterruptRequest 0x0055ab9c
usbHubResetCallback 0x0055ac68
usbHubBlockingCallback 0x0055ad60
usbHubInterruptRequestCallback 0x0055ad8c
usbHubFindNearestParent 0x0055af7c
usbHubValidateDescriptor 0x0055b098
usbHubConfigure 0x0055b25c
usbHubClearTTRequestCallback 0x0055bc38
usbHubResetTTRequestCallback 0x0055bcac
SearchDumpHub 0x0055bd20
alexDumpHub 0x0055be2c
SearchDumpHubDevice 0x0055bfc8
DumpAllHubs 0x0055c0d0
PortFromDevice 0x0055c11c
Node2Port 0x0055c17c
usbGetLowestHub 0x0055c1f0
disconnectPort 0x0055c294
usbHubPortConnectChangeHandler 0x0055c304
usbHubPortEnableChangeHandler 0x0055c5a8
usbHubPortSuspendChangeHandler 0x0055c6c4
usbHubPortResetChangeHandler 0x0055c7b0
usbHubPortOverCurrentChangeHandler 0x0055ca38
usbHubPortEventHandler 0x0055cb20
usbHubEventHandler 0x0055ce04
usbHubStatusChangeHandler 0x0055cf78
usbHubThread 0x0055d19c
userHubRemoveDummy 0x0055d228
SetUsbHub_Eventfunc 0x0055d24c
usbHubAdd 0x0055d268
usbHubRemove 0x0055d32c
usbHubSuspend 0x0055d4a8
usbHubResume 0x0055d59c
usbHubSelectiveSuspendDevice 0x0055d6b0
usbHubSelectiveResumeDevice 0x0055d774
usbHubAddRoot 0x0055d870
usbHubRemoveRoot 0x0055d928
usbHubCheckPower 0x0055da9c
usbHubResetDevice 0x0055db58
usbHubClearTT 0x0055dbec
usbHubResetTT 0x0055dd34
usbHubPortCntGet 0x0055de64
usbHubNodeIDGet 0x0055df44
usbHubGetRootHubHandle 0x0055e098
usbHubInit 0x0055e110
usbHubExit 0x0055e274
usbdLinkDeviceInfo 0x0055f0dc
usbdUlinkDeviceInfo 0x0055f138
usbdGenerateDeviceHandle 0x0055f1ec
usbdTranslateDeviceHandle 0x0055f1fc
usbdGetFreeAddress 0x0055f268
usbdReserveAddress 0x0055f348
usbdReleaseAddress 0x0055f400
usbdIsValidEndpoint 0x0055f4bc
usbdParseConfiguration 0x0055f63c
usbdGetInterfaceOffset 0x0055facc
usbdCreatePipeForInterface 0x0055fb4c
usbdResetPipe 0x0055fc78
usbHstDeviceRemove 0x0055ff04
usbHstDeviceSuspend 0x00560174
usbHstDeviceResume 0x00560240
usbHstSelectiveSuspend 0x00560310
usbHstSelectiveResume 0x005603a4
usbHstResetDevice 0x00560438
usbdReverseHold16 0x005604cc
usbdComputeCRCForByte 0x00560504
usbdComputeCRC 0x0056058c
usbHstCompletionCallback 0x005605ec
usbHstSetInterface 0x0056062c
usbHstSetBitRate 0x00560b00
usbHstURBSubmit 0x00560ba0
usbHstURBCancel 0x00560d38
usbHstGetFrameNumber 0x00560eb0
usbdSubmitRequest 0x00560f48
usbHstSetSynchFrame 0x005611ec
usbHstSetDescriptor 0x005612a8
usbHstSetFeature 0x005613fc
usbdSetAddress 0x00561508
usbHstFastCharge 0x005615c0
usbHstGetInterface 0x00561668
usbHstGetConfiguration 0x0056173c
usbHstClearFeature 0x00561808
usbHstGetStatus 0x00561920
usbHstGetDescriptor 0x00561a20
usbHstSetConfiguration 0x00561c68
usbHstDeviceNew 0x005623c4
usbHstDeviceConfigure 0x005629a4
usbHstClearTTRequest 0x00562cb4
usbHstResetTTRequest 0x00562dcc
usbHstClearTTComplete 0x00562edc
usbHstResetTTComplete 0x00562fa0
usbdBusCntGet 0x00563064
usbdRootNodeIDGet 0x005630a8
usbdFrameWindowGet 0x005630dc
usbdInit 0x005630fc
usbdExit 0x00563270
usbdCheckSupportedDevicesList 0x0056337c
usbdMatchDriver 0x005633e0
usbdFindDriver 0x00563538
usbHstDriverRegister 0x005636b0
usbHstDriverDeregister 0x005639f0
usbHstHCDRegister 0x00563b60
usbHstHCDDeregister 0x00563d9c
usbHstBusRegister 0x00563e50
usbHstBusDeregister 0x005640ac
usbVxbRootHubAdd 0x005641b4
usbVxbRootHubRemove 0x00564208
usbVxbDeviceAdd 0x00564250
usbVxbDeviceRemove 0x00564354
usbVxbDriverDeviceMatch 0x00564434
usbVxbDeviceDriverInstInit 0x0056443c
usbVxbNullFunction 0x0056444c
usbEhcdISR 0x00564b24
usbEhcdPortChangeHandler 0x00564cb4
usbEhcdProcessTransferCompletion 0x00564dd4
usbEhcdCleanupAsynchPipes 0x00565e84
usbEhcdCleanupPeriodicPipes 0x005661c8
usbEhcdHostSystemErrorHandler 0x00566518
usbEhcdInterruptHandler 0x005665b4
usbEhcdRhCreatePipe 0x005669a4
usbEhcdRHDeletePipe 0x00566b18
usbEhcdRhProcessInterruptRequest 0x00566c04
usbEhcdRhProcessStandardRequest 0x00566d80
usbEhcdRhClearPortFeature 0x00567098
usbEhcdRhGetHubDescriptor 0x005677cc
usbEhcdRhGetPortStatus 0x00567944
usbEhcdRhSetPortFeature 0x00567de4
usbEhcdRhProcessClassSpecificRequest 0x00568754
usbEhcdRhProcessControlRequest 0x00568908
usbEhcdRHSubmitURB 0x00568974
usbEhcdRHCancelURB 0x00568a24
ifLibInit 0x00568bf4
ifIoctlCall 0x00568bf8
ifIoctlSet 0x00568c78
ifIoctlGet 0x00568d0c
ifIoctl 0x00568da8
ifAddrParamGet 0x00568f6c
ifAddrGet 0x00568fe4
ifAddrAdd 0x00568ff4
ifAddrDelete 0x005690fc
ifBroadcastSet 0x0056910c
ifBroadcastGet 0x0056911c
ifDstAddrGet 0x0056912c
ifDstAddrSet 0x0056913c
ifMaskGet 0x0056914c
ifAddrSet 0x0056918c
ifMaskSet 0x00569230
ifFlagSet 0x005692d4
ifFlagGet 0x005692e4
ifFlagChange 0x005692f4
ifMetricSet 0x005693f0
ifMetricGet 0x00569400
ifIndexToIfName 0x00569410
ifNameToIfIndex 0x00569444
ipcom_proxy_sys_var 0x00569468
ifProxyArpDisable 0x00569504
ifProxyArpEnable 0x00569574
ifRouteDelete 0x005695e4
ifAllRoutesDelete 0x00569714
ifRouteDeleteCallback 0x0056985c
ifAllRoutesDeleteCallback 0x005698d4
in_netof 0x00569a20
oldRouteLibInit 0x00569a84
routeRtmSendReply 0x00569a88
routeCmdExecute 0x00569cc0
mRouteEntryDelete 0x00569d90
mRouteDelete 0x00569de8
routeDelete 0x00569e38
routeExistsOnIf 0x00569f30
routeExistsInTable 0x0056a064
mRouteEntryAdd 0x0056a108
mRouteAdd 0x0056a2d0
routeNetAdd 0x0056a340
routeAdd 0x0056a5fc
netDaemonsStart 0x0056a668
netTaskIdSet 0x0056a7c8
netTask 0x0056a7ec
netLibInitialize 0x0056a814
netJobAdd 0x0056a904
netErrnoSet 0x0056a928
netDaemonQ 0x0056a92c
netDaemonQnum 0x0056a95c
netDaemonsCount 0x0056a9c0
jobQueuePriorityMask 0x0056aa30
jobQueueInit 0x0056aa94
jobQueueCreate 0x0056ab3c
jobQueueTask 0x0056abb0
jobQueueStdPoolInit 0x0056abc8
jobQueueStdJobsAlloc 0x0056abf4
_linkMemReq 0x0056acc4
_linkMblkFree 0x0056ad10
_linkClFree 0x0056add0
_linkClBlkGet 0x0056add4
_linkClusterGet 0x0056addc
_linkMclGet 0x0056ade4
_linkClPoolIdGet 0x0056adec
linkMblkCarve 0x0056adf4
linkMblkFill 0x0056afa4
_linkPoolInit 0x0056b04c
_linkPoolEmptyCheck 0x0056b2a0
_linkPoolRelease 0x0056b310
_linkMBlkFreeRel 0x0056b368
_linkClBlkFreeRel 0x0056b398
_linkClFreeRel 0x0056b3c8
_linkMBlkClFreeRel 0x0056b3cc
_linkTupleFreeRel 0x0056b410
_linkTupleListFreeRel 0x0056b45c
netBufLibInit 0x0056b4b0
netPoolInitWrapper2 0x0056b4b8
netPoolInitWrapper 0x0056b584
netPoolInit 0x0056b694
netPoolKheapInit 0x0056b6a0
netMblkFree 0x0056b6ac
netClBlkFree 0x0056b724
netClFree 0x0056b7a0
netMblkGet 0x0056b804
netClBlkGet 0x0056b89c
netClusterGet 0x0056b92c
netMblkClGet 0x0056b9bc
netTupleFree 0x0056ba64
netClBlkJoin 0x0056bb10
netMblkClJoin 0x0056bb70
netClPoolIdGet 0x0056bbc8
netMblkToBufCopy 0x0056bc48
netMblkDup 0x0056bcc8
netMblkChainDup 0x0056bdb8
netMblkOffsetToBufCopy 0x0056c000
netMblkFromBufCopy 0x0056c114
_netMemReqDefault 0x0056c308
netPoolReleaseStart 0x0056c36c
netPoolReleaseStartStub 0x0056c4e8
netPoolReleaseEndStub 0x0056c514
netPoolIdGetWork 0x0056c540
netPoolIdGet 0x0056c5b4
netPoolNameGet 0x0056c628
_netPoolDelete 0x0056c678
netPoolDelete 0x0056c744
_netPoolDestroy 0x0056c7ac
netPoolCreate 0x0056c8e8
netPoolCreateValidate 0x0056cd54
netPoolRelease 0x0056cd88
netPoolDestroy 0x0056cf54
netPoolReleaseTask 0x0056d01c
netPoolReleaseEnd 0x0056d05c
netTupleGetReleaseStub 0x0056d0c8
netTupleListGetReleaseStub 0x0056d0f4
netTupleMigrateReleaseStub 0x0056d120
_netPoolMemReq 0x0056d158
_mBlkCarve 0x0056d1ac
_clBlkCarve 0x0056d200
_clPoolCarve 0x0056d24c
_memPoolInit 0x0056d28c
_poolInit 0x0056d308
_mBlkFree 0x0056d7ec
_clBlkGet 0x0056d894
_mClGet 0x0056d92c
_clPoolIdGet 0x0056dbc4
_netBufPoolEmptyCheck 0x0056dca4
_netPoolRelease 0x0056dd54
_mBlkFreeRel 0x0056ddac
_clBlkFreeRel 0x0056dddc
_clFreeRel 0x0056de0c
_mBlkClFreeRel 0x0056de48
_netTupleFreeRel 0x0056de8c
_netTupleListFreeRel 0x0056dedc
clPoolShow 0x0056df40
netPoolShow 0x0056e098
netStackDataPoolShow 0x0056e1d0
netStackSysPoolShow 0x0056e1d8
mbufShow 0x0056e1e0
m_prepend 0x0056e3e8
muxCommonInit 0x0056e4e0
muxEndFind 0x0056e58c
muxEndRemove 0x0056e648
muxDevAcquire 0x0056e744
muxDevRelease 0x0056e7e8
muxDevLoad 0x0056e938
muxDevUnloadWakeup 0x0056ecd4
muxMibStatusUpdate 0x0056ece0
muxEndListGet 0x0056edd0
muxProtoInfoGet 0x0056ee84
muxProtoListGetHelper 0x0056ef24
muxTxRestart 0x0056efc0
muxErrorSkip 0x0056f064
muxEndFlagsNotify 0x0056f13c
muxError 0x0056f1bc
muxErrorPostInt 0x0056f1c4
muxLinkUpNotify 0x0056f1f8
muxLinkDownNotify 0x0056f24c
muxOutputFilterPushHelper 0x0056f28c
muxOutputFilterRemoveHelper 0x0056f2d8
muxIoctl 0x0056f348
muxMCastAddrAdd 0x0056f610
muxMCastAddrDel 0x0056f680
muxMCastAddrGet 0x0056f6f0
muxDevStopAll 0x0056f760
muxDevStopAllImmediate 0x0056f7e8
muxEndProtoRegisterHelper 0x0056f7f0
muxEndProtoFreeHelper 0x0056fa64
muxEndJobQDoJob 0x0056fb64
muxEndRxJobQueue 0x0056fba8
muxEndJobQDo 0x0056fc54
muxProtoListGet 0x0056fd34
muxShowEnd 0x0056fd78
muxShow 0x0056fe78
muxOutputFilterPush 0x0056ff74
muxOutputFilterRemove 0x0057001c
muxEndProtoFree 0x005700ac
muxUnbind 0x00570124
muxDevUnloadHelper 0x005701a8
muxEndProtoRegister 0x00570298
muxErrorPost 0x00570300
muxDevStart 0x00570358
muxDevStop 0x00570404
muxDevUnloadAsync 0x0057048c
muxDevUnload 0x005705ec
muxEndQnumGet 0x005706b4
endFindByName 0x00570734
muxTkCookieGet 0x0057077c
muxIfTypeGet 0x005707b4
muxBindCommon 0x005707cc
muxLibInit 0x00570e98
muxOutputFilter 0x00570eb4
muxBind 0x00570f8c
muxSend 0x00570ff4
muxPollSend 0x0057102c
muxPollReceive 0x00571084
muxLinkHeaderCreate 0x005710e8
muxAddressForm 0x00571298
muxPacketDataGet 0x00571418
muxPacketAddrGet 0x00571498
endFirstUnitFind 0x00571530
muxDevExists 0x0057156c
muxTkDrvCheck 0x00571594
muxTkLibInit 0x0057163c
muxTkOutputFilter 0x00571658
muxTkBind 0x005716d4
muxTkSend 0x0057172c
muxTkPollSend 0x00571764
muxTkPollReceive 0x005717ac
muxTkOverEndInit 0x00571854
muxTkTypedOverEndReceive 0x005718b0
muxTkOverEndOutputFilter 0x00571938
muxTkSnarfOverEndReceive 0x00571a18
_muxTkSendOverEnd 0x00571a58
muxTkSendOverEnd 0x00571bc0
muxTkPollSendOverEnd 0x00571bd4
muxTkPollReceiveOverEnd 0x00571be8
mux2LibInit 0x00571cac
mux2OutputFilter 0x00571cc0
mux2Bind 0x00571d14
mux2Send 0x00571d7c
mux2PollSend 0x00571db0
mux2PollReceive 0x00571de4
mux2OverEndInit 0x00571e18
mux2OverEndOutputFilter 0x00571e68
mux2OverEndReceive 0x00571ef8
mux2SendOverEnd 0x0057208c
mux2PollSendOverEnd 0x00572104
mux2PollReceiveOverEnd 0x0057210c
vxmux_mux_mblk_init 0x0057219c
muxMblkToIpcomPktTx 0x005721a0
muxIpcomPktToMblkTx 0x00572314
muxIpcomFreeOtherPkt 0x005724c4
muxIpcomPktFreeMblk 0x005724f8
muxMblkFreeIpcomPktOutDone 0x00572500
_nullMemReq 0x00572530
_nullPoolInit 0x0057257c
_nullMblkFree 0x00572630
_nullClFree 0x00572634
_nullClBlkGet 0x00572638
_nullClusterGet 0x00572640
_nullMclGet 0x00572648
_nullClPoolIdGet 0x00572650
vxmux_init_null_pool 0x00572658
vxmux_null_buf_init 0x005726fc
vxmux_calculate_transport_checksum 0x00572718
__vxmux_assert 0x00572984
wdbFuncCallLibInit 0x005729cc
callRetEvtDeq 0x00572a08
callRetEvtGet 0x00572a44
wdbCallPost 0x00572a74
funcCallWrapperFlt 0x00572abc
funcCallWrapperInt 0x00572bb8
wdbFuncCall 0x00572c58
wdbConnectLibInit 0x00572e94
wdbTargetIsConnected 0x00572f98
wdbTargetPing 0x00572fa0
wdbTargetModeSet 0x00572fa8
wdbTargetModeGet 0x00572fe0
wdbCnctModePost 0x00573000
wdbCnctModeEvtGet 0x00573014
wdbConnectHookAdd 0x00573030
wdbTargetConnectHook 0x0057307c
wdbTargetDisconnectionDo 0x005730dc
wdbTargetDisconnect 0x00573110
wdbTargetConnect2 0x00573118
wdbCtxExitLibInit 0x005731a0
wdbCtxExitEventGet 0x005731e8
wdbCtxExitNotifyHook 0x00573230
ctxExitEvtptAdd 0x00573300
ctxExitEvtptDelete 0x00573404
wdbCtxLibInit 0x00573590
wdbCtxCreate 0x0057364c
wdbCtxKill 0x005736d8
wdbCtxSuspend 0x0057377c
wdbCtxResume 0x00573858
wdbCtxStatusGet 0x00573934
wdbCtxStartLibInit 0x005739d8
wdbCtxStartEventGet 0x00573a3c
wdbCtxStartNotifyHook 0x00573a88
wdbCtxStartEvtptAdd 0x00573ba4
wdbCtxStartEvtptDelete 0x00573c54
wdbDirectCallLibInit 0x00573d58
wdbDirectCall 0x00573d78
wdbEventLibInit 0x00573ee8
wdbEventNodeInit 0x00573f20
wdbEventPost 0x00573f38
wdbEventDeq 0x00574028
wdbEventGet 0x00574104
_wdbEventListIsEmpty 0x005741dc
wdbEvtptLibInit 0x005741f4
wdbEvtptClassConnect 0x00574280
wdbEvtptAdd 0x005742a0
wdbEvtptDeleteAll 0x00574304
wdbEvtptDelete 0x00574368
wdbExcLibInit 0x005743d0
wdbExcHook 0x00574470
wdbExcEventGet 0x005746d4
wdbExcEventDeq 0x00574868
gopherHookAdd 0x00574910
wdbGopherLibInit 0x00574918
wdbTransferGopher 0x005749cc
gopherByteReorder 0x00574b30
gopherNewTapeAllocate 0x00574bc4
gopherWriteChar 0x00574c88
gopherCtxSwitchBack 0x00574ce0
gopherCtxSwitchTo 0x00574d58
gopherWriteScalar 0x00574db4
gopherWriteString 0x00574e80
gopher 0x00574fa8
wdbEvaluateGopher 0x00575a40
wdbInstallRtIf 0x00575cf4
wdbInstallCommIf 0x00575cfc
wdbCommMtuGet 0x00575d0c
wdbInfoGet 0x00575d14
wdbModeSet 0x00575d3c
wdbRunsExternal 0x00575de4
wdbIsNowExternal 0x00575df8
wdbRunsTasking 0x00575e04
wdbCmdLoop 0x00575e18
wdbNotifyHost 0x00575e7c
wdbSystemSuspend 0x00575edc
wdbModeSetHookAdd 0x00575f54
wdbMemCoreLibInit 0x00575f88
wdbCksum 0x00576040
wdbMemWrite 0x005760e8
wdbMemFill 0x00576218
wdbMemChecksum 0x0057634c
wdbMemTxtUpdate 0x005763f8
wdbMemRead 0x00576530
wdbMemLibInit 0x00576614
wdbMemMove 0x0057666c
wdbMemScan 0x00576728
wdbRegsLibInit 0x0057681c
wdbRegGet 0x00576874
wdbRegSet 0x00576938
wdbRpcXportInit 0x00576a38
wdbRpcRcv 0x00576a9c
wdbRpcReply 0x00576b38
wdbRpcReplyErr 0x00576be4
wdbRpcResendReply 0x00576c58
wdbRpcNotifyConnect 0x00576cc8
wdbRpcNotifyHost 0x00576cec
wdbRpcGetArgs 0x00576d8c
wdbSvcLibInit 0x00576de0
wdbSvcHookAdd 0x00576dfc
wdbSvcGetSvc 0x00576e08
wdbSvcAdd 0x00576e68
wdbSvcDispatch 0x00576f08
wdbTgtInfoLibInit 0x005770d8
wdbTgtInfoGet 0x005770f8
wdbUserEvtLibInit 0x00577194
wdbUserEvtPost 0x00577198
wdbUsrSysEvtPost 0x005772e8
wdbUserEvtGet 0x00577310
wdbUserEvtMemFree 0x0057734c
wdbXdrCreate 0x005773c4
wdbXdrSetpos 0x005773d8
wdbXdrGetpos 0x00577410
wdbXdrPutVal 0x00577420
wdbXdrGetVal 0x005774b4
wdbXdrPutbytes 0x00577540
wdbXdrInline 0x00577584
xdr_WDB_CONNECT_PARAMS 0x005775b4
xdr_WDB_CONNECT_INFO 0x00577610
xdr_WDB_CTX 0x005776c0
xdr_WDB_CTX_CREATE_DESC 0x0057774c
xdr_WDB_CTX_KILL_DESC 0x00577ba4
xdr_WDB_CTX_STEP_DESC 0x00577c00
xdr_WDB_DIRECT_CALL_RET 0x00577c78
xdr_WDB_EVT_INFO 0x00577cd4
xdr_DOUBLE 0x00577d58
xdr_WDB_CALL_RETURN_INFO 0x00577dbc
xdr_WDB_EVT_DATA 0x00577ebc
xdr_WDB_ACTION 0x00577f94
xdr_WDB_EVTPT_ADD_DESC 0x00578028
xdr_WDB_EVTPT_DEL_DESC 0x005780ec
xdr_WDB_MEM_REGION 0x00578148
xdr_WDB_MEM_XFER 0x005781dc
xdr_WDB_MEM_SCAN_DESC 0x00578274
xdr_WDB_REG_READ_DESC 0x005782d0
xdr_WDB_REG_WRITE_DESC 0x00578348
xdr_WDB_RT_INFO 0x005783c0
xdr_WDB_AGENT_INFO 0x00578664
xdr_WDB_TGT_INFO 0x005786f8
xdr_WDB_TGT_INFO_2 0x00578754
xdr_WDB_PARAM_WRAPPER 0x005787d0
xdr_WDB_REPLY_WRAPPER 0x005788c4
xdr_UINT32 0x005789a8
xdr_WDB_OPQ_DATA_T 0x005789f8
xdr_WDB_STRING_T 0x00578b30
xdr_TGT_LONG_T 0x00578b90
xdr_TGT_ADDR_T 0x00578be0
xdr_ARRAY 0x00578c30
xdr_WDB_CORE 0x00578d28
xdr_WDB_STRING_ARRAY 0x00578db0
xdr_VOID 0x00578ed4
xdr_BOOL 0x00578edc
xdr_ENUM 0x00578f7c
wdbBpSyncLibInit 0x00578f80
wdbBpSyncEvtGet 0x00578ff4
wdbBpSyncEvtDeq 0x005790e8
wdbBpSyncEvtPost 0x00579130
wdbBpDeleteSyncEvtPost 0x005791e4
wdbBpAddSyncEvtPost 0x005791ec
wdbBpSyncStart 0x005791f4
wdbBufPoolInit 0x00579290
wdbBufAlloc 0x005792f8
wdbBufFree 0x00579360
wdbMbufInit 0x005793f4
wdbMbufFree 0x00579458
wdbMbufAlloc 0x005794e0
wdbMdlSymSyncLibInit 0x0057955c
wdbModInfoGet 0x0057967c
wdbSymListAdd 0x005796d0
wdbSymInfoGet 0x00579724
wdbModuleAdd 0x00579780
wdbModuleRemove 0x005797d4
wdbMdlSymSyncEvtGet 0x00579818
wdbMdlSymSyncEvtDeq 0x00579834
wdbMdlSymSyncEvtPost 0x00579870
wdbModuleLoadEvtPost 0x005798e0
wdbSymAddEvtPost 0x005798ec
wdbModuleUnloadEvtPost 0x005798f8
wdbRtLibInit 0x00579904
wdbRtMemTest 0x00579a24
wdbRtMemCacheTextUpdate 0x00579bd8
wdbRtMemProtect 0x00579c38
wdbRtMemCtxSwitch 0x00579d44
wdbRtMemAccess 0x00579da8
wdbRtMemWrite 0x00579f90
wdbRtMemFill 0x00579fa8
wdbRtMemRead 0x0057a08c
wdbRtMemMove 0x0057a0a4
wdbRtMemScan 0x0057a158
wdbRtMemCksum 0x0057a23c
wdbRtResourceLock 0x0057a358
wdbRtResourceUnlock 0x0057a458
wdbTaskCreate 0x0057a4e8
wdbTaskDelete 0x0057a664
wdbTaskRtIfInit 0x0057a6b4
wdbTask 0x0057a780
wdbTaskInit 0x0057a784
wdbTaskRestart 0x0057a834
wdbTaskModeInit 0x0057a94c
wdbTaskIdVerify 0x0057a9d4
__wdbTaskDeleteHook 0x0057aa58
wdbTaskDeleteHookAdd 0x0057ab94
__wdbTaskCreateHook 0x0057ac10
wdbTaskCreateHookAdd 0x0057acc8
wdbTaskHookInit 0x0057ace4
wdbTaskRegsSet 0x0057ad2c
wdbTaskRegsGet 0x0057ae08
wdbTaskRegLibInit 0x0057aefc
wdbUdpSockIfInit 0x0057af3c
wdbUdpSockModeSet 0x0057b084
wdbUdpSockRcvfrom 0x0057b09c
wdbUdpSockCancel 0x0057b1d0
wdbUdpSockSendto 0x0057b214
wdbVioLibInit 0x0057b280
wdbVioChannelUnregister 0x0057b2dc
wdbVioChannelRegister 0x0057b344
wdbVioWrite 0x0057b3f8
mdlSymSyncModuleRemove 0x0057b4c4
mdlSymSyncFirstSymGet 0x0057b4cc
mdlSymSyncNextSymGet 0x0057b514
mdlSymSyncSymbolFind 0x0057b568
mdlSymSyncSymDescClear 0x0057b660
mdlSymSyncSymListAdd 0x0057b6d8
mdlSymSyncModDescClear 0x0057b940
mdlSymSyncModInfoGet 0x0057b9d4
mdlSymSyncModAdd 0x0057bd48
mdlSymSyncStop 0x0057c06c
mdlSymSyncLibInit 0x0057c0b4
mdlSymSyncSymCheck 0x0057c100
mdlSymSyncSymListGet 0x0057c150
wdbVioDrv 0x0057c408
vioOpen 0x0057c4ac
vioClose 0x0057c598
vioIoctl 0x0057c614
vioStartup 0x0057c634
vioWriteEventGet 0x0057c63c
vioWriteEventDeq 0x0057c728
vioInput 0x0057c74c
wdbTsfsDrv 0x0057c7d4
tsfsErrnoMap 0x0057c870
tsfsRwHandle 0x0057ca48
tsfsWrite 0x0057cc14
tsfsRead 0x0057cc1c
tsfsClose 0x0057cc24
tsfsDelete 0x0057cd08
tsfsOpen 0x0057ce34
tsfsIoctl 0x0057d06c
tsfsCreate 0x0057d618
tsfsEventGet 0x0057d624
tsfsEventDeq 0x0057d6cc
wdbCtxEvtLibInit 0x0057d6d0
wdbCtxEvtGet 0x0057d6f4
wdbCtxEvtDeq 0x0057d7f8
wdbCtxSysEvtPost 0x0057d840
wdbCtxEvtAdd 0x0057d868
wdbCtxEvtRemove 0x0057d91c
wdbCtxCreateNotify 0x0057d948
wdbCtxDeleteNotify 0x0057d9c0
xdr_REFERENCE 0x0057dae4
xdr_WDB_SYM_INFO 0x0057db54
xdr_WDB_SYM_LIST 0x0057dc8c
xdr_WDB_SECT_INFO 0x0057dd6c
xdr_WDB_SEG_INFO 0x0057dea4
xdr_WDB_MOD_INFO 0x0057df38
xdr_WDB_SYM_MOD_DESC 0x0057e180
xdr_WDB_SYM_ID_LIST 0x0057e1f8
xdr_WDB_SYM_ID 0x0057e27c
xdrCksum 0x0057e2d8
xdr_CHECKSUM 0x0057e368
cpuPwrFrameWorkInit 0x0057e52c
cpuPwrTaskSwapRtn 0x0057e590
idleEnter 0x0057e5cc
cpuPwrIntEnter 0x0057e660
cpuPwrIntExit 0x0057e6f0
cpuPwrTaskCreateRtn 0x0057e72c
cpuPwrEventHandlersSet 0x0057e74c
cpuPwrWdUpRtn 0x0057e8d8
cpuPwrWdDownRtn 0x0057e980
cpuPwrThermIntHandler 0x0057ea28
cpuPwrCStateSet 0x0057ea88
cpuPwrPStateGet 0x0057eb18
cpuPwrCheckHotRtn 0x0057eb5c
cpuPwrTaskPStateGet 0x0057eba0
cpuPwrPStateSet 0x0057ebe8
cpuPwrTaskPStateSet 0x0057eca4
cpuPwrTempThreshSet 0x0057ed48
cpuPwrTempThreshGet 0x0057ed8c
cpuPwrUtilPeriodSet 0x0057edd0
cpuPwrCStateHookSet 0x0057ee70
cpuPwrThermIntConnect 0x0057ee7c
cpuPwrMgrEnable 0x0057eec8
cpuPwrLightMgrInit 0x0057eee8
cpuPwrMgrIsEnabled 0x0057ef30
idleHandler 0x0057ef38
eventLibInit 0x0057ef58
eventInit 0x0057efac
eventTerminate 0x0057efc0
eventReceive 0x0057f084
eventSend 0x0057f3e8
eventPendQRemove 0x0057f594
eventRsrcSend 0x0057f5f8
eventClear 0x0057f72c
eventStart 0x0057f778
isrLibInit 0x0057f884
isrInit 0x0057f954
isrCreate 0x0057fa4c
isrDestroy 0x0057fbd4
isrTerminate 0x0057fcf4
isrDelete 0x0057fcfc
isrInvoke 0x0057fd04
isrIdSelf 0x0057fd54
isrInfoGet 0x0057fd5c
isrHandlerSet 0x0057fe14
isrCpuTimeSet 0x0057fe8c
isrCpuTimeGet 0x0057fef0
isrDispatcher 0x0057ff50
isrConnect 0x00580030
intDisconnectRtn 0x005800b0
isrDisconnect 0x005800f0
kernelInit 0x005801b0
kernelVersion 0x00580478
kernelTimeSlice 0x00580484
kernelRoundRobinHook 0x005804f8
kernelRoundRobinInstall 0x005805cc
kernelCpuEnable 0x005805fc
kernelIsCpuIdle 0x00580604
kernelIsSystemIdle 0x0058060c
msgQCreateLibInit 0x005806bc
msgQCreate 0x005806d0
_msgQDestroy 0x0058081c
msgQLocalIdVerify 0x005808e0
msgQDestroy 0x00580a38
msgQDelete 0x00580a90
msgQTerminate 0x00580adc
msgQLibInit 0x00580b28
msgQNumMsgs 0x00580bc0
msgQNodeGet 0x00580c2c
msgQNodeInsert 0x00580dac
msgQSenderCheck 0x00580e04
msgQReceive 0x00580f3c
msgQInit 0x005811e8
msgQInitialize 0x00581394
msgQFreeQNodeObtain 0x005813dc
msgQTaskDeleteHook 0x0058144c
msgQEventSend 0x005814f4
msgQSendComplete 0x00581590
msgQSend 0x005816e0
msgQEvStart 0x00581b2c
msgQEvIsFree 0x00581c18
msgQEvStop 0x00581c28
msgQInfoEach 0x00581cf0
msgQInfoGet 0x00581d48
msgQShowInit 0x00581e8c
msgQShow 0x00581ec4
reschedule 0x00582648
semBInit 0x005828f8
semBInitialize 0x005829d4
semBGive 0x00582a18
semBGiveNoLock 0x00582b78
semBTake 0x00582c7c
semBTakeNoLock 0x00582dbc
semBGiveDefer 0x00582e68
semBGiveScalable 0x00582f24
semBTakeScalable 0x00583144
semCInit 0x00583314
semCInitialize 0x005833d8
semCGive 0x0058341c
semCTake 0x00583598
semCGiveDefer 0x005836d8
semDeleteLibInit 0x0058378c
_semDestroy 0x005837a0
semLocalIdVerify 0x0058388c
semDestroy 0x0058399c
semTerminate 0x005839fc
semDelete 0x00583a50
semEvStart 0x00583aa4
semEvCIsFree 0x00583b9c
semEvBMIsFree 0x00583bac
semEvStop 0x00583bbc
semInfo 0x00583c7c
semInfoGet 0x00583d78
semLibInit 0x00583f5c
semTake 0x00583fe0
semGiveDefer 0x005840b4
semGive 0x00584134
semFlushDefer 0x00584214
semFlush 0x00584294
semInvalid 0x0058433c
semIntRestrict 0x00584380
semQInit 0x005843c4
semQFlush 0x005844a0
semQFlushDefer 0x0058455c
semMInit 0x00584608
semMInitialize 0x005846b8
semMGiveKernWork 0x005846fc
semMGive 0x00584888
semMGiveNoLock 0x00584bac
semMTakeByProxy 0x00584e54
semMGiveForce 0x00584f38
semMPendQPut 0x005852bc
semMTake 0x005853c0
semMTakeNoLock 0x005855a0
semMGiveScalable 0x00585724
semMTakeScalable 0x005859a0
semOpenInit 0x00585bb0
vSemCreate 0x00585bc0
semOpen 0x00585c54
semClose 0x00585cbc
semUnlink 0x00585cc4
semRWInitialize 0x00585ccc
semRWPendQIndex 0x00585e20
semRWGive 0x00585e48
semRWGiveForce 0x00586370
semRTake 0x00586974
semWTake 0x00586cc8
semShowInit 0x00586fb4
semShow 0x00586fc4
semBCreate 0x00587830
semCCreate 0x005878f4
semExchange 0x005879b4
semMCreate 0x00587c18
semRWCreate 0x00587ccc
taskOptionsSet 0x00587dac
taskOptionsGet 0x00587e6c
taskBpHookSet 0x00587eb4
taskRegsGet 0x00587ebc
taskRegsSet 0x00587f34
taskName 0x00587f84
taskIdDefault 0x00587fc8
taskIsReady 0x00587fdc
taskIsSuspended 0x0058801c
taskIsStopped 0x0058805c
taskIsPended 0x0058809c
taskIsDelayed 0x005880dc
taskPriNormalGet 0x00588160
taskCreateLibInit 0x005881bc
taskInit 0x005881dc
taskCreateWithGuard 0x005883b0
taskCreate 0x005886cc
taskCreat 0x00588768
taskSpawn 0x005887bc
taskDestroyComplete 0x00588828
taskDestroy 0x00588c8c
exit 0x005890e8
taskDelete 0x00589150
taskDeleteForce 0x00589160
taskTerminate 0x00589170
taskLibInit 0x005891d8
taskSuspend 0x005892b4
taskResume 0x0058952c
taskActivate 0x00589634
_taskStop 0x00589638
taskStop 0x00589758
taskStopForce 0x00589760
taskCont 0x00589768
taskPrioritySet 0x00589874
taskCpuUnlockNoResched 0x005899c4
taskSafe 0x00589a40
taskUnsafe 0x00589aa8
taskDelay 0x00589b6c
taskUndelay 0x00589c74
taskIdSelf 0x00589d2c
taskIdVerify 0x00589d34
taskTcb 0x00589d3c
taskStackSizeGet 0x00589d8c
taskPriorityGet 0x00589e00
taskStackAllot 0x00589e6c
taskInitialize 0x00589f08
taskInitExcStk 0x0058a368
taskCpuAffinitySet 0x0058a3f8
taskCpuAffinityGet 0x0058a514
taskCpuLock 0x0058a5cc
taskLock 0x0058a5cc
taskCpuUnlockInternal 0x0058a61c
taskCpuUnlock 0x0058a698
taskUnlock 0x0058a698
taskIdListGet 0x0058a708
taskNameToId 0x0058a75c
taskEach 0x0058a7a8
taskListCount 0x0058a864
taskRestart 0x0058a8d8
taskReset 0x0058ab50
taskShowInit 0x0058aea4
taskInfoGet 0x0058aedc
taskRegsGetNoUpdate 0x0058b198
taskIdListSort 0x0058b1f8
regsShowOutput 0x0058b288
regsShow 0x0058b394
taskRegsShow 0x0058b3a0
taskStatusString 0x0058b420
taskSummary 0x0058b604
taskDisplay 0x0058b7d4
taskOptionsString 0x0058b8e0
taskShow 0x0058bac4
tickAnnounce 0x0058c19c
tickSet 0x0058c210
tickGet 0x0058c248
tick64Set 0x0058c250
tick64Get 0x0058c290
tickAnnounceHookAdd 0x0058c2d4
wdCreateLibInit 0x0058c2f4
wdCreate 0x0058c308
wdDestroy 0x0058c3a0
wdTerminate 0x0058c4fc
wdDelete 0x0058c504
wdLibInit 0x0058c50c
wdInit 0x0058c55c
wdInitialize 0x0058c590
wdStart 0x0058c5d8
wdCancel 0x0058c6e4
wdTick 0x0058c7f8
wdShowInit 0x0058c7fc
wdShow 0x0058c834
windSuspend 0x0058ca20
windResume 0x0058caac
windStop 0x0058cb3c
windCont 0x0058cbc8
windPrioritySet 0x0058cc58
windPriNormalSet 0x0058ce18
windDelay 0x0058ce40
windUndelay 0x0058cee8
windWdCancel 0x0058cfc0
windPendQGet 0x0058d048
windReadyQPut 0x0058d114
windPendQFlush 0x0058d1a8
windPendQRemove 0x0058d2b4
windTickAnnounce 0x0058d350
windDelete 0x0058d5dc
windPendQTerminate 0x0058d720
windSemDelete 0x0058d824
windTickAnnounceN 0x0058d984
windTickWaitGet 0x0058da50
windCalibrateTickQ 0x0058daa0
windPendQPut 0x0058daf0
windReadyQRemove 0x0058dc88
windWdStart 0x0058dd88
windNullReturn 0x0058de98
windSemRWDelete 0x0058dea0
workQInit 0x0058dff0
workQDoWork 0x0058e060
workQPanic 0x0058e118
workQAdd2 0x0058e228
workQAdd1 0x0058e2c0
workQAdd0 0x0058e350
isrShowInit 0x0058e42c
isrSymNameGet 0x0058e470
isrShow 0x0058e534
isrInternalShow 0x0058e644
msgQOpenInit 0x0058eafc
vMsgQCreate 0x0058eb0c
msgQOpen 0x0058eb90
msgQClose 0x0058ebf8
msgQUnlink 0x0058ec00
taskOpenInit 0x0058ec08
vTaskOpen 0x0058ec18
taskOpen 0x0058ef74
taskClose 0x0058f074
taskUnlink 0x0058f07c
eventTaskShow 0x0058f084
eventRsrcShow 0x0058f160
wvTmrMuxEnable 0x0058f478
wvTmrMuxDisable 0x0058f4c4
traceTmrMuxEnable 0x0058f50c
traceTmrMuxDisable 0x0058f558
timestampMuxRollover 0x0058f5a0
wvTmrMuxConnect 0x0058f5f0
traceTmrMuxConnect 0x0058f628
wvTmrRegister 0x0058f670
traceTmrRegister 0x0058f6b4
ticksToTime 0x0058f6fc
traceTimestampGet 0x0058f80c
traceTmrResolutionGet 0x0058f8a4
eventPointStubLibInit 0x0058f910
eventPointSwStubConnect 0x0058f918
eventPointSwHandle 0x0058f924
wvLibInit 0x0058f95c
wvLibInit2 0x0058f960
wvEvtLogStop 0x0058f964
wvEvtClassSet 0x0058f9a8
wvEvtClassGet 0x0058fa98
wvEvtClassClear 0x0058faa0
wvEvtClassClearAll 0x0058faac
wvObjInstModeSet 0x0058fab4
wvObjInstEachRtn 0x0058fb58
wvObjInst 0x0058fbc4
wvAllObjsSet 0x0058fccc
wvSigInst 0x0058fd1c
wvSalInst 0x0058fd70
wvEventInst 0x0058fdc4
wvEdrInst 0x0058fe18
wvMemScopeInst 0x0058fe6c
wvEvent 0x0058fec0
uploadPathWrite 0x0058ff28
wvUploadStop 0x00590004
wvUploadTaskConfig 0x00590088
rolloverHandler 0x00590094
wvLogConfigUpload 0x005900b4
wvObjNameBuffAdd 0x00590120
wvTaskNamesPreserve 0x005902f4
wvUploadStart 0x005903b4
wvIsrInfoBufAdd 0x0059057c
wvIsrInfoPreserve 0x0059063c
wvRtpInfoBufAdd 0x005906ac
wvRtpInfoPreserve 0x00590774
wvLogHeaderPopulate 0x0059083c
wvHashTblIterNextEvent 0x00590b98
wvHashTableUpload 0x00590be0
wvLogHeaderUpload 0x00590c90
wvUpload 0x00590cf8
wvPartitionGet 0x00590ef4
wvPartitionSet 0x00590efc
wvCurrentLogGet 0x00590f04
wvObjNameCurrentBuffAdd 0x00590f0c
wvEvtLogStart 0x00590f68
wvCurrentLogSet 0x00590ffc
wvCurrentLogListSet 0x00591004
wvCurrentLogListGet 0x0059100c
wvLogFirstGet 0x00591014
wvLogNextGet 0x00591030
wvLogCountGet 0x00591048
wvLogListChksum 0x00591060
wvLogListValidate 0x00591098
wvLogListMakeValid 0x00591110
wvLogListCreate 0x0059115c
wvLogDelete 0x00591238
wvLogListDelete 0x0059132c
wvLogCreate 0x0059144c
evtLogLibInit 0x00591960
evtObjLogFuncBind 0x00591984
evtLogFuncBind 0x00591988
evtBufferBind 0x005919c8
evtLogSyscall 0x00591a10
evtLogPoint 0x00591ae0
evtsched 0x00591c04
evtLogT1_noTS 0x00591d80
evtEdrErrorInject 0x00591dfc
evtLogPayload 0x00591f58
evtLogPayloadString 0x0059207c
wvTsfsUploadPathLibInit 0x005921f4
wvTsfsUploadPathCreate 0x00592238
wvTsfsUploadPathClose 0x0059231c
wvTsfsUploadPathWrite 0x00592358
wvFileUploadPathLibInit 0x0059240c
wvFileUploadPathCreate 0x00592450
wvFileUploadPathClose 0x0059251c
wvFileUploadPathWrite 0x00592558
nodeActivate 0x00592600
nodeDeactivate 0x00592640
nodeInsert 0x00592680
listFirstGet 0x00592750
listNextGet 0x00592780
dataCollectorLibInit 0x005927b0
dataCollectorFirstGet 0x00592880
dataCollectorNextGet 0x00592904
dataCollectorRegister 0x0059295c
dataCollectorCreate 0x00592a00
dataCollectorUnregister 0x00592a74
dataCollectorDelete 0x00592b40
dataCollectorStateSet 0x00592b64
dataCollectorEach 0x00592b70
svDataCollectorLibInit 0x00592be8
svDataCollectorIntEnt 0x00592c4c
svDataCollectorTypeST 0x00592c9c
svDataCollectorType0 0x00592cf0
svDataCollectorType2 0x00592d38
svDataCollectorType1 0x00592d80
svDataCollectorType6 0x00592e28
svDataCollectorType3 0x00592ec8
svDataCollectorType4 0x00592f24
svDataCollectorType5 0x00592f7c
svDataCollectorTypeUser 0x00592fc4
svDataCollectorTypeEdr 0x00593024
svDataCollectorTypeStrN 0x0059307c
svDataCollectorTypeSalStr 0x005930e0
svDataCollectorTypeObj 0x00593140
eventIdCompare 0x00593188
svEnabled 0x005931a0
svDataCollectorsAdd 0x005931b8
svDataCollectorsRemoveAll 0x005932f0
svDataCollectorsRemove 0x0059339c
objInstFilter 0x00593448
eventPointLibInit 0x005934a8
eventPointSwExec 0x005934d4
wvHashTblCreate 0x005935c4
wvHash 0x005936c8
wvHashTblInsert 0x005936e0
wvHashTblIterInit 0x005937c8
wvHashTblIterDone 0x0059382c
wvHashTblIterNext 0x0059383c
wvHashTblDestroy 0x005938b0
dot11EndStop 0x005939c0
dot11DebugLevelGet 0x00593ac0
dot11DebugLevelSet 0x00593ad4
dot11Parse 0x00593b20
dot11MemInit 0x00593ebc
dot11MemFree 0x005941a0
dot11EndUnload 0x00594254
dot11EndLoad 0x005943a8
dot11Show 0x00594ab0
dot11BcopySwap 0x00595278
dot11StatsTimerInit 0x005952a8
dot11EndStart 0x0059532c
dot11StatsTimer 0x005954e4
dot11StatsTimer16 0x0059559c
dot11PoolShow 0x00595684
dot11Ioctl 0x005956ec
dot11RsnInit 0x00596838
dot11RsnFree 0x00596b10
dot11RsnSecIeNegotiate 0x00596b3c
dot11RsnSecIeProcess 0x00596f8c
dot11RsnGroupPolicyRecalc 0x005976f0
dot11RsnBitCount 0x00597a4c
dot11RsnIeCreate 0x00597a70
dot11RsnGroup2Process 0x00597d8c
dot11RsnPrf 0x00597e88
dot11RsnPwKeyGenerate 0x00597ff8
dot11RsnPbkdf2 0x0059827c
dot11RsnPskSet 0x005984b4
dot11RsnPmkSet 0x00598524
dot11RsnPassphraseSet 0x00598764
dot11RsnKeyDataEncrypt 0x00598850
dot11RsnKeyMicCalc 0x00598b2c
dot11RsnDeauth 0x00598cec
dot11RsnFourwayTimeout 0x00598e08
dot11TkipCountermeasures 0x00598ecc
dot11RsnEapolPktSend 0x00599078
dot11RsnMicFailureProcess 0x00599b34
dot11Rsn4WayBProcess 0x00599f5c
dot11Rsn4WayCProcess 0x0059a300
dot11RsnGroup1Process 0x0059aa20
dot11RsnGroupTimeout 0x0059ae60
dot11RsnFourwayMsgTimeout 0x0059b05c
dot11RsnGtkRecalc 0x0059b474
dot11RsnMicReenable 0x0059b924
dot11Rsn4WayDProcess 0x0059b9b8
dot11RsnFourwayStart 0x0059be1c
dot11RsnEapolReqProcess 0x0059c024
dot11RsnGroupRekey 0x0059c12c
dot11Rsn4WayAProcess 0x0059c130
dot11RsnEapolPktReceive 0x0059c364
dot11SmeEssUpdateRssiProbationAve 0x0059e610
dot11SmeEssResetRssiProbationAve 0x0059e648
dot11SmeEssGetRssiProbationAve 0x0059e67c
dot11SmeEssShow 0x0059e6c8
dot11SmeEssRxMapInit 0x0059ea18
dot11SmeEssReset 0x0059eaec
dot11SmeEssIoctl 0x0059eb4c
dot11SmeEssAuthReceive 0x0059f27c
dot11SmeEssDeauthReceive 0x0059f6a8
dot11SmeEssStateInit 0x0059f778
dot11SmeEssStateFree 0x0059f9b8
dot11SmeEssFree 0x0059fa58
dot11SmeEssStateTask 0x0059fc8c
dot11SmeEssAuthSuccessProcess 0x005a02c0
dot11SmeEssAuthTimeoutProcess 0x005a0500
dot11SmeEssAuthFailProcess 0x005a06ec
dot11SmeEssAssocSuccessProcess 0x005a0868
dot11SmeEssAssocFailProcess 0x005a09e4
dot11SmeEssLqProbationProcess 0x005a0b38
dot11SmeEssProbationWakeup 0x005a0e44
dot11SmeEssLqMakeDoProcess 0x005a0f48
dot11SmeEssSharedKeyProcess 0x005a1024
dot11SmeEssLinkEventNotify 0x005a10b4
dot11SmeEssStateGet 0x005a1148
dot11SmeEssKslApUpdate 0x005a1154
dot11SmeEssScanReceive 0x005a150c
dot11SmeEssBeaconPMReceive 0x005a1bd8
dot11SmeEssScanTaskInit 0x005a20e8
dot11SmeEssInit 0x005a22a8
dot11SmeEssAuthExpire 0x005a2504
dot11SmeEssAssocExpire 0x005a25d4
dot11SmeEssApLeave 0x005a269c
dot11SmeEssJoin 0x005a28b4
dot11SmeEssLqNoSignalProcess 0x005a2b08
dot11SmeEssDisassocProcess 0x005a2ccc
dot11SmeEssDeauthProcess 0x005a2e98
dot11SmeEssAssocTimeoutProcess 0x005a3078
dot11SmeEssBssDiscoveredProcess 0x005a3258
dot11SmeEssJoinReqProcess 0x005a3730
dot11SmeEssResetReqProcess 0x005a38d4
dot11SmeEssAssocReceive 0x005a3a84
dot11SmeEssCcChoose 0x005a40dc
dot11SmeEssApChoose 0x005a43b8
dot11SmeEssChannelIndexGet 0x005a46e8
dot11SmeEssNextChannel 0x005a4730
dot11SmeEssScanTask 0x005a4944
dot11SmeIbssShow 0x005a6db4
dot11SmeIbssRxMapInit 0x005a6e64
dot11SmeIbssStateTaskInit 0x005a6f48
dot11SmeIbssLinkEventNotify 0x005a70a4
dot11SmeIbssStateTaskFree 0x005a712c
dot11SmeIbssAuthReceive 0x005a7260
dot11SmeIbssNullDataReceive 0x005a72c8
dot11SmeIbssAtimReceive 0x005a7330
dot11SmeIbssBeaconStart 0x005a7398
dot11SmeIbssSyncIbssProcess 0x005a748c
dot11SmeIbssBeaconStop 0x005a7650
dot11SmeIbssResetProcess 0x005a76e8
dot11SmeIbssBeaconCreate 0x005a7794
dot11SmeIbssBeaconUpdate 0x005a794c
dot11SmeIbssIoctl 0x005a7ab4
dot11SmeIbssJoinIbssProcess 0x005a819c
dot11SmeIbssCreateIbssProcess 0x005a83d8
dot11SmeIbssBeaconFree 0x005a8528
dot11SmeIbssFree 0x005a85e8
dot11SmeIbssInit 0x005a86bc
dot11SmeIbssBssidCreate 0x005a89d8
dot11SmeIbssJoinReqProcess 0x005a8a6c
dot11SmeIbssStateTask 0x005a8db8
dot11SmeIbssProbeRespSend 0x005a9064
dot11SmeIbssKslUpdate 0x005a91e0
dot11SmeIbssProbeReqReceive 0x005a93b8
dot11SmeIbssDataReceive 0x005a9768
dot11SmeIbssCompareTSF 0x005a9860
dot11SmeIbssBeaconReceive 0x005a98b4
dot11SmeModeStart 0x005ab204
dot11SmeModeStop 0x005ab4c0
setProtectionBit 0x005ab670
dot11SmeIoctl 0x005ab738
dot11SmeNullDataSend 0x005ab814
dot11SmeProbeReqSend 0x005aba64
dot11SmeAuthSend 0x005abcec
dot11SmeDeauthSend 0x005ac0a0
dot11SmeDisassocSend 0x005ac2e8
dot11SmeAssocReqSend 0x005ac544
dot11SmeAssocRspSend 0x005ac9a0
dot11SmeRateFind 0x005acc60
dot11SmeBRateFind 0x005accb8
dot11SmeRCInit 0x005acd10
dot11SmeRCDestroy 0x005ace40
dot11SmeFree 0x005acec4
dot11SmeRCTask 0x005acf38
dot11SmeTxMultiRateSet 0x005ad2e4
dot11SmeTxMultiRateGet 0x005ad448
dot11SmeTxUniRateSet 0x005ad46c
dot11SmeTxUniRateGet 0x005ad4ec
dot11SmeRateSort 0x005ad54c
dot11SmeActualRateCalc 0x005ad5e0
dot11SmeScanListBuild 0x005ad884
dot11SmeInit 0x005ad94c
dot11SmeLinkStatusGet 0x005adf34
dot11SmeMCastAddrAdd 0x005adf4c
dot11SmeMCastAddrDel 0x005adfe4
dot11SmeMCastAddrGet 0x005ae04c
dot11SmeScanReceive 0x005ae054
dot11SmeAssocCallback 0x005ae5dc
dot11SmeIoctlModeStartTimer 0x005ae8d0
dot11SmeBssScanDo 0x005aeb6c
dot11SmeBssidToBss 0x005af3dc
dot11SmeBssAdd 0x005af46c
dot11SmeBssDel 0x005af6c4
dot11SmeBssAddrBitsSet 0x005af760
dot11SmeBssAssocLimitSet 0x005af984
dot11SmeAclAdd 0x005afa18
dot11SmeAclRemove 0x005afca0
dot11SmeAclSet 0x005afecc
dot11SmeAclGetList 0x005b0124
dot11SmeCommonIoctl 0x005b025c
dot11TimerInit 0x005b6338
dot11TimerAdd 0x005b64ac
dot11TimerDel 0x005b658c
dot11TimerShow 0x005b6600
dot11TimerCalloc 0x005b671c
dot11TimerOpAdd 0x005b678c
dot11TimerFree 0x005b6888
dot11TimerFlush 0x005b68ec
dot11TimerDestroy 0x005b6944
dot11TimerOpDel 0x005b6a28
dot11TimerTask 0x005b6ad0
dot11DpeInit 0x005b6cfc
dot11DpeFree 0x005b6e88
dot11DpeFragmentSend 0x005b6edc
dot11DpeEndSendBss 0x005b77bc
dot11DpeEndSend 0x005b7aec
dot11DpeTransmitQueueFlush 0x005b7e00
dot11DpeFragThresholdSet 0x005b7f1c
dot11DpeFragThresholdGet 0x005b7f90
dot11DpeEndPollSend 0x005b7fc4
dot11DpeEndPollRcv 0x005b7fcc
dot11DpeMblkCoalesce 0x005b7fd4
dot11DpeReassemblePktGet 0x005b80a8
dot11DpeReassembleTimeout 0x005b815c
dot11DpeReassemblePktCreate 0x005b8284
dot11DpeReassemble 0x005b848c
dot11DpeEndReceive 0x005b879c
dot11HddInit 0x005b9c80
dot11KslInit 0x005b9f20
dot11KslEntryAlloc 0x005ba160
dot11KslLock 0x005ba248
dot11KslUnlock 0x005ba2f8
dot11KslEntryFree 0x005ba35c
dot11KslFlush 0x005ba760
dot11KslFree 0x005baadc
dot11KslLookup 0x005bab50
dot11KslAdd 0x005bac8c
dot11KslDelete 0x005bae40
dot11KslSSIDLookup 0x005bafa8
dot11KslRxUpdate 0x005bb350
dot11KslTxUpdate 0x005bb44c
dot11KslCleanup 0x005bb570
dot11KslLastAttemptReset 0x005bb718
dot11KslPmQCount 0x005bb754
dot11KslPrint 0x005bb7f8
dot11KslShow 0x005bbd10
xbdInit 0x005bc85c
xbdAttach 0x005bc928
xbdDetach 0x005bc964
xbdIoctl 0x005bc968
xbdStrategy 0x005bc9d4
xbdDump 0x005bca50
xbdSize 0x005bcacc
xbdNBlocks 0x005bcb3c
xbdBlockSize 0x005bcb98
bioInit 0x005bcbec
bio_done 0x005bcbf4
bio_alloc 0x005bcc30
bio_free 0x005bcc88
spinLockIsrInit 0x005bcc8c
spinLockIsrTake 0x005bcc9c
spinLockIsrGive 0x005bccd4
spinLockTaskInit 0x005bcce4
spinLockTaskTake 0x005bccec
spinLockTaskGive 0x005bcd34
spinLockRestrict 0x005bcd38
FfxNfcVersion 0x005bcd40
nfcISR 0x005bcd4c
nfcRamCtlGet 0x005bcdcc
nfcRamCtlRelease 0x005bce10
nfcFreeRamCtlGet 0x005bce2c
nfctlDataOutID 0x005bce60
nfctlNandStsGet 0x005bcfec
nfctlNandWrite 0x005bd33c
nfctlNandErase 0x005bd878
drvCtlReset 0x005bdc84
drvNandIdGet 0x005bded0
drvNandEccDisable 0x005be248
drvNandEccEnable 0x005be6e4
drvNandFeatureGet 0x005beb84
GetNandUniqueId 0x005bf008
drvPageErase 0x005bf49c
drvPageWrite 0x005bf508
drvPageRead 0x005bf568
drvSpareTagRead 0x005bf830
FfxHookNTADS5121ECreate 0x005bf888
PageRead 0x005bf898
PageWrite 0x005bf9d8
RawPageRead 0x005bfb04
RawPageWrite 0x005bfb74
SpareRead 0x005bfbe4
SpareWrite 0x005bfcc4
HiddenRead 0x005bfda4
HiddenWrite 0x005bfe98
GetPageStatus 0x005bff78
GetBlockStatus 0x005c000c
SetBlockStatus 0x005c00dc
EraseBlock 0x005c019c
BlockErase 0x005c0234
nandEraseBlock 0x005c0304
SpareRead64Native 0x005c0348
SpareWrite64Native 0x005c03cc
PageRead2KNoEcc 0x005c0458
nandPageRead2KNoEcc 0x005c0514
SpareRead64 0x005c0560
nandSpareRead64 0x005c061c
SpareWrite64 0x005c0668
nandSpareWrite64 0x005c0724
GetPageStatus2K 0x005c0770
nandGetPageStatus2K 0x005c0840
GetBlockStatus2K 0x005c08ac
nandGetBlockStatus2K 0x005c0978
SetBlockStatus2K 0x005c09e8
nandSetBlockStatus2K 0x005c0af0
ParameterGet 0x005c0b3c
ParameterSet 0x005c0b90
ffx_board_nand_test 0x005c0c18
InitController 0x005c0c90
ConfigController 0x005c0d74
IdentifyFlash 0x005c0e10
Destroy 0x005c0ed8
Create 0x005c0f2c
EncodeTagHwEcc 0x005c110c
TagWrite64 0x005c1144
nandTagWrite64 0x005c1238
PageWrite2KEcc 0x005c1284
nandPageWrite2KEcc 0x005c1388
DecodeTagHwEcc 0x005c13d8
TagRead64 0x005c1428
nandTagRead64 0x005c14d8
PageRead2KEcc 0x005c1524
nandPageRead2KEcc 0x005c169c
PageOut 0x005c16ec
PageWrite2KNoEcc 0x005c1784
nandPageWrite2KNoEcc 0x005c18a0
FfxNfcErasePage 0x005c18ec
nandBadBlockNumGet 0x005c1a00
nfctlAddrSend 0x005c1a60
nfctlCommandIn 0x005c1b64
waitInt 0x005c1c80
nfcInWord 0x005c1d74
FfxHookOptionGet 0x005c1fc4
FfxDclMemAlloc 0x005c2010
FfxDclMemFree 0x005c205c
FfxDclMemAllocZero 0x005c2060
FfxDclMemPoolVerify 0x005c20ac
FfxDclMemStatsQuery 0x005c20b8
FfxDclMemPoolDump 0x005c20c4
usrFlashFXInit62 0x005c20d0
usrFlashFXToolsInit62 0x005c2154
usrFlashFXTestsInit62 0x005c21a0
usrFlashFXDeviceInit62 0x005c21e4
FlashFXTestFMSL 0x005c2558
FlashFXTestFMSLLibInit 0x005c2744
FlashFXTestDCL 0x005c2844
FlashFXTestDCLLibInit 0x005c28ac
FlashFXTestFSIO 0x005c2910
FlashFXTestFSIOLibInit 0x005c2978
FlashFXStressMT 0x005c29e4
FlashFXStressMTLibInit 0x005c2a94
FlashFXTestVBF 0x005c2b2c
FlashFXTestVBFLibInit 0x005c2b88
FlashFXCheck 0x005c2bec
FlashFXCheckLibInit 0x005c2c48
FlashFXDump 0x005c2cc0
FlashFXDumpLibInit 0x005c2d1c
FlashFXImage 0x005c2d80
FlashFXImageLibInit 0x005c2ddc
FlashFXInfo 0x005c2e44
FlashFXInfoLibInit 0x005c2ea0
FlashFXReclaim 0x005c2f0c
FlashFXReclaimLibInit 0x005c2f68
FlashFXRemount 0x005c2fd4
FlashFXRemountLibInit 0x005c3030
FlashFXShell 0x005c3098
FlashFXShellLibInit 0x005c3104
FfxToolFramework 0x005c3174
FfxDriverLock 0x005c33f0
FfxDriverUnlock 0x005c3448
FfxDriverOptionGet 0x005c3480
FfxDevGetArrayBounds 0x005c3614
FfxDevApplyArrayBounds 0x005c36c8
FfxFmlCreate 0x005c3798
FfxFmlDestroy 0x005c39f8
FfxFmlHandle 0x005c3b08
FfxFmlDeviceInfo 0x005c3b2c
FfxFmlDiskInfo 0x005c3c90
FfxFmlParameterGet 0x005c3d40
FfxFmlParameterSet 0x005c3d8c
ReadPages 0x005c3db0
WritePages 0x005c3e78
EraseBlocks 0x005c3f40
FfxFmlIORequest 0x005c4014
FfxFmlNandReadCorrectedPages 0x005c4308
FfxFmlNandReadTaggedPages 0x005c43d0
FfxFmlNandWriteTaggedPages 0x005c44a0
FfxFmlNandReadRawPages 0x005c4570
FfxFmlNandWriteRawPages 0x005c4640
FfxFmlNandReadSpares 0x005c4710
FfxFmlNandWriteSpares 0x005c47d8
FfxFmlNandReadTags 0x005c48a0
FfxFmlNandWriteTags 0x005c4968
FfxFmlNandGetPhysicalBlockStatus 0x005c4a30
FfxNandDecodeID 0x005c4ad8
STMicroFindChip 0x005c4b78
SamsungFindChip 0x005c4bd0
SpansionFindChip 0x005c4c0c
HynixFindChip 0x005c4c58
MicronFindChip 0x005c4c94
ToshibaFindChip 0x005c4d18
OneNANDFindChip 0x005c4d54
ShowUsage 0x005c4dc4
VerifyUnit 0x005c4e58
StressUnit 0x005c4f54
IdentifyandTestSpareUnit 0x005c53f4
CheckSpareUnits 0x005c55a8
FfxCheckUnits 0x005c55d8
ShowUsage 0x005c5968
DisplayDevType 0x005c5a80
ReportFlashFXConfigInfo 0x005c5b38
ScaleKB 0x005c6054
ReportFmlInfo 0x005c612c
ScalePages 0x005c659c
ReportVBFInfo 0x005c667c
MediaCheck 0x005c6c58
FfxDiskInfo 0x005c70d0
VerifyFileSize 0x005c8cd8
DumpRawSpares 0x005c8d70
DumpRawPages 0x005c8ea4
SetSwitches 0x005c9064
ShowUsage 0x005c9454
FfxDump 0x005c9590
GetChar 0x005c9db8
RetrieveHeader 0x005c9dfc
FfxBbmDump 0x005c9fc8
ReadImage 0x005ca4fc
WriteImage 0x005ca750
ProcessParameters 0x005cab80
ShowUsage 0x005caeb0
FfxImage 0x005cb0bc
FfxShell 0x005cc4bc
FfxShellAddTraceCommands 0x005ccce8
FfxShellAddCommands 0x005ccdb0
ShellCmdTraceMaskGet 0x005cce84
ShellCmdTraceMaskSet 0x005ccf04
ShellCmdFfxDebug 0x005cd028
ShellCmdFfxDump 0x005cd0e0
ShellCmdFfxStressMT 0x005cd240
ParseDriveNumber 0x005cd3a0
ShellCmdFfxTestVBF 0x005cd4a4
ShellCmdFfxTestFMSL 0x005cd648
ShellCmdFfxInfo 0x005cd7ec
ShellCmdFfxRemount 0x005cd990
ShellCmdFfxParamSet 0x005cdb34
ShellCmdFfxImage 0x005cde94
ShellCmdFfxFormat 0x005ce038
ShellCmdFfxCompact 0x005ce1dc
ShellCmdFfxCheck 0x005ce380
DisplayParamValue 0x005ce524
ShellCmdFfxParamGet 0x005ce650
DebugECC 0x005cf4cc
DebugInfo 0x005cf674
DebugFMLBlockStatus 0x005cf7f0
DebugFMLErase 0x005cfa20
DebugFMLWrite 0x005cfc04
DebugFMLSpareRead 0x005d00f4
DebugFMLSpareWrite 0x005d042c
DebugAllocWrite 0x005d074c
DebugAllocDiscard 0x005d0a40
InitDisk 0x005d0c88
DebugDisk 0x005d0ebc
FfxDebug 0x005d1028
ParseBufferName 0x005d11c4
DebugFMLTagWrite 0x005d1310
DebugFMLTagRead 0x005d1658
DebugFillDWords 0x005d19fc
DebugFillWords 0x005d1d9c
DebugFillBytes 0x005d218c
CalculateHexDumpWidth 0x005d2560
ParseDisplayArgs 0x005d264c
DebugDisplayBytes 0x005d288c
DebugDisplayWords 0x005d2a40
DebugDisplayDWords 0x005d2bf4
DebugAllocRead 0x005d2da8
DebugFMLRead 0x005d30bc
ShowUsage 0x005d5f74
CleanDisk 0x005d600c
FfxReclaim 0x005d60b8
ShowUsage 0x005d635c
RemountDisk 0x005d63e4
FfxRemount 0x005d6484
GeneralTests 0x005d66f4
ReadEraseAndVerify 0x005d6bd4
EraseMedia 0x005d6e1c
EraseAndVerify 0x005d6f24
AlignmentTests 0x005d70f4
HugeOperationTests 0x005d75fc
GetReadPerform 0x005d7a68
GetWritePerform 0x005d7bac
GetErasePerform 0x005d7d0c
Performance 0x005d7e2c
Verify 0x005d8178
ReadAndVerify 0x005d82f4
WriteAndVerify 0x005d83dc
ExtensiveWrites 0x005d84bc
FillBuffer 0x005d883c
IntensiveWrites 0x005d89c0
ButterflyWrites 0x005d8cd8
BlockWrites 0x005d8e1c
VerifyZoneSize 0x005d9254
TestFMSL 0x005d953c
ShowUsage 0x005d9728
SetSwitches 0x005d9890
FfxTestFMSL 0x005d9d30
drivestart 0x005db81c
driveshutdown 0x005db968
MountSync 0x005db9cc
TestCompact 0x005dba18
FillBuffer 0x005dbaa4
CheckBuffer 0x005dbb10
RandomRange 0x005dbb90
ParseTestProbabilities 0x005dbc34
TestType 0x005dbd58
InitBlockMap 0x005dbdec
drivesetup 0x005dbe10
GetBlockSequence 0x005dbee8
SetBlockSequence 0x005dbef8
GetSequenceNumber 0x005dbf0c
ClaimOwnership 0x005dbf70
ReleaseOwnership 0x005dc060
ShowUsage 0x005dc0f0
SetSwitches 0x005dc2c4
AtomicPrintf 0x005dc964
DiscardBlocks 0x005dca28
TestDiscard 0x005dcb44
WriteBlocks 0x005dcc18
TestWrite 0x005dcd8c
ReadBlocks 0x005dce60
VerifyBlocks 0x005dcf68
TestRead 0x005dd168
TestThread 0x005dd264
TestMount 0x005dd39c
driverun 0x005dd49c
DiscardMedia 0x005dd7f8
drivesummary 0x005dd880
DriveThread 0x005de06c
FfxStressMT 0x005de194
ShowUsage 0x005df74c
SetSwitches 0x005df8c4
FormatPartition 0x005dfe80
RemountVBF 0x005dff3c
TestPartitionInfo 0x005dffc8
wrs_kernel_rom_size 0x005e0000
TestUnitInfo 0x005e0284
TestHugeBlocks 0x005e0484
TestHugeOperations 0x005e0824
TestExercise 0x005e0c84
TestDiscard 0x005e0eb8
TestDiscardSet 0x005e13b4
TestCompaction 0x005e1884
TestErrors 0x005e1a2c
ResourceUsage 0x005e1be0
PremountRegions 0x005e1db4
GetWritePerform 0x005e1eac
GetReadPerform 0x005e1ff0
GetDiscardPerform 0x005e2110
GetCompactionPerf 0x005e2228
GetDiskMountPerf 0x005e22c0
Benchmark 0x005e2354
TestFillDisk 0x005e25c8
FillPattern 0x005e2ed0
ValidateSerializedBuffer 0x005e2f5c
SerializeBuffer 0x005e309c
TestSmallBlocks 0x005e3178
TestBigBlocks 0x005e3430
TestRegionBoundaries 0x005e35a8
GatherEraseCounts 0x005e3a10
TestWearLeveling 0x005e3b70
TestVbfLayer 0x005e404c
FfxTestVBF 0x005e452c
FfxDclAtoI 0x005e61ac
FfxDclAtoL 0x005e61b0
FfxDclMemCpyAligned 0x005e6210
FfxDclMemSetAligned 0x005e6234
FfxDclNtoUL 0x005e6278
FfxDclVPrintf 0x005e635c
FfxDclPrintf 0x005e63e0
FfxDclRand 0x005e6470
FfxDclVSNPrintf 0x005e6500
FfxDclSNPrintf 0x005e6c7c
FfxDclStrCat 0x005e6d14
FfxDclStrChr 0x005e6d5c
FfxDclStrCmp 0x005e6d98
FfxDclStrICmp 0x005e6dd8
FfxDclStrNICmp 0x005e6e48
FfxDclStrNCpy 0x005e6ec8
FfxDclStrCpy 0x005e6f3c
FfxDclStrLen 0x005e6f64
FfxDclStrNCat 0x005e6f8c
FfxDclULLtoA 0x005e702c
FfxDclULtoA 0x005e7190
FfxDclHexDump 0x005e72a4
FfxDclOsFileOpen 0x005e75c0
FfxDclOsFileClose 0x005e75e0
FfxDclOsFileEOF 0x005e75e4
FfxDclOsFileFlush 0x005e761c
FfxDclOsFileSeek 0x005e7620
FfxDclOsFileTell 0x005e765c
FfxDclOsFileRead 0x005e7660
FfxDclOsFileWrite 0x005e7664
FfxDclOsMemAlloc 0x005e7668
FfxDclOsMemFree 0x005e7690
FfxDclOsSleep 0x005e76b4
FfxDclOsThreadID 0x005e7710
FfxDclOsThreadAttrDestroy 0x005e7730
FfxDclOsThreadAttrSetStackSize 0x005e7734
FfxDclOsThreadAttrCreate 0x005e7740
vxworks_thread_startup 0x005e7780
FfxDclOsThreadCreate 0x005e77b4
FfxDclOsThreadDestroy 0x005e7878
FfxDclOsThreadTerminate 0x005e78e0
FfxDclOsThreadWait 0x005e7974
FfxDclOsThreadSuspend 0x005e79f4
FfxDclOsThreadResume 0x005e7a30
DclPriorityToVxWorksPriority 0x005e7a6c
FfxDclOsThreadPrioritySet 0x005e7af4
FfxDclOsThreadAttrSetPriority 0x005e7b5c
FfxDclOsTickCount 0x005e7ba8
FfxDclOsTickModulus 0x005e7bac
FfxDclOsTickResolution 0x005e7bb4
FfxDclPerfLogOpen 0x005e7be0
FfxDclPerfLogString 0x005e7d28
FfxDclPerfLogHex16 0x005e7df8
FfxDclPerfLogHex32 0x005e7e68
FfxDclPerfLogInt 0x005e7ed8
FfxDclPerfLogNum 0x005e7f38
FfxDclPerfLogNum64 0x005e7f9c
FfxDclPerfLogCopy 0x005e800c
FfxDclPerfLogWrite 0x005e8104
FfxDclPerfLogClose 0x005e81d4
PressEnter 0x005e8270
DisplayTestDescription 0x005e82bc
ShowHelp 0x005e8854
BoundaryRoundUp 0x005e8c88
ParseNumber 0x005e8cc0
SetSwitches 0x005e8d98
RangeNext 0x005e9c98
ResourceUsage 0x005e9cc0
PrimCreate 0x005e9e68
CreateTempFile 0x005e9f0c
PrimOpen 0x005e9fc4
PrimWrite 0x005ea068
PrimRead 0x005ea144
PrimSeek 0x005ea1d0
PrimFlush 0x005ea244
PrimClose 0x005ea2d8
SequentialTestInit 0x005ea36c
PopulateTempFile 0x005ea4d0
PrimDelete 0x005ea5d8
CloseAndDeleteFile 0x005ea680
StressFill 0x005ea6e0
FileDelete 0x005ea8cc
DeleteFileSet 0x005ea92c
PrimDirCreate 0x005eaa18
PrimDirRemove 0x005eaab0
CreateAndAppendTestDir 0x005eab48
DestroyAndRemoveTestDir 0x005eac0c
AppSleep 0x005eac98
CreateUncachedFile 0x005ead3c
GetKBPerSecond 0x005eae68
CreateNumberedFile 0x005eaee8
FileCreate 0x005eaf58
CreateFileSet 0x005eb094
OpenNumberedFile 0x005eb1a4
VerifyFile 0x005eb214
VerifyFileSet 0x005eb324
TestCreateAndDelete 0x005eb430
GetSmallFileIOPerf 0x005eb5d4
DTCreateFiles 0x005eb888
DTOpenSeekClose 0x005ebadc
DTDeleteFileSet 0x005ebca4
FreeDiskBlocks 0x005ebda8
StatsReset 0x005ebe0c
StatsDump 0x005ebe64
DirTest 0x005ec000
SequentialRewrite 0x005ec564
SequentialWrite 0x005ec8b8
SequentialRead 0x005ecc0c
GetFragPerf 0x005ecf70
RandomWrite 0x005ed988
RandomRead 0x005edeb0
RunTests 0x005ee2c4
FfxDclTestFSIOMain 0x005eefa0
ProcessParameters 0x005f403c
TestDataTypes 0x005f432c
TestAlignment 0x005f45f0
TestMisaligned 0x005f473c
TestByteOrder 0x005f49e4
TestBitOperations 0x005f4bd4
TestStringFuncs 0x005f4d40
TestTimers 0x005f4d90
TestSleep 0x005f5368
HammingburgerHelper 0x005f5468
TestHamming 0x005f5610
TestCrc32 0x005f5938
CalculatePeriod 0x005f5ab0
TestTickers 0x005f5c0c
SprintfHelper 0x005f62dc
TestSprintf 0x005f6428
DelayHelper 0x005f67b8
TestDelay 0x005f6930
FfxDclTestMain 0x005f6c24
MemSetHelper 0x005f8df4
TestMemSet 0x005f8fe0
MemCpyHelper 0x005f90e0
TestMemCpy 0x005f92dc
MemSetPerfHelper 0x005f941c
MemSetPerf 0x005f94c0
MemCpyPerfHelper 0x005f96b8
MemCpyPerf 0x005f9748
FfxDclTestMemFuncs 0x005f99e0
LocalMemSet 0x005f9df8
LocalDclMemSet 0x005f9dfc
LocalDclMemSetAligned 0x005f9e04
LocalMemCpy 0x005f9e08
LocalDclMemCpy 0x005f9e0c
LocalDclMemCpyAligned 0x005f9e10
TestMemTracking 0x005f9e14
FfxDclTestMemTracking 0x005f9f54
FfxDclTestPath 0x005faa40
FfxDclShellDestroy 0x005fad08
FfxDclShellAddCommand 0x005fad88
FfxDclShellCreate 0x005faea8
FfxDclShellRemoveCommand 0x005fafd0
FfxDclShellParams 0x005fb074
DclShellConsoleInput 0x005fb090
exec_help 0x005fb238
exec_ShellHelp 0x005fb370
exec_echo 0x005fb434
exec_goto 0x005fb510
exec_pause 0x005fb72c
exec_run 0x005fb7c8
exec_set 0x005fba20
exec_status 0x005fbcac
exec_time 0x005fbcec
exec_TimeStamp 0x005fbd38
exec_dcltest 0x005fbdf0
exec_stats 0x005fbe94
exec_MemDump 0x005fbf38
exec_DebugBreak 0x005fc158
GetCommand 0x005fc3bc
DisplayPrompt 0x005fc570
FfxDclShellRun 0x005fc684
ParseNumericValue 0x005fc938
exec_MemChain 0x005fc998
exec_exit 0x005fcadc
exec_Width 0x005fcbc0
exec_wait 0x005fcc58
exec_if 0x005fcd40
ProcessParameters 0x005fea10
FfxDclStats 0x005fed34
EatWhiteSpace 0x005ff4f0
FindArgLen 0x005ff52c
FfxDclArgClear 0x005ff5ac
FfxDclArgRetrieve 0x005ff634
FfxDclArgCount 0x005ff6f0
FfxDclAssertFired 0x005ff760
FfxDclBitCount 0x005ff888
FfxDclBitHighest 0x005ff8b0
FfxDclCrc32Update 0x005ff8d0
FfxDclDateTimeDecode 0x005ff910
FfxDclDateTimeString 0x005ffc28
FfxDclTimeFormat 0x005ffcd0
ValidateDateTime 0x005ffde4
FfxDclDateTimeEncode 0x005fff10
Initialize 0x006001a0
FfxDclNanosecondDelay 0x00600224
FfxDclNanosecondDelayMinimum 0x0060033c
FfxDclReverseInPlace 0x00600388
FfxDclCopyAndReverse 0x006003c8
DclEnvCreate 0x006003f8
DclEnvDestroy 0x00600520
DclEnvDisplay 0x0060055c
DclEnvVarDelete 0x00600664
DclEnvVarLookup 0x00600748
DclEnvVarAdd 0x006007f0
LocalMemMove 0x00600948
DclEnvSubstitute 0x00600990
FfxDclHammingCalculate 0x00600b44
FfxDclHammingCorrect 0x00600bb4
FfxDclLogOpen 0x00600c1c
WriteLogData 0x00600d78
OutputString 0x00600ea4
FfxDclLogWrite 0x00600fcc
FfxDclLogVPrintf 0x00601020
FfxDclLogPrintf 0x006010c0
FfxDclLogFlush 0x00601160
FfxDclLogClose 0x0060120c
FfxDclMutexAcquire 0x00601398
FfxDclMutexCreate 0x006013e8
FfxDclMutexDestroy 0x00601464
FfxDclMutexRelease 0x006014b0
FfxDclMutexStatsQuery 0x006014e8
FfxDclOutputFunction 0x006014f4
FfxDclOutputString 0x00601528
FfxDclAbsolutePath 0x00601570
FfxDclRatio 0x006017c8
FfxDclSemaphoreRdWrAcquireRead 0x006018f4
FfxDclSemaphoreRdWrAcquireWrite 0x00601968
FfxDclSemaphoreRdWrCreate 0x00601a60
FfxDclSemaphoreRdWrDestroy 0x00601b4c
FfxDclSemaphoreRdWrRelease 0x00601bbc
FfxDclSemaphoreRdWrStatsQuery 0x00601c60
FfxDclSemaphoreAcquire 0x00601c74
FfxDclSemaphoreCreate 0x00601cc4
FfxDclSemaphoreDestroy 0x00601d50
FfxDclSemaphoreRelease 0x00601d9c
FfxDclSemaphoreStatsQuery 0x00601dec
FfxDclSignOn 0x00601df8
FfxDclSystemStatsDisplay 0x00601e5c
FfxDclMemStatsDisplay 0x00602300
FfxDclMutexStatsDisplay 0x00602410
FfxDclSemaphoreStatsDisplay 0x00602580
FfxDclSemaphoreRdWrStatsDisplay 0x00602728
FfxDclSystemStatsQuery 0x006032ec
FfxDclHighResTimeStamp 0x00603440
initialize 0x00603444
FfxDclHighResTimePassed 0x006034d0
FfxDclHighResTimePassedMS 0x0060359c
FfxDclTimeStamp 0x006035f0
update_timer 0x006035f4
FfxDclTimerElapsed 0x00603694
FfxDclTimerRemaining 0x006036e0
FfxDclTimerExpired 0x0060374c
FfxDclTimePassed 0x00603788
FfxDclTimerSet 0x00603844
FfxDclVersionFormat 0x006038d8
FlashFXFileSystemFormat 0x00603adc
FlashFXFormat 0x00603bec
FfxRegisterExtraCommands 0x00603df4
FlashFX 0x0060418c
flashfx 0x0060425c
FlashFXRegisterCommand 0x00604260
CreateDevices 0x006042a0
FlashFXDriverInit 0x0060432c
FlashFXDiskCreate 0x00604410
FlashFXFindValidPartitions 0x006045a4
FlashFXBlkRd 0x0060460c
FlashFXBlkWrt 0x006046a0
FlashFXBlkReset 0x00604734
FlashFXBlkDisc 0x00604774
FlashFXLibInit 0x006047e8
FlashFXIoctl 0x0060493c
FfxOsOptionGet 0x00604998
FfxGetDriveFormatString 0x006049c4
FfxParseDriveNumber 0x006049d0
FfxProjMain 0x00604a98
FfxConfigurationInfo 0x00604ae0
FfxDriverDeviceCreate 0x00604bfc
FfxDriverDeviceDestroy 0x00604d04
FfxDriverDeviceHandle 0x00604d84
FfxDriverDeviceSettings 0x00604db8
FfxDriverSectorDiscard 0x00604ea8
FfxDriverDiskDestroy 0x00604f0c
FfxDriverDiskHandle 0x00604f78
FfxDriverDiskGeometry 0x00604fdc
FfxDriverDiskAdjust 0x00605010
FfxDriverDiskSettings 0x006050d4
FfxDriverDiskFormatSettings 0x00605160
ValidateFormatSettings 0x006051ec
FfxDriverDiskCreate 0x00605294
FfxDriverDiskCompSettings 0x006054c0
FfxDriverCreate 0x00605798
FfxDriverDestroy 0x00605850
FfxDriverHandle 0x006058ac
FfxDriverReadData 0x006058b8
FfxDriverSectorRead 0x0060593c
FfxDriverWritePages 0x00605978
FfxDriverSectorWrite 0x00605a50
FfxDriverDiskCalcParams 0x00605ac4
FfxDriverDiskParameterGet 0x00605bb0
FfxDriverDiskParameterSet 0x00605c28
FfxDriverAllocatorDestroy 0x00605c64
FfxDriverAllocatorFormat 0x00605cf8
FixVbfSizeChange 0x00605dd8
FfxDriverAllocatorCreate 0x00605f24
FfxOptionGet 0x006063d8
FfxVbfTestRegionMountPerf 0x006063e0
FfxVbfDiskInfo 0x0060648c
FfxVbfParameterGet 0x00606514
FfxVbfParameterSet 0x00606578
FfxVbfReadPages 0x006065a0
FfxVbfWritePages 0x006067e4
FfxVbfDiscardPages 0x00606b18
FooFFXVbfBarl598 0x00606d28
FooFFXVbfBarl552 0x00606d50
FooFFXVbfBarl1130 0x00606d84
FooFFXVbfBarl1026 0x00606dac
FooFFXVbfBarl1243 0x00606df8
FooFFXVbfBarl970 0x00606e1c
FfxVbfCompact 0x00606f2c
FfxVbfCompactIfIdle 0x006070e0
FooFFXVbfBarl1485 0x0060719c
FfxVbfFormat 0x00607364
FooFFXVbfBarl1642 0x006076a8
FfxVbfCreate 0x00607748
FfxVbfDestroy 0x00607aa0
FfxVbfHandle 0x00607ba0
FfxVbfDiskMetrics 0x00607ca0
FooFFXVbfBarl1349 0x00607d44
FfxVbfUnitMetrics 0x00607e10
FooFFXVbfBarl668 0x00608020
FooFFXVbfBarl296 0x0060808c
FooFFXVbfBarl307 0x006080b0
FooFFXVbfBarl240 0x006080d4
FooFFXVbfBarl1546 0x0060813c
FooFFXVbfBarl1515 0x006081e4
FooFFXVbfBarl1268 0x00608284
FooFFXVbfBarl458 0x006082b8
FooFFXVbfBarl623 0x0060835c
FooFFXVbfBarl1845 0x0060850c
FooFFXVbfBarl1689 0x00608624
FooFFXVbfBarl1433 0x00608734
FooFFXVbfBarl640 0x006087e0
FooFFXVbfBarl1430 0x006087f8
FooFFXVbfBarl238 0x006088a4
FooFFXVbfBarl432 0x006088c0
FooFFXVbfBarl613 0x0060896c
FooFFXVbfBarl654 0x006089f4
FooFFXVbfBarl269 0x00608a30
FooFFXVbfBarl310 0x00608a40
FooFFXVbfBarl1419 0x00608a50
FooFFXVbfBarl1479 0x00608b60
FooFFXVbfBarl376 0x00608c94
FooFFXVbfBarl1202 0x00608d1c
FooFFXVbfBarl1518 0x00608d74
FooFFXVbfBarl1436 0x00609460
FooFFXVbfBarl1366 0x00609640
FooFFXVbfBarl1212 0x0060974c
FooFFXVbfBarl283 0x0060990c
FooFFXVbfBarl638 0x006099d8
FooFFXVbfBarl312 0x00609a78
FooFFXVbfBarl651 0x00609b40
FooFFXVbfBarl340 0x00609c98
FooFFXVbfBarl415 0x00609cb0
FooFFXVbfBarl237 0x00609cc8
FooFFXVbfBarl372 0x00609cd0
FooFFXVbfBarl135 0x00609cd8
FooFFXVbfBarl280 0x00609ce0
FooFFXVbfBarl387 0x00609ce8
FooFFXVbfBarl1472 0x00609cf0
FooFFXVbfBarl1523 0x00609d88
FooFFXVbfBarl625 0x00609ed4
FooFFXVbfBarl489 0x0060a104
FooFFXVbfBarl370 0x0060a22c
FooFFXVbfBarl368 0x0060a254
FooFFXVbfBarl289 0x0060a27c
FooFFXVbfBarl1266 0x0060a2a8
FooFFXVbfBarl1508 0x0060a3c4
FooFFXVbfBarl671 0x0060a60c
FooFFXVbfBarl1286 0x0060a73c
FooFFXVbfBarl1362 0x0060a7bc
FooFFXVbfBarl1441 0x0060a8b0
FooFFXVbfBarl1205 0x0060ac48
FooFFXVbfBarl1374 0x0060af08
FooFFXVbfBarl1191 0x0060b06c
FooFFXVbfBarl390 0x0060b148
FooFFXVbfBarl1714 0x0060b2e4
FooFFXVbfBarl635 0x0060b444
FooFFXVbfBarl1209 0x0060b554
FooFFXVbfBarl645 0x0060b6b8
Checksum 0x0060b8e4
PrintVbfEuh 0x0060b930
SetStats 0x0060bb28
PrintSummary 0x0060bd50
PrintNORAllocs 0x0060bf10
PrintNANDAllocs 0x0060c0dc
SetSwitches 0x0060c3a8
FfxVbfDumpUsage 0x0060c468
GetChar 0x0060c478
RetrieveAllocations 0x0060c4bc
RetrieveEUH 0x0060c644
GetVbfUnitHeader 0x0060c900
FfxVbfDump 0x0060ca78
FfxVbfCompactionStatsDisplay 0x0060d234
FfxVbfRegionStatsDisplay 0x0060d4d0
FfxDevCreate 0x0060df14
FfxDevDestroy 0x0060e17c
FfxDevHandle 0x0060e1f8
FfxDevInfo 0x0060e21c
FfxDevParameterGet 0x0060e2d0
FfxDevParameterSet 0x0060e308
FfxDevEraseProlog 0x0060e340
FfxDevEraseEpilog 0x0060e3e0
FfxDevIOEpilog 0x0060e428
ErasePoll 0x0060e490
EraseSuspend 0x0060e4dc
FfxDevIOProlog 0x0060e54c
GenericRead 0x0060e5ec
GenericWrite 0x0060e8a8
FfxDevErasePoll 0x0060eb60
EraseBlocks 0x0060ebf8
GetPhysicalBlockStatus 0x0060ed7c
FfxDevIORequest 0x0060ee58
FfxFmlFormat 0x0060f010
FfxHookAccessBegin 0x0060f088
FfxHookAccessEnd 0x0060f0cc
FfxHookDeviceCreate 0x0060f110
FfxHookDeviceDestroy 0x0060f1b0
FfxHookDiskCreate 0x0060f1b8
FfxHookDiskDestroy 0x0060f2ac
FfxHookDriverCreate 0x0060f2b4
FfxHookDriverDestroy 0x0060f2bc
FfxCalcPhysicalDiskParams 0x0060f2c0
FfxGetPhysicalDiskParams 0x0060f334
FfxEccGenerate 0x0060f444
FfxEccCorrectData 0x0060f490
FfxPerfLogFormatDiskIOStats 0x0060f680
FfxPerfLogWriteDiskIOStats 0x0060f7d0
FfxPerfLogFormatDiskCompactionStats 0x0060f81c
FfxPerfLogWriteDiskCompactionStats 0x0060f824
FfxPerfLogFormatVbfCompactionStats 0x0060f830
FfxPerfLogWriteVbfCompactionStats 0x0060fa98
FfxPerfLogFormatVbfRegionStats 0x0060fae4
FfxPerfLogWriteVbfRegionStats 0x0060fbe0
FfxPerfLogFormatFmlIOStats 0x0060fc2c
FfxPerfLogFormatFmlIONandStats 0x0060fe24
FfxPerfLogWriteFmlIOStats 0x0061016c
FfxPerfLogFormatBbmStats 0x006101f0
FfxPerfLogWriteBbmStats 0x006102ec
FfxDriverDiskCompStatsDisplay 0x006106f8
FfxDriverDiskIOStatsDisplay 0x006106fc
FfxFmlStatsDisplay 0x006107d0
FfxBbmStatsDisplay 0x00610a54
FfxSignOn 0x00610f24
FfxDecodeIOStatus 0x00610fa0
FfxDebugPrintf 0x00611134
FfxTracePrintf 0x006111d0
FfxTraceMaskGet 0x0061126c
FfxTraceMaskSwap 0x00611278
FfxFatGetDiskParamsFromBootRecord 0x0061129c
FfxFatMonGetBPB 0x00611370
FatMonInstanceCreate 0x00611464
FfxFatMonInit 0x00611584
FatMonInstanceDestroy 0x00611740
FfxFatMonDeinit 0x006117d4
FatMonGetFatEntry 0x00611880
FatMonGetFat32Entry 0x006118c0
FatMonDiscardClusters 0x006118d0
FatMonWriteFatSectors 0x00611ba4
FatMonWriteSectors 0x00611cb8
FfxFatMonWrite 0x00611e3c
ShowUsage 0x00612058
DisplayStatistics 0x00612138
FormatDisk 0x006121f4
SetSwitches 0x0061246c
FfxFormat 0x006128f8
FfxFmslNANDTestReadPerform 0x00612e58
FfxFmslNANDTestWritePerform 0x00612f80
SpareAreaTest 0x006130f4
PagePattern 0x0061315c
FfxFmslNANDPageFill 0x006132bc
SingleBitError 0x00613334
VerifyError 0x0061341c
FfxFmslNANDPageVerify 0x006134d8
BlankVerify 0x006135e8
EraseAndVerify 0x006136dc
FfxFmslNANDFindTestBlocks 0x006138ac
BlockStatusTest 0x006139a0
TagTest 0x00613b08
RawPageTest 0x00614230
TaggedPageTest 0x00614830
CommonTest 0x00614e30
FfxFmslNANDTest 0x00615c58
VerifyData 0x00616cd8
ReadPageAndVerify 0x00616d7c
StressNAND 0x00616eb4
FfxFmslStress 0x006173d4
Test504 0x00617924
FfxTestVBFQA 0x00617bec
FfxDclHtoUL 0x00617ed4
FfxDclLtoA 0x00617f58
FfxDclStrNCmp 0x006180a0
DclTraceIndentGet 0x006180f0
DclTraceIndentSet 0x006180fc
DclTraceMaskGet 0x00618108
DclTraceMaskSwap 0x00618114
FfxDclTraceVPrintf 0x00618138
DclTracePrintf 0x00618478
DclDebugPrintf 0x00618514
FfxDclTraceToggle 0x006185b0
FfxDclOsGetDateTime 0x0061865c
FfxDclOsDebugBreak 0x006186e4
FfxDclOsDirOpen 0x0061874c
FfxDclOsDirRead 0x00618780
FfxDclOsDirGetName 0x006187b4
FfxDclOsDirClose 0x006187f4
FfxDclOsDirCreate 0x00618828
FfxDclOsDirRemove 0x0061885c
FfxDclOsDirRename 0x00618890
FfxDclOsDirSetWorking 0x00618894
FfxDclOsDirGetWorking 0x006188c8
FfxDclOsFileDelete 0x00618904
FfxDclOsStatFs 0x00618944
FfxDclOsFileRename 0x006189d0
FfxDclOsBecomeFileUser 0x00618a24
FfxDclOsReleaseFileUser 0x00618a28
NativeTimeToDclTime 0x00618a2c
FfxDclOsStat 0x00618a7c
FfxDclOsHalt 0x00618b30
FfxDclOsHighResTickCount 0x00618b50
FfxDclOsHighResTickModulus 0x00618b88
FfxDclOsHighResTickResolution 0x00618b94
FfxDclOsGetChar 0x00618be4
FfxDclOsMutexAcquire 0x00618c90
FfxDclOsMutexCreate 0x00618cd0
FfxDclOsMutexDestroy 0x00618d1c
FfxDclOsMutexInfo 0x00618d44
FfxDclOsMutexRelease 0x00618d5c
FfxDclOsOutputString 0x00618d98
DclOsRequestorDispatch 0x00618dac
DclOsRequestorOpen 0x00618de0
DclOsRequestorClose 0x00618de8
FfxDclOsSemaphoreAcquire 0x00618e2c
FfxDclOsSemaphoreCreate 0x00618e6c
FfxDclOsSemaphoreDestroy 0x00618ebc
FfxDclOsSemaphoreInfo 0x00618ef8
FfxDclOsSemaphoreRelease 0x00618f10
TestUint64IsEqualUint64 0x00618f4c
TestUint64AssignUint16 0x00619034
TestUint64AssignUint32 0x00619114
TestUint64AssignUint64 0x00619204
TestUint64AddUint16 0x006192bc
TestUint64AddUint32 0x006193e4
TestUint64AddUint64 0x0061950c
TestUint64SubUint16 0x00619620
TestUint64SubUint32 0x00619748
TestUint64SubUint64 0x00619870
TestUint64MulUint16 0x00619984
TestUint64MulUint32 0x00619ab0
TestUint64DivUint32 0x00619bdc
TestUint64ModUint32 0x00619cf0
TestUint64GreaterUint32 0x00619e04
TestUint64GreaterUint64 0x00619f00
TestUint64LessUint32 0x0061a014
TestUint64LessUint64 0x0061a110
FfxDclTest64BitMath 0x0061a224
TestCompileTimeBugs 0x0061a898
TestRunTimeBugs 0x0061a8e8
DclTestCompilerBugs 0x0061a918
FfxDclTestDateTime 0x0061aa00
FfxDclTestByteOrderConversion 0x0061b468
FfxDclEccGenerate 0x0061c974
FfxDclFatMoveBPB 0x0061ca64
FfxDclFatDeriveFSIDFromBootRecord 0x0061ccac
FfxDclFatDeriveFSIDFromBPB 0x0061ce40
FfxDriverCompactionSuspend 0x0061cfb4
FfxDriverCompactionDeinit 0x0061d048
FfxDriverCompactionResume 0x0061d138
FfxDriverCompactionInit 0x0061d1a0
CompactionThread 0x0061d34c
FfxDriverFormatFileSystem 0x0061d424
FfxMediaMgrInstanceCreate 0x0061d4a0
FfxMediaMgrInstanceDestroy 0x0061d5bc
FfxMediaMgrWriteToLnu 0x0061d5c0
FfxMediaMgrReadFromLnu 0x0061d614
FfxMediaMgrReadHeader 0x0061d668
FfxMediaMgrReadLnuHeader 0x0061d700
FfxMediaMgrFormatUnit 0x0061d734
FfxMediaMgrFormatLnu 0x0061d7bc
FfxMediaMgrCalcEUHDataUnitBlocks 0x0061d7e0
FfxMediaMgrReadLnuAllocations 0x0061d848
FfxMediaMgrDiscardLnuAllocations 0x0061d87c
FfxMediaMgrExpendLnuAllocations 0x0061d8f8
FfxMediaMgrParameterGet 0x0061d9a8
FfxMediaMgrParameterSet 0x0061d9cc
FfxMediaMgrBlankCheck 0x0061d9f0
FfxMediaMgrVerify 0x0061da54
FfxMediaMgrIsNand 0x0061dab8
FfxMMIsErasedAlloc 0x0061db04
FfxMMDataBlockNum 0x0061db34
checksum 0x0061db50
FfxMMParseEUH 0x0061db9c
FfxMMBuildEUH 0x0061ddb8
ReadBlocks 0x0061e004
WriteBlocks 0x0061e09c
DiscardAllocations 0x0061e1e4
BlankCheck 0x0061e214
Verify 0x0061e380
AllocEntryPage 0x0061e3ec
ExpendAllocations 0x0061e400
ReadAllocations 0x0061e558
FfxMMNandReadHeader 0x0061e740
FfxMMNandFormatEraseUnit 0x0061e84c
FfxMMNandCalcEUHDataUnitBlocks 0x0061ea10
FfxMMNandDeviceInit 0x0061ea1c
FfxDevLatencyInit 0x0061eac4
Create 0x0061eadc
Destroy 0x0061eccc
ParameterGet 0x0061ed1c
ParameterSet 0x0061edc4
PageWrite 0x0061ee34
HiddenRead 0x0061efa8
HiddenWrite 0x0061f08c
SpareRead 0x0061f218
SpareWrite 0x0061f31c
EraseStart 0x0061f424
ErasePoll 0x0061f524
GetPageStatus 0x0061f534
SetBlockStatus 0x0061f56c
GetBlockStatus 0x0061f5a4
ReadData 0x0061f5dc
ValidatedRead 0x0061f724
PageRead 0x0061f76c
Read 0x0061f7c0
WriteData 0x0061f820
Write 0x0061f9a4
ReadRawPages 0x0061f9cc
WriteRawPages 0x0061faf0
IORequest 0x0061fc18
FfxCalculateCHS 0x0061ff28
FfxFatFormat 0x00620024
TestSetup 0x00620308
TestCleanup 0x00620628
MakeBitErrors 0x00620718
WriteBitErrors 0x00620794
TestSpare 0x00620aa4
TestMain 0x00620cf0
FfxFmslNANDTestEcc 0x00620f30
Test_FMLREAD_CORRECTEDPAGES 0x00621058
Test_FMLREAD_TAGGEDPAGES 0x0062118c
Test_FMLREAD_TAGS 0x006212f4
FfxBbmMapBlock 0x00621988
FfxBbmStatsQuery 0x00621a34
FooFFXBbmBarl1197 0x00621a94
FfxBbmDestroy 0x00621acc
FooFFXBbmBarl1163 0x00621b04
FooFFXBbmBarl1002 0x00621b9c
FooFFXBbmBarl1103 0x00621dd8
FooFFXBbmBarl321 0x00621f18
FfxBbmCreate 0x00622000
FfxBbmAddBadBlock 0x0062222c
FooFFXBbmBarl329 0x006224bc
FooFFXBbmBarl360 0x00622508
FooFFXBbmBarl975 0x00622624
FooFFXBbmBarl417 0x00622674
FooFFXBbmBarl948 0x0062268c
FooFFXBbmBarl368 0x006226cc
FooFFXBbmBarl966 0x00622774
FooFFXBbmBarl954 0x0062292c
FooFFXBbmBarl1050 0x00622960
FooFFXBbmBarl327 0x00622b40
FooFFXBbmBarl1180 0x00622c74
FooFFXBbmBarl431 0x006230f8
FooFFXBbmBarl956 0x00623238
FooFFXBbmBarl1012 0x00623344
FooFFXBbmBarl177 0x006234f4
FooFFXBbmBarl1119 0x006236c0
FooFFXBbmBarl345 0x006237a8
FooFFXBbmBarl310 0x006238fc
FooFFXBbmBarl1056 0x006239b0
FfxBbmProcessBadBlock 0x00623a10
FooFFXBbmBarl1257 0x00623e50
FooFFXBbmBarl1212 0x0062411c
FooFFXBbmBarl1236 0x00624248
FooFFXBbmBarl319 0x0062432c
FooFFXBbmBarl137 0x006245b0
FooFFXBbmBarl316 0x006245e0
FfxHookBbmFormatBlock 0x006246ec
FfxFatBuildBPB 0x006246f4
FfxFatBuildBootRecord 0x00624914
cpuPwrArchLibInit 0x00624c20
vxArchCStateSet 0x00624c4c
vxC1StateSet 0x00624c5c
elfPpcRel24Reloc 0x00624c98
elfPpcAddr32Reloc 0x00624d84
elfPpcAddr24Reloc 0x00624d98
elfPpcAddr16Reloc 0x00624e54
elfPpcAddr16LoReloc 0x00624ed0
elfPpcAddr16HiReloc 0x00624ee4
elfPpcAddr16HaReloc 0x00624efc
elfPpcAddr14Reloc 0x00624f1c
elfPpcRel14Reloc 0x00624fd8
elfPpcUaddr32Reloc 0x00625098
elfPpcUaddr16Reloc 0x006250ac
elfPpcRel32Reloc 0x00625128
elfPpcEmbNaddr32Reloc 0x00625140
elfPpcEmbNaddr16Reloc 0x00625154
elfPpcEmbNaddr16LoReloc 0x006251d0
elfPpcEmbNaddr16HiReloc 0x006251e4
elfPpcEmbNaddr16HaReloc 0x006251fc
elfArchRelocationSelect 0x0062521c
elfArchReloc 0x00625664
elfArchVerify 0x00625814
ffsLsb 0x00625af4
ffsMsb 0x00625afc
objArchLibInit 0x00625b08
objVerifyTrap 0x00625b24
trcFuncStartGet 0x00625bf8
trcLvlInfoGet 0x00625d20
trcPrologueFrameAllocated 0x00625e08
trcTopInfoGet 0x00625e50
trcArgsGet 0x006261a8
trcSyscallCheck 0x00626278
_sigCtxRtnValSet 0x00626304
_sigCtxStackEnd 0x0062630c
_sigCtxSetup 0x00626314
vxIOArchProbe 0x00626438
vxbSwap16 0x0062643c
vxbSwap32 0x00626450
vxbSpecialRead8 0x00626468
vxbSpecialRead16 0x00626498
vxbSpecialRead32 0x006264c8
vxbSpecialWrite8 0x006264f8
vxbSpecialWrite16 0x00626528
vxbSpecialWrite32 0x00626558
vxbSwap64 0x00626588
vxbWrite64 0x006265f8
vxbRead64 0x006266c8
_archIORead8 0x006267c0
_archIOWrite8 0x006267cc
_archIORead16 0x006267e0
_archIOWrite16 0x006267ec
_archIORead32 0x00626800
_archIOWrite32 0x0062680c
vxbRead8 0x00626820
_vxbMemRead8 0x00626838
_vxbIoRead8 0x00626840
_vxbOrderedRead8 0x00626850
_vxbMemSwapRead8 0x00626868
_vxbIoSwapRead8 0x00626870
_vxbOrderedSwapRead8 0x00626880
_vxbSpecialRead8 0x0062688c
vxbRead16 0x006268a0
_vxbMemRead16 0x006268b8
_vxbIoRead16 0x006268c0
_vxbOrderedRead16 0x006268d0
_vxbMemSwapRead16 0x006268e8
_vxbIoSwapRead16 0x006268f0
_vxbOrderedSwapRead16 0x00626900
_vxbSpecialRead16 0x0062690c
vxbRead32 0x00626920
_vxbMemRead32 0x00626938
_vxbIoRead32 0x00626940
_vxbOrderedRead32 0x00626950
_vxbMemSwapRead32 0x00626968
_vxbIoSwapRead32 0x00626970
_vxbOrderedSwapRead32 0x00626980
_vxbSpecialRead32 0x0062698c
vxbWrite8 0x006269a0
_vxbMemWrite8 0x006269b8
_vxbIoWrite8 0x006269c0
_vxbOrderedWrite8 0x006269d0
_vxbMemSwapWrite8 0x006269e8
_vxbIoSwapWrite8 0x006269f0
_vxbOrderedSwapWrite8 0x00626a00
_vxbSpecialWrite8 0x00626a0c
vxbWrite16 0x00626a20
_vxbMemWrite16 0x00626a38
_vxbIoWrite16 0x00626a40
_vxbOrderedWrite16 0x00626a50
_vxbMemSwapWrite16 0x00626a68
_vxbIoSwapWrite16 0x00626a70
_vxbOrderedSwapWrite16 0x00626a80
_vxbSpecialWrite16 0x00626a8c
vxbWrite32 0x00626aa0
_vxbMemWrite32 0x00626ab8
_vxbIoWrite32 0x00626ac0
_vxbOrderedWrite32 0x00626ad0
_vxbMemSwapWrite32 0x00626ae8
_vxbIoSwapWrite32 0x00626af0
_vxbOrderedSwapWrite32 0x00626b00
_vxbSpecialWrite32 0x00626b0c
vxMemArchProbeInit 0x00626b10
vxMemProbeTrap 0x00626b40
vxMemArchProbe 0x00626c74
vxMemProbeSup 0x00626db0
vmpxx 0x00626dd0
_vmpByte 0x00626dd8
_vmpByteRead 0x00626dd8
_vmpByteWrite 0x00626de4
_vmpByteEnd 0x00626df0
_vmpShort 0x00626df8
_vmpShortRead 0x00626df8
_vmpShortWrite 0x00626e04
_vmpShortEnd 0x00626e10
_vmpWord 0x00626e18
_vmpWordRead 0x00626e18
_vmpWordWrite 0x00626e24
_vmpWordEnd 0x00626e30
cacheArchLibInit 0x00626e38
cacheTypeChk 0x00627080
cacheAim60xEnableI 0x006270c8
cacheAim60xEnableD 0x0062710c
cacheArchEnable 0x00627220
cacheAim60xDisableIFromMmu 0x00627270
cacheAim60xDisableI 0x006272ac
cacheAim60xDisableDFromMmu 0x006272d4
cacheAim60xDisableD 0x0062736c
cacheArchDisableFromMmu 0x00627394
cacheIsOnI 0x006273e4
cacheIsOnD 0x00627410
cacheAim60xInv_I 0x0062743c
cacheAim60xInv_AllI 0x00627490
cacheAim60xTextUpdt 0x006274e4
cacheArchDmaMalloc 0x00627538
memPartcacheArchDmaMalloc 0x00627638
cacheArchDmaFree 0x0062773c
memPartcacheArchDmaFree 0x006277e8
cachePpcDisable 0x0062789c
cachePpcEnable 0x006278a0
cacheAim60xEnableI_Impl 0x006278a4
cacheAim60xEnableD_Impl 0x006278cc
cacheAim60xDisableI_Impl 0x006278f4
cacheAim60xDisableD_Impl 0x00627918
cacheAim60xClearAllD 0x00627920
cacheAim60xFlushAllD 0x00627928
cacheAim60xInvalidateAllD 0x00627930
cacheAim60xGlobalOps 0x00627934
cachePpcDisableLoadDtlb 0x00627970
cachePpcDisableLoad 0x00627984
cachePpcDisableStore 0x00627994
cachePpcInvalidateD 0x006279a8
cachePpcFlashInv 0x006279bc
cachePpcGlobalDone 0x006279cc
cachePpcDisableLoadItlb 0x006279d4
cacheArchOK 0x006279d8
cacheAim60xInvalidateAllI 0x006279e4
endInvalidateI 0x00627a08
cacheAim60xInvalidateI 0x00627a10
cacheAim60xInvalidateD 0x00627a30
cacheAim60xClearD 0x00627a4c
cacheAim60xFlushD 0x00627a68
cacheAim60xPipeFlush 0x00627a84
cacheAim60xTextUpdate 0x00627a94
ctuLoop 0x00627a9c
cplusXtorGet 0x00627ac4
cplusXtorSet 0x00627acc
cplusDtors 0x00627ad4
callAllDtors 0x00627b8c
cplusCtors 0x00627bbc
callAllCtors 0x00627c74
aimCacheValid 0x00627ca4
aimCacheRoundAddrDown 0x00627cd8
aimCacheRoundAddrUp 0x00627cec
aimCacheFuncCall 0x00627d20
aimCacheInit 0x00627d78
aimCacheEnable 0x00628368
aimCacheDisable 0x006283fc
aimCacheVirtFlush 0x00628494
aimCacheVirtInvalidate 0x006285a4
aimCacheVirtClear 0x006286b0
aimCacheVirtClearCombined 0x006287bc
aimCacheTextUpdate 0x0062882c
aimCacheTextUpdateCombined 0x00628900
_d_dtoll 0x00628984
__dtoll 0x00628a8c
_d_lltod 0x00628ab8
__lltod 0x00628b3c
sfpDoubleNormalize 0x00628b78
sfpDoubleNormalize2 0x00628de4
__lsl64 0x00628fe0
__asr64 0x0062901c
__lsr64 0x00629064
ipcom_in_checksum_update2_asm 0x006290ac
chk_loop 0x006290ec
chk3 0x006290f4
chk2 0x006290fc
chk1 0x00629104
chk0 0x0062910c
no_halfword 0x00629128
no_byte 0x0062913c
ipcom_memcpy_asm 0x00629158
check_hword_align 0x0062918c
hword_loop 0x006291a8
word_align 0x006291fc
word_copy 0x0062921c
word_copy_cont 0x00629224
word_loop 0x00629248
wcopy3 0x00629250
wcopy2 0x00629258
wcopy1 0x00629260
wcopy0 0x00629268
byte_copy 0x00629280
byte_copy_cont 0x00629288
byte_loop 0x006292ac
bcopy3 0x006292b4
bcopy2 0x006292bc
bcopy1 0x006292c4
bcopy0 0x006292cc
ipcom_in_checksum_memcpy_asm 0x006292d4
scpy_check_hword_align 0x00629318
scpy_hword_loop 0x0062934c
scpy_hwcopy3 0x00629358
scpy_hwcopy2 0x00629364
scpy_hwcopy1 0x00629370
scpy_hwcopy0 0x0062937c
scpy_word_align 0x00629394
scpy_word_copy 0x006293b8
scpy_word_copy_cont 0x006293c0
scpy_word_loop 0x006293e4
scpy_wcopy3 0x006293f0
scpy_wcopy2 0x006293fc
scpy_wcopy1 0x00629408
scpy_wcopy0 0x00629414
scpy_byte_copy 0x0062942c
scpy_byte_loop 0x00629448
scpy_bcopy3 0x00629458
scpy_bcopy2 0x00629464
scpy_bcopy1 0x00629474
scpy_bcopy0 0x00629480
scpy_trailing_bytes 0x00629484
trailing_loop 0x00629488
no_shift 0x006294a8
scpy_end 0x006294b4
scpy_trailing_end 0x006294b4
ipcom_heap_sort_downheap 0x006294e4
ipcom_heap_sort 0x006295d4
ipcom_ipproto_name 0x006296a4
ipcom_cmsg_nxthdr 0x006298cc
ipcom_create_ipproduct 0x00629958
ipcom_start 0x00629b3c
ipcom_mask_to_prefixlen 0x00629c80
ipcom_sockaddr_to_prefixlen 0x00629ce0
ipcom_pkt_copy 0x00629d1c
ipcom_pkt_alloc_info 0x00629d88
ipcom_pkt_get_info 0x00629de0
ipcom_pkt_set_info 0x00629e28
ipcom_pkt_get_info_safe 0x00629e84
ipcom_pkt_copy_info 0x00629eb4
ipcom_pkt_get_length 0x00629f38
ipcom_pkt_get_data 0x00629f60
ipcom_pkt_make_linear 0x00629fa4
ipcom_patricia_search 0x0062a02c
ipcom_route_walk_subtree 0x0062a0a4
ipcom_route_init_subtree_mask_cb 0x0062a188
ipcom_route_init_subtree_mask2 0x0062a1d4
ipcom_route_free_subtree_cb 0x0062a1e8
ipcom_route_next_entry 0x0062a240
ipcom_route_first_entry 0x0062a2a4
ipcom_route_new_table 0x0062a2e8
ipcom_route_free_table 0x0062a3f4
ipcom_route_remove 0x0062a43c
ipcom_route_walk_tree 0x0062a570
ipcom_route_walk_tree_backwards 0x0062a610
ipcom_route_key_cmp 0x0062a7f4
ipcom_route_lookup 0x0062a958
ipcom_patricia_insert 0x0062aab0
ipcom_route_add 0x0062ad20
ipcom_route_init_subtree_mask 0x0062ad80
ipcom_set_index 0x0062ad88
ipcom_set_new 0x0062adec
ipcom_set_delete 0x0062ae40
ipcom_set_clone 0x0062ae7c
ipcom_set_remove 0x0062af30
ipcom_set_remove_all 0x0062afe4
ipcom_set_contains 0x0062b024
ipcom_set_add 0x0062b060
ipcom_set_equal 0x0062b108
ipcom_set_subtract 0x0062b19c
ipcom_set_union 0x0062b1f4
ipcom_set_intersection 0x0062b260
ipcom_set_for_each 0x0062b2d4
ipcom_inet_ntoa 0x0062b32c
ipcom_inet_addr 0x0062b370
ipcom_inet_aton 0x0062b3b0
ipcom_getprotobyname 0x0062b3c0
ipcom_getprotobynumber 0x0062b3c8
ipcom_sysvar_get_conf 0x0062b3d0
ipcom_sysvar_set_conf 0x0062b4ec
ipcom_sysvar_get_conf_as_int 0x0062b590
ipcom_usr_create 0x0062b604
ipcom_parse_argstr 0x0062b698
ipcom_str_in_list 0x0062b854
ipcom_proc_free 0x0062b954
ipcom_proc_malloc 0x0062b990
ipcom_getline_getone 0x0062b9fc
ipcom_getline_putraw 0x0062ba6c
ipcom_getline_putone 0x0062bb04
ipcom_getline_putbuf 0x0062bbdc
ipcom_getline_left_arrow 0x0062bc34
ipcom_getline_right_arrow 0x0062bd1c
ipcom_getline_cursor_home 0x0062bdfc
ipcom_getline_cursor_end 0x0062be60
ipcom_getline_backspace 0x0062becc
ipcom_getline_ctrl_d 0x0062bfe0
ipcom_getline_paste_clipboard 0x0062c058
ipcom_getline_right_kill 0x0062c18c
ipcom_getline_window_resize 0x0062c294
ipcom_getline_up_arrow 0x0062c514
ipcom_getline_down_arrow 0x0062c604
ipcom_getline_add_history 0x0062c6d4
ipcom_getline_restore_history 0x0062c7ac
ipcom_getline_save_history 0x0062c840
ipcom_getline_init 0x0062c8d0
ipcom_getline_exit 0x0062c944
ipcom_getline 0x0062c9c0
ipcom_tmo2_pqueue_cmp_func 0x0062ce48
ipcom_tmo2_pqueue_store_index 0x0062ceb4
ipcom_tmo2_new 0x0062cebc
ipcom_tmo2_delete 0x0062ced0
ipcom_tmo2_request_timeval 0x0062ced4
ipcom_tmo2_request 0x0062cf80
ipcom_tmo2_cancel 0x0062cfc8
ipcom_tmo2_reset 0x0062d004
ipcom_tmo2_get 0x0062d060
ipcom_tmo2_select 0x0062d0f4
ipcom_pipe_register_type_int 0x0062d3c0
ipcom_pipe_init 0x0062d47c
ipcom_pipe_attr_init 0x0062d52c
ipcom_pipe_new 0x0062d538
ipcom_pipe_free 0x0062d620
ipcom_pipe_register_type 0x0062d664
ipcom_free 0x0062d6b0
ipcom_calloc 0x0062d6c0
ipcom_realloc 0x0062d6c4
ipcom_malloc 0x0062d6c8
ipcom_cache_line_size 0x0062d6e8
ipcom_socketpair_udp 0x0062d6f0
ipcom_drv_ppp_open 0x0062d840
ipcom_drv_ppp_init 0x0062d8e0
ipcom_drv_ppp_exit 0x0062da60
ipcom_drv_ppp_ioctl 0x0062dad8
ipcom_drv_ppp_inputd 0x0062dcf4
ipcom_drv_ppp_output 0x0062e064
ipcom_drv_ppp_outputd 0x0062e100
ipcom_drv_ppp_if_init 0x0062e1e0
ipcom_drv_ppp_create_cb 0x0062e31c
ipcom_drv_ppp_create 0x0062e388
ipcom_qsort 0x0062e454
ipcom_bsearch 0x0062e458
ipcom_isascii 0x0062e45c
ipcom_abort 0x0062e474
ipcom_exit 0x0062e478
ipcom_getuid 0x0062e47c
ipcom_ifaddrs_free 0x0062e484
ipcom_create_ifaddrs_entry 0x0062e4f0
ipcom_create_ifaddrs_inet 0x0062e5d0
ipcom_getifaddrs 0x0062e684
ipcom_freeifaddrs 0x0062e850
ipcom_job_queue_pipe_try_recv_locked 0x0062e8ec
ipcom_job_queue_pipe_try_send_locked 0x0062e97c
ipcom_job_queue_pipe_dtor_helper 0x0062e9ec
ipcom_job_queue_pipe_dtor 0x0062ea54
ipcom_job_queue_pipe_new 0x0062ea5c
ipcom_job_queue_pipe_send 0x0062eb14
ipcom_job_queue_pipe_try_send 0x0062eba4
ipcom_job_queue_pipe_try_recv 0x0062ebec
ipcom_job_queue_pipe_recv 0x0062ec48
ipcom_pipe_job_queue_create 0x0062ec50
ipcom_job_queue_pipe_schedule 0x0062ecb4
ipcom_perror 0x0062ecc0
ipcom_signal 0x0062ecc4
ipcom_times 0x0062eccc
ipcom_generic_pipe_try_recv_locked 0x0062ed54
ipcom_generic_pipe_try_send_locked 0x0062ede4
ipcom_generic_pipe_dtor_helper 0x0062ee64
ipcom_generic_pipe_dtor 0x0062eea8
ipcom_generic_pipe_new_fifo 0x0062eeb0
ipcom_generic_pipe_send 0x0062ef4c
ipcom_generic_pipe_try_send 0x0062efdc
ipcom_generic_pipe_recv_with_tmo 0x0062f024
ipcom_generic_pipe_recv 0x0062f0d0
ipcom_pipe_generic_create 0x0062f11c
ipcom_lockless_pipe_dtor_helper 0x0062f170
ipcom_lockless_pipe_dtor 0x0062f1a4
ipcom_lockless_pipe_new_fifo 0x0062f1ac
ipcom_lockless_pipe_poll_send 0x0062f238
ipcom_lockless_pipe_send 0x0062f2c4
ipcom_lockless_pipe_try_send 0x0062f2cc
ipcom_lockless_pipe_poll_recv 0x0062f2d4
ipcom_lockless_pipe_recv 0x0062f368
ipcom_lockless_pipe_recv_with_tmo 0x0062f390
ipcom_pipe_lockless_create 0x0062f470
ipcom_memory_pool_free 0x0062f4c4
ipcom_memory_pool_alloc 0x0062f508
ipcom_slab_get_size 0x0062f588
ipcom_slab_dtor_objs 0x0062f658
ipcom_slab_garbage_collect 0x0062f6bc
ipcom_memory_pool_garbage_collect 0x0062f758
ipcom_cmd_slab 0x0062f7b4
ipcom_slab_init 0x0062f980
ipcom_memory_pool_new 0x0062f9d4
ipcom_slab_new 0x0062fa70
ipcom_slab_add 0x0062fb30
ipcom_slab_alloc_try 0x0062fc6c
ipcom_slab_alloc_from 0x0062fd98
ipcom_slab_free 0x0062fe3c
ipcom_slab_get_objects_per_slab 0x0062ff38
ipcom_atomic_get 0x00630058
ipcom_atomic_set 0x0063005c
ipcom_atomic_add 0x00630060
ipcom_atomic_add_and_return 0x00630064
ipcom_atomic_inc 0x00630094
ipcom_atomic_dec 0x00630098
ipcom_atomic_sub 0x0063009c
ipcom_atomic_sub_and_return 0x006300a0
ipcom_job_action_auto_clean 0x006300d0
ipcom_singleton_job_action 0x0063010c
ipcom_job_queue_prio_to_vxjob_prio 0x00630150
ipcom_job_queue_init 0x0063018c
ipcom_job_queue_singleton_new 0x00630218
ipcom_job_queue_singleton_delete 0x0063027c
ipcom_job_queue_schedule_singleton 0x006302bc
ipcom_job_queue_schedule_singleton_delayed 0x00630304
ipcom_job_queue_schedule 0x006303bc
ipcom_spinlock_create 0x0063043c
ipcom_spinlock_delete 0x0063044c
ipcom_windnet_socketclose 0x0063045c
ipcom_windnet_socketwrite 0x006304a4
ipcom_windnet_socketread 0x006304b0
ipcom_windnet_socket 0x006304bc
ipcom_windnet_accept 0x00630530
ipcom_windnet_bind 0x006305b4
ipcom_windnet_connect 0x006305bc
ipcom_windnet_connect_with_timeout 0x006305c4
ipcom_windnet_getpeername 0x00630734
ipcom_windnet_getsockname 0x0063073c
ipcom_windnet_getsockopt 0x00630744
ipcom_windnet_setsockopt 0x0063074c
ipcom_windnet_listen 0x00630798
ipcom_windnet_recv 0x006307a0
ipcom_windnet_recvfrom 0x006307c4
ipcom_windnet_recvmsg 0x006307e8
ipcom_windnet_send 0x0063080c
ipcom_windnet_sendto 0x00630830
ipcom_windnet_sendmsg 0x00630854
ipcom_windnet_shutdown 0x00630878
ipcom_windnet_socklib_init_cb 0x00630880
ipcom_windnet_socklib_init 0x0063088c
ipcom_windnet_socketwritev 0x00630944
ipcom_windnet_select_poll 0x00630990
ipcom_windnet_select_add_node 0x00630a30
ipcom_windnet_select_remove_node 0x00630abc
ipcom_windnet_socketioctl 0x00630b28
ipcom_windnet_socket_eventcb 0x00630d38
ipcom_windnet_socklib_sock_size 0x00630de8
ipcom_windnet_socklib_socket_init 0x00630df0
ipcom_windnet_socklib_socket_free 0x00630e2c
ipcom_wv_marker_1 0x00630ec4
ipcom_wv_marker_2 0x00630f80
ipcom_wv_event_2 0x00631040
OPENSSL_DIR_read 0x00631100
OPENSSL_DIR_end 0x0063112c
rsa_builtin_keygen 0x00631158
RSA_generate_key_ex 0x006316e8
dh_cb 0x0063177c
d2i_DHparams 0x006317e8
i2d_DHparams 0x006317f4
ENGINE_set_load_privkey_function 0x00631810
ENGINE_set_load_pubkey_function 0x0063181c
ENGINE_set_load_ssl_client_cert_function 0x00631828
ENGINE_get_load_privkey_function 0x00631834
ENGINE_get_load_pubkey_function 0x0063183c
ENGINE_get_ssl_client_cert_function 0x00631844
ENGINE_load_private_key 0x0063184c
ENGINE_load_public_key 0x00631944
ENGINE_load_ssl_client_cert 0x00631a3c
BIO_s_mem 0x00631bb0
BIO_new_mem_buf 0x00631bbc
mem_new 0x00631c68
mem_free 0x00631cc0
mem_read 0x00631d3c
mem_write 0x00631e2c
mem_ctrl 0x00631ee4
mem_gets 0x00632048
mem_puts 0x006320e4
BIO_s_null 0x00632190
null_new 0x0063219c
null_free 0x006321b8
null_read 0x006321c4
null_write 0x006321cc
null_ctrl 0x006321d4
null_gets 0x006321f8
null_puts 0x00632200
BIO_s_socket 0x00632220
BIO_new_socket 0x0063222c
sock_new 0x0063227c
sock_free 0x00632298
sock_ctrl 0x00632308
BIO_sock_non_fatal_error 0x006323c8
BIO_sock_should_retry 0x00632414
sock_read 0x00632478
sock_write 0x006324f4
sock_puts 0x0063256c
conn_state 0x006325c0
BIO_CONNECT_new 0x00632b1c
BIO_CONNECT_free 0x00632ba8
BIO_s_connect 0x00632bfc
conn_new 0x00632c08
conn_close_socket 0x00632c54
conn_free 0x00632cb0
conn_read 0x00632d1c
conn_write 0x00632dbc
conn_ctrl 0x00632e50
conn_callback_ctrl 0x00633178
conn_puts 0x0063319c
BIO_new_connect 0x006331e8
BIO_f_buffer 0x006332dc
buffer_new 0x006332e8
buffer_free 0x006333c8
buffer_read 0x00633448
buffer_write 0x006335bc
buffer_ctrl 0x0063376c
buffer_callback_ctrl 0x00633b38
buffer_gets 0x00633b6c
buffer_puts 0x00633c94
BIO_get_port 0x00633d34
BIO_sock_error 0x00633f14
BIO_gethostbyname 0x00633f60
BIO_sock_init 0x00633f64
BIO_sock_cleanup 0x00633f6c
BIO_socket_ioctl 0x00633f70
get_ip 0x00633fc4
BIO_get_host_ip 0x006340a4
BIO_get_accept_socket 0x00634128
BIO_accept 0x006344b4
BIO_set_tcp_ndelay 0x006345f0
BIO_socket_nbio 0x006345f8
BIO_s_accept 0x00634724
BIO_ACCEPT_new 0x00634730
acpt_new 0x00634798
BIO_ACCEPT_free 0x006347fc
acpt_close_socket 0x00634860
acpt_free 0x006348bc
acpt_state 0x00634928
acpt_read 0x00634b7c
acpt_write 0x00634bf0
acpt_ctrl 0x00634c64
acpt_puts 0x00634ed4
BIO_new_accept 0x00634f20
BIO_f_nbio_test 0x00634fec
nbiof_new 0x00634ff8
nbiof_free 0x00635064
nbiof_read 0x006350bc
nbiof_write 0x00635168
nbiof_ctrl 0x0063523c
nbiof_callback_ctrl 0x006352d0
nbiof_gets 0x00635304
nbiof_puts 0x0063531c
BIO_s_bio 0x006353a0
bio_new 0x006353ac
bio_read 0x00635414
bio_nread0 0x0063555c
bio_nread 0x00635614
bio_write 0x006356b8
bio_nwrite0 0x006357e0
bio_nwrite 0x006358d0
bio_puts 0x00635948
bio_make_pair 0x00635990
bio_destroy_pair 0x00635abc
bio_ctrl 0x00635b00
bio_free 0x00635f94
BIO_new_bio_pair 0x00635ff8
BIO_ctrl_get_write_guarantee 0x006360f4
BIO_ctrl_get_read_request 0x00636104
BIO_ctrl_reset_read_request 0x00636114
BIO_nread0 0x00636148
BIO_nread 0x006361b8
BIO_nwrite0 0x00636238
BIO_nwrite 0x006362a8
BIO_s_datagram 0x006363d4
BIO_new_dgram 0x006363e0
dgram_new 0x00636430
dgram_clear 0x006364ac
dgram_free 0x0063651c
dgram_write 0x0063657c
dgram_ctrl 0x00636624
dgram_puts 0x00636a28
BIO_dgram_non_fatal_error 0x00636a74
BIO_dgram_should_retry 0x00636ac8
dgram_read 0x00636b2c
EVP_enc_null 0x00636c7c
null_init_key 0x00636c88
null_cipher 0x00636c90
PEM_def_callback 0x00636cc8
PEM_proc_type 0x00636db8
PEM_dek_info 0x00636e60
PEM_ASN1_read 0x00636f40
check_pem 0x00636fe0
PEM_do_header 0x00637294
load_iv 0x0063740c
PEM_get_EVP_CIPHER_INFO 0x006374f4
PEM_write_bio 0x00637758
PEM_write 0x006379a8
PEM_ASN1_write_bio 0x00637a40
PEM_ASN1_write 0x00637d9c
PEM_read_bio 0x00637e54
PEM_read 0x006383e8
PEM_bytes_read_bio 0x00638480
PEM_read_bio_X509_REQ 0x0063888c
PEM_read_X509_REQ 0x006388b8
PEM_write_bio_X509_REQ 0x006388e4
PEM_write_X509_REQ 0x00638934
PEM_write_bio_X509_REQ_NEW 0x00638984
PEM_write_X509_REQ_NEW 0x006389d4
PEM_read_bio_X509_CRL 0x00638a24
PEM_read_X509_CRL 0x00638a50
PEM_write_bio_X509_CRL 0x00638a7c
PEM_write_X509_CRL 0x00638acc
PEM_read_bio_PKCS7 0x00638b1c
PEM_read_PKCS7 0x00638b48
PEM_write_bio_PKCS7 0x00638b74
PEM_write_PKCS7 0x00638bc4
PEM_read_bio_NETSCAPE_CERT_SEQUENCE 0x00638c14
PEM_read_NETSCAPE_CERT_SEQUENCE 0x00638c40
PEM_write_bio_NETSCAPE_CERT_SEQUENCE 0x00638c6c
PEM_write_NETSCAPE_CERT_SEQUENCE 0x00638cbc
pkey_get_rsa 0x00638d0c
PEM_read_bio_RSAPrivateKey 0x00638d70
PEM_read_RSAPrivateKey 0x00638da4
PEM_write_bio_RSAPrivateKey 0x00638dd8
PEM_write_RSAPrivateKey 0x00638e34
PEM_read_bio_RSAPublicKey 0x00638e90
PEM_read_RSAPublicKey 0x00638ebc
PEM_write_bio_RSAPublicKey 0x00638ee8
PEM_write_RSAPublicKey 0x00638f38
PEM_read_bio_RSA_PUBKEY 0x00638f88
PEM_read_RSA_PUBKEY 0x00638fb4
PEM_write_bio_RSA_PUBKEY 0x00638fe0
PEM_write_RSA_PUBKEY 0x00639030
pkey_get_dsa 0x00639080
PEM_read_bio_DSAPrivateKey 0x006390e4
PEM_write_bio_DSAPrivateKey 0x00639118
PEM_write_DSAPrivateKey 0x00639174
PEM_read_bio_DSA_PUBKEY 0x006391d0
PEM_read_DSA_PUBKEY 0x006391fc
PEM_write_bio_DSA_PUBKEY 0x00639228
PEM_write_DSA_PUBKEY 0x00639278
PEM_read_DSAPrivateKey 0x006392c8
PEM_read_bio_DSAparams 0x006392fc
PEM_read_DSAparams 0x00639328
PEM_write_bio_DSAparams 0x00639354
PEM_write_DSAparams 0x006393a4
PEM_read_bio_DHparams 0x006393f4
PEM_read_DHparams 0x00639420
PEM_write_bio_DHparams 0x0063944c
PEM_write_DHparams 0x0063949c
PEM_write_bio_PrivateKey 0x006394ec
PEM_write_PrivateKey 0x00639578
PEM_read_bio_PUBKEY 0x00639604
PEM_read_PUBKEY 0x00639630
PEM_write_bio_PUBKEY 0x0063965c
PEM_write_PUBKEY 0x006396ac
PEM_read_bio_X509 0x006397ac
PEM_read_X509 0x006397d8
PEM_write_bio_X509 0x00639804
PEM_write_X509 0x00639854
PEM_ASN1_read_bio 0x006398b0
PEM_read_bio_PrivateKey 0x006399c0
PEM_read_PrivateKey 0x00639c2c
X509_STORE_set_default_paths 0x00639d70
X509_STORE_load_locations 0x00639e08
null_callback 0x00639edc
find_issuer 0x00639ee0
check_issued 0x00639f68
get_issuer_sk 0x00639fdc
check_chain_extensions 0x0063a04c
check_trust 0x0063a324
check_cert 0x0063a3ac
check_revocation 0x0063a474
cert_crl 0x0063a4f0
check_policy 0x0063a638
X509_time_adj 0x0063a778
X509_gmtime_adj 0x0063a804
X509_cmp_time 0x0063a80c
check_crl_time 0x0063aa34
get_crl_sk 0x0063aba0
get_crl 0x0063ac8c
check_crl 0x0063ad30
check_cert_time 0x0063aeac
internal_verify 0x0063afa4
X509_cmp_current_time 0x0063b154
X509_get_pubkey_parameters 0x0063b15c
X509_verify_cert 0x0063b288
X509_STORE_CTX_get_ex_new_index 0x0063b7e0
X509_STORE_CTX_set_ex_data 0x0063b7fc
X509_STORE_CTX_get_ex_data 0x0063b804
X509_STORE_CTX_get_error 0x0063b80c
X509_STORE_CTX_set_error 0x0063b814
X509_STORE_CTX_get_error_depth 0x0063b81c
X509_STORE_CTX_get_current_cert 0x0063b824
X509_STORE_CTX_get_chain 0x0063b82c
X509_STORE_CTX_get1_chain 0x0063b834
X509_STORE_CTX_set_cert 0x0063b8d4
X509_STORE_CTX_set_chain 0x0063b8dc
X509_STORE_CTX_set0_crls 0x0063b8e4
X509_STORE_CTX_purpose_inherit 0x0063b8ec
X509_STORE_CTX_set_trust 0x0063ba10
X509_STORE_CTX_set_purpose 0x0063ba20
X509_STORE_CTX_new 0x0063ba30
X509_STORE_CTX_init 0x0063baa4
X509_STORE_CTX_trusted_stack 0x0063bd28
X509_STORE_CTX_cleanup 0x0063bd3c
X509_STORE_CTX_free 0x0063bdf8
X509_STORE_CTX_set_depth 0x0063be28
X509_STORE_CTX_set_flags 0x0063be30
X509_STORE_CTX_set_time 0x0063be38
X509_STORE_CTX_set_verify_cb 0x0063be44
X509_STORE_CTX_get0_policy_tree 0x0063be4c
X509_STORE_CTX_get_explicit_policy 0x0063be54
X509_STORE_CTX_set_default 0x0063be5c
X509_STORE_CTX_get0_param 0x0063bea4
X509_STORE_CTX_set0_param 0x0063beac
X509_certificate_type 0x0063bfbc
X509_LOOKUP_new 0x0063c0b8
X509_LOOKUP_free 0x0063c140
X509_LOOKUP_init 0x0063c19c
X509_LOOKUP_shutdown 0x0063c1f0
X509_LOOKUP_ctrl 0x0063c244
X509_LOOKUP_by_subject 0x0063c298
X509_LOOKUP_by_issuer_serial 0x0063c2f8
X509_LOOKUP_by_fingerprint 0x0063c344
X509_LOOKUP_by_alias 0x0063c390
x509_object_cmp 0x0063c3dc
X509_STORE_new 0x0063c448
cleanup 0x0063c50c
X509_STORE_free 0x0063c560
X509_STORE_add_lookup 0x0063c60c
X509_OBJECT_up_ref_count 0x0063c6ac
X509_OBJECT_free_contents 0x0063c708
X509_OBJECT_idx_by_subject 0x0063c734
X509_OBJECT_retrieve_by_subject 0x0063c7a8
X509_STORE_get_by_subject 0x0063c7f0
X509_OBJECT_retrieve_match 0x0063c8b8
X509_STORE_add_crl 0x0063c984
X509_STORE_add_cert 0x0063ca90
X509_STORE_CTX_get1_issuer 0x0063cb98
X509_STORE_set_flags 0x0063cd30
X509_STORE_set_depth 0x0063cd38
X509_STORE_set_purpose 0x0063cd60
X509_STORE_set_trust 0x0063cd68
X509_STORE_set1_param 0x0063cd70
X509_verify_cert_error_string 0x0063cdcc
tr_cmp 0x0063d720
X509_TRUST_set_default 0x0063d738
X509_TRUST_get_count 0x0063d748
X509_TRUST_get0 0x0063d780
X509_TRUST_get_by_id 0x0063d7b8
X509_check_trust 0x0063d81c
X509_TRUST_set 0x0063d884
X509_TRUST_add 0x0063d8f4
trtable_free 0x0063da34
X509_TRUST_cleanup 0x0063da84
X509_TRUST_get_flags 0x0063dae8
X509_TRUST_get0_name 0x0063daf0
X509_TRUST_get_trust 0x0063daf8
trust_compat 0x0063db00
obj_trust 0x0063db4c
trust_1oid 0x0063dc18
trust_1oidany 0x0063dc34
X509_LOOKUP_file 0x0063dd88
X509_load_cert_file 0x0063dd94
X509_load_crl_file 0x0063df34
X509_load_cert_crl_file 0x0063e0d4
by_file_ctrl 0x0063e204
X509_LOOKUP_hash_dir 0x0063e330
new_dir 0x0063e33c
free_dir 0x0063e3cc
add_cert_dir 0x0063e474
dir_ctrl 0x0063e6bc
get_cert_by_subject 0x0063e768
x509_verify_param_zero 0x0063ea70
X509_VERIFY_PARAM_new 0x0063eadc
X509_VERIFY_PARAM_free 0x0063eb30
X509_VERIFY_PARAM_set1_name 0x0063eb60
X509_VERIFY_PARAM_set_flags 0x0063ebbc
X509_VERIFY_PARAM_clear_flags 0x0063ebe0
X509_VERIFY_PARAM_get_flags 0x0063ebf4
X509_VERIFY_PARAM_set_purpose 0x0063ebfc
X509_VERIFY_PARAM_set_trust 0x0063ec04
X509_VERIFY_PARAM_set_depth 0x0063ec0c
X509_VERIFY_PARAM_set_time 0x0063ec14
X509_VERIFY_PARAM_add0_policy 0x0063ec28
X509_VERIFY_PARAM_set1_policies 0x0063ec94
X509_VERIFY_PARAM_inherit 0x0063ed84
X509_VERIFY_PARAM_set1 0x0063ef00
X509_VERIFY_PARAM_get_depth 0x0063ef10
table_cmp 0x0063ef18
param_cmp 0x0063ef24
X509_VERIFY_PARAM_add0_table 0x0063ef38
X509_VERIFY_PARAM_lookup 0x0063efd4
X509_VERIFY_PARAM_table_cleanup 0x0063f048
tree_link_nodes 0x0063f108
tree_link_any 0x0063f1c0
tree_prune 0x0063f2cc
tree_add_auth_node 0x0063f3f8
tree_calculate_authority_set 0x0063f47c
tree_calculate_user_set 0x0063f58c
tree_evaluate 0x0063f708
exnode_free 0x0063f7c0
X509_policy_tree_free 0x0063f7f8
tree_init 0x0063f8bc
X509_policy_check 0x0063fba4
X509_policy_tree_level_count 0x0063fd74
X509_policy_tree_get0_level 0x0063fd8c
X509_policy_tree_get0_policies 0x0063fdc0
X509_policy_tree_get0_user_policies 0x0063fdd8
X509_policy_level_node_count 0x0063fe04
X509_policy_level_get0_node 0x0063fe5c
X509_policy_node_get0_policy 0x0063feac
X509_policy_node_get0_qualifiers 0x0063fec8
X509_policy_node_get0_parent 0x0063fee4
node_cmp 0x0063fefc
policy_node_cmp_new 0x0063ff18
tree_find_sk 0x0063ff24
level_find_node 0x0063ff7c
policy_node_free 0x0063ff84
level_add_node 0x0063ff88
TXT_DB_read 0x006400fc
TXT_DB_get_by_index 0x00640444
TXT_DB_create_index 0x006404b4
TXT_DB_write 0x006405cc
TXT_DB_insert 0x00640730
TXT_DB_free 0x00640870
COMP_CTX_new 0x00640a98
COMP_CTX_free 0x00640b2c
COMP_compress_block 0x00640b80
COMP_expand_block 0x00640be0
COMP_rle 0x00640c94
rle_compress_block 0x00640ca0
rle_expand_block 0x00640cf8
COMP_zlib 0x00640d70
COMP_zlib_cleanup 0x00640d7c
OCSP_REQUEST_get_ext_count 0x00640d88
OCSP_REQUEST_get_ext_by_NID 0x00640d94
OCSP_REQUEST_get_ext_by_OBJ 0x00640da0
OCSP_REQUEST_get_ext_by_critical 0x00640dac
OCSP_REQUEST_get_ext 0x00640db8
OCSP_REQUEST_delete_ext 0x00640dc4
OCSP_REQUEST_get1_ext_d2i 0x00640dd0
OCSP_REQUEST_add1_ext_i2d 0x00640ddc
OCSP_REQUEST_add_ext 0x00640de8
OCSP_ONEREQ_get_ext_count 0x00640e18
OCSP_ONEREQ_get_ext_by_NID 0x00640e20
OCSP_ONEREQ_get_ext_by_OBJ 0x00640e28
OCSP_ONEREQ_get_ext_by_critical 0x00640e30
OCSP_ONEREQ_get_ext 0x00640e38
OCSP_ONEREQ_delete_ext 0x00640e40
OCSP_ONEREQ_get1_ext_d2i 0x00640e48
OCSP_ONEREQ_add1_ext_i2d 0x00640e50
OCSP_ONEREQ_add_ext 0x00640e58
OCSP_BASICRESP_get_ext_count 0x00640e84
OCSP_BASICRESP_get_ext_by_NID 0x00640e90
OCSP_BASICRESP_get_ext_by_OBJ 0x00640e9c
OCSP_BASICRESP_get_ext_by_critical 0x00640ea8
OCSP_BASICRESP_get_ext 0x00640eb4
OCSP_BASICRESP_delete_ext 0x00640ec0
OCSP_BASICRESP_get1_ext_d2i 0x00640ecc
OCSP_BASICRESP_add1_ext_i2d 0x00640ed8
OCSP_BASICRESP_add_ext 0x00640ee4
OCSP_SINGLERESP_get_ext_count 0x00640f14
OCSP_SINGLERESP_get_ext_by_NID 0x00640f1c
OCSP_SINGLERESP_get_ext_by_OBJ 0x00640f24
OCSP_SINGLERESP_get_ext_by_critical 0x00640f2c
OCSP_SINGLERESP_get_ext 0x00640f34
OCSP_SINGLERESP_delete_ext 0x00640f3c
OCSP_SINGLERESP_get1_ext_d2i 0x00640f44
OCSP_SINGLERESP_add1_ext_i2d 0x00640f4c
OCSP_SINGLERESP_add_ext 0x00640f54
ASN1_STRING_encode 0x00640f80
ocsp_add1_nonce 0x006410dc
OCSP_request_add1_nonce 0x006411b8
OCSP_basic_add1_nonce 0x006411c4
OCSP_check_nonce 0x006411d0
OCSP_copy_nonce 0x00641278
OCSP_crlID_new 0x006412d4
OCSP_accept_responses_new 0x006413f8
OCSP_archive_cutoff_new 0x006414e4
OCSP_url_svcloc_new 0x00641594
OCSP_REQ_CTX_free 0x00641754
OCSP_sendreq_new 0x006417a0
parse_http_line1 0x006418b4
OCSP_sendreq_nbio 0x00641ad8
OCSP_sendreq_bio 0x00641ea0
OCSP_cert_id_new 0x00641fcc
OCSP_cert_to_id 0x00642120
OCSP_id_issuer_cmp 0x006421ac
OCSP_id_cmp 0x00642210
OCSP_parse_url 0x0064224c
OCSP_request_add0_id 0x00642504
OCSP_request_set1_name 0x00642578
OCSP_request_add1_cert 0x006425fc
OCSP_request_sign 0x006426c0
OCSP_response_status 0x00642814
OCSP_response_get1_basic 0x0064281c
OCSP_resp_count 0x006428b4
OCSP_resp_get0 0x006428d0
OCSP_resp_find 0x006428ec
OCSP_single_get0_status 0x00642980
OCSP_resp_find_status 0x00642a20
OCSP_check_validity 0x00642a98
OCSP_request_onereq_count 0x00642cc0
OCSP_request_onereq_get0 0x00642ccc
